ccopy_reg
_reconstructor
p0
(ciovideocache
Channel
p1
c__builtin__
object
p2
Ntp3
Rp4
(dp5
S'name'
p6
Vnigahiga
p7
sS'videos'
p8
(lp9
g0
(ciovideocache
Video
p10
g2
Ntp11
Rp12
(dp13
S'title'
p14
VNinja Feeds The Homeless!
p15
sS'url'
p16
Vhttp://www.youtube.com/watch?v=NO4rdx145q0&feature=youtube_gdata_player
p17
sS'image'
p18
Vhttp://i.ytimg.com/vi/NO4rdx145q0/0.jpg
p19
sS'video_id'
p20
VNO4rdx145q0
p21
sS'score'
p22
F3.6249847062209826
sS'individual_scores'
p23
(lp24
F3.532986111111111
aF2.7833333333333328
aF4.0
aF3.8472222222222223
aF3.294444444444445
aF3.6249999999999996
aF2.055555555555556
aF3.6388888888888893
aF3.333333333333333
aF3.6875
aF3.462752525252526
aF3.595238095238096
aF3.0740740740740744
aF3.0347222222222223
aF3.5151515151515156
aF4.111111111111112
aF1.7453703703703705
aF4.097222222222222
aF3.9930555555555554
aF3.566666666666666
aF1.097222222222222
aF4.125
aF3.777777777777778
aF3.8402777777777777
aF3.8958333333333335
aF4.083333333333333
aF4.041666666666667
aF3.3611111111111107
aF4.402777777777778
aF3.7314814814814814
aF3.24561403508772
aF3.3697916666666665
aF4.222222222222222
aF3.9820261437908497
aF3.2638888888888893
aF1.097222222222222
aF2.494444444444445
aF2.5000000000000004
aF2.8287037037037037
aF4.138888888888889
aF2.006944444444444
aF4.027777777777778
aF3.699074074074074
aF4.152777777777779
aF4.194444444444445
aF3.871527777777778
aF1.097222222222222
aF3.962301587301588
aF3.864583333333333
aF4.222222222222222
aF3.8402777777777777
aF2.5805555555555557
aF3.719444444444444
aF3.1157407407407405
aF3.967592592592593
aF3.7453703703703702
aF4.006944444444445
aF2.25
aF4.222222222222222
aF4.361111111111112
aF3.814814814814815
aF2.361111111111111
aF4.157407407407407
aF4.104166666666666
aF4.148148148148148
aF3.655092592592593
aF4.097222222222222
aF3.7569444444444446
aF0.6250000000000001
aF4.0777777777777775
aF4.222222222222222
aF2.8194444444444446
aF4.078703703703704
aF2.055555555555556
aF3.9930555555555554
aF4.12037037037037
aF3.9149305555555554
aF4.072916666666667
aF3.939814814814815
aF3.486111111111111
aF3.9907407407407405
aF4.097222222222222
aF3.4953703703703702
aF2.6018518518518516
aF3.972222222222222
aF3.0017361111111107
aF3.657407407407407
aF3.9236111111111107
aF3.267361111111111
aF4.340277777777778
aF2.6064814814814814
aF0.5972222222222223
aF4.111111111111111
aF3.9305555555555554
aF4.416666666666667
aF4.159722222222222
aF4.097222222222222
aF4.199074074074074
aF2.236111111111111
aF2.3472222222222223
aF4.111111111111111
aF4.041666666666666
aF4.25925925925926
aF3.5138888888888884
aF4.125
aF2.6597222222222223
aF4.083333333333334
aF3.2239583333333335
aF4.013888888888889
aF4.208333333333334
aF3.8660714285714293
aF4.15
aF4.3657407407407405
aF3.7847222222222223
aF4.375
aF4.375
aF1.097222222222222
aF3.7539682539682535
aF2.689814814814815
aF3.3722222222222227
aF3.9201388888888884
aF3.8263888888888893
aF3.7048611111111107
aF4.25
aF3.263888888888889
aF3.5238095238095233
aF4.402777777777778
aF4.861111111111112
aF4.087962962962963
aF3.8611111111111107
aF2.6527777777777777
aF4.083333333333333
aF3.84375
aF4.083333333333334
aF3.7690972222222223
aF3.5972222222222228
aF3.9965277777777777
aF3.319444444444444
aF3.9097222222222223
aF3.125
aF3.060185185185185
aF4.097222222222222
aF2.0763888888888893
aF2.236111111111111
aF4.052083333333333
aF3.3638888888888885
aF3.361111111111111
aF3.375
aF4.090277777777778
aF4.375
aF3.847222222222222
aF4.569444444444444
aF3.916666666666667
aF3.4722222222222228
aF3.961111111111111
aF4.027777777777778
aF4.097222222222222
aF4.064814814814814
aF4.03125
aF3.8611111111111107
aF3.8958333333333335
aF3.5972222222222223
aF4.288194444444445
aF3.6805555555555554
aF3.805555555555556
aF4.1342592592592595
aF1.78858024691358
aF4.107638888888889
aF4.145833333333334
aF4.152777777777778
aF1.6944444444444446
aF3.7569444444444446
aF4.284722222222222
aF3.8194444444444446
aF3.199074074074074
aF4.047839506172839
aF4.62037037037037
aF4.944444444444445
aF3.448412698412698
aF4.375
aF4.277777777777778
aF3.92283950617284
aF4.088675213675215
aF3.375
aF4.506944444444445
aF3.9814814814814814
aF2.9938271604938267
aF3.9236111111111107
aF4.232638888888888
aF3.8194444444444446
aF3.913888888888889
aF4.097222222222222
aF4.416666666666667
aF3.9131944444444446
aF3.736111111111111
aF3.5861111111111112
aF4.236111111111111
aF4.083333333333334
aF4.0092592592592595
aF3.575757575757576
aF2.810185185185185
aF3.356481481481481
aF4.638888888888889
aF4.25462962962963
aF4.106481481481481
aF3.8703703703703702
aF4.208333333333333
aF3.842592592592593
aF3.313888888888889
aF4.083333333333333
aF4.131944444444445
aF3.3211805555555554
aF3.8842592592592595
aF4.472222222222221
aF4.861111111111112
aF3.1284722222222223
aF3.9722222222222223
aF3.9805555555555556
aF3.9930555555555554
aF3.805555555555556
aF3.0527777777777776
aF4.097222222222222
aF3.4513888888888893
aF4.017857142857143
aF2.3472222222222223
aF2.9618055555555554
aF3.6203703703703702
aF4.375
aF4.1875
aF3.375
aF3.7333333333333343
aF4.194444444444445
aF3.819444444444444
aF3.2870370370370368
aF1.965277777777778
aF4.111111111111112
aF3.972222222222222
aF2.6875
aF3.6442307692307696
aF0.6250000000000001
aF0.513888888888889
aF3.986111111111111
aF3.58531746031746
aF4.097222222222222
aF3.176388888888889
aF3.427777777777778
aF3.5972222222222223
aF3.3888888888888884
aF4.125
aF3.5625
aF3.1712962962962963
aF3.4513888888888893
aF2.854166666666667
aF3.7962962962962963
aF4.0625
aF4.284722222222222
aF3.863247863247863
aF3.45216049382716
aF4.038194444444445
aF4.375
aF3.9797979797979806
aF3.7777777777777777
aF3.9111111111111114
aF3.730555555555555
aF3.102777777777778
aF3.8958333333333335
aF3.666666666666667
aF3.197916666666667
aF3.5218253968253967
aF4.125
aF3.8958333333333335
aF3.4900793650793647
aF3.7083333333333335
aF4.097222222222222
aF3.0416666666666665
aF3.8125
aF3.847222222222222
aF3.8865740740740744
aF3.059992283950617
aF3.5
aF2.236111111111111
aF3.3472222222222228
aF3.548611111111111
aF4.402777777777778
aF4.097222222222222
aF4.944444444444445
aF3.626388888888889
aF4.097222222222222
aF4.486111111111111
aF3.4189814814814814
aF4.064814814814815
aF4.416666666666667
aF3.572916666666667
aF4.329861111111111
aF2.7881944444444446
aF3.5694444444444446
aF2.9375
aF4.061111111111111
aF2.9212962962962963
aF3.9895833333333335
aF4.416666666666667
aF2.913559941520468
aF3.5659722222222223
aF0.8194444444444443
aF3.0277777777777777
aF1.097222222222222
aF4.145833333333334
aF3.979166666666667
aF2.834722222222222
aF3.777777777777778
aF4.430555555555555
aF3.5138888888888893
aF4.944444444444445
aF4.416666666666667
aF4.434027777777779
aF3.3495370370370376
aF3.514880952380952
aF0.375
aF2.689814814814815
aF3.949074074074074
aF4.1990740740740735
aF3.916666666666667
aF3.342592592592593
aF4.141203703703703
aF3.375
aF3.8472222222222228
aF4.375
aF4.180555555555555
aF2.647222222222222
aF4.328703703703703
aF3.5138888888888893
aF4.006944444444445
aF3.3194444444444446
aF3.3496732026143796
aF2.5902777777777777
aF3.7708333333333335
aF4.25
aF2.6319444444444446
aF3.972222222222222
aF3.5972222222222223
aF3.672222222222222
aF4.111111111111112
aF4.097222222222222
aF4.513888888888888
aF4.203703703703703
aF2.2222222222222223
aF3.4861111111111116
aF1.8518518518518519
aF3.8888888888888893
aF3.895833333333333
aF2.930555555555556
aF3.658950617283951
aF3.7569444444444446
aF4.097222222222222
aF3.715277777777778
aF4.017361111111111
aF4.143518518518519
aF2.729166666666667
aF4.111111111111112
aF3.4722222222222223
aF4.166666666666667
aF4.152777777777779
aF4.402777777777778
aF4.236111111111112
aF4.375
aF4.225
aF3.8796296296296298
aF3.0555555555555554
aF3.8611111111111107
aF3.8958333333333335
aF4.222222222222222
aF3.0875603864734305
aF4.624999999999999
aF3.9861111111111116
aF3.298611111111111
aF3.8333333333333335
aF3.9382716049382713
aF4.064814814814814
aF3.7731481481481484
aF3.8402777777777777
aF4.038888888888889
aF3.8796296296296298
aF3.8611111111111107
aF4.375
aF4.25
aF2.6444444444444444
aF3.451388888888889
aF3.9561965811965814
aF4.069444444444445
aF4.180555555555556
aF3.5416666666666665
aF3.1328125000000004
aF4.048611111111111
aF3.0853174603174596
aF3.7916666666666665
aF3.9305555555555554
aF4.597222222222222
aF3.3968253968253976
aF3.333333333333333
aF4.083333333333333
aF1.5648148148148149
aF4.097222222222222
aF3.680555555555556
aF4.402777777777778
aF2.118055555555556
aF3.7569444444444446
aF3.7569444444444446
aF3.8125
aF4.722222222222222
aF3.8329124579124576
aF2.472222222222222
aF3.1965811965811968
aF0.9097222222222221
aF4.222222222222222
aF3.808641975308642
aF2.861111111111111
aF3.8273809523809517
aF4.569444444444445
aF4.583333333333333
aF3.467592592592593
aF4.125
aF4.092592592592593
aF4.222222222222222
aF3.8080808080808084
aF4.412037037037037
aF2.4583333333333335
aF4.194444444444445
aF4.125
aF3.4513888888888893
aF0.5972222222222223
aF3.891666666666667
aF3.9930555555555554
aF0.7777777777777777
aF4.631944444444445
aF3.972222222222222
aF3.7962962962962963
aF3.75
aF3.5995370370370368
aF3.9375
aF3.7694444444444444
aF4.412037037037037
aF3.444444444444444
aF3.2672101449275353
aF4.083333333333334
aF2.013888888888889
aF3.3506944444444446
aF1.3849206349206347
aF4.194444444444445
aF2.8715277777777777
aF2.5972222222222223
aF4.159722222222222
aF4.111111111111112
aF3.2013888888888893
aF4.611111111111112
aF3.9537037037037037
aF3.114583333333333
aF3.9833333333333334
aF2.4375
aF3.9548611111111107
aF3.989583333333334
aF4.944444444444445
aF2.831018518518519
aF4.013888888888889
aF3.3559027777777772
aF3.4449786324786325
aF2.1597222222222223
aF4.194444444444445
aF4.375
aF3.944444444444444
aF3.913888888888889
aF4.222222222222222
aF3.753968253968254
aF3.416666666666667
aF4.944444444444445
aF3.708333333333333
aF4.3125
aF4.023148148148148
aF3.8518518518518525
aF4.127777777777778
aF2.8287037037037037
aF3.702546296296296
aF2.5483091787439616
aF4.347222222222221
aF3.248263888888889
aF2.4513888888888893
aF3.9143518518518516
aF3.1166666666666667
aF4.225
aF3.7962962962962963
aF3.5069444444444446
aF0.5486111111111112
aF2.9944444444444445
aF4.097222222222222
aF4.083333333333333
aF2.3888888888888893
aF3.9201388888888893
aF3.770833333333333
aF2.3402777777777777
aF3.032407407407408
aF3.954861111111111
aF0.8055555555555555
aF3.5972222222222223
aF4.305555555555555
aF4.097222222222222
aF2.7569444444444446
aF2.54783950617284
aF3.430555555555556
aF4.569444444444444
aF4.944444444444445
aF3.916666666666667
aF3.805555555555556
aF3.46875
aF1.097222222222222
aF4.416666666666667
aF3.751984126984127
aF4.326388888888889
aF3.907407407407407
aF3.5329861111111116
aF4.298611111111111
aF4.064814814814815
aF2.3472222222222223
aF4.025
aF3.9687499999999996
aF2.33179012345679
aF1.7453703703703705
aF4.944444444444445
aF4.375
aF3.881172839506173
aF3.8194444444444446
aF3.416666666666667
aF3.4097222222222223
aF1.1666666666666667
aF4.097222222222222
aF3.677083333333334
aF4.319444444444444
aF3.890151515151515
aF3.866666666666667
aF4.423611111111111
aF2.113425925925926
aF4.375
aF4.232638888888889
aF4.111111111111112
aF3.844907407407408
aF0.8055555555555555
aF3.8472222222222223
aF3.1736111111111107
aF4.361111111111112
aF3.7870370370370363
aF3.9745370370370368
aF3.0625
aF4.375
aF1.8541666666666665
aF3.0694444444444446
aF4.333333333333333
aF4.152777777777778
aF4.048611111111111
aF3.0439814814814814
aF4.152777777777778
aF4.180555555555555
aF0.638888888888889
aF3.826388888888889
aF4.270833333333334
aF3.9111111111111114
aF3.7239583333333335
aF3.986111111111111
aF3.872685185185185
aF4.256944444444445
aF3.8940972222222223
aF4.666666666666667
aF4.569444444444444
aF3.803240740740741
aF3.8958333333333335
aF3.6611111111111114
aF3.5995370370370376
aF4.064814814814816
aF3.131313131313131
aF3.305555555555555
aF3.0046296296296298
aF3.930555555555556
aF3.819444444444444
aF4.097222222222222
aF3.7569444444444446
aF3.7690972222222223
aF3.1527777777777772
aF2.2569444444444446
aF4.097222222222222
aF3.6000000000000005
aF0.513888888888889
aF3.3888888888888884
aF4.018518518518519
aF3.7013888888888893
aF2.743055555555556
aF3.233333333333333
aF4.217592592592593
aF4.090277777777779
aF3.4027777777777777
aF1.9212962962962965
aF4.127777777777777
aF4.104166666666666
aF3.9166666666666665
aF4.416666666666667
aF3.986111111111111
aF4.277777777777778
aF3.9340277777777777
aF4.416666666666667
aF3.826388888888889
aF3.9861111111111116
aF2.7361111111111107
aF1.097222222222222
aF3.3981481481481484
aF2.291666666666667
aF3.8229166666666665
aF4.222222222222222
aF4.00462962962963
aF3.9444444444444446
aF4.041666666666666
aF2.8087606837606836
aF2.8784722222222223
aF3.8657407407407405
aF3.5065359477124187
aF3.587962962962963
aF3.8981481481481484
aF4.944444444444445
aF3.9722222222222228
aF3.847222222222222
aF3.8774801587301586
aF3.5972222222222223
aF3.8181818181818183
aF1.097222222222222
aF3.729166666666667
aF3.5405092592592595
aF3.9916666666666663
aF4.222222222222222
aF4.09375
aF4.326388888888889
aF4.125
aF4.409722222222222
aF1.097222222222222
aF4.050925925925926
aF4.097222222222222
aF4.0
aF4.361111111111112
aF4.086111111111111
aF3.979166666666667
aF4.944444444444445
aF3.7129629629629632
aF3.9768518518518525
aF1.9861111111111112
aF4.125
aF4.15
aF4.1875
aF4.083333333333334
aF4.097222222222222
aF3.240740740740741
aF4.375
aF4.861111111111112
aF3.847222222222222
aF3.875
aF4.236111111111112
aF3.944444444444444
aF4.361111111111112
aF4.083333333333333
aF2.680555555555556
aF3.375
aF3.916666666666667
aF4.361111111111112
aF3.743055555555556
aF0.375
aF4.944444444444445
aF3.854166666666667
aF4.131944444444445
aF3.9861111111111116
aF3.7291666666666665
aF3.7527777777777778
aF4.722222222222222
aF2.75
aF4.097222222222222
aF4.083333333333333
aF4.569444444444444
aF3.2465277777777777
aF3.861111111111112
aF4.24537037037037
aF4.194444444444445
aF4.402777777777778
aF1.9583333333333335
aF4.166666666666667
aF3.375
aF0.8055555555555555
aF4.861111111111112
aF3.8842592592592595
aF2.6435185185185186
aF4.194444444444445
aF3.759920634920634
aF4.513888888888888
aF3.0416666666666665
aF4.058333333333333
aF1.8541666666666665
aF3.5972222222222223
aF3.6388888888888893
aF3.9351851851851856
aF3.6111111111111116
aF2.939814814814815
aF3.75
aF4.402777777777778
aF4.222222222222222
aF4.402777777777778
aF3.3555555555555556
aF3.5083333333333337
aF4.222222222222222
aF3.96875
aF4.015873015873015
aF3.877314814814815
aF1.8263888888888886
aF4.222222222222222
aF1.097222222222222
aF3.0
aF3.9666666666666663
aF4.101851851851851
aF3.9236111111111107
aF3.9120370370370368
aF3.4384920634920633
aF0.9652777777777777
aF4.375
aF3.6805555555555554
aF3.5439814814814814
aF4.222222222222222
aF2.5347222222222223
aF4.402777777777778
aF3.6331699346405237
aF4.111111111111112
aF4.083333333333333
aF4.5
aF4.1875
aF3.6388888888888893
aF3.9652777777777777
aF4.072916666666666
aF4.375
aF1.097222222222222
aF3.896604938271605
aF3.708333333333334
aF4.270833333333334
aF3.7534722222222223
aF4.243055555555555
aF4.361111111111112
aF3.5023148148148144
aF2.3472222222222223
aF2.1666666666666665
aF2.0
aF4.212962962962963
aF1.9583333333333335
aF3.9189814814814814
aF3.8402777777777777
aF3.375
aF4.083333333333333
aF3.8055555555555554
aF4.111111111111112
aF4.944444444444445
aF4.097222222222222
aF4.215277777777779
aF2.984953703703704
aF4.222222222222222
aF4.222222222222222
aF4.5
aF3.958333333333333
aF1.097222222222222
aF2.7291666666666665
aF4.12962962962963
aF2.65
aF3.416666666666667
aF0.6250000000000001
aF3.854166666666667
aF3.866666666666667
aF2.6222222222222222
aF4.097222222222222
aF4.569444444444444
aF4.111111111111112
aF2.717592592592592
aF3.5652777777777778
aF3.587962962962963
aF4.111111111111112
aF4.944444444444445
aF2.9768518518518525
aF4.222222222222222
aF0.8055555555555555
aF4.277777777777779
aF2.2222222222222223
aF4.296296296296297
aF2.993055555555555
aF3.4583333333333335
aF4.520833333333334
aF4.004166666666666
aF3.927083333333333
aF4.375
aF4.083333333333333
aF4.569444444444444
aF4.022222222222222
aF3.2678571428571423
aF4.222222222222222
aF2.0625
aF4.624999999999999
aF3.9166666666666665
aF4.169444444444444
aF4.182539682539683
aF4.395833333333334
aF3.138888888888889
aF2.0
aF4.236111111111112
aF3.916666666666667
aF4.5
aF4.104166666666667
aF4.291666666666666
aF3.9406565656565657
aF2.083333333333333
aF2.118055555555556
aF4.291666666666667
aF3.375
aF3.7962962962962963
aF4.944444444444445
aF4.328703703703703
aF3.1388888888888893
aF4.666666666666667
aF4.375
aF4.005555555555555
aF4.085648148148148
aF3.805555555555556
aF3.8958333333333335
aF0.9305555555555556
aF3.441239316239316
aF4.013888888888889
aF3.4218749999999996
aF3.375
aF2.763888888888889
aF3.963541666666667
aF4.222222222222222
aF3.5138888888888893
aF2.688888888888889
aF3.9861111111111116
aF3.7453703703703707
aF0.6250000000000001
aF4.569444444444444
aF1.097222222222222
aF4.361111111111112
aF3.291666666666667
aF4.243055555555555
aF3.2870370370370368
aF3.939814814814815
aF4.243055555555555
aF2.236111111111111
aF4.222222222222222
aF2.7916666666666665
aF4.409722222222222
aF4.222222222222222
aF3.975694444444444
aF4.25
aF4.402777777777778
aF3.9953703703703702
aF4.208333333333333
aF3.916666666666667
aF3.8194444444444446
aF3.6875000000000004
aF3.930555555555556
aF4.236111111111111
aF4.270833333333334
aF3.773888888888888
aF3.7013888888888893
aF3.7951388888888893
aF4.133680555555555
aF4.166666666666667
aF4.097222222222222
aF3.8194444444444446
aF3.1284722222222223
aF3.416666666666667
aF3.777777777777778
aF2.708333333333333
aF2.611111111111111
asS'date'
p25
ctime
struct_time
p26
((I2014
I12
I3
I21
I4
I13
I2
I337
I-1
tp27
(dp28
tp29
Rp30
sbag0
(g10
g2
Ntp31
Rp32
(dp33
g14
VProving the Illuminati is Real!
p34
sg16
Vhttp://www.youtube.com/watch?v=03_Tby_ICCw&feature=youtube_gdata_player
p35
sg18
Vhttp://i.ytimg.com/vi/03_Tby_ICCw/0.jpg
p36
sg20
V03_Tby_ICCw
p37
sg22
F3.616888336712809
sg23
(lp38
F3.6249999999999996
aF3.534090909090909
aF3.747685185185185
aF3.467592592592592
aF3.7326388888888893
aF2.819177350427351
aF4.01984126984127
aF4.009722222222223
aF3.479166666666666
aF3.909188034188034
aF3.530092592592592
aF2.2808641975308643
aF3.590277777777778
aF4.083333333333333
aF3.5902777777777777
aF3.6296296296296298
aF3.5972222222222223
aF4.013888888888889
aF3.805555555555556
aF3.5416666666666665
aF0.4861111111111111
aF3.642746913580247
aF3.847222222222222
aF3.805555555555556
aF3.7013888888888893
aF3.8472222222222228
aF1.7453703703703702
aF4.138888888888888
aF3.133333333333333
aF3.666666666666667
aF0.5347222222222222
aF4.263888888888889
aF3.772222222222222
aF3.805555555555556
aF3.9513888888888884
aF4.236111111111112
aF2.671296296296296
aF3.805555555555556
aF3.305555555555555
aF2.5441919191919187
aF3.5253267973856204
aF3.118055555555556
aF0.0
aF3.6388888888888893
aF3.552083333333333
aF4.944444444444445
aF2.8944444444444444
aF3.560185185185185
aF3.7546296296296298
aF3.75
aF3.4583333333333335
aF2.978430134680136
aF4.034722222222222
aF3.776785714285715
aF3.510416666666667
aF3.4027777777777777
aF3.805555555555556
aF3.6759259259259256
aF3.6527777777777772
aF2.5277777777777777
aF4.111111111111112
aF4.085648148148148
aF3.1968599033816427
aF3.161024305555555
aF3.5439814814814814
aF3.9097222222222223
aF2.9861111111111107
aF3.817460317460317
aF3.7013888888888884
aF3.6219135802469133
aF3.372468171296297
aF3.7777777777777772
aF1.0555555555555554
aF3.875
aF3.6527777777777772
aF4.222222222222222
aF4.041666666666667
aF4.036111111111111
aF3.5361111111111105
aF3.486111111111111
aF4.423611111111111
aF3.763888888888889
aF3.3472222222222223
aF3.8402777777777777
aF3.352272727272728
aF3.763888888888889
aF3.575
aF4.361111111111112
aF4.597222222222222
aF4.00462962962963
aF3.899305555555556
aF3.291666666666667
aF3.847222222222222
aF4.375
aF3.6875
aF3.4722222222222223
aF3.460317460317461
aF4.597222222222222
aF3.326388888888889
aF4.277777777777778
aF3.5
aF2.3194444444444446
aF4.225694444444445
aF4.569444444444444
aF3.291666666666667
aF4.833333333333333
aF3.805555555555556
aF4.375
aF3.6678240740740744
aF3.8055555555555554
aF3.826388888888889
aF2.7731481481481484
aF3.75
aF3.5046296296296298
aF3.949074074074074
aF4.597222222222222
aF3.722222222222222
aF3.763888888888889
aF3.4722222222222223
aF3.8472222222222228
aF1.708333333333333
aF3.6851851851851856
aF4.361111111111112
aF3.6666666666666665
aF4.194444444444445
aF3.9097222222222223
aF4.375
aF3.5972222222222223
aF4.624999999999999
aF3.907407407407407
aF3.8333333333333335
aF2.270833333333333
aF4.277777777777778
aF3.708333333333333
aF4.180555555555555
aF3.4027777777777772
aF3.824074074074074
aF3.916666666666667
aF3.75
aF2.719907407407407
aF3.8888888888888884
aF4.00462962962963
aF3.625
aF3.7777777777777777
aF4.375
aF3.9513888888888893
aF4.236111111111111
aF3.4722222222222223
aF3.6111111111111107
aF2.1041666666666665
aF3.291666666666667
aF3.4722222222222223
aF3.291666666666667
aF3.9861111111111107
aF4.166666666666667
aF3.763888888888889
aF4.416666666666667
aF3.671296296296296
aF3.805555555555556
aF2.873015873015873
aF3.3611111111111107
aF2.902777777777778
aF4.097222222222222
aF3.291666666666667
aF3.486111111111111
aF3.805555555555556
aF2.5902777777777777
aF3.9722222222222223
aF2.625
aF3.291666666666667
aF4.277777777777778
aF3.6875
aF3.291666666666667
aF3.6527777777777777
aF4.162037037037037
aF4.236111111111112
aF4.101851851851851
aF4.064814814814815
aF2.518518518518519
aF3.0416666666666665
aF2.8333333333333335
aF3.805555555555556
aF3.4953703703703702
aF3.375
aF3.8
aF3.5486111111111107
aF4.0059523809523805
aF3.6874999999999996
aF3.6527777777777777
aF3.763888888888889
aF4.097222222222222
aF3.4791666666666665
aF3.291666666666667
aF3.881944444444444
aF4.118055555555555
aF3.5819444444444444
aF3.805555555555556
aF4.3125
aF3.666666666666667
aF3.4212962962962963
aF2.201388888888889
aF3.777777777777778
aF3.847222222222222
aF3.8694444444444445
aF4.236111111111112
aF3.38707729468599
aF3.7361111111111107
aF3.291666666666667
aF3.805555555555556
aF3.6805555555555554
aF2.902777777777778
aF4.25
aF3.8916666666666666
aF3.8333333333333335
aF4.354166666666667
aF4.388888888888889
aF4.0092592592592595
aF3.6212121212121215
aF4.032407407407407
aF3.8703703703703702
aF4.111111111111112
aF3.291666666666667
aF3.486111111111111
aF3.3708333333333336
aF3.920634920634921
aF4.375
aF3.763888888888889
aF2.854166666666666
aF4.402777777777778
aF4.263888888888889
aF3.4236111111111116
aF3.9722222222222223
aF3.0046296296296298
aF4.222222222222222
aF4.1759259259259265
aF1.8958333333333335
aF4.611111111111112
aF3.7043650793650795
aF3.9652777777777777
aF4.624999999999999
aF3.8680555555555554
aF3.9861111111111116
aF3.3003472222222223
aF3.425925925925926
aF3.7162698412698414
aF4.138888888888889
aF3.305555555555555
aF0.8333333333333333
aF4.222222222222222
aF3.4444444444444446
aF3.9861111111111107
aF4.152777777777778
aF3.9416666666666664
aF4.111111111111112
aF4.083333333333333
aF3.7569444444444446
aF4.597222222222222
aF4.045138888888889
aF3.763888888888889
aF2.83179012345679
aF3.625
aF2.166666666666667
aF4.291666666666667
aF3.8402777777777777
aF2.3125000000000004
aF3.576388888888889
aF3.708333333333333
aF3.9444444444444446
aF3.805555555555556
aF3.5902777777777777
aF4.305555555555555
aF3.291666666666667
aF4.018518518518519
aF4.138888888888889
aF3.972222222222222
aF4.375
aF3.7361111111111107
aF3.829861111111111
aF3.8888888888888893
aF3.449074074074074
aF3.291666666666667
aF3.329861111111111
aF4.291666666666667
aF3.5277777777777777
aF3.611111111111111
aF4.416666666666667
aF4.180555555555555
aF3.8442982456140347
aF3.8472222222222223
aF3.3125
aF3.9236111111111107
aF4.104166666666667
aF3.7268518518518516
aF3.5972222222222223
aF4.069444444444445
aF3.668478260869566
aF4.097222222222222
aF4.065972222222222
aF3.615740740740741
aF3.5
aF3.4583333333333335
aF4.375
aF3.6805555555555554
aF4.097222222222222
aF4.236111111111111
aF2.722222222222222
aF3.4027777777777777
aF3.4722222222222223
aF2.5462962962962963
aF1.965277777777778
aF3.8981481481481484
aF3.7222222222222223
aF3.8263888888888893
aF3.8402777777777777
aF3.805555555555556
aF3.226190476190476
aF3.305555555555555
aF3.8402777777777777
aF3.875
aF2.731481481481481
aF4.204861111111111
aF3.3611111111111107
aF2.572222222222222
aF3.777777777777778
aF3.763888888888889
aF3.291666666666667
aF3.4722222222222223
aF4.375
aF3.333333333333333
aF3.642361111111111
aF3.708333333333333
aF4.111111111111112
aF3.9120370370370368
aF0.3055555555555555
aF4.375
aF4.111111111111112
aF3.7941919191919196
aF4.263888888888889
aF3.4375
aF3.805555555555556
aF0.5555555555555556
aF3.2420634920634916
aF4.125
aF3.802083333333333
aF3.724826388888889
aF3.3194444444444446
aF3.1166666666666663
aF4.097222222222222
aF3.916666666666667
aF4.291666666666667
aF3.3194444444444446
aF3.604166666666667
aF4.083333333333333
aF3.989583333333333
aF0.7222222222222221
aF2.890625
aF3.8638888888888885
aF3.8611111111111116
aF4.375
aF4.097222222222222
aF3.652777777777778
aF3.813888888888889
aF4.291666666666667
aF4.430555555555555
aF3.805555555555556
aF3.853395061728395
aF3.7731481481481484
aF3.967592592592593
aF2.3472222222222223
aF3.9027777777777777
aF4.375
aF3.6388888888888893
aF3.847222222222222
aF3.105820105820106
aF2.7118055555555554
aF2.2291666666666665
aF4.177083333333334
aF3.6407407407407413
aF3.5902777777777777
aF3.805555555555556
aF3.5972222222222223
aF3.425925925925926
aF2.5833333333333335
aF4.034722222222221
aF3.9220085470085473
aF3.888888888888889
aF3.768518518518519
aF4.111111111111111
aF3.805555555555556
aF3.4722222222222223
aF3.462121212121213
aF3.4027777777777777
aF3.4861111111111107
aF3.291666666666667
aF3.2847222222222214
aF3.805555555555556
aF4.1990740740740735
aF3.4872685185185186
aF3.8402777777777777
aF4.039351851851852
aF3.4672067901234565
aF3.805555555555556
aF3.6944444444444446
aF2.798611111111111
aF0.9305555555555556
aF3.291666666666667
aF0.18055555555555555
aF3.847222222222222
aF4.944444444444445
aF4.263888888888889
aF3.291666666666667
aF3.9027777777777777
aF3.805555555555556
aF3.291666666666667
aF3.430555555555556
aF3.3315972222222223
aF3.291666666666667
aF3.8402777777777777
aF3.4722222222222223
aF3.6296296296296298
aF3.55
aF3.291666666666667
aF3.7847222222222223
aF3.6296296296296298
aF3.7916666666666665
aF2.75
aF3.763888888888889
aF3.4027777777777777
aF3.5972222222222223
aF4.375
aF3.805555555555556
aF3.9212962962962963
aF3.7881944444444446
aF3.6203703703703702
aF3.777777777777778
aF3.6274399399399404
aF3.4722222222222223
aF4.944444444444445
aF3.7592592592592595
asg25
g26
((I2014
I11
I21
I23
I51
I58
I4
I325
I-1
tp39
(dp40
tp41
Rp42
sbag0
(g10
g2
Ntp43
Rp44
(dp45
g14
VEasily Butthurt People!
p46
sg16
Vhttp://www.youtube.com/watch?v=NY4G-wgqQYM&feature=youtube_gdata_player
p47
sg18
Vhttp://i.ytimg.com/vi/NY4G-wgqQYM/0.jpg
p48
sg20
VNY4G-wgqQYM
p49
sg22
F3.5045935465203844
sg23
(lp50
F3.4965277777777772
aF2.2395833333333335
aF2.2100694444444446
aF3.3888888888888893
aF3.6249999999999996
aF4.25
aF2.9097222222222223
aF3.34375
aF3.4490740740740744
aF3.5773809523809526
aF4.138888888888889
aF2.5046296296296293
aF3.959876543209877
aF3.638888888888889
aF3.5053418803418808
aF3.5638888888888904
aF3.3703703703703702
aF3.6777777777777785
aF2.9747474747474745
aF2.982638888888889
aF3.0104166666666665
aF4.194444444444445
aF3.416666666666666
aF2.9411764705882355
aF3.7305555555555565
aF3.401515151515152
aF3.1284722222222223
aF3.6770833333333335
aF3.379960317460317
aF3.532738095238095
aF3.9768518518518516
aF3.152173913043479
aF2.9285714285714284
aF3.744047619047619
aF2.911507936507937
aF3.524553571428572
aF3.484848484848485
aF3.291666666666667
aF3.4458333333333337
aF3.0729166666666665
aF3.2685185185185186
aF2.703703703703704
aF2.2152777777777777
aF3.430555555555556
aF3.928571428571428
aF2.465277777777778
aF3.4027777777777777
aF2.2006172839506175
aF3.1041666666666665
aF3.677777777777778
aF3.725
aF3.3541666666666665
aF3.961805555555556
aF2.2152777777777777
aF3.351851851851852
aF4.013888888888889
aF3.2923611111111115
aF1.9305555555555554
aF2.8796296296296298
aF3.6694444444444443
aF3.875
aF4.208333333333333
aF3.1694444444444443
aF3.486111111111111
aF2.8819444444444446
aF4.013888888888889
aF3.271604938271605
aF3.0257936507936507
aF2.691666666666667
aF0.9305555555555555
aF3.4836182336182344
aF2.343434343434343
aF4.111111111111112
aF3.1722222222222225
aF3.666666666666667
aF2.680555555555556
aF3.8305555555555557
aF3.972222222222222
aF3.375
aF4.1990740740740735
aF3.6087962962962963
aF3.375
aF3.8055555555555554
aF2.7986111111111107
aF2.5496031746031744
aF1.9490740740740742
aF2.6643518518518516
aF3.36863425925926
aF3.202777777777778
aF1.9930555555555554
aF2.6412037037037037
aF3.717592592592593
aF2.9823232323232323
aF1.5462962962962965
aF1.9652777777777777
aF3.3333333333333326
aF3.791666666666667
aF4.805555555555555
aF2.2800925925925926
aF4.277777777777778
aF3.756944444444444
aF3.4890873015873014
aF2.689814814814815
aF2.8214285714285716
aF3.7129629629629632
aF4.0
aF4.1759259259259265
aF3.9880952380952377
aF3.357142857142857
aF4.065972222222222
aF4.604166666666666
aF3.5740740740740744
aF3.777777777777778
aF3.11965811965812
aF3.2926356589147288
aF3.3541666666666665
aF3.975
aF2.572420634920635
aF3.909722222222222
aF3.3833333333333337
aF4.277777777777778
aF3.58756038647343
aF4.597222222222222
aF2.451388888888889
aF2.9930555555555554
aF3.842592592592593
aF3.475
aF1.7465277777777777
aF4.277777777777778
aF3.993055555555555
aF4.243055555555555
aF3.375
aF3.4477339181286557
aF3.5277777777777777
aF3.0428051001821492
aF3.9097222222222223
aF4.125
aF3.0590277777777777
aF2.402777777777778
aF3.7268518518518525
aF4.340277777777779
aF2.548611111111111
aF3.6493055555555554
aF0.9027777777777778
aF4.597222222222222
aF4.513888888888888
aF0.7291666666666665
aF3.21875
aF3.4027777777777777
aF2.729166666666667
aF3.5858585858585856
aF2.361111111111111
aF3.6689814814814814
aF3.2166666666666672
aF3.5
aF3.5666666666666673
aF3.535353535353535
aF4.069444444444445
aF3.365277777777777
aF2.291666666666667
aF4.0166666666666675
aF2.734722222222222
aF3.666666666666667
aF2.979166666666666
aF3.5972222222222223
aF3.6944444444444446
aF0.6111111111111112
aF4.944444444444445
aF4.597222222222222
aF3.5138888888888884
aF4.486111111111111
aF3.0185185185185186
aF4.375
aF3.972222222222222
aF4.715277777777778
aF3.949074074074074
aF3.9687499999999996
aF3.3819444444444446
aF0.9583333333333334
aF3.6388888888888893
aF3.3852880658436217
aF3.9027777777777777
aF3.9722222222222223
aF3.6805555555555554
aF3.6309523809523805
aF1.097222222222222
aF4.277777777777778
aF2.1180555555555554
aF3.7569444444444446
aF3.699074074074074
aF3.375
aF4.791666666666667
aF3.4027777777777777
aF4.013888888888888
aF3.939814814814815
aF3.5729166666666665
aF3.7013888888888893
aF2.318402777777778
aF4.597222222222222
aF0.5555555555555556
aF2.611111111111111
aF3.3611111111111107
aF3.8055555555555554
aF2.2182539682539684
aF4.944444444444445
aF3.847222222222222
aF3.313194444444444
aF4.018518518518518
aF4.041666666666667
aF2.5555555555555554
aF4.013888888888889
aF4.121527777777779
aF4.597222222222222
aF3.625
aF2.6752136752136746
aF3.145833333333333
aF3.6284722222222223
aF2.3541666666666665
aF4.395833333333333
aF4.277777777777778
aF4.277777777777778
aF3.805555555555555
aF3.5972222222222223
aF3.7648809523809526
aF3.020061728395062
aF3.6909722222222223
aF2.694444444444444
aF3.3958333333333335
aF3.5972222222222223
aF2.944444444444444
aF3.333333333333333
aF3.444444444444444
aF3.6666666666666674
aF2.0138888888888893
aF2.6666666666666665
aF3.854166666666667
aF4.208333333333334
aF3.1875
aF0.9027777777777778
aF4.25
aF3.459722222222223
aF0.9722222222222223
aF2.055555555555556
aF3.486111111111111
aF3.4131944444444446
aF2.7893518518518516
aF4.277777777777778
aF1.9930555555555556
aF3.972222222222222
aF3.5972222222222223
aF4.25
aF2.9479166666666665
aF3.958333333333333
aF3.7361111111111107
aF4.944444444444445
aF3.75
aF3.8194444444444446
aF4.118055555555555
aF3.847222222222222
aF3.486111111111111
aF4.180555555555555
aF3.1981481481481486
aF3.972222222222222
aF3.6305555555555555
aF2.7673611111111107
aF3.958333333333333
aF3.7222222222222223
aF3.743055555555556
aF2.5932539682539684
aF3.351388888888889
aF3.0083333333333337
aF3.5694444444444446
aF2.2986111111111107
aF3.8715277777777777
aF2.21875
aF3.113888888888889
aF3.8472222222222223
aF3.708333333333333
aF3.5462962962962963
aF3.2430555555555554
aF2.0972222222222223
aF4.493055555555555
aF2.825396825396825
aF3.6481481481481484
aF3.305555555555555
aF4.291666666666667
aF3.7870370370370368
aF4.305555555555555
aF4.277777777777778
aF0.9027777777777778
aF3.847222222222222
aF4.388888888888889
aF2.8628472222222223
aF1.65
aF3.958333333333333
aF4.319444444444445
aF4.673611111111111
aF3.6736111111111107
aF3.9537037037037037
aF3.6770833333333335
aF3.086111111111111
aF2.7013888888888893
aF3.817460317460317
aF2.673611111111111
aF4.222222222222222
aF3.6249999999999996
aF2.9652777777777777
aF2.4826388888888893
aF1.7361111111111114
aF3.5277777777777777
aF2.9166666666666665
aF3.875
aF3.847222222222222
aF3.724206349206349
aF3.9027777777777777
aF3.520833333333333
aF4.097222222222222
aF4.091666666666667
aF4.194444444444444
aF4.055555555555555
aF4.0625
aF3.847222222222222
aF3.111111111111111
aF4.277777777777778
aF3.5972222222222223
aF4.270833333333334
aF3.6736111111111107
aF3.7222222222222223
aF4.159722222222222
aF4.152777777777778
aF2.5902777777777777
aF3.9305555555555554
aF3.875
aF4.277777777777778
aF2.5111111111111115
aF3.2858796296296293
aF3.930555555555556
aF3.964285714285714
aF3.847222222222222
aF2.657407407407407
aF4.375
aF2.9340277777777777
aF3.7314814814814823
aF0.9305555555555556
aF0.6111111111111112
aF4.236111111111112
aF2.8055555555555554
aF1.172222222222222
aF3.9027777777777777
aF0.3055555555555555
aF4.326388888888888
aF3.1333333333333337
aF2.6620370370370368
aF4.722222222222222
aF3.8101851851851856
aF3.6805555555555562
aF3.677777777777778
aF3.927083333333333
aF4.013888888888889
aF3.9722222222222228
aF3.2777777777777772
aF3.44949494949495
aF3.3611111111111107
aF3.6458333333333335
aF3.5638888888888887
aF3.958333333333333
aF3.763888888888889
aF4.041666666666667
aF3.704861111111111
aF2.8159722222222223
aF3.805555555555556
aF3.375
aF3.2388888888888885
aF2.3472222222222223
aF2.197916666666667
aF3.7916666666666665
aF3.6111111111111107
aF3.7222222222222223
aF3.9236111111111107
aF4.180555555555555
aF4.624999999999999
aF2.5842013888888897
aF3.333333333333334
aF2.90462962962963
aF3.375
aF1.1666666666666667
aF3.824074074074074
aF4.393518518518519
aF3.902777777777778
aF4.055555555555555
aF3.5972222222222223
aF3.9027777777777772
aF3.65
aF4.25
aF4.069444444444444
aF4.236111111111112
aF2.104166666666667
aF3.1833333333333336
aF3.0208333333333335
aF4.041666666666666
aF3.305555555555556
aF4.597222222222222
aF3.854166666666666
aF2.2118055555555554
aF3.930555555555556
aF4.402777777777778
aF3.283564814814815
aF3.8388888888888895
aF3.061111111111111
aF4.944444444444445
aF3.847222222222222
aF0.18055555555555555
aF3.895833333333334
aF3.416666666666667
aF3.673611111111111
aF3.8472222222222223
aF4.336805555555555
aF3.916666666666667
aF3.770833333333333
aF4.277777777777778
aF4.34375
aF3.3715277777777777
aF3.9398148148148153
aF3.9444444444444446
aF2.75
aF3.5416666666666665
aF3.8055555555555554
aF3.354166666666666
aF3.375
aF3.6682098765432105
aF4.388888888888889
aF3.422619047619048
aF3.631313131313132
aF4.161111111111111
aF1.986111111111111
aF4.277777777777778
aF4.0
aF2.1631944444444446
aF4.087962962962963
aF3.875
aF4.0532407407407405
aF3.8055555555555554
aF3.375
aF4.277777777777778
aF4.013888888888889
aF4.506944444444445
aF4.375
aF3.3472222222222223
aF4.097222222222222
aF4.236111111111112
aF3.430555555555556
aF2.0902777777777777
aF3.916666666666667
aF2.2916666666666665
aF3.638888888888889
aF4.597222222222222
aF3.7083333333333335
aF3.6704545454545454
aF3.465277777777778
aF3.5879629629629632
aF4.597222222222222
aF4.055555555555555
aF4.416666666666667
aF3.53125
aF3.9365079365079367
aF3.6597222222222223
aF3.7129629629629632
aF4.087962962962963
aF2.7129629629629624
aF3.3518518518518516
aF3.7847222222222223
aF4.118055555555555
aF0.9305555555555556
aF0.7222222222222221
aF3.189814814814815
aF3.3078703703703702
aF4.291666666666667
aF3.9999999999999996
aF4.032407407407407
aF3.8591269841269837
aF2.9814814814814814
aF4.277777777777778
aF3.847222222222222
aF2.2777777777777777
aF3.390432098765432
aF2.8416666666666663
aF4.222222222222222
aF2.5972222222222223
aF3.583333333333333
aF3.2152777777777772
aF4.944444444444445
aF3.5590277777777777
aF3.4027777777777777
aF0.5370370370370371
aF3.927083333333334
aF3.8472222222222223
aF3.736111111111111
aF3.5364583333333335
aF3.819444444444444
aF2.0902777777777777
aF3.9861111111111116
aF0.9722222222222223
aF3.0039682539682535
aF3.847222222222222
aF3.465277777777778
aF3.7916666666666665
aF3.5972222222222223
aF1.9236111111111114
aF3.7361111111111107
aF4.944444444444445
aF3.3263888888888893
aF0.7222222222222221
aF3.430555555555556
aF3.6305555555555555
aF2.3541666666666665
aF4.569444444444444
aF4.236111111111112
aF4.034722222222221
aF3.4722222222222228
aF3.8703703703703702
aF3.5972222222222223
aF4.449074074074074
aF2.6111111111111107
aF4.034722222222222
aF3.027777777777778
aF3.4722222222222223
aF2.451388888888889
aF2.944444444444444
aF4.138888888888888
aF3.486111111111111
aF4.114583333333334
aF4.25
aF3.375
aF4.388888888888889
aF4.597222222222222
aF3.8531746031746033
aF3.829861111111111
aF4.013888888888889
aF3.3670634920634925
aF3.8333333333333335
aF3.729166666666667
aF3.5069444444444446
aF3.727777777777778
aF1.9791666666666667
aF3.375
aF4.277777777777778
aF3.666666666666667
aF4.277777777777778
aF1.9490740740740737
aF3.986111111111111
aF3.847222222222222
aF4.097222222222222
aF4.061507936507936
aF4.037037037037037
aF3.4623015873015874
aF3.75
aF2.545940170940171
aF4.104166666666666
aF4.944444444444445
aF3.5879629629629632
aF3.693376068376068
aF3.847222222222222
aF3.8333333333333335
aF3.6916666666666664
aF3.7685185185185177
aF3.4444444444444446
aF2.7685185185185186
aF3.5833333333333335
aF4.506944444444445
aF4.013888888888889
aF3.6416666666666666
aF3.680555555555556
aF4.625
aF3.5277777777777777
aF3.9305555555555554
aF3.4131944444444446
aF3.7245370370370368
aF4.277777777777778
aF4.3240740740740735
aF4.284722222222222
aF4.375
aF3.743055555555556
aF3.486111111111111
aF3.826388888888889
aF3.7847222222222223
aF3.500555555555556
aF4.17063492063492
aF3.9027777777777777
aF3.7268518518518525
aF3.7413194444444446
aF2.5555555555555554
aF2.7222222222222223
aF3.7453703703703702
aF2.4097222222222223
aF3.9907407407407405
aF3.5972222222222223
aF0.16666666666666666
aF4.532407407407407
aF3.75
aF3.5972222222222223
aF3.689814814814815
aF3.064814814814815
aF4.597222222222222
aF3.479166666666667
aF4.097222222222222
aF2.4464285714285716
aF3.4079861111111116
aF3.9544753086419764
aF2.5416666666666665
aF2.8981481481481484
aF3.8715277777777777
aF3.7731481481481484
aF3.65462962962963
aF3.813888888888889
aF3.182539682539683
aF2.1884920634920637
aF3.4722222222222223
aF1.1388888888888888
aF3.465277777777778
aF3.805555555555556
aF4.111111111111112
aF3.7847222222222223
aF2.8333333333333335
aF4.375
aF4.597222222222222
aF3.5833333333333335
aF3.961805555555556
aF3.974673202614379
aF3.75
aF3.6249999999999996
aF4.020833333333333
aF3.972222222222222
aF4.013888888888889
aF4.0625
aF4.111111111111112
aF3.5972222222222223
aF1.9930555555555558
aF4.203703703703703
aF2.548611111111111
aF2.4444444444444446
aF3.6180555555555554
aF2.883744855967078
aF1.111111111111111
aF3.486111111111111
aF3.3541666666666665
aF4.597222222222222
aF3.741666666666667
aF3.75
aF3.8993055555555554
aF3.033333333333333
aF3.847222222222222
aF2.2847222222222223
aF4.277777777777778
aF3.875
aF3.430555555555556
aF4.194444444444445
aF4.194444444444445
aF3.6481481481481484
aF4.00462962962963
aF3.805555555555556
aF3.6458333333333335
aF3.428240740740741
aF3.509722222222222
aF3.125
aF4.111111111111112
aF3.403703703703704
aF3.5555555555555554
aF3.4833333333333334
aF4.944444444444445
aF3.521666666666668
aF4.013888888888889
aF3.5972222222222223
aF4.0
aF3.868055555555556
aF4.944444444444445
aF3.6620370370370368
aF4.111111111111112
aF3.828703703703704
aF3.555555555555556
aF4.277777777777778
aF4.861111111111112
aF2.9583333333333335
aF3.0138888888888893
aF4.041666666666667
aF2.927083333333333
aF3.763888888888889
aF4.375
aF4.944444444444445
aF2.8805555555555555
aF3.0555555555555554
aF3.747685185185185
aF3.3888888888888884
aF3.486111111111111
aF4.277777777777778
aF3.5734126984126986
aF3.395833333333333
aF4.388888888888889
aF3.9930555555555554
aF4.097222222222222
aF1.2962962962962965
aF4.125
aF3.0
aF2.430555555555556
aF3.22843567251462
aF2.3611111111111116
aF2.802777777777778
aF3.8333333333333335
aF3.986111111111111
aF4.111111111111112
aF4.944444444444445
aF3.847222222222222
aF3.5277777777777777
aF4.1722222222222225
aF3.5568181818181817
aF2.6435185185185186
aF3.4444444444444446
aF4.638888888888889
aF3.9375
aF3.916666666666667
aF4.097222222222222
aF3.4226190476190483
aF0.5555555555555556
aF2.76010101010101
aF2.2465277777777777
aF4.513888888888888
aF3.375
aF2.8958333333333335
aF4.180555555555555
aF3.986111111111111
aF3.850694444444444
aF3.4629629629629624
aF3.9670138888888893
aF3.689814814814815
aF3.2638888888888893
aF3.7870370370370368
aF2.9365079365079367
aF2.048611111111111
aF2.7762345679012346
aF3.6215277777777772
aF4.152777777777778
aF3.527777777777778
aF3.6828703703703702
aF3.5972222222222223
aF3.916666666666667
aF2.284722222222222
aF2.8680555555555554
aF3.9652777777777777
aF3.8784722222222228
aF2.548611111111111
aF1.9930555555555556
aF0.6111111111111112
aF2.3541666666666665
aF2.84375
aF4.011111111111111
aF4.597222222222222
aF0.9305555555555556
aF3.305555555555555
aF4.277777777777778
aF3.9861111111111116
aF3.4583333333333335
aF4.0625
aF3.0561342592592595
aF3.847222222222222
aF2.7037037037037037
aF4.277777777777778
aF0.7708333333333333
aF4.111111111111111
aF2.576388888888889
aF4.069444444444445
aF2.475
aF4.083333333333333
aF3.777777777777778
aF4.256944444444445
aF3.819444444444444
aF3.923611111111111
aF3.5972222222222223
aF4.350694444444445
aF3.5
aF2.986111111111111
aF3.8694444444444445
aF4.194444444444445
aF4.0
aF3.555555555555556
aF2.6091269841269837
aF3.763888888888889
aF4.222222222222222
aF3.84375
aF0.8333333333333333
aF2.7083333333333335
aF4.125
aF2.3541666666666665
aF3.694444444444444
aF3.5972222222222223
aF3.768518518518519
aF3.253968253968254
aF4.020833333333334
aF4.083333333333333
aF4.048611111111112
aF3.5972222222222223
aF3.430555555555556
aF4.368055555555555
aF3.6296296296296298
aF3.305555555555555
aF3.8402777777777777
aF3.311342592592593
aF3.9513888888888893
aF3.7268518518518516
aF3.0486111111111107
aF3.7743055555555562
aF3.770833333333333
aF4.277777777777778
aF3.4120370370370368
aF2.8420138888888893
aF3.916666666666667
aF4.861111111111112
aF3.333333333333333
aF2.925925925925926
aF2.8989898989898992
aF4.00462962962963
aF2.9861111111111116
aF2.7469135802469133
aF3.972222222222222
aF2.2916666666666665
aF4.319444444444444
aF3.951388888888889
aF3.5902777777777777
aF3.715277777777778
aF0.638888888888889
aF3.875
aF3.3842592592592595
aF3.7847222222222223
aF4.027777777777778
aF4.375
aF2.518518518518518
aF3.2777777777777772
aF3.6249999999999996
aF4.944444444444445
aF3.8750000000000004
aF3.9027777777777777
aF3.6736111111111107
aF2.9537037037037037
aF3.708333333333333
aF3.8580246913580245
aF2.322222222222222
aF2.282986111111111
aF3.8958333333333335
aF3.5624999999999996
aF4.305555555555555
aF3.847222222222222
aF3.0999999999999996
aF3.6736111111111107
aF3.9116161616161618
aF2.1666666666666665
aF3.65625
aF3.972222222222222
aF3.6388888888888893
aF2.7777777777777772
aF3.75
aF3.555555555555556
aF0.18055555555555555
aF3.9907407407407405
aF3.6388888888888893
aF4.375
aF2.6533816425120778
aF3.8715277777777777
aF3.9548611111111107
aF3.135233918128655
aF3.6643518518518516
aF3.7721193415637866
aF2.576388888888889
aF3.255952380952382
aF4.944444444444445
aF3.0
aF3.5879629629629632
aF4.125
aF4.314814814814815
aF4.944444444444445
aF2.820833333333333
aF3.6249999999999996
aF4.350694444444445
aF3.6736111111111107
aF3.4027777777777777
aF1.9756944444444446
aF4.087962962962963
aF2.638888888888889
aF2.2986111111111107
aF1.6909722222222223
aF3.375
aF2.474206349206349
aF4.083333333333333
aF3.6388888888888893
aF3.8657407407407405
aF4.444444444444445
aF2.236111111111111
aF3.847222222222222
aF3.6597222222222223
aF3.8125000000000004
aF3.805555555555556
aF3.513888888888888
aF3.2986111111111107
aF3.3763888888888887
aF1.1666666666666667
aF3.7916666666666665
aF3.866666666666667
aF3.4027777777777777
aF3.3958333333333335
aF4.152777777777778
aF3.875868055555556
aF3.375
aF4.0472222222222225
aF2.7245370370370368
aF3.947916666666667
aF3.805555555555556
aF4.25
aF3.0243055555555554
aF3.3472222222222223
aF3.9583333333333335
aF4.013888888888889
aF4.097222222222222
aF3.8055555555555554
aF3.6031746031746033
aF4.534722222222222
aF3.052083333333333
aF4.296296296296297
aF3.013888888888889
aF2.298611111111111
aF3.7361111111111107
aF3.5682870370370368
aF3.416666666666667
aF2.9606481481481484
aF4.375
aF3.7870370370370368
aF2.3796296296296298
aF3.0185185185185186
aF3.8506944444444446
aF3.939814814814815
aF4.555555555555556
aF4.111111111111112
aF4.111111111111112
aF3.8916666666666666
aF4.222222222222222
aF2.4083333333333337
aF1.097222222222222
aF0.47222222222222227
aF3.9861111111111107
aF4.091666666666667
aF3.977777777777777
aF4.042824074074074
aF3.9305555555555554
aF2.3541666666666665
aF3.833333333333333
aF3.847222222222222
aF4.215277777777778
aF4.097222222222222
aF4.486111111111111
aF4.277777777777778
aF2.8666666666666667
aF4.236111111111112
aF3.9513888888888893
aF2.9270833333333335
aF4.833333333333334
aF4.388888888888888
aF2.8854166666666665
aF4.284722222222222
aF3.5069444444444446
aF3.847222222222222
aF3.916666666666667
aF4.25
aF3.3263888888888893
aF4.347222222222222
aF4.1083333333333325
aF1.75
aF3.9722222222222223
aF0.8333333333333334
aF4.095238095238096
aF3.576388888888889
aF3.3541666666666665
aF3.2746913580246915
aF3.1493055555555554
aF2.78125
aF3.847222222222222
aF3.6944444444444446
aF0.6111111111111112
aF3.472222222222222
aF3.5972222222222223
aF3.6249999999999996
aF3.7592592592592595
aF2.907407407407407
aF4.375
aF2.5370370370370368
aF4.131944444444445
aF3.847222222222222
aF4.319444444444444
aF2.590277777777778
aF4.048611111111111
aF3.5277777777777777
aF4.944444444444445
aF3.4814814814814814
aF3.013888888888889
aF3.1898148148148144
aF3.1625000000000005
aF4.111111111111112
aF4.368055555555555
aF2.9131944444444446
aF3.939814814814815
aF2.194444444444444
aF3.5138888888888884
aF4.451388888888888
aF3.1707516339869284
aF4.097222222222222
aF2.798611111111111
aF3.9027777777777777
aF4.0509259259259265
aF2.7546296296296298
aF4.423611111111112
aF3.9722222222222228
aF3.4513888888888884
aF4.277777777777778
aF3.1795634920634916
aF3.666666666666667
aF3.430555555555556
aF4.555555555555556
aF3.6333333333333337
aF4.055555555555555
aF3.5972222222222223
aF3.7546296296296298
aF3.9791666666666665
aF4.104166666666667
aF4.597222222222222
aF3.625
aF3.125
aF3.3163194444444444
aF3.4340277777777777
aF3.8750000000000004
aF4.063888888888888
aF1.6944444444444442
aF3.777777777777778
aF3.375
aF3.375
aF3.272222222222222
aF3.75
aF2.9228395061728394
aF4.231481481481482
aF3.8819444444444446
aF3.916666666666667
aF3.375
aF4.150462962962963
aF3.833333333333334
aF3.9467592592592595
aF4.083333333333333
aF2.824074074074074
aF4.277777777777778
aF4.277777777777778
aF3.805555555555556
aF3.430555555555556
aF4.305555555555556
aF3.797222222222222
aF3.7341269841269837
aF4.0740740740740735
aF4.0078125
aF3.375
aF4.255555555555555
aF3.930555555555556
aF2.506944444444444
aF3.907407407407407
aF0.9722222222222223
aF4.527777777777779
aF3.423611111111111
aF4.333333333333334
aF3.486111111111111
aF3.375
aF1.6666666666666667
aF3.3253968253968256
aF4.046296296296297
aF4.305555555555555
aF4.597222222222222
aF4.284722222222222
aF4.944444444444445
aF3.788194444444444
aF3.9097222222222223
aF3.8472222222222223
aF4.4259259259259265
aF2.822222222222222
aF3.791666666666667
aF4.569444444444444
aF2.832407407407408
aF4.033730158730159
aF3.1875
aF4.888888888888889
aF4.277777777777778
aF3.8472222222222223
aF3.8310185185185186
aF3.3075396825396823
aF3.6458333333333335
aF4.416666666666667
aF3.9212962962962963
aF3.5138888888888893
aF2.6638888888888888
aF3.720238095238095
aF3.6638888888888888
aF4.624999999999999
aF3.2754629629629632
aF3.5972222222222223
aF3.9375
aF2.6747311827957
aF3.983333333333333
aF1.1666666666666667
aF4.083333333333333
aF3.5972222222222223
aF3.7673611111111107
aF2.3541666666666665
aF2.8703703703703702
aF3.7777777777777777
aF3.8402777777777777
aF3.606481481481481
aF3.958333333333333
aF4.032407407407407
aF3.7123015873015874
aF3.782407407407407
aF3.1031746031746033
aF3.9027777777777777
aF3.6736111111111107
aF4.097222222222222
aF3.8842592592592595
aF3.708333333333333
aF3.715909090909091
aF2.9236111111111116
aF4.291666666666666
aF3.5879629629629632
aF3.916666666666667
aF0.513888888888889
aF3.5972222222222223
aF4.055555555555555
aF3.157407407407407
aF3.8836805555555554
aF3.6249999999999996
aF4.638888888888889
aF0.9722222222222223
aF3.4576388888888885
aF4.243055555555555
aF4.388888888888889
aF3.375
aF3.9444444444444446
aF3.375
aF3.467592592592592
aF3.5694444444444446
aF3.416666666666667
aF3.958333333333333
aF3.4555555555555557
aF4.388888888888889
aF3.375
aF4.25
aF3.6944444444444446
aF3.5972222222222223
aF4.186111111111111
aF2.409722222222222
aF1.1666666666666667
aF3.6944444444444446
aF0.923611111111111
aF3.333333333333333
aF3.395833333333334
aF3.553240740740741
aF3.2944444444444443
aF3.402777777777778
aF3.430555555555556
aF3.407407407407408
aF4.097222222222222
aF3.4393939393939403
aF4.375
aF4.051587301587301
aF3.9953703703703702
aF4.25
aF4.277777777777778
aF1.1666666666666667
aF3.4537037037037037
aF4.944444444444445
aF3.907407407407407
aF3.8333333333333335
aF4.189814814814815
aF4.590277777777779
aF3.8166666666666673
aF3.916666666666667
aF4.618055555555555
aF4.277777777777778
aF1.9930555555555556
aF3.5416666666666665
aF2.4791666666666665
aF3.486111111111111
aF4.152777777777777
aF3.092592592592593
aF3.951388888888889
aF3.3888888888888884
aF3.8194444444444438
aF2.2152777777777777
aF3.8819444444444446
aF3.916666666666667
aF4.118055555555555
aF3.1215277777777777
aF4.659722222222222
aF3.006944444444444
aF2.9623015873015874
aF3.719444444444444
aF3.833333333333333
aF3.9895833333333335
aF3.7685185185185186
aF3.865079365079365
aF3.4814814814814814
aF4.101851851851852
aF3.972222222222222
aF2.388888888888889
aF3.0295138888888893
aF4.184027777777778
aF4.236111111111112
aF3.0555555555555554
aF3.8379629629629632
aF2.9212962962962963
aF3.5694444444444446
aF3.2777777777777772
aF4.513888888888888
aF4.111111111111112
aF0.5416666666666667
aF3.305555555555555
aF2.625
aF3.4131944444444446
aF3.6527777777777772
aF3.6666666666666665
aF3.3
aF4.037037037037037
aF4.0625
aF3.916666666666667
aF4.277777777777778
aF4.368055555555555
aF4.173611111111112
aF2.8240740740740744
aF3.2777777777777772
aF3.9490740740740744
aF3.0425724637681157
aF3.3888888888888884
aF3.5868055555555554
aF4.944444444444445
aF3.787634408602149
aF4.041666666666667
aF4.277777777777778
aF3.1689814814814814
aF3.291666666666667
asg25
g26
((I2014
I11
I14
I22
I18
I28
I4
I318
I-1
tp51
(dp52
tp53
Rp54
sbag0
(g10
g2
Ntp55
Rp56
(dp57
g14
VAnnoying Gamers!
p58
sg16
Vhttp://www.youtube.com/watch?v=HGwermHQwkU&feature=youtube_gdata_player
p59
sg18
Vhttp://i.ytimg.com/vi/HGwermHQwkU/0.jpg
p60
sg20
VHGwermHQwkU
p61
sg22
F3.4517155875103196
sg23
(lp62
F2.967592592592593
aF3.3531746031746033
aF0.9722222222222221
aF3.753858024691358
aF3.375
aF3.175925925925926
aF3.935185185185185
aF4.006944444444445
aF2.761574074074074
aF3.422979797979799
aF3.2622354497354498
aF3.7777777777777777
aF2.3333333333333335
aF3.449074074074074
aF3.400704809286898
aF3.5763888888888893
aF2.638888888888889
aF3.8665674603174613
aF2.7534722222222228
aF3.7309941520467835
aF4.083333333333334
aF3.916666666666667
aF3.8773148148148144
aF0.9583333333333334
aF3.916666666666667
aF3.458333333333333
aF3.5895061728395063
aF3.763888888888889
aF3.5361111111111105
aF3.5462962962962963
aF3.708333333333334
aF3.6875
aF2.3402777777777777
aF2.7685185185185186
aF3.0763888888888884
aF3.4444444444444446
aF3.9722222222222223
aF3.5416666666666665
aF4.125
aF3.4166666666666665
aF3.657196969696969
aF2.896180555555555
aF3.8549382716049383
aF1.125
aF0.875
aF3.7685185185185186
aF4.041666666666667
aF2.8888888888888893
aF3.5529835390946496
aF4.013888888888889
aF3.9507575757575752
aF3.501543209876543
aF3.2725694444444446
aF3.388888888888889
aF4.069444444444444
aF2.888888888888889
aF3.9361111111111113
aF3.498015873015873
aF4.166666666666666
aF3.7168803418803416
aF4.145833333333334
aF3.5694444444444446
aF3.736111111111111
aF4.624999999999999
aF3.6388888888888893
aF2.1875
aF3.922222222222222
aF3.788194444444444
aF3.0444444444444443
aF3.1376262626262617
aF0.3333333333333333
aF1.0555555555555554
aF4.597222222222222
aF3.937499999999999
aF3.7222222222222223
aF3.7037037037037037
aF2.640625
aF4.611111111111112
aF3.9444444444444446
aF3.5833333333333335
aF4.1646825396825395
aF4.118055555555555
aF3.5902777777777777
aF3.895833333333333
aF4.083333333333333
aF3.3531746031746033
aF2.5
aF3.747685185185185
aF3.958333333333333
aF0.888888888888889
aF3.604166666666667
aF1.7992424242424243
aF3.6620370370370368
aF1.0555555555555554
aF1.0277777777777775
aF3.7611111111111115
aF3.2627314814814814
aF3.5277777777777777
aF1.0555555555555554
aF2.7623456790123453
aF0.875
aF3.569444444444444
aF3.2511574074074074
aF3.5081018518518516
aF2.655555555555556
aF3.45
aF2.930555555555556
aF1.0555555555555554
aF3.555555555555556
aF4.305555555555555
aF3.7083333333333335
aF3.4652777777777786
aF1.0555555555555554
aF3.291666666666667
aF4.055555555555555
aF3.2986111111111107
aF3.4027777777777777
aF4.357638888888889
aF3.9120370370370368
aF3.7164351851851856
aF3.523148148148148
aF3.7916666666666665
aF3.0
aF4.291666666666667
aF3.8402777777777777
aF4.111111111111112
aF3.064236111111111
aF4.166666666666667
aF3.9629629629629637
aF3.4938271604938276
aF2.359567901234568
aF4.138888888888889
aF3.802083333333333
aF3.305555555555555
aF3.9768518518518516
aF0.9027777777777778
aF2.2847222222222223
aF2.8055555555555554
aF4.152777777777778
aF1.0555555555555554
aF2.298611111111111
aF3.6583333333333337
aF3.6388888888888884
aF2.8827777777777777
aF1.9305555555555556
aF1.111111111111111
aF3.701388888888889
aF3.7847222222222223
aF4.006944444444445
aF4.291666666666667
aF3.944444444444444
aF3.4722222222222223
aF4.138888888888889
aF2.0972222222222223
aF3.765873015873016
aF3.416666666666667
aF3.6527777777777777
aF4.013888888888889
aF3.1203703703703702
aF3.3611111111111107
aF4.027777777777779
aF2.0902777777777777
aF2.892361111111111
aF4.013888888888889
aF3.0555555555555554
aF3.865740740740741
aF3.6805555555555562
aF4.083333333333333
aF2.8888888888888893
aF4.194444444444445
aF3.888888888888889
aF3.9305555555555554
aF3.3547979797979797
aF3.715277777777778
aF1.7063492063492063
aF3.2138888888888886
aF3.891666666666667
aF3.5972222222222223
aF3.847222222222222
aF2.048611111111111
aF4.284722222222223
aF4.111111111111111
aF3.5972222222222223
aF3.2766203703703702
aF3.6249999999999996
aF3.333333333333333
aF3.430555555555556
aF3.972222222222222
aF3.6944444444444446
aF2.201388888888889
aF3.6916666666666664
aF3.78968253968254
aF4.013888888888889
aF2.913194444444444
aF3.819444444444445
aF4.569444444444444
aF4.597222222222222
aF3.8888888888888893
aF2.6296296296296293
aF3.3333333333333335
aF4.013888888888889
aF3.5793650793650795
aF3.2326388888888884
aF1.9166666666666663
aF4.944444444444445
aF3.305555555555555
aF3.3680555555555554
aF3.3611111111111107
aF3.777777777777778
aF4.2407407407407405
aF3.6976010101010104
aF4.083333333333333
aF2.0277777777777777
aF2.9608585858585865
aF3.1419753086419755
aF3.708333333333333
aF3.154513888888889
aF0.7708333333333333
aF3.416666666666667
aF2.4583333333333335
aF3.6249999999999996
aF0.7777777777777777
aF4.611111111111112
aF4.402777777777778
aF3.8958333333333335
aF3.5347222222222223
aF2.0416666666666665
aF3.9027777777777777
aF3.777777777777778
aF4.944444444444445
aF4.125
aF3.2777777777777772
aF3.847222222222222
aF1.74537037037037
aF3.513888888888889
aF3.949074074074074
aF3.4027777777777777
aF3.9930555555555554
aF2.5694444444444446
aF3.819444444444444
aF2.90625
aF3.958333333333333
aF4.624999999999999
aF3.819444444444444
aF3.7323232323232323
aF3.763888888888889
aF3.6388888888888893
aF3.3888888888888884
aF3.430555555555556
aF4.412037037037037
aF3.6249999999999996
aF4.805555555555555
aF3.935185185185185
aF4.513888888888888
aF3.958333333333333
aF3.375
aF2.800925925925926
aF3.691468253968254
aF3.9722222222222228
aF3.763888888888889
aF3.1507936507936507
aF3.888888888888889
aF0.6759259259259259
aF3.842592592592593
aF2.688657407407407
aF2.8518518518518516
aF3.305555555555555
aF3.939814814814815
aF3.859126984126984
aF4.013888888888889
aF4.027777777777778
aF4.037037037037037
aF3.666666666666667
aF3.5972222222222223
aF3.791666666666667
aF4.347222222222221
aF3.7222222222222223
aF3.916666666666667
aF3.5486111111111107
aF3.7847222222222223
aF4.166666666666667
aF3.291666666666667
aF4.013888888888889
aF3.7951388888888893
aF4.25
aF3.928240740740741
aF2.4166666666666665
aF3.5763888888888893
aF3.430555555555556
aF3.6203703703703702
aF3.989583333333334
aF2.3541666666666665
aF2.520833333333333
aF3.729166666666667
aF3.9513888888888893
aF3.5972222222222223
aF3.9166666666666665
aF3.416666666666667
aF4.111111111111112
aF4.0
aF3.7361111111111116
aF3.6875
aF3.5347222222222223
aF4.013888888888889
aF4.152777777777778
aF3.8263888888888893
aF3.8611111111111116
aF3.1435185185185186
aF3.430555555555556
aF3.3472222222222223
aF3.4027777777777777
aF3.6319444444444438
aF2.9648148148148157
aF3.9027777777777777
aF3.8958333333333335
aF3.5370370370370368
aF3.9861111111111116
aF3.7569444444444446
aF3.7
aF4.138888888888889
aF3.6277777777777773
aF3.847222222222222
aF3.270833333333334
aF2.9166666666666665
aF3.782407407407407
aF3.8796296296296298
aF3.6620370370370368
aF4.069444444444445
aF3.958333333333333
aF0.18055555555555555
aF3.0555555555555562
aF2.6430555555555557
aF3.444444444444444
aF3.4583333333333335
aF1.8194444444444444
aF3.2208994708994716
aF2.6319444444444446
aF3.4694444444444446
aF3.060185185185185
aF3.1689814814814823
aF3.763888888888889
aF3.3981481481481475
aF3.611111111111111
aF3.986111111111112
aF2.0972222222222223
aF3.430555555555556
aF3.523809523809524
aF4.013888888888889
aF2.6666666666666665
aF3.5069444444444455
aF2.6064814814814814
aF4.034722222222222
aF2.875
aF4.361111111111112
aF3.5694444444444446
aF3.166666666666667
aF4.097222222222222
aF4.083333333333333
aF3.5138888888888893
aF3.4444444444444446
aF3.4444444444444446
aF3.3888888888888893
aF3.0583333333333336
aF3.9791666666666665
aF3.5555555555555554
aF3.5972222222222223
aF3.982638888888889
aF4.361111111111112
aF3.3472222222222223
aF3.958333333333333
aF3.8125
aF4.944444444444445
aF3.900793650793651
aF2.6770833333333335
aF3.791666666666667
aF3.1909722222222223
aF4.055555555555556
aF2.45
aF4.013888888888889
aF3.555555555555556
aF4.013888888888889
aF4.180555555555555
aF1.0694444444444444
aF4.083333333333333
aF3.5416666666666665
aF3.150793650793651
aF4.055555555555555
aF3.538888888888889
aF3.923611111111111
aF4.083333333333333
aF2.517361111111111
aF4.013888888888889
aF3.430555555555556
aF3.6875
aF3.4375
aF3.9027777777777777
aF4.402777777777778
aF3.390873015873016
aF4.013888888888889
aF3.458333333333333
aF3.3506944444444446
aF4.111111111111112
aF3.752314814814815
aF3.763888888888889
aF3.6916666666666664
aF3.5189814814814815
aF3.5888888888888895
aF3.5972222222222223
aF1.0555555555555554
aF3.541666666666667
aF0.9097222222222223
aF3.979166666666667
aF3.532407407407408
aF4.597222222222222
aF2.2118055555555554
aF3.3101851851851856
aF4.361111111111112
aF4.1157407407407405
aF3.430555555555556
aF3.847222222222222
aF3.5583333333333336
aF4.055555555555555
aF3.4722222222222223
aF4.013888888888889
aF3.8935185185185186
aF3.6180555555555554
aF3.4999999999999996
aF2.9479166666666665
aF3.3819444444444446
aF4.624999999999999
aF2.3819444444444446
aF2.8397435897435903
aF3.6527777777777777
aF2.375
aF3.6979166666666665
aF4.069444444444445
aF4.111111111111112
aF3.8950617283950613
aF3.430555555555556
aF2.864583333333333
aF3.939814814814815
aF3.327777777777778
aF3.4305555555555554
aF3.433449074074075
aF2.9416666666666664
aF3.666666666666667
aF3.8472222222222223
aF4.055555555555555
aF3.3101851851851856
aF2.1805555555555554
aF3.3232638888888877
aF4.037037037037037
aF2.5225694444444446
aF3.052777777777778
aF4.013888888888889
aF3.0
aF3.349206349206349
aF3.4166666666666665
aF3.3253968253968256
aF2.0763888888888884
aF2.5277777777777777
aF0.8611111111111112
aF4.944444444444445
aF3.3038194444444446
aF3.892361111111111
aF4.013888888888889
aF4.569444444444444
aF3.4179894179894177
aF4.416666666666667
aF3.040404040404041
aF2.3055555555555554
aF4.166666666666667
aF3.4583333333333335
aF3.9027777777777777
aF1.0555555555555554
aF3.4583333333333335
aF2.0231481481481484
aF3.6840277777777777
aF3.847222222222222
aF4.097222222222222
aF4.083333333333333
aF3.555555555555556
aF3.868055555555556
aF3.4503968253968256
aF4.479166666666667
aF3.4800347222222223
aF1.0555555555555554
aF3.7847222222222223
aF2.7291666666666665
aF3.657407407407407
aF3.6643518518518516
aF3.944444444444444
aF4.631944444444445
aF3.611111111111111
aF3.8083333333333336
aF0.9583333333333334
aF3.9305555555555554
aF3.233333333333333
aF3.939814814814815
aF3.602777777777778
aF3.2430555555555554
aF4.013888888888889
aF3.375
aF3.5277777777777777
aF4.020833333333334
aF3.291666666666667
aF2.6277777777777778
aF3.9666666666666672
aF4.013888888888889
aF3.3472222222222223
aF2.5680555555555555
aF4.624999999999999
aF4.013888888888889
aF1.1666666666666667
aF3.65625
aF3.026143790849674
aF3.847222222222222
aF3.3541666666666665
aF3.7638888888888893
aF4.013888888888889
aF3.736111111111111
aF4.013888888888889
aF3.604166666666667
aF0.875
aF3.3541666666666665
aF4.1875
aF3.8263888888888893
aF4.013888888888889
aF3.9375
aF3.5486111111111107
aF3.0254629629629624
aF3.819444444444444
aF2.832264957264957
aF3.8240740740740744
aF3.555555555555556
aF4.064814814814815
aF3.736111111111111
aF3.7569444444444446
aF3.9340277777777777
aF1.0555555555555554
aF4.298611111111111
aF3.4652777777777777
aF4.013888888888889
aF3.916666666666667
aF4.347222222222222
aF4.296296296296296
aF4.277777777777778
aF4.944444444444445
aF1.0555555555555554
aF4.180555555555555
aF3.4484126984126986
aF3.5833333333333335
aF4.111111111111112
aF3.916666666666667
aF2.513888888888889
aF4.013888888888889
aF3.858333333333333
aF3.822222222222222
aF2.9340277777777772
aF2.949074074074074
aF3.9444444444444446
aF3.9652777777777777
aF2.935185185185185
aF2.972222222222222
aF3.6041666666666665
aF4.178240740740741
aF3.288888888888889
aF3.1064814814814814
aF2.7685185185185186
aF1.111111111111111
aF4.027777777777778
aF3.0833333333333335
aF3.6944444444444446
aF3.9972222222222222
aF2.236111111111111
aF3.972222222222222
aF2.954861111111111
aF3.4583333333333335
aF4.034722222222222
aF4.125
aF3.227777777777777
aF1.8000000000000003
aF3.375
aF3.8819444444444446
aF3.7361111111111107
aF4.013888888888889
aF4.038194444444444
aF0.513888888888889
aF1.0833333333333333
aF4.111111111111112
aF3.5141509433962264
aF4.277777777777778
aF3.9930555555555554
aF3.5787037037037037
aF3.8981481481481484
aF3.4444444444444446
aF3.3472222222222214
aF3.5231481481481484
aF3.586805555555556
aF3.305555555555555
aF2.875
aF3.291666666666667
aF3.8472222222222223
aF2.625
aF3.361111111111111
aF3.074074074074074
aF4.180555555555555
aF3.9375
aF4.048611111111111
aF3.3541666666666665
aF3.305555555555555
aF3.170634920634921
aF2.7250000000000005
aF3.5138888888888893
aF3.75
aF3.847222222222222
aF2.560185185185185
aF4.020833333333334
aF4.138888888888889
aF3.763888888888889
aF4.180555555555555
aF3.4027777777777777
aF4.006944444444445
aF3.4861111111111107
aF3.7500000000000004
aF3.4444444444444446
aF3.375
aF1.0555555555555554
aF3.743055555555556
aF3.375
aF4.013888888888889
aF2.579861111111111
aF3.652777777777778
aF3.5347222222222223
aF2.4513888888888884
aF4.055555555555555
aF2.7037037037037037
aF3.847222222222222
aF3.2166666666666663
aF4.083333333333333
aF3.4722222222222223
aF3.720238095238095
aF3.4490740740740744
aF3.4027777777777777
aF2.548611111111111
aF4.282407407407407
aF4.013888888888889
aF4.018518518518519
aF2.407407407407408
aF4.109126984126983
aF4.395833333333333
aF4.111111111111111
aF3.847222222222222
aF3.768518518518519
aF3.4444444444444446
aF3.638888888888889
aF4.076388888888888
aF2.782407407407408
aF3.090277777777778
aF0.7222222222222221
aF4.013888888888889
aF3.4027777777777777
aF4.013888888888889
aF0.18055555555555555
aF3.8611111111111116
aF3.8361111111111112
aF3.2888888888888888
aF3.520833333333333
aF3.7962962962962963
aF3.5861111111111112
aF3.7685185185185177
aF4.180555555555555
aF3.270833333333333
aF3.8819444444444446
aF3.7453703703703702
aF3.5833333333333335
aF3.847222222222222
aF4.111111111111112
aF4.624999999999999
aF3.8208333333333337
aF3.0972222222222223
aF4.222222222222222
aF4.111111111111112
aF2.6166666666666663
aF3.479166666666667
aF2.797619047619048
aF4.083333333333333
aF2.984953703703704
aF3.5138888888888893
aF2.638888888888889
aF3.9166666666666665
aF3.8611111111111116
aF2.201388888888889
aF4.479166666666667
aF3.666666666666667
aF4.166666666666666
aF2.625
aF4.013888888888889
aF2.875
aF4.597222222222222
aF3.703703703703704
aF4.569444444444444
aF3.5694444444444446
aF3.775
aF4.381944444444445
aF3.1902777777777778
aF4.013888888888889
aF4.055555555555555
aF3.452777777777778
aF3.847222222222222
aF3.3432539682539684
aF3.280753968253969
aF3.986111111111111
aF3.954861111111111
aF3.6388888888888893
aF3.77124183006536
aF4.569444444444444
aF3.8680555555555554
aF3.0833333333333335
aF3.4259259259259256
aF1.0555555555555554
aF3.9027777777777772
aF4.12962962962963
aF3.666666666666667
aF3.6284722222222223
aF2.4652777777777777
aF3.673611111111111
aF4.013888888888889
aF3.5370370370370368
aF3.2209821428571423
aF4.944444444444445
aF4.111111111111112
aF3.6388888888888893
aF4.013888888888889
aF3.8055555555555554
aF3.666666666666667
aF3.2777777777777772
aF4.180555555555555
aF3.8326388888888894
aF3.655753968253969
aF3.7777777777777777
aF3.888888888888889
aF3.291666666666667
aF4.013888888888889
aF3.3472222222222214
aF3.3611111111111107
aF2.9944444444444445
aF3.246031746031746
aF2.9875000000000003
aF3.6064814814814814
aF2.3472222222222223
aF3.855429292929293
aF3.632761437908496
aF3.3750000000000004
aF3.8194444444444446
aF4.611111111111112
aF3.4027777777777777
aF3.7777777777777777
aF3.4930555555555554
aF4.111111111111112
aF2.569444444444444
aF0.875
aF4.624999999999999
aF3.685185185185185
aF4.020833333333334
aF3.5833333333333335
aF4.006944444444445
aF4.203703703703703
aF3.6435185185185186
aF3.958333333333333
aF3.5972222222222223
aF1.0555555555555554
aF4.944444444444445
aF3.7513888888888887
aF3.791666666666667
aF4.111111111111112
aF3.763888888888889
aF4.402777777777778
aF3.6527777777777777
aF3.416666666666667
aF4.013888888888889
aF3.6249999999999996
aF4.111111111111112
aF3.6249999999999996
aF4.236111111111112
aF3.916666666666667
aF3.5833333333333335
aF3.814814814814815
aF3.7291666666666674
aF4.354166666666667
aF3.8402777777777777
aF4.375
aF0.375
aF1.8166666666666664
aF2.8657407407407405
aF3.7395833333333335
aF4.013888888888889
aF3.5277777777777777
aF3.8333333333333335
aF3.4722222222222223
aF4.138888888888889
aF3.3472222222222223
aF4.222222222222222
aF3.8547008547008548
aF3.5763888888888893
aF4.105902777777778
aF3.427777777777778
aF3.1628787878787885
aF3.8912037037037037
aF2.6549145299145303
aF4.013888888888889
aF3.305555555555555
aF3.3472222222222223
aF3.3263888888888884
aF3.7013888888888893
aF3.486111111111111
aF2.8775252525252526
aF3.623015873015873
aF3.247685185185185
aF4.069444444444445
aF3.416666666666667
aF0.9305555555555556
aF2.7569444444444446
aF3.7962962962962963
aF3.947222222222223
aF3.333333333333333
aF0.18055555555555555
aF3.5347222222222228
aF3.222222222222222
aF3.75
aF3.3194444444444446
aF3.0568181818181817
aF3.0347222222222223
aF3.9097222222222223
aF3.680555555555556
aF1.0555555555555554
asg25
g26
((I2014
I11
I6
I20
I14
I58
I3
I310
I-1
tp63
(dp64
tp65
Rp66
sbasb.