ccopy_reg
_reconstructor
p0
(ciovideocache
Channel
p1
c__builtin__
object
p2
Ntp3
Rp4
(dp5
S'name'
p6
Vnigahiga
p7
sS'videos'
p8
(lp9
g0
(ciovideocache
Video
p10
g2
Ntp11
Rp12
(dp13
S'title'
p14
VThings That Ruin Thanksgiving! pt.2
p15
sS'url'
p16
Vhttp://www.youtube.com/watch?v=7ezElsnQINE&feature=youtube_gdata_player
p17
sS'image'
p18
Vhttp://i.ytimg.com/vi/7ezElsnQINE/0.jpg
p19
sS'video_id'
p20
V7ezElsnQINE
p21
sS'score'
p22
F3.178632661198452
sS'individual_scores'
p23
(lp24
F3.640873015873016
aF2.9340277777777777
aF1.5509259259259258
aF4.597222222222222
aF3.590277777777778
aF3.7033730158730163
aF4.211805555555555
aF3.3611111111111107
aF3.3472222222222223
aF3.835648148148149
aF0.18055555555555555
aF3.725
aF3.805555555555556
aF2.4166666666666665
aF3.6194444444444445
aF3.375
aF3.680555555555556
aF1.8541666666666665
aF4.319444444444445
aF4.236111111111112
aF3.1712962962962963
aF3.847222222222222
aF3.680555555555556
aF3.810185185185185
aF3.486111111111111
aF3.333333333333333
aF2.486111111111111
aF4.038194444444445
aF2.326388888888889
aF4.597222222222222
aF1.0138888888888886
aF2.9953703703703702
aF4.236111111111112
aF0.8263888888888888
aF3.375
aF4.097222222222222
aF3.847222222222222
aF3.375
aF3.375
aF3.6875
aF3.7314814814814814
aF3.847222222222222
aF2.4652777777777777
aF2.9583333333333335
aF2.0625
aF3.375
aF3.375
aF2.145833333333333
aF2.25
aF3.0856481481481484
aF4.861111111111112
aF2.6805555555555554
aF2.9999999999999996
aF2.25
aF3.291666666666667
aF3.2777777777777772
aF4.597222222222222
aF3.2416666666666663
aF0.8263888888888888
aF2.3819444444444446
aF2.0625
aF3.0416666666666665
aF3.9999999999999996
aF3.6319444444444446
aF4.097222222222222
aF3.9861111111111116
aF3.375
aF3.541666666666667
aF1.6759259259259258
aF3.3055555555555554
aF4.361111111111112
aF4.090277777777779
aF0.7499999999999999
aF3.625
aF4.017361111111112
aF3.7569444444444446
aF2.0625
aF1.597222222222222
aF3.675925925925926
aF2.574074074074074
aF3.7569444444444446
aF3.2777777777777772
aF3.7951388888888893
aF3.847222222222222
aF3.8888888888888893
aF2.173611111111111
aF4.020833333333334
aF4.229166666666667
aF3.805555555555556
aF3.847222222222222
aF3.8518518518518516
aF3.0208333333333335
aF4.25
aF3.6342592592592595
aF4.097222222222222
aF2.0625
aF3.6875
aF2.138888888888889
aF3.7291666666666665
aF3.847222222222222
aF2.0625
aF2.0625
aF3.2777777777777772
aF0.18055555555555555
aF2.0625
aF3.219444444444444
aF4.243055555555555
aF3.2777777777777772
aF3.2083333333333335
aF2.967592592592593
aF4.597222222222222
aF2.7407407407407405
aF3.7815656565656566
aF2.5972222222222223
aF4.263888888888889
aF3.972222222222222
aF2.939814814814815
aF2.3125
aF3.375
aF1.6759259259259258
aF2.5763888888888893
aF3.75
aF3.7013888888888893
aF1.5509259259259258
aF3.8796296296296298
aF4.236111111111112
aF4.597222222222222
aF3.6944444444444446
aF2.8287037037037037
aF3.4722222222222223
aF2.1527777777777777
aF3.847222222222222
aF3.680555555555556
aF3.4930555555555554
aF3.5902777777777777
aF2.907407407407407
aF3.5555555555555554
aF2.7731481481481484
aF2.1319444444444446
aF0.18055555555555555
aF3.5416666666666665
aF3.2777777777777772
aF1.875
aF3.8564814814814814
aF0.9583333333333334
aF4.090277777777778
aF3.305555555555555
aF3.375
aF3.916666666666667
aF3.8958333333333335
aF3.8680555555555554
aF3.930555555555556
aF2.256944444444444
aF4.125
aF3.888888888888889
aF4.361111111111112
aF1.611111111111111
aF0.6388888888888888
aF2.916666666666666
aF0.6388888888888888
aF3.8611111111111116
aF4.0625
aF3.375
aF2.638888888888889
aF2.159722222222222
aF3.375
aF2.0625
aF2.927083333333334
aF1.7986111111111112
aF4.25
aF4.805555555555555
aF4.083333333333333
aF2.513888888888889
aF3.375
aF3.2777777777777772
aF3.1875
aF3.656746031746032
aF1.5509259259259258
aF3.5972222222222223
aF3.375
aF3.9722222222222223
aF0.9027777777777778
aF3.305555555555555
aF3.375
aF3.375
aF2.7685185185185186
aF4.017361111111112
aF2.576388888888889
aF2.6435185185185186
aF3.8194444444444446
aF0.7499999999999999
aF3.5972222222222223
aF3.7569444444444446
aF4.125
aF3.760416666666667
aF3.430555555555556
aF3.5972222222222223
aF4.597222222222222
aF3.4606481481481484
aF2.138888888888889
aF4.319444444444445
aF3.844444444444444
aF4.361111111111112
aF4.125
aF1.0555555555555554
aF2.592592592592592
aF1.6759259259259258
aF3.8138888888888887
aF3.680555555555556
aF3.375
aF3.2777777777777772
aF2.5805555555555557
aF2.895833333333333
aF3.9652777777777777
aF2.8888888888888893
aF3.770833333333334
aF2.138888888888889
aF3.7962962962962963
aF3.4513888888888884
aF2.138888888888889
aF4.159722222222222
aF1.5509259259259258
aF3.5069444444444446
aF2.138888888888889
aF3.2388888888888894
aF3.8402777777777777
aF3.375
aF3.5972222222222223
aF3.642361111111111
aF2.9652777777777777
aF3.4166666666666665
aF4.361111111111112
aF3.732638888888889
aF4.638888888888889
aF3.190972222222222
aF2.1666666666666665
aF3.5092592592592595
aF3.2777777777777772
aF2.0625
aF4.097222222222222
aF3.4027777777777777
aF2.9087301587301586
aF3.743055555555556
aF3.375
aF4.277777777777778
aF2.842592592592592
aF3.7083333333333335
aF2.0625
aF2.6111111111111116
aF3.5972222222222223
aF2.0625
aF2.0625
aF0.18055555555555555
aF3.986111111111111
aF2.536111111111111
aF4.402777777777778
aF0.375
aF3.9409722222222228
aF4.083333333333334
aF2.9166666666666665
aF3.8333333333333335
aF3.9583333333333335
aF3.352777777777778
aF4.152777777777778
aF2.0625
aF3.7291666666666665
asS'date'
p25
ctime
struct_time
p26
((I2014
I11
I27
I20
I3
I7
I3
I331
I-1
tp27
(dp28
tp29
Rp30
sbag0
(g10
g2
Ntp31
Rp32
(dp33
g14
VProving the Illuminati is Real!
p34
sg16
Vhttp://www.youtube.com/watch?v=03_Tby_ICCw&feature=youtube_gdata_player
p35
sg18
Vhttp://i.ytimg.com/vi/03_Tby_ICCw/0.jpg
p36
sg20
V03_Tby_ICCw
p37
sg22
F3.4485335275025046
sg23
(lp38
F3.4690656565656566
aF3.7013888888888893
aF3.715277777777778
aF3.8472222222222223
aF3.541666666666667
aF3.8138888888888887
aF4.027777777777778
aF0.9305555555555556
aF3.0972222222222223
aF3.291666666666667
aF4.273148148148148
aF3.847222222222222
aF4.125
aF2.270833333333333
aF3.7083333333333335
aF4.111111111111111
aF3.805555555555556
aF4.284722222222222
aF4.152777777777778
aF2.7731481481481484
aF3.9999999999999996
aF3.847222222222222
aF3.805555555555556
aF3.6666666666666665
aF3.5439814814814823
aF3.9444444444444446
aF3.6388888888888893
aF3.986111111111111
aF3.5083333333333337
aF3.481481481481481
aF3.4583333333333335
aF2.111111111111111
aF4.291666666666667
aF3.666666666666666
aF4.402777777777778
aF2.1527777777777777
aF3.291666666666667
aF3.4027777777777777
aF3.291666666666667
aF4.152777777777778
aF2.0277777777777777
aF3.291666666666667
aF3.805555555555556
aF3.847222222222222
aF3.604166666666667
aF3.868055555555556
aF3.7083333333333335
aF3.4444444444444446
aF0.8333333333333333
aF4.291666666666667
aF3.333333333333333
aF3.6527777777777772
aF3.6388888888888893
aF3.847222222222222
aF4.194444444444444
aF3.611111111111111
aF3.8472222222222223
aF3.0555555555555554
aF2.800925925925926
aF3.6249999999999996
aF2.5555555555555554
aF3.951388888888889
aF3.6805555555555554
aF3.4027777777777777
aF3.7916666666666665
aF3.763888888888889
aF3.6944444444444446
aF3.0
aF3.291666666666667
aF4.041666666666667
aF4.597222222222222
aF3.8402777777777777
aF4.1759259259259265
aF3.854166666666667
aF3.0805555555555557
aF3.291666666666667
aF3.291666666666667
aF0.9583333333333334
aF3.013888888888889
aF3.5046296296296298
aF3.1076388888888884
aF4.597222222222222
aF4.236111111111112
aF4.013888888888888
aF2.270833333333333
aF3.291666666666667
aF3.666666666666667
aF3.5972222222222223
aF3.3796296296296298
aF4.097222222222222
aF3.5694444444444446
aF3.4513888888888884
aF4.152777777777778
aF4.291666666666667
aF0.18055555555555555
aF3.291666666666667
aF4.041666666666667
aF4.152777777777778
aF4.229166666666666
aF3.847222222222222
aF1.875
aF3.291666666666667
aF4.236111111111111
aF0.4166666666666665
aF3.8472222222222223
aF3.7453703703703702
aF3.7305555555555556
aF2.592592592592592
aF3.8611111111111116
aF3.7407407407407405
aF2.717592592592593
aF3.291666666666667
aF3.5972222222222223
aF2.7685185185185186
aF3.847222222222222
aF3.805555555555556
aF3.805555555555556
aF3.291666666666667
aF2.4537037037037037
aF3.770833333333334
aF3.805555555555556
aF3.5972222222222223
aF3.4953703703703702
aF3.635416666666667
aF1.1666666666666667
aF4.805555555555555
aF2.7888888888888888
aF3.805555555555556
aF3.291666666666667
aF3.291666666666667
aF3.291666666666667
aF4.416666666666667
aF4.597222222222222
aF3.4444444444444446
aF3.291666666666667
aF3.8333333333333335
aF3.4027777777777777
aF4.277777777777778
aF3.6712962962962963
aF3.291666666666667
aF3.7777777777777777
aF3.6712962962962963
aF4.291666666666667
aF4.0
aF3.7638888888888893
aF3.5833333333333335
aF0.7499999999999999
aF4.111111111111112
aF4.0625
aF2.1180555555555554
aF3.1134259259259256
aF3.3958333333333335
aF3.333333333333333
aF3.9120370370370368
aF3.4305555555555554
aF3.1296296296296298
aF3.291666666666667
aF3.7916666666666665
aF3.7291666666666665
aF3.0218253968253963
aF3.291666666666667
aF3.291666666666667
aF3.291666666666667
aF3.8333333333333335
aF3.763888888888889
aF4.152777777777778
aF2.25
aF3.7592592592592595
aF3.3472222222222223
aF3.826388888888889
aF2.104166666666667
aF0.9583333333333334
aF3.805555555555556
aF3.291666666666667
aF3.4027777777777777
aF3.9444444444444446
aF3.773809523809524
aF4.118055555555555
aF4.166666666666667
aF4.097222222222222
aF0.9027777777777778
aF3.802777777777777
aF3.3194444444444446
aF1.986111111111111
aF3.847222222222222
aF4.041666666666667
aF4.083333333333333
aF3.824074074074074
aF4.125
aF3.291666666666667
aF3.5972222222222223
aF3.3527777777777787
aF3.805555555555556
aF3.9756944444444446
aF3.6111111111111107
aF3.291666666666667
aF0.8472222222222221
aF3.805555555555556
aF3.333333333333333
aF4.0
aF3.972222222222222
aF3.458333333333333
aF3.75
aF0.6944444444444443
aF3.4652777777777777
aF3.9999999999999996
aF3.7777777777777772
aF2.1527777777777777
aF4.152777777777778
aF3.935185185185185
aF3.9722222222222223
aF3.291666666666667
aF4.305555555555555
aF3.375
aF4.624999999999999
aF3.805555555555556
aF3.291666666666667
aF3.9861111111111116
aF3.3194444444444446
aF3.8298611111111107
aF4.111111111111111
aF3.7222222222222223
aF4.597222222222222
aF3.4930555555555554
aF3.7638888888888893
aF3.1076388888888893
aF3.4583333333333335
aF3.291666666666667
aF3.4444444444444446
aF3.675925925925926
aF2.8547008547008548
aF2.875
aF3.657852564102564
aF3.7083333333333335
aF3.692460317460317
aF4.597222222222222
aF4.25
aF3.291666666666667
aF3.5625
aF3.5972222222222223
aF3.847222222222222
aF3.388888888888889
aF2.8055555555555554
aF0.9583333333333334
aF3.847222222222222
aF3.291666666666667
aF3.364583333333333
aF3.291666666666667
aF2.3229166666666665
aF4.097222222222222
aF3.6249999999999996
aF4.083333333333333
aF3.9583333333333335
aF3.5972222222222223
aF3.9305555555555554
aF3.5972222222222223
aF2.381944444444444
aF2.236111111111111
aF3.756944444444444
aF2.076388888888889
aF3.3194444444444446
aF3.8472222222222223
aF3.8819444444444446
aF3.125
aF3.805555555555556
aF2.611111111111111
aF3.805555555555556
aF4.361111111111112
aF3.4097222222222223
aF0.4166666666666665
aF2.631944444444444
aF3.9652777777777777
aF3.5625
aF3.291666666666667
asg25
g26
((I2014
I11
I21
I23
I51
I58
I4
I325
I-1
tp39
(dp40
tp41
Rp42
sbasb.