ccopy_reg
_reconstructor
p0
(ciovideocache
Channel
p1
c__builtin__
object
p2
Ntp3
Rp4
(dp5
S'name'
p6
Vnigahiga
p7
sS'videos'
p8
(lp9
g0
(ciovideocache
Video
p10
g2
Ntp11
Rp12
(dp13
S'title'
p14
VThings That Ruin Thanksgiving! pt.2
p15
sS'url'
p16
Vhttp://www.youtube.com/watch?v=7ezElsnQINE&feature=youtube_gdata_player
p17
sS'image'
p18
Vhttp://i.ytimg.com/vi/7ezElsnQINE/0.jpg
p19
sS'video_id'
p20
V7ezElsnQINE
p21
sS'score'
p22
F2.746097007603631
sS'individual_scores'
p23
(lp24
F3.5381944444444446
aF2.368055555555556
aF0.6388888888888888
aF4.597222222222222
aF0.18055555555555555
aF1.9768518518518519
aF4.236111111111112
aF3.552777777777778
aF4.597222222222222
aF4.041666666666667
aF1.0138888888888886
aF2.694444444444444
aF4.236111111111112
aF0.8263888888888888
aF2.4652777777777777
aF0.7499999999999999
aF4.097222222222222
aF0.9027777777777778
aF2.6805555555555554
aF2.75
aF0.8263888888888888
aF3.9999999999999996
aF3.9861111111111116
aF2.7962962962962963
aF4.861111111111112
aF4.361111111111112
aF4.090277777777779
aF0.7499999999999999
aF4.597222222222222
aF3.0555555555555554
aF0.7499999999999999
aF4.138888888888889
aF0.7499999999999999
aF4.597222222222222
aF0.8263888888888888
aF0.7499999999999999
aF2.451388888888889
aF4.152777777777778
aF1.7731481481481481
aF0.9027777777777778
aF4.138888888888889
aF0.7499999999999999
aF0.18055555555555555
aF2.9722222222222228
aF4.25
aF4.236111111111112
aF4.5092592592592595
aF4.097222222222222
aF2.9537037037037037
aF0.7499999999999999
aF4.597222222222222
aF4.263888888888889
aF0.7499999999999999
aF0.8263888888888888
aF4.013888888888889
aF4.597222222222222
aF4.356481481481481
aF2.2083333333333335
aF4.055555555555555
aF3.972222222222222
aF4.083333333333333
aF2.5763888888888893
aF2.673611111111111
aF0.6388888888888888
aF2.4722222222222223
aF4.236111111111112
aF0.3472222222222222
aF4.805555555555555
aF4.416666666666667
aF0.18055555555555555
aF4.125
aF0.9583333333333334
aF4.361111111111112
aF4.25
aF4.125
aF2.555555555555556
aF4.0625
aF3.972222222222222
aF0.7291666666666665
aF0.6388888888888888
aF2.6874999999999996
aF4.25
aF2.513888888888889
aF0.6388888888888888
aF2.966666666666667
aF0.6388888888888888
aF0.9583333333333334
aF0.7499999999999999
aF0.18055555555555555
aF0.7499999999999999
aF4.805555555555555
aF4.083333333333333
aF4.097222222222222
aF0.9027777777777778
aF2.4652777777777777
aF2.576388888888889
aF4.319444444444445
aF0.7499999999999999
aF4.361111111111112
aF4.125
aF3.3749999999999996
aF4.298611111111112
aF4.597222222222222
aF3.447916666666667
aF0.9027777777777778
aF1.0555555555555554
aF4.361111111111112
aF0.6388888888888888
aF0.8263888888888888
aF3.0416666666666665
aF4.083333333333333
aF2.666666666666667
aF4.361111111111112
aF0.9027777777777778
aF0.9027777777777778
aF4.638888888888889
aF3.092592592592592
aF0.7916666666666665
aF4.347222222222222
aF0.9027777777777778
aF1.0138888888888886
aF2.576388888888889
aF1.9583333333333333
aF3.430555555555556
aF0.7499999999999999
aF4.111111111111112
aF4.277777777777778
aF4.402777777777778
aF4.472222222222222
aF0.7499999999999999
aF0.7499999999999999
aF0.7499999999999999
aF0.18055555555555555
aF2.631944444444444
aF0.18055555555555555
aF4.402777777777778
aF4.597222222222222
aF0.8263888888888888
aF4.097222222222222
aF4.291666666666667
aF0.7499999999999999
aF4.166666666666667
aF4.078703703703704
aF4.236111111111112
aF4.597222222222222
aF4.24537037037037
aF0.375
aF4.083333333333334
aF2.4375
aF3.3379629629629632
aF4.597222222222222
asS'date'
p25
ctime
struct_time
p26
((I2014
I11
I27
I20
I3
I7
I3
I331
I-1
tp27
(dp28
tp29
Rp30
sbag0
(g10
g2
Ntp31
Rp32
(dp33
g14
VProving the Illuminati is Real!
p34
sg16
Vhttp://www.youtube.com/watch?v=03_Tby_ICCw&feature=youtube_gdata_player
p35
sg18
Vhttp://i.ytimg.com/vi/03_Tby_ICCw/0.jpg
p36
sg20
V03_Tby_ICCw
p37
sg22
F3.2081505847953222
sg23
(lp38
F4.298611111111112
aF4.597222222222222
aF0.9305555555555556
aF2.3680555555555554
aF4.273148148148148
aF4.125
aF4.284722222222222
aF4.152777777777778
aF4.291666666666667
aF3.9999999999999996
aF0.9305555555555556
aF4.291666666666667
aF4.402777777777778
aF0.8333333333333333
aF4.291666666666667
aF3.719444444444445
aF4.152777777777778
aF4.388888888888889
aF4.097222222222222
aF2.5555555555555554
aF4.125
aF4.041666666666667
aF2.708333333333333
aF4.597222222222222
aF4.236111111111112
aF0.8333333333333333
aF4.597222222222222
aF0.18055555555555555
aF0.9583333333333334
aF4.097222222222222
aF4.152777777777778
aF4.229166666666666
aF4.152777777777778
aF4.291666666666667
aF0.4166666666666665
aF4.041666666666667
aF1.0555555555555554
aF0.3055555555555555
aF4.37962962962963
aF4.180555555555555
aF4.291666666666667
aF0.9583333333333334
aF0.3055555555555555
aF1.1666666666666667
aF4.416666666666667
aF4.111111111111112
aF4.597222222222222
aF4.805555555555555
aF2.559027777777778
aF4.291666666666667
aF4.597222222222222
aF4.097222222222222
aF0.7499999999999999
aF4.111111111111112
aF4.277777777777778
aF4.145833333333334
aF3.1296296296296298
aF4.083333333333333
aF0.9305555555555556
aF2.4652777777777777
aF4.152777777777778
aF0.7847222222222223
aF2.1833333333333336
aF0.888888888888889
aF0.9583333333333334
aF4.097222222222222
aF4.111111111111112
aF4.097222222222222
aF4.097222222222222
aF4.118055555555555
aF4.166666666666667
aF0.9027777777777778
aF0.9305555555555556
aF0.8472222222222221
aF4.125
aF0.3472222222222222
aF2.9398148148148153
aF4.263888888888889
aF4.347222222222221
aF4.284722222222222
aF4.097222222222222
aF4.097222222222222
aF4.083333333333333
aF4.180555555555555
aF0.9583333333333334
aF4.166666666666667
aF4.013888888888889
aF0.8333333333333333
aF4.097222222222222
aF4.291666666666667
aF4.354166666666667
aF1.0555555555555554
aF2.7638888888888884
aF4.3125
aF4.166666666666667
asg25
g26
((I2014
I11
I21
I23
I51
I58
I4
I325
I-1
tp39
(dp40
tp41
Rp42
sbasb.