(i__main__
Channel
p0
(dp1
S'videos'
p2
(lp3
(i__main__
Video
p4
(dp5
S'meanScore'
p6
F4.5
sS'individualScores'
p7
(lp8
F2.2
aF4.3
aI3
asS'name'
p9
S'name1'
p10
sba(i__main__
Video
p11
(dp12
g6
F4.5
sg7
(lp13
F2.3
aF3.3
aI4
asg9
S'name2'
p14
sba(i__main__
Video
p15
(dp16
g6
F4.5
sg7
(lp17
F2.4
aF2.3
aI3
asg9
S'name3'
p18
sba(i__main__
Video
p19
(dp20
g6
F4.5
sg7
(lp21
F2.5
aF4.3
aI1
asg9
S'name4'
p22
sbasb.