ccopy_reg
_reconstructor
p0
(ciovideocache
Channel
p1
c__builtin__
object
p2
Ntp3
Rp4
(dp5
S'name'
p6
Vsmosh
p7
sS'videos'
p8
(lp9
g0
(ciovideocache
Video
p10
g2
Ntp11
Rp12
(dp13
S'title'
p14
VTOP 10 VIDEO GAME DANCES
p15
sS'url'
p16
Vhttp://www.youtube.com/watch?v=5DiVWryN4kE&feature=youtube_gdata_player
p17
sS'image'
p18
Vhttp://i.ytimg.com/vi/5DiVWryN4kE/0.jpg
p19
sS'video_id'
p20
V5DiVWryN4kE
p21
sS'score'
p22
F3.516160493827161
sS'individual_scores'
p23
(lp24
F4.263888888888889
aF1.1666666666666667
aF0.9027777777777778
aF0.8333333333333333
aF0.8333333333333333
aF0.3055555555555555
aF4.361111111111112
aF2.4652777777777777
aF4.138888888888889
aF0.8333333333333333
aF4.50462962962963
aF4.180555555555555
aF4.131944444444445
aF3.2129629629629632
aF4.333333333333333
aF4.73611111111111
aF0.8333333333333333
aF4.236111111111112
aF4.597222222222222
aF2.402777777777778
aF4.048611111111111
aF4.138888888888889
aF4.597222222222222
aF4.388888888888889
aF3.9999999999999996
aF0.7499999999999999
aF4.083333333333333
aF4.236111111111111
aF4.180555555555555
aF2.8833333333333333
aF4.597222222222222
aF3.9861111111111116
aF4.73611111111111
aF4.402777777777778
aF0.8333333333333333
aF4.729166666666666
aF4.097222222222222
aF4.138888888888889
aF4.486111111111111
aF4.097222222222222
aF4.138888888888889
aF4.125
aF4.597222222222222
aF4.73611111111111
aF4.597222222222222
aF4.347222222222222
aF0.3055555555555555
aF4.097222222222222
aF4.73611111111111
aF4.263888888888889
aF4.597222222222222
aF0.4583333333333333
aF4.611111111111112
aF4.083333333333333
aF4.180555555555555
aF4.597222222222222
aF4.104166666666667
aF4.347222222222221
aF4.722222222222222
aF4.597222222222222
aF0.9305555555555556
aF4.4375
aF4.083333333333333
aF1.1527777777777777
aF4.805555555555555
aF4.597222222222222
aF0.8333333333333333
aF0.9166666666666667
aF4.138888888888889
aF4.805555555555555
aF4.236111111111112
aF4.277777777777778
aF4.500000000000001
aF4.138888888888889
aF0.9305555555555556
asS'date'
p25
ctime
struct_time
p26
((I2014
I11
I28
I20
I0
I8
I4
I332
I-1
tp27
(dp28
tp29
Rp30
sbag0
(g10
g2
Ntp31
Rp32
(dp33
g14
VI WAS AN EVIL KID (BTS)
p34
sg16
Vhttp://www.youtube.com/watch?v=_2IedPi-X5s&feature=youtube_gdata_player
p35
sg18
Vhttp://i.ytimg.com/vi/_2IedPi-X5s/0.jpg
p36
sg20
V_2IedPi-X5s
p37
sg22
F3.750400157909848
sg23
(lp38
F4.378472222222221
aF4.319444444444444
aF4.624999999999999
aF4.263888888888889
aF4.125
aF3.972222222222222
aF2.4097222222222223
aF4.236111111111112
aF4.319444444444444
aF4.444444444444445
aF4.263888888888889
aF4.166666666666667
aF0.8611111111111112
aF4.701388888888889
aF4.319444444444444
aF4.138888888888889
aF4.319444444444444
aF4.486111111111111
aF4.402777777777778
aF4.263888888888889
aF4.375
aF4.263888888888889
aF4.152777777777778
aF4.25
aF4.319444444444444
aF4.319444444444444
aF4.097222222222222
aF4.138888888888889
aF4.1875
aF4.319444444444444
aF4.319444444444444
aF4.430555555555555
aF4.416666666666667
aF0.4166666666666665
aF4.201388888888889
aF4.296296296296297
aF4.263888888888889
aF4.340277777777779
aF4.361111111111112
aF4.263888888888889
aF4.333333333333334
aF4.201388888888889
aF4.166666666666667
aF4.173611111111111
aF4.263888888888889
aF4.805555555555555
aF4.263888888888889
aF0.18055555555555555
aF4.097222222222222
aF1.111111111111111
aF2.638888888888889
aF4.215277777777779
aF4.597222222222222
aF4.097222222222222
aF4.180555555555555
aF2.6041666666666665
aF4.097222222222222
aF4.444444444444445
aF4.461805555555555
aF4.388888888888889
aF4.435185185185184
aF4.319444444444444
aF2.902777777777778
aF0.6041666666666666
aF4.319444444444444
aF4.138888888888889
aF4.624999999999999
aF4.097222222222222
aF4.175925925925926
aF4.083333333333333
aF4.3240740740740735
aF3.1203703703703702
aF4.097222222222222
aF0.4166666666666665
aF4.263888888888889
aF4.208333333333334
aF4.138888888888889
aF2.666666666666667
aF2.513888888888889
aF4.083333333333333
aF4.083333333333333
aF4.624999999999999
aF4.083333333333333
aF0.8333333333333333
aF2.763888888888889
aF4.173611111111111
aF4.090277777777778
aF4.624999999999999
aF4.138888888888889
aF4.180555555555555
aF4.263888888888889
aF3.6909722222222223
aF4.597222222222222
aF4.263888888888889
aF3.4
aF4.180555555555555
aF0.4861111111111111
aF4.152777777777778
aF4.722222222222222
aF4.097222222222222
aF4.097222222222222
aF4.138888888888889
aF4.180555555555556
aF2.215277777777778
aF4.73611111111111
aF4.319444444444444
aF4.805555555555555
aF4.263888888888889
aF4.73611111111111
aF4.24537037037037
aF2.6041666666666665
aF4.597222222222222
aF4.208333333333333
aF2.2222222222222223
aF4.319444444444444
aF0.5555555555555556
aF2.6944444444444446
aF4.624999999999999
aF0.5555555555555556
aF4.194444444444444
aF0.18055555555555555
aF2.4097222222222223
aF3.185185185185185
aF2.2847222222222223
aF4.314814814814816
aF4.180555555555555
aF2.4027777777777777
aF3.3009259259259256
aF4.166666666666667
asg25
g26
((I2014
I11
I23
I19
I59
I19
I6
I327
I-1
tp39
(dp40
tp41
Rp42
sbasb.