(iiovideocache
Channel
p0
(dp1
S'name'
p2
Vsmosh
p3
sS'videos'
p4
(lp5
(iiovideocache
Video
p6
(dp7
S'score'
p8
F3.811884645061729
sS'individualScores'
p9
(lp10
F4.378472222222221
aF4.319444444444444
aF4.624999999999999
aF4.125
aF3.972222222222222
aF2.4097222222222223
aF4.236111111111112
aF4.319444444444444
aF4.444444444444445
aF4.263888888888889
aF4.319444444444444
aF4.319444444444444
aF4.319444444444444
aF4.138888888888889
aF4.25
aF4.319444444444444
aF4.319444444444444
aF4.097222222222222
aF4.1875
aF4.319444444444444
aF4.430555555555555
aF4.416666666666667
aF4.340277777777779
aF4.361111111111112
aF0.4166666666666665
aF4.201388888888889
aF4.296296296296297
aF4.263888888888889
aF4.263888888888889
aF4.263888888888889
aF4.333333333333334
aF4.201388888888889
aF4.166666666666667
aF4.173611111111111
aF4.805555555555555
aF4.263888888888889
aF0.18055555555555555
aF4.097222222222222
aF1.111111111111111
aF2.638888888888889
aF2.6041666666666665
aF4.215277777777779
aF4.097222222222222
aF4.597222222222222
aF4.097222222222222
aF4.444444444444445
aF4.180555555555555
aF4.388888888888889
aF4.435185185185184
aF4.461805555555555
aF4.319444444444444
aF2.902777777777778
aF0.6041666666666666
aF4.319444444444444
aF4.138888888888889
aF4.624999999999999
aF3.1203703703703702
aF4.097222222222222
aF4.175925925925926
aF4.083333333333333
aF4.138888888888889
aF4.3240740740740735
aF4.097222222222222
aF0.4166666666666665
aF2.513888888888889
aF4.263888888888889
aF4.208333333333334
aF4.083333333333333
aF2.666666666666667
aF4.083333333333333
aF4.624999999999999
aF4.083333333333333
aF0.8333333333333333
aF2.763888888888889
aF4.173611111111111
aF4.263888888888889
aF4.090277777777778
aF4.624999999999999
aF4.138888888888889
aF4.180555555555555
aF4.263888888888889
aF3.6909722222222223
aF4.597222222222222
aF4.097222222222222
aF3.4
aF4.180555555555555
aF0.4861111111111111
aF4.152777777777778
aF4.097222222222222
aF4.138888888888889
aF4.180555555555556
aF2.215277777777778
aF4.73611111111111
aF4.24537037037037
aF4.319444444444444
aF4.805555555555555
aF2.6944444444444446
aF4.263888888888889
aF4.73611111111111
aF4.624999999999999
aF2.6041666666666665
aF4.597222222222222
aF4.208333333333333
aF2.2222222222222223
aF3.7888888888888888
aF2.4097222222222223
aF3.185185185185185
aF0.18055555555555555
aF4.291666666666666
aF4.263888888888889
aF4.212962962962963
aF4.319444444444444
aF4.138888888888889
aF4.314814814814816
aF4.173611111111111
aF4.125
aF4.180555555555555
aF4.319444444444444
aF2.4027777777777777
aF4.166666666666667
asS'videoId'
p11
V_2IedPi-X5s
p12
sg2
g12
sba(iiovideocache
Video
p13
(dp14
g8
F3.5552734375
sg9
(lp15
F4.319444444444444
aF3.3784722222222223
aF0.18055555555555555
aF3.152777777777778
aF4.194444444444445
aF4.73611111111111
aF0.4861111111111111
aF4.5
aF1.8842592592592593
aF2.215277777777778
aF4.180555555555556
aF4.40625
aF0.3055555555555555
aF4.493055555555555
aF4.624999999999999
aF0.9305555555555556
aF0.8333333333333333
aF4.277777777777778
aF4.25
aF4.173611111111111
aF4.287037037037037
aF4.73611111111111
aF4.166666666666667
aF1.1666666666666667
aF4.263888888888889
aF3.1018518518518516
aF0.8333333333333333
aF4.73611111111111
aF4.597222222222222
aF4.263888888888889
aF4.263888888888889
aF4.597222222222222
aF0.9305555555555556
aF4.319444444444444
aF4.402777777777778
aF0.8333333333333333
aF4.597222222222222
aF4.597222222222222
aF4.041666666666667
aF4.722222222222222
aF0.5555555555555556
aF0.8333333333333333
aF4.486111111111111
aF4.236111111111112
aF4.097222222222222
aF4.513888888888888
aF2.8472222222222214
aF1.9074074074074074
aF4.263888888888889
aF2.5555555555555554
aF4.263888888888889
aF4.263888888888889
aF4.236111111111112
aF4.319444444444444
aF0.9583333333333334
aF4.319444444444444
aF0.5555555555555556
aF4.097222222222222
aF4.138888888888889
aF4.097222222222222
aF4.416666666666667
aF4.097222222222222
aF4.73611111111111
aF4.444444444444445
aF4.500000000000001
aF4.097222222222222
aF4.263888888888889
aF2.4097222222222223
aF4.314814814814814
aF4.180555555555555
aF0.4861111111111111
aF4.520833333333333
aF4.597222222222222
aF4.236111111111112
aF2.611111111111111
aF4.5
aF4.097222222222222
aF4.277777777777778
aF4.236111111111112
aF2.5833333333333335
aF2.4097222222222223
aF4.319444444444444
aF4.138888888888889
aF4.256944444444445
aF4.138888888888889
aF4.73611111111111
aF3.7407407407407405
aF4.291666666666667
aF4.319444444444444
aF0.9027777777777778
aF3.9861111111111116
aF4.152777777777778
aF4.263888888888889
aF4.722222222222222
aF4.444444444444445
aF1.1666666666666667
aF2.4097222222222223
aF4.229166666666667
aF0.6527777777777779
aF3.9999999999999996
aF1.0138888888888886
aF4.166666666666667
aF4.416666666666667
aF4.493055555555555
aF2.4097222222222223
aF4.263888888888889
aF4.319444444444444
aF3.4861111111111116
aF4.319444444444444
aF4.125
aF4.73611111111111
aF1.1666666666666667
aF4.180555555555555
aF4.083333333333333
aF4.236111111111112
aF4.097222222222222
aF4.416666666666666
aF4.041666666666667
aF4.236111111111112
aF4.166666666666667
aF3.378472222222222
aF0.5555555555555556
aF4.243055555555555
aF2.4097222222222223
aF2.451388888888889
aF3.9861111111111116
aF4.73611111111111
aF4.361111111111111
aF0.4861111111111111
aF4.319444444444444
aF4.430555555555555
aF0.8333333333333333
aF4.083333333333334
aF4.319444444444444
aF4.597222222222222
aF4.624999999999999
aF4.173611111111111
aF4.138888888888889
aF4.180555555555555
aF4.208333333333333
aF0.4444444444444443
aF0.9583333333333334
aF4.083333333333333
aF2.4097222222222223
aF4.263888888888889
aF4.180555555555555
aF0.3055555555555555
aF4.624999999999999
aF4.090277777777778
aF4.722222222222222
aF4.402777777777778
aF2.5069444444444446
aF4.722222222222222
aF4.722222222222222
aF4.430555555555555
aF4.263888888888889
aF4.73611111111111
aF4.263888888888889
aF4.236111111111112
aF4.166666666666667
asg11
V7nNGYMRCDOQ
p16
sg2
g16
sbasb.