(dp1
S'title'
p2
VMovies In Minutes - New Moon
p3
sS'url'
p4
Vhttp://www.youtube.com/watch?v=4dx0MwgIZos&feature=youtube_gdata_player
p5
sS'image'
p6
Vhttp://i.ytimg.com/vi/4dx0MwgIZos/0.jpg
p7
sS'comments'
p8
(lp9
S'Sean was getting some booty cx\xef\xbb\xbf'
p10
aS"LOL 03:00 ryan's hand movements ;) HES SO CUTE\xef\xbb\xbf"
p11
aS'"Jake your all... penguin?" Lmao Killed me! \xef\xbb\xbf'
p12
aS'Please do eclipse and bd\xef\xbb\xbf'
p13
aS'*violently dances through meadows*\xef\xbb\xbf'
p14
aS'Haha omg, I had totally forgot this! Still hilarious :D\xef\xbb\xbf'
p15
aS'I laughed so hard at 0:26 in the background!!!\xef\xbb\xbf'
p16
aS'Myspace:\nhttp://www.myspace.com/RyanNigaHiga\xef\xbb\xbf'
p17
aS'"its time its time bella we bought you this cake" loooooool\xef\xbb\xbf'
p18
aS'Iv never seen the movie.. only read the book. Seems much better.\xef\xbb\xbf'
p19
aS'We have that Wendy house\xef\xbb\xbf'
p20
aS'Alice in 0:29 can move waaay better than I can. o.o Shake that!\xef\xbb\xbf'
p21
aS'3:07 laugh my butt off!! Lmao\xef\xbb\xbf'
p22
aS'Hhhhahahahah\xef\xbb\xbf'
p23
aS'OMFG SEAN AS JACOB IM DYING XD\xef\xbb\xbf'
p24
aS'oh gosh, no matter how many times i watch this video i always laugh so hard \nXD\xef\xbb\xbf'
p25
aS'The short movies are funny.\xef\xbb\xbf'
p26
aS"I used to watch this like 10 times a day hahaha I can't believe it's been 5 \nyears\xef\xbb\xbf"
p27
aS'such fetus\xef\xbb\xbf'
p28
aS'BETTER THAN THE ACTUAL FILM!!\xef\xbb\xbf'
p29
aS'ALICE wtf is she doing in the background \xef\xbb\xbf'
p30
aS'Dear Ryan Cavan you react to your old videos?\xef\xbb\xbf'
p31
aS'I miss Tim. TIM COME BACK!\xef\xbb\xbf'
p32
aS'That was freaking hilarious \xef\xbb\xbf'
p33
aS'Looool I was expecting a half naked Ryan because of the scene with Ed in \nthe sun ...\xef\xbb\xbf'
p34
aS'the ending tho.lol!\xef\xbb\xbf'
p35
aS'xD\xef\xbb\xbf'
p36
aS'Bella here is most beautiful, ah.. kawaii desu yo ne in japonese right? \nWell Bella is so beautiful in this video :33\xef\xbb\xbf'
p37
aS'Omg I laughed so hard when the house broke\xef\xbb\xbf'
p38
aS'lol dat was funny! Bloopers\xef\xbb\xbf'
p39
aS"Why is Tim always the one that has to get genuinely hurt in his roles? Like \nin this video, and in 'House'.\xef\xbb\xbf"
p40
aS'Dear Ryan,\n\nCan you show your idea making process for these hilariously brilliant \nvideos?\xef\xbb\xbf'
p41
aS"It's August 4 today lol!\xef\xbb\xbf"
p42
aS'Awesome Video god so funny\xef\xbb\xbf'
p43
aS'This was better then the movie!\xef\xbb\xbf'
p44
aS'I wish that Ryan and Tarynn were still together\xf0\x9f\x98\x94\xef\xbb\xbf'
p45
aS'Ryan does touch below her lower back... it is natural, though they were in \nlove! just that the rare time Ryan do st more adult than kid stuff... i \nthink he has to withhold some particular to keep his channel innocent, pg \n13, suitable for kid fans,...U know, all utubers of his age can freely talk \nabout sexual things on their channel\xef\xbb\xbf'
p46
aS'Watching this in 2014!\xef\xbb\xbf'
p47
aS"I know they probably won't get back together... but Ryan and Tarynn are \nstill my OTP <3\xef\xbb\xbf"
p48
aS"0:25 these thots don't know how to control their selves lol\xef\xbb\xbf"
p49
aS'jake ur a....... penguin\xef\xbb\xbf'
p50
aS'PENGUIN hahahahah\xef\xbb\xbf'
p51
aS'I love the bloopers.they are so funny. \xef\xbb\xbf'
p52
aS"you're a........ penguin\xef\xbb\xbf"
p53
aS'I love twilight but this is awesome\xef\xbb\xbf'
p54
aS'0:47 Ouch painful\xef\xbb\xbf'
p55
aS'I loved tim enos he was too funny and that dance at 0:25 lol\xef\xbb\xbf'
p56
aS'00:28 Alice and jasper were hilarious. :)\xef\xbb\xbf'
p57
aS'ahahaha\xef\xbb\xbf'
p58
aS'And it was all over when Jacob came on the screen--HAHAHA! Loved this!\xef\xbb\xbf'
p59
aS'I wish Ryan would keep this hairstyle o>_<o~\xef\xbb\xbf'
p60
aS'i think tim enos is the best actor of all of the yabo, because he can \nmanage not to laugh while everyone who has a scene with him can not control \nlaughing at him. i just miss tim enos & the other yabo crews. i miss tarynn \nbeing with ryan too. but they are both happy now with their own lives.\xef\xbb\xbf'
p61
aS'oh no ur breath!!!\xef\xbb\xbf'
p62
aS'3:18 twerking was invented\xef\xbb\xbf'
p63
aS'THE LAST BLOOPER XDDD\xef\xbb\xbf'
p64
aS'Ummmmmm wtf I have no clue what I just watched \n\xef\xbb\xbf'
p65
aS'2;00 is so funny\xef\xbb\xbf'
p66
aS'The hair Sean was wearing AHAHAHAAH!!!\xf0\x9f\x98\x82\xef\xbb\xbf'
p67
aS'Ryan has such a great smile :)\xef\xbb\xbf'
p68
aS'They (Ryan&Tarynn) were broke up not long after this video taping?\xef\xbb\xbf'
p69
aS'0:26 is the best xD\xef\xbb\xbf'
p70
aS'Lol this still makes me laugh after all these years! Alice was the best!!\xef\xbb\xbf'
p71
aS"Ah memories of Ryan Higa's old crew\xef\xbb\xbf"
p72
aS'love hid vids\xef\xbb\xbf'
p73
aS'Hey Ryan do the breaking dawn part 1 and 2\xef\xbb\xbf'
p74
aS'its so funny - i used this music off imovie ;D \xef\xbb\xbf'
p75
aS"Ryan your movie in minutes are super funny couldn't stoping laughing at all\xef\xbb\xbf"
p76
aS'3:00 im jelous of that girl -.-\xef\xbb\xbf'
p77
aS"When he's smiling... Ik it's not only me.. But then everyone else just ends \nup smiling or laughing with Ryan... Idk his smile and laugh just make me \nwant to smile and laugh too... It's contagious haha\xef\xbb\xbf"
p78
aS'Hahahaha awesomee\xef\xbb\xbf'
p79
aS'love the werewolf \xef\xbb\xbf'
p80
aS"Sooo is that Ryan's ex? o.o \xef\xbb\xbf"
p81
aS'jaspie? lol\xef\xbb\xbf'
p82
aS'when he was with Nago, he looked so happy\xef\xbb\xbf'
p83
aS'Dude thats hilarious???!. XD\xef\xbb\xbf'
p84
aS'3:17 LMAOOOOOOOOOOOOOOOOOOOOOOOOOO\xef\xbb\xbf'
p85
aS'xD hahaha love him\xef\xbb\xbf'
p86
aS'OMG we have the exact same playhouse\xef\xbb\xbf'
p87
aS"I honestly miss that Guy. Not Sean. But that guygirl. Gosh where'd he go? I \nthink he was related to Ryan's ex so after the breakup they're no longer \naround. *sigh* memories.\xef\xbb\xbf"
p88
aS'I remember when I first watched this aw good times\xef\xbb\xbf'
p89
aS'Lol\xef\xbb\xbf'
p90
aS'OMG in the twilight one and in this one Alice is the best ahahah! please \nmake the other 2 movies as well!\xef\xbb\xbf'
p91
aS'the best taylor lautner dance scene ive ever seen\xef\xbb\xbf'
p92
aS"The girl- Tarynn Nago, was Ryan's old gf\xef\xbb\xbf"
p93
aS'Lol pinguin\xef\xbb\xbf'
p94
aS'Jake your a penguin? \xef\xbb\xbf'
p95
aS"What is Sean saying at 2:56?  I can't understand what they're chuckling at.\xef\xbb\xbf"
p96
aS'Lol those dance moves!!!!\xef\xbb\xbf'
p97
aS'OMG I never new you did a twilight one. This is halarious. Thank you, Ryan.\xef\xbb\xbf'
p98
aS'Asian New Moon.\xef\xbb\xbf'
p99
aS'you guys make Bella look like shes an idiot 2:01\n"your a penguin"\nlol\xef\xbb\xbf'
p100
aS'3:20 Poor Sean... poor, poor Sean... XC\xef\xbb\xbf'
p101
aS'Still better than the real twilight\xef\xbb\xbf'
p102
aS"You're a penguin?\xef\xbb\xbf"
p103
aS'omg sean <3\xef\xbb\xbf'
p104
aS'Brings back memories\xef\xbb\xbf'
p105
aS"You're a...PINGUIN?\nLOL,cannot stop laughting\xef\xbb\xbf"
p106
aS'BRING BACK YABO CREW\xef\xbb\xbf'
p107
aS'Penguin?\xef\xbb\xbf'
p108
aS'i still quote this all the time omg\xef\xbb\xbf'
p109
aS'0:25 dat dance ahaha & the last blooper was joke lmao\xef\xbb\xbf'
p110
aS'Lmao love this one never gets ol\xef\xbb\xbf'
p111
aS'1:44\xef\xbb\xbf'
p112
aS'Tim Enos is one majestic motherfucker\xef\xbb\xbf'
p113
aS'Your videos make me laugh so much :D\xef\xbb\xbf'
p114
aS'0:07 my boyfriend did that to me-.-\xef\xbb\xbf'
p115
aS'I stopped watching your vids after the shamwoohoo :(\xef\xbb\xbf'
p116
aS'best video ever\xef\xbb\xbf'
p117
aS"Why is there no teehee's?\xef\xbb\xbf"
p118
aS'3:00 Ryan is touching her butt xD\xef\xbb\xbf'
p119
aS'give that darn dog a treat!\xef\xbb\xbf'
p120
aS'Ive never laughed so hard hahaha\xef\xbb\xbf'
p121
aS'MOVIES IN MINUTES- HUNGER GAMES\xef\xbb\xbf'
p122
aS'00:27 Dat dance tho\xef\xbb\xbf'
p123
aS"3:05 Ryan's hand... 0_0\xef\xbb\xbf"
p124
aNaS'Luv ur videos\xef\xbb\xbf'
p125
aS'I wonder where Tim is?'
p126
aS"She's beautiful"
p127
aS'Purple NURPLE'
p128
aS"I think it was because Ryan had to move to L.A. I'm not completlely sure "
p129
aS'Dragons can be cute too, I think. Well, they can be chibi then.'
p130
aS'you should make a hunger games'
p131
aS"We're Ryan and tarynn dating at the time? Cuz they were like holding hands \nand stuff. It was pretty cute"
p132
aS'Alice drop it like its hot in the background XD hahaha 0:27-:30'
p133
aS'HAHAHAHAH, TIM IS SO FUNNY.'
p134
aS'"Jake your a penguin?" I died'
p135
aS'omg they are so funny '
p136
aS"Why are all of the actors Asian not that I don't like Asians just wondering \nwhy not a fat American yo?"
p137
aS'simply awsum! '
p138
aS'this is so funnyyy'
p139
aS'OMG LOL SOOOO FUNNY! Can you PLZ PLZ PLZ PLZ PLZ PLZ make a parody of \neclipse????????????? PLZZZZZZ!!! MY FRIENDS AND I LAFED OUR HEADS OFF \nSEEING TWILIGHT AND NEW MOON!!!! Plz.........'
p140
aS'Thumb up if you saw the background at 0:25 '
p141
aS'no teehee :('
p142
aS'it wass :DD dawww'
p143
aS'Thank you for making fun of twilith'
p144
aS"'jaaspi, do i look fat in this dress' xD i love it when he nods xD"
p145
aS"You're a Pe...Penguin?"
p146
aS'Good vidio'
p147
aS'0:25 he was dropping it like it was hot'
p148
aS'Lol'
p149
aS'Do you even lift bro'
p150
aS'Ryan I sooooo cute'
p151
aS'T.T fine but I wanted it to be a penguin cos they are so cute. Oh well. '
p152
aS'So now I guess vampires are mermaids and werewolves are penguins'
p153
aS'Makes much more sense'
p154
aS'All this time I though Ryan was playing multiple parts. I guess all Asians \nlook the same Loljk'
p155
aS'I SHAT MEESULF'
p156
aS'Who gives a sharp knife as a gift? '
p157
aS'it took me 95Nm to nipple cripple my friend until he was on the floor \nunconscious '
p158
aS'Soooo much better than the original!'
p159
aS'Go Team Ballerina Jacob!!!'
p160
aS'rofling 2 tears when he was dancing on him & then when ryan threw her on \nthe couch & punched her'
p161
aS'Laurent: "Mon"'
p162
aS'Its in 2009.. all his videos from 2009, peeps keeps saying wheres the \nTEEHEE..... gosh..'
p163
aS'dear ryan please do another movie in minutesxD the way that guy says Jaspy \ncracks me up every time xDDryan and the girl are a cute couple btw'
p164
aS'Teehee Happy now?'
p165
aS"Wait! I got it! He's a dragon!"
p166
aS'Does this dress make me look fat? XD'
p167
aS"WTF dude?! this was in 2009 damn it! Ryan at time didn't had the TEEHEE in \nthe end!"
p168
aS"I have watched this at least 4 times. I still can't watch it without \nlaughing uncontrollably"
p169
aS'what is the bloopers music!?!?'
p170
aS'The bloopers were hilarious!!!!'
p171
aS'i think so.'
p172
aS"You're still too fat"
p173
aS"because he's from hawaii and hawaii is known for breading a new kinds of \nasians "
p174
aS'Yeah they were'
p175
aS'OMG! Tim can do every character!! xD'
p176
aS'its time its time'
p177
aS'who plays alice?'
p178
aS'This brings so many memories. Especially of a friend I really miss.'
p179
aS'twilight : rise of the weredicks'
p180
aS'Penguin? XD'
p181
aS'You should make more of these.'
p182
aS"Chibi is pretty cute. 'Cause it is."
p183
aS'What\'s a "jay-peg"?'
p184
aS'Lol 3:04 Someone is being a little touchy touchy *cough* Ryan *cough*'
p185
aS'Asian Twilight :D awesome'
p186
aS'To all you people who say 2009 is when ryan did not have the teehee yet he \ndidin how to be ninja it had the TeeHee'
p187
aS"i don't see the difference in it "
p188
aS"I'm* beginner* it's* noticed* maybe* A LOT* lying* thank* Have a nice day. \n:)"
p189
aS'2013'
p190
aS'Twilight starring asians <3'
p191
aS'A penguin!!!!! And when she asked him to kiss her. He said no ur still to \nfat'
p192
aS'MAKE ANOTHER ONE OF THESE :)'
p193
aS'LOL EXACTLY LIKE ME AND MY SIBLING XDD'
p194
aS'jasspe does this drees make me look fat jasspe; *nods* she start to danc3'
p195
aS'What did he put on ? xD'
p196
aS'They were such a cute couple.'
p197
aS'Who saw "Alice" dance at 0:26?'
p198
aS'Hecka funny'
p199
aS'anyone know the background music at the end?'
p200
aS'TEAM JACOB!!'
p201
aS'i miss these videos'
p202
aS'is that the regina wig '
p203
aS'His face is freaking white RYAN, YOU SHOULD HAVR PUT GLITTER OR SPARKLES ON \nYOUR FACE'
p204
aS'FETUS RYAN'
p205
aS'I miss Tim'
p206
aS'I think I heard someone say "Jai Yen" which is Thai language meant Take it \neasy or Tell someone to comedown. Cool!'
p207
aS"its like the nipple cripple is eddie's secret move!"
p208
aS'Do the avengers'
p209
aS'I like the part when he falls wit him'
p210
aS'haha, they should have used marley instead of that big dog.'
p211
aS'I would totally watch this if it was made into a movie!! Lol i laughed so \nmuch!! "Jake you\'re a...... Penguin?"'
p212
aS'that movie SUCKED!'
p213
aS'Your a penguin'
p214
aS'Haha! Nipple twist!'
p215
aS'Is she his gf?'
p216
aS'Ur a penguin'
p217
aS'dear ryan, random titty twisters '
p218
aS'Hes wearing so much foundation'
p219
aS'Yeah, they used to date.'
p220
aS'Penguin :P'
p221
aS'The last blooper xD'
p222
aS'Twilight-Asian Town'
p223
aS'Do the hunger games'
p224
aS'Yo, Ryan you should totally do an twilight breaking dawn part 2'
p225
aS'LoL, really looked like Edward.'
p226
aS'Imfao'
p227
aS'Penguin?'
p228
aS'do hungergames :3'
p229
aS'This was poseted on my birthday. Yay'
p230
aS'Why no teehee at end'
p231
aS'0:20-0:29 the best part'
p232
aS'u mean tim? i dont know '
p233
aS"I wonder how Tim is doing now... He's so funny!!"
p234
aS'Das right Ryan... raise that hand up. 3:03'
p235
aS'Than the realt'
p236
aS'still extremely accurate '
p237
aS'Last bit. Snorted water all over my screen. They are soooooo funny!!!'
p238
aS'0:45 boom boom boom, NIPPLE TWIST!!!!!!'
p239
aS'HE SAYS NAHH UR STILL TO FAT'
p240
aS'What happened to Tim he is hilarious'
p241
aS'Nipple twist'
p242
aS'Omg so funny!~ :)'
p243
aS'I remember having to watch the actual movie on a flight to Ireland in \nGerman. o-o...'
p244
aS'WE WANT TIM ENOS BACK'
p245
aS'I love twilight but this is funny'
p246
aS'Nvm'
p247
aS'LOL 0:26 to 0:28 @ back'
p248
aS"who's the girl ? I think she and Ryan were in some kind of relationship."
p249
aS"It's black isn't it? There are more black penguins than black dragons thus \nit's a penguin even though it looks like a dragon breathing fire. :P"
p250
aS'if twilight was made by Asians , that willl be more worse movie in history \nteeeheeee ;;)'
p251
aS'that hand.'
p252
aS'Lama'
p253
aS'At 1:04 to 1:07 it is funny'
p254
aS'To everyone hating on this video, this video was made early on in his \ncareer. It was made in 2009...'
p255
aS'Lol 00:30 was hilarious'
p256
aS'they were '
p257
aS'Bella: "You\'re a....PENGUIN" WTF! '
p258
aS'3:01 "Why are you laughing?" lol and he was dead serious'
p259
aS'if u stop exactly on 3:03 u will see evertbody looking at bellas breasts n \nthen shes like "UH OOH" lol'
p260
aS'did you try to make video u and smouch'
p261
aS"Bahahahaha 'You're a .... penguin??' xDD"
p262
aS'how did , a bunch of Japanese people meet each other in Hawaii :/ :P'
p263
aS'sale milee kaha bhai :P ese kese hawaii me wo bhi Ek jaat ke xP'
p264
aS'when i saw the bloopers part,i laughed like hell!!!!'
p265
aS'The bloopers were the funniest part'
p266
aS'the blood in this was more realistic than the blood in the movie...'
p267
aS'1:03 XDDDDDDDD'
p268
aS'smosh has a 100,000 doller budjet'
p269
aS"Bella: So now will you kiss me? Edward: Naw you're still too fat. "
p270
aS'How did this comment become a Top Comment T_T'
p271
aS'loooooooooooool'
p272
aS'because he is a girl'
p273
aS'Sab choobe hai xP '
p274
aS'Thats exectly how i saw the movie'
p275
aS'All Twilight movies in a nutshell... "Oh my God, we\'re gonna be so happy!" \nGirl with short hair and premonitions: *Drops vaze* "Oh no you\'re not, evil \nis upon us!!" Teen-Wolf: "The wolfs will help, me love Bella, me Bella \nhappy, ugh, ugh!!" United we will win!! (without, of course getting into \nbattle) On a serious note... how many vazes does that freaking house \nhave???:P'
p276
aS'What DID happen to Tarynn?? '
p277
aS'Loll'
p278
aS'I love those parodies... xD '
p279
aS'This is so lame now tht i think watch it again'
p280
aS'Haha penguin'
p281
aS'Your a PENGUIN?'
p282
aS'I like niggers'
p283
aS'He had his TEEHEE since 2008/7. His old rant videos.'
p284
aS'I miss this crew'
p285
aS'probably'
p286
aS'The person that places Alice is fuckin funny!'
p287
aS'Love the nipple twister!'
p288
aS'213 he says naw your still so fat'
p289
aS'Does it also come with free UNLIMITED VIRUSES? :D'
p290
aS'TEHEE ?!!!!'
p291
aS'"jake your a... a penguin" lol'
p292
aS"Nope I'm pretty sure she's right. You guys don't know a penguin when you \nsee one."
p293
aS"it's ironic that a vampire stops the mosquito from sucking her blood..."
p294
aS'Ryan should be an idol, or at least host of some show... He has looks and \npersonality for that.. :)'
p295
aS"sean's gooooood :D"
p296
aS"In the bloopers all I see is Ryan's hand moving on 'bellas' hip hahaha xD"
p297
aS'I laughed so much soda came squirting out of my nose! '
p298
aS'is it just me or do i keep staring at the guy in the dress dancing in the \nbackground at 0:27?'
p299
aS'Books in Minutes, Twilight: \nhgjkrnhij356bnhgrgb3g53bbqchjrebjkzsjnxerjinvrtuhrcjcjhqu3rnf2uv3vrb478vgb8yut5grtjifwrivpogkt,bln;lllxweifjnfi4i24fimrefjkermpogbt3b0nit54nuerhwigtruwrintgtnferiq4i954ioyk6yhgi3bit5bi23utb2itubg5u3h967h967h6h64hj64j56gj5uj5fgy5458tfuct58kgu54gt58ygt49j47g5h3g8h35uigeurbgnrnswjndfencnxjd6nshjvedbgtuesom,tg83yh5d8gh4x5fx894hnfkn49btybnv,ibuy3bnutbg35utgn5utgudynuvbgnbxuhvrnhnfgyhmgudnrfnrfonwekfdntrngiref489hg38gh2ufn4tf4tufnrhjgfbtu7ygbnt3jfn4hjrgfn4rjbg4uhgb5t3uhgb5t'
p300
aS'Still a better love story than actual twilight '
p301
aS'Moooooo'
p302
aS'Is that ryans ex?'
p303
aS"He doesn't do teehee in movies in minutes"
p304
aS'Jaspy? Does this dress make me look fat? NOD'
p305
aS'it was laurent'
p306
aS'Oh my god the last blooper! What if that happened in the actual movie...'
p307
aS'So hating on that girl .-.'
p308
aS'New Moon asian version.'
p309
aS'they just should have covered their faces in glue and pour sparkles on them'
p310
aS"you're so true... epic.. xD"
p311
aS'Hi guys! You should check out my channel "TheCharlesPatterson" I do vlogs \nand stuff every time I get the chance, please, just check it out... See if \nyou like it!'
p312
aS'3:03--> Ryans fingers on her booo-tae!!! #classy :D '
p313
aS'In the back 0:27...LMFAO XDD'
p314
aS'I have been on Youtube for almost 4 years now, And I\'ve gone through many \ndifferent channels trying to get "Big". But It never happens. The most \nSubscribers I\'ve ever had was 300, but 250 of them were inactive. Now I \nhave 92 Subscribes, And I\'m happier because they are Real, Active \nSubscribers. So If you could come to my channel for 30 seconds you might \nlike my videos Anyway thanks for reading this far into my Comment, and If \nyou have then maybe leave a like so other people could see this.'
p315
aS'that dancing scene always makes LMFAO'
p316
aS'i really like this new moon version.hahaha'
p317
aS'Is that a real knife :D'
p318
aS'Better than new moon'
p319
aS"Yeeeaaaahh..NO HE'S NOT :/"
p320
aS'lol'
p321
aS'lmfao 0:26 look at alice and jasper xDDDDD'
p322
aS'im gonna die.laughing. oh well at least i die happy. lol'
p323
aS'Lolz'
p324
aS'0;49 NIPPLE TWIST! XD'
p325
aS'ok this is the only exception when im team edward xD'
p326
aS"Did anyone notice Alice's hairy armpits when she was dancing"
p327
aS"jake you're..........peuguie"
p328
aS'Smosh version was way better'
p329
aS'lmfao, was Sean tring to do a Jamaican accent at 1:09?'
p330
aS'this is so gay because there both boys '
p331
aS'lmao *drops it and picks it up*'
p332
aS'I liked the part when they talked'
p333
aS'Thanks to Ryan I like Twilight more now maybe'
p334
aS'lol and "Alice" is over there like dancing on "Jasper" In the corner'
p335
aS'@musikkjojo123 Ryan didnt get marley then'
p336
aS'Hehe'
p337
aS"i love the way 'Jaspy' nods his head as approval :D"
p338
aS'SWOG !!!!!!'
p339
aS'ohhh geebus the way he danced on sean xD '
p340
aS'So hilarious...'
p341
aS'yup yup'
p342
aS'Dear Ryan, can you become a model??'
p343
aS'I literally laughed through the whole of this video! So Funny XD'
p344
aS'Lol'
p345
aS'Dear Ryan, Can You Make A Day In The Life Of One Direction?? Like Your \nRustin Heiner Spoof?'
p346
aS'"Jacop ur a...penguin" lol Xp'
p347
aS'wow this is strange xd'
p348
aS'LOL'
p349
aS"Lesson: Never eat or drink while watching Ryan's videos"
p350
aS"I think Tarynn cheated on him with Sean. That's why neither of them weren't \nin any of his videos for a really long time."
p351
aS'Hahahahahahahah xD'
p352
aS'Nobody is funnier than Tim Enos as Helga Fontanilla'
p353
aS'0:26'
p354
aS"Jacob's entrance was....interesting..."
p355
aS'2:02 is so funny '
p356
aS'Mon'
p357
aS'awww, look at seen in the backround :)'
p358
aS'Look at Alice ..=='
p359
aS"WHO'S DOG IS THAT? WHAT ABOUT MARLEY?"
p360
aS'nah still to fat'
p361
aS"0:26 over and over again :'("
p362
aS"Oh my gosh, finally people who watch Roi and Alex! YAY I'm not the only one \nwho watches them!!!"
p363
aS'The second guy who was hitting on Jasper looks like Chad from Poreotix.'
p364
aS"There's No TEEHEE!!"
p365
aS'He was getting double gayed'
p366
aS'LOL There was a twilight ad right before this'
p367
aS'Okay, seriously, is titty-twisting, like, his signature move or something? \nxD It was in the first one, AND this one! xD'
p368
aS'at 2:25 is soo funny'
p369
aS'Lol'
p370
aS'The guy playing jake running through the woods....is super hott to me XD'
p371
aS'We have one of those Cubbyhouses! :O'
p372
aS'wow hitting on the tits? Dude the tits didnt do anything xD '
p373
aS'why couldnt ryan play the jacob?'
p374
aS'hahahahaha does this dress make me look fat ? and then he nods yes'
p375
aS'Rolanda From hoistroii? I Love Her!!'
p376
aS'breaking dawn plz! '
p377
aS'Bella: so now will you kiss me? Edward: nah your still to fat. LOL! I \ncracked up at that part!'
p378
aS'ryan touched her butt !!'
p379
aS'dear ryan can u make an eclips vid '
p380
aS'Ryan is so much hotter as edward than robert!!!'
p381
aS'Alice looked like Rolanda.'
p382
aS'lol for the jacob penguin'
p383
aS'ryan ia so much hotter than the real edward. TEEHEE'
p384
aS'gaspy?'
p385
aS'why hello, spongeboob!'
p386
aS"That's his ex"
p387
aS"Man i'm proud that Sean is coming back and all but I miss Tim!"
p388
aS'Can i ask u something ? No XD SOOO FUNNY'
p389
aS'was that is girlfriend in the draw my life video???'
p390
aS'His arm around Tarynn! :3 @2:55 and @3:04 :D'
p391
aS'Ryan just looks like the hottest asian vampire ever...'
p392
aS'0:33 I guess they like ketchup.'
p393
aS'Dear Ryan, can you do a movies in minutes for the great gatsby?'
p394
aS'Dear Ryan can you be power rangers'
p395
aS"Well, penguins don't have snouts, now do they? Does it have a beak? No. So \nit's a dragon! =)"
p396
aS'Dear Ryan, an you do both breaking dawn part 1-2 together?'
p397
aS'would love to see you do mean girls in minutes ! '
p398
aS'Make a eclipse'
p399
aS'funny, well done'
p400
aS"Jacob's epic adventure to save Bella ended with him crashing through a \nhouse and turning into a..... penguin? I LOVED IT!!!!!!!"
p401
aS'i would to see him do to 2 girls 1 cup in minutes'
p402
aS"...They had to pick Ryan as Edward, and Dtrix as Jacob.. Don't y'all \nthink?? ^^ hihi "
p403
aS'0:26 WAIT why is Alice giving Jasper a lap dance!?o.0'
p404
aS'Jersey Shore called, they want their domestic violence back.'
p405
aS'this is soooo funny.lol!!!'
p406
aS'Nipple twist! "Oh,snap!"'
p407
aS'Seriously you guys need to have a reunion'
p408
aS'the extra punch xD LMFAO!!'
p409
aS'Lmao so he gives her a knife as a present'
p410
aS"Ryan's face"
p411
aS"You're a ... penguin ?! "
p412
aS'Lol'
p413
aS'wat hapened to thid chic'
p414
aS'yeah i saw it '
p415
aS'Jake your a.... Penguin?'
p416
aS'Haha xD "So NOW will you kiss me?" "....NAHH, you\'re still so fat."'
p417
aS'ur a penguin?!'
p418
aS'jamaican sean haha'
p419
aS'3:05 nice couple coo cweet'
p420
aS'Your a.....Penguin???? LOL'
p421
aS'PENGUIN!!!!'
p422
aS'hahah DROP IT LOW!'
p423
aS"What's the name of the song during the bloopers? Its so catchy! :D"
p424
aS'haha asian twilight'
p425
aS'shes really pretty '
p426
aS'0:47 NIPPLE TWIST!'
p427
aS'I miss Tim and Sean!'
p428
aS'i was watching new moon, and when the part came up thats on 1:15 i screamed \nat the T.V "ITS THE AWKO TACO HOBO!!!" and my mom thought i was physco xD'
p429
aS'poor sean'
p430
aS'Dude u are like the master of the minds like this video is so funny'
p431
aS'0:49 hahahahahaha nipple twist'
p432
aS'I miss seeing all these people on these videos'
p433
aS"Dear Ryan, can you be America's Next Top Model?"
p434
aS"Aww! What's that for? Mosquito. LOLOLOL!!!"
p435
aS'0:46 fatality'
p436
aS'2 letters: HAHAHAHAHAHAHAHAH'
p437
aS'1 of the first videos i saw from him :halarious:'
p438
aS'What happened to the guy that played Alice here, he was funny'
p439
aS'alice: jaspee.. does this dress make me look fat (playing with wig) jasper: \n(looks down with eyes wide open through out full video the nods) me: \nteehee!!'
p440
aS'forgot the teehee'
p441
aS' that guy dressed as a girl was funny when he was dancing..........'
p442
aS'Whay there is no jacke in here??'
p443
aS'bloopers is the best part XD '
p444
aS'0:26 xD LOOK IN THE BACKGROUND!! HAHAHAHAHA'
p445
aS'Teehee'
p446
aS'0:28 LOL XD'
p447
aS'This is pretty accurate'
p448
aS'A Penguin? xD '
p449
aS'So funnyyy!!!'
p450
aS'Please do Breaking Dawn ;l '
p451
aS'Haaaaaaaaaaaaaaaaaaaaaaaaaaaaaaaaaaaaaaaaaaaaaaaaaaaaaaaaaaaaaaaaaaaaaaaaaaaaaaaaaaaaaaaaaaaaaaa'
p452
aS"Ryan's hand on her waist :)))"
p453
aS"Bella you're sooo stupid. he's a platapus"
p454
aS"No, he's a cat."
p455
aS'LOL at the background at 0:25'
p456
aS'3:18 funny'
p457
aS'Lol 0:26 the background.'
p458
aS'vat '
p459
aS'Dear Annie, ask something better.'
p460
aS'I LOVE TO SEE U GUYS LOOSE CHARACTER AND LAUGH'
p461
aS"OMGG LOLLL look at Tim's face at 3:05 i think i peed my pants hahahahaha"
p462
aS'i want to eat sean'
p463
aS"your a... Penguin haha lol Priceless :'D "
p464
aS'your a ....penguin?? lol'
p465
aS'TEEHEE'
p466
aS'10-30 funniest sh*t ever !'
p467
aS'0:10-0:30...BEST PART EVER!!! ive seen it 20million times and its still \nfunny!!!:) '
p468
aS'Dear Ryan, can you make a Movie in Minutes Video of Eclipse? :D'
p469
aS'Your a... Penguin?!'
p470
aS"ohhh they should've put the wiener dog -.-"
p471
aS"I miss Ryan with the rest of the Yabo Crew. </3 And gee, Tarynn.. They're \nso cute! I know that they broke up but I'm still hoping to see her on one \nof Ryan's vid one day."
p472
aS'Ryan should be with that girl she looks like fun :]'
p473
aS'LOL i needed this.....ty ty for posting it '
p474
aS'penguin, really, penguin.'
p475
aS'ahahaaha this is hilarious'
p476
aS'This was a time before the TEEHEE'
p477
aS'Fricking funny and hilarious xD'
p478
aS"03:03 ... was she 'ur girlfriend ryan????"
p479
aS'"Au! What was that for?!" - "Mosquito."'
p480
aS"At least she's prettier than Bella. "
p481
aS"where was the 'teehee' :( "
p482
aS'Asian people are freaking awesome!! :D'
p483
aS'Whatever happened to Tarynn? O.o '
p484
aS'So we all go hide in a little play house :D '
p485
aS"I just can't help myself. Your just so mouth watering --- mawn "
p486
aS'purple nurple!'
p487
aS'Best part 3:18 HAHAHA :)'
p488
aS'THIS KEEPS STOPPING AND REPLAYING FOR ME'
p489
aS"I miss ryan and tarynn... They were touchin'! Hehe"
p490
aS'i thought laurunt was black (not being raicist) o.o'
p491
aS'lol i know'
p492
aS'not possible, this was made in 2009 and call me maybe only came out \n2012...come on'
p493
aS'dear ryan can u ride rainbows on mars while holding green puppies with \nwings? '
p494
aS'I disagree, its stupid unthought out comments like that that have crisi \nwearin three feet of false hair right now ...... Im talking heena sadu \n......... and honestly in my opinion, unknown or not .... kresten looked \nbetter that brad pitt and given half a chance so could rianna ( dear jesus, \nplease dont let me be talking to ryan hija him self)'
p495
aS'I will ever say teehee :D '
p496
aS'Im watching this in 2013'
p497
aS'I would want ryan to hold my waist 3'
p498
aS'Sean as the Jamaican guy XD'
p499
aS'What does Ryan say at 2:13.? I did not get it. I watched it many times.'
p500
aS'Penguin?'
p501
aS'GREAT LOL! '
p502
aS'i miss sean'
p503
aS'0:27 OMG alice got some moves!'
p504
aS'Hey, is that a real knife?'
p505
aS"Noo, I'm pretty sure he's a dinosaur."
p506
aS'Penguin :3'
p507
aS'00:26 lmao!!!!!!'
p508
aS'Ryan higa sucks dicks like fuck'
p509
aS"you're a..................penguin"
p510
aS'WHO IS THAT GIRL?'
p511
aS'ASIAN TWILIGHT!!!! XD LOL'
p512
aS'Dear Ryan, Can you make more Movies In Minutes?'
p513
aS'hahah way better then twuligy'
p514
aS'still a better love story than the original'
p515
aS'what kinda question is can ryan fly... of coarse he can'
p516
aS'y is bella keep calling edward(ryan) eddy? o.0'
p517
aS"ryan's hand???:)"
p518
aS'That is some true talking right there. '
p519
aS"I would've kissed her"
p520
aS'What is wrong with 0:26-0:30 in the back?'
p521
aS'ah, the moo noise from ocarina of time!'
p522
aS"Ryan, i know you might think that I'm just kissing ur ass or anything. But \ni just wan't to say that u looked better than robert pattinson. This is an \nhonest and sincere statement. Ur even funnier. Any girls' type for sure.... \n(even though u would be the worst boyfriend ever)"
p523
aS"hahahahaha I couldn't stop laughing"
p524
aS'wow..jacobs hot!!'
p525
aS'This 3 min. video is better than Twilight.'
p526
aS'Ahhhh!!!!! JACOB IS SeXY!!!!!'
p527
aS'E-E--E-E-E-EEEEEPPIICCCCC NIPPLE TWISTT '
p528
aS'str8up, awesomptuous.'
p529
aS'0:26 always cracks me up '
p530
aS'your so mouth watering... man'
p531
aS'youre a...PENGUIN!!!'
p532
aS'1:50 - solid snake fail!'
p533
aS'the new cast of twilight, if only if only '
p534
aS'still a better story than american twilight '
p535
aS'Eddy! ;D'
p536
aS'Omg the part when he fell out of the little house was so funny lol i was \ndying!!!'
p537
aS'2:52-3:06!'
p538
aS'lol at Alice 0:26'
p539
aS'0:21 "gaspy, does this dress make me look fat?" *nods* hahahah jokes'
p540
aS"2:02 is super great, but I can't say anything else without spoiling!"
p541
aS'*sigh* i miss the old videos they\'ve made, especially with the "crew" :)'
p542
aS'better than the movie'
p543
aS'is she a retard thats a dog not a penguin'
p544
aS"Yeah his name is Tim Enos I believe !! He's pretty funny, especially when \nhe's posing as a girl !!! Hhahahhaa"
p545
aS'Jacob is a fail xD'
p546
aS'HAHAHAHAHAH !! it was funny when she was grinding with jasper'
p547
aS'LOL'
p548
aS'Still better than the actual movie'
p549
aS"I'm laughing so hard right now 0:20-0:30"
p550
aS'ROFLOL XD'
p551
aS'whats your name again?'
p552
aS'Can you make eclipse?'
p553
aS'sean, keeping that face, wow'
p554
aS'LMAO 3:07 just killed me! Damn, you gotta love tim! hahaha'
p555
aS'Ur a penguin? xD'
p556
aS'i loooove this video!!!i watch it EVERYDAY!!!! and i love it when alice is \nin this haha "jaspy does this dress make me look fat?" lol funny....'
p557
aS'Yes! Sean is BACK! :D'
p558
aS'XD'
p559
aS'I think I liked this better than the actual books and the movies combined...'
p560
aS'was ytf invented in 09 2011 or 2011'
p561
aS'...whose actually a dude :P'
p562
aS'Ryan and tarynn was so cute together..'
p563
aS'Sean Fujiyoshi is too funny!'
p564
aS'lol when alice fell!! LMAO XD XD'
p565
aS'your a..... PENGUIN!!??? XD lmao'
p566
aS"China's asking for their runaway slave back you fuck."
p567
aS'So funny at 0:26'
p568
aS'please make a breaking dawn spoof '
p569
aS'hawaiian -asian version'
p570
aS'omigosh do the rest of the movies plzz'
p571
aS'Ryan Ive always wondered how you 2 broke up?'
p572
aS'OMG Sean is back '
p573
aS"Pause it at 3:03. Ryaaaaaan, what're you doiiing"
p574
aS'being a man.'
p575
aS"@sammynikole14 He didn't"
p576
aS'This is Even better than the Original and "Vampires Suck"'
p577
aS'Lool, the lap dancing'
p578
aS'1:05 ryan is like NYAAAA'
p579
aS'there will no breaking dawn part because ryan and tarynn already broke up \n??? >.< '
p580
aS'PUPPY!!!!!!! i will always love you puppy XD'
p581
aS'This is so funny :D and a lot of people talk about Sean, but Tim is awesome \ntoo! Well actually... They all are!'
p582
aS'3:16 BEST PART '
p583
aS'young Ryan Higa!!!!!'
p584
aS'...Did he just jump over a taro plant?'
p585
aS'2:52 - 3:00 '
p586
aS'youre a ... penguin? lol'
p587
aS'I used to own that house, but the mortgage was too much.'
p588
aS"I love the twilight series but this is hilarious, I couldn't stop laughing. \nYou should do all the movies!"
p589
aS'tim and sean hilarious xD '
p590
aS'I miss sean'
p591
aS'your so mouth watering...o.o...mon'
p592
aS'0:47 Now I know how to defeat a vampire XD'
p593
aS'Yay!'
p594
aS'Now you gonna kiss me? No you still so fat. HAHAHAHA'
p595
aS'I love these videos! I still watch these videos.'
p596
aS'Lol'
p597
aS'hahahah Better than "Vampires Suck"'
p598
aS'HE.GOTS HIMSELF A WEAVE!!!'
p599
aS'0:40 funniest thing ever'
p600
aS'lol 0:26 backround '
p601
aS'1:44-1:50 is golden'
p602
aS'dis gyul chupit bad bad'
p603
aS"This strange film... My gripes with it.. Y did Jacob hav to show his wolf \nform to Charlie... And Jacob couldn't get with bells so he gets with her \ndaughter... Weird film.. And it moves so slow... U can tell it was made for \ngirls.. I'm a guy... I bought whole saga for \xc2\xa312 good deal but dunno off \nits worth watching again.... Though i do love Alice... As a character in \nthe film.... And as a girl... She's so pretty and beautiful and u gotta \nlove her accent...im British.. Did irana die at end??"
p604
aS'"Ur a penguin?" Ha that\'s funny'
p605
aS'Eclipse Pweeeeese!'
p606
aS'Lol 0:26 look at the left '
p607
aS'still a better love story then twilight, oh wait...'
p608
aS'Nah your still to fat'
p609
aS'0:23 - 0:30 LOL'
p610
aS'lol'
p611
aS'Hahahahaha penguin?'
p612
aS'0:27 to 0:30 is so funny hahaha'
p613
aS'Can you do Breaking Dawn now?'
p614
aS"Now will you kiss me? Nawwwwhhhh ... you're still too fat XD "
p615
aS'Ex now ... :/'
p616
aS'One of my nigahiga favorites!!! :D'
p617
aS'Does this dress make me look fat? ...*nods* XDD LMAO'
p618
aS'Lmao yes he is Asian...'
p619
aS"You're perfect."
p620
aS'at the party, she shouldve said "you got me a SHOVEL?!?"'
p621
aS'Lmao he twisted his nipples xD'
p622
aS'3:17 till the end, is the BEST part hahaha'
p623
aS'Allison and Jacob are the same person XD'
p624
aS'youre a.....penguin?'
p625
aS'Plz!!!! Do breaking dawn!!!!!!!!! Plz!!!!!!!!!!'
p626
aS'why did you delete the twilight one..? /:'
p627
aS'Lol he punched her'
p628
aS"Your Version is much better ! x'DD LOVE YA HIGA <3"
p629
aS'he punches her lol '
p630
aS'o-o'
p631
aS'INSTANT SUB 4 SUB!!'
p632
aS'Man... I miss Sean..'
p633
aS'joezaaam serousily stop posting this in every video'
p634
aS'0:27 hahah that girl behind '
p635
aS'1:33 PARKOUR!!! PARKOUR!!'
p636
aS'lmfao Alice and Jasper in the backround at 0:26- 0:30'
p637
aS'3:03 LOLOLOLOLOL RYAN TOUCHED HER BUTT'
p638
aS'LOL!!! I love it!!!!! LOL'
p639
aS'Thumbs up for weird and akward Jamaican'
p640
aS'yah '
p641
aS'Oh ryan !! Your little bastard, Just look at your hand in 3:03. '
p642
aS'LOL 0:30 hairy '
p643
aS'ToT Ryan and Tarynn... perfection!'
p644
aS"Hahaha. Very funny. It's a dragon."
p645
aS'Holy crap, when he fell down the stairs I started laughing.'
p646
aS'Nope he is a dog hello!'
p647
aS'hecka funny!'
p648
aS'his face when "Alice" was dancing xD'
p649
aS'If only Bella was that pretty... :D'
p650
aS'lol your a penguin'
p651
aS'Awww I miss Sean & the other guy, I don\'t know his name... Well, the ones \nthat used to appear at "Movies in minutes"'
p652
aS'Nurples'
p653
aS"IT'S SEEN"
p654
aS'Well ..... still a better love story than twilight.... mahn'
p655
aS"It really doesn't matter as to when it was made. But I only hate the video, \nnot Ryan!!!"
p656
aS'2:22-2:24 watch Japer disappear :P'
p657
aS'Hahahahaha i saw the backround at 0:25'
p658
aS"I guess he never made a Eclispe because he would need the Yabo Crew and I \ndon't think they still keep in contact"
p659
aS'lol!'
p660
aS'ur so mouth watering.....mon heha '
p661
aS'Jake...your a......penguin? XD'
p662
aS'O died at the bloopers'
p663
aS'will you kiss me now? ...no, your still too fat.'
p664
aS"It would be cool if he made Eclipse, but seeing as he doesn't really hang \nout with these people anymore (except Sean sometimes), it'd be kind of \nawkward with all-new people... Lol."
p665
aS"You're a... penguin??? YESSSSS"
p666
aS'Thumbs up for the fierce looking wolf'
p667
aS"0:26 GO WORK THAT THANG GURLLLLL (EVEN THOUGH 'SHE' ISNT A GIRL)"
p668
aS'what about movies in minutes eclipse??'
p669
aS'PLEASE MAKE ECLIPSE! I KEEP SAYING THAT BUT NO ONE EVER DOES! LIKE IF YOU \nAGREE :D '
p670
aS"Better than the original! :) LOVE the excessive white powder on Edward's \nface! Hahaha!"
p671
aS'Love it'
p672
aS'how alice is just dancing on jasper xD 0:26 '
p673
aS'Haha I miss Tim.'
p674
aS'The sad thing is that these kids are WAYYY better actors than those in the \nTwlight series.'
p675
aS'This is a nigahiga classic!'
p676
aS'Now will you kiss me? Nah you still too fat LOLOLOLOLOLOL'
p677
aS'it was. they broke up :('
p678
aS'0:26 what a f****** retard, hahaha, Tim Enos has to be the best..does he \nhave a channel'
p679
aS'Tht was freakin funny!!!!! :] I laughed so hard right at the very end on \nthe bloopers!!! :)'
p680
aS'This is so funny!!!:)'
p681
aS'Better love story than twilight...'
p682
aS'Is that the girlfriend of Ryan?'
p683
aS'0:27 xd'
p684
aS'I love nigahiga'
p685
aS'You should do the rest of the twilight movies.'
p686
aS'ur a?penguin? '
p687
aS'lol I saw you smile Ryan at 0:32'
p688
aS"No u're still to fat"
p689
aS'"Your a.... Penguin?"'
p690
aS'Yes'
p691
aS'0:20 at 0:30 LOL'
p692
aS'No offense but, Vampires Suck is better.'
p693
aS'Penguin! Lol'
p694
aS'Bloopers song:Boom,Boom,Boom,Boom I want u in my room...'
p695
aS'TIIIIIIIIIIIIIMMM'
p696
aS"I can't XD IM DYING XD"
p697
aS'you need to make more movies in minutes'
p698
aS"ryan's hand at : 3:03"
p699
aS'no dip shure lock its supposed to be funny'
p700
aS'Twilight is the shit'
p701
aS'@2:53 ryan holding that girl, jealous, so jealous'
p702
aS'Jeez twilight is older than i expected lol, i olve this vid'
p703
aS'Damn, you really look like Kim Hyun Joong when you smile! Sorry, i \ncommented your video too much'
p704
aS"No. Ryan's MINE."
p705
aS"3:02 Ryan's hand looks too.......low lol XD"
p706
aS"Wow. I'm so idiot to even say this but I just noticed that Jasper was \nactually Sean Fujiyoshi! :O"
p707
aS"I watched this so many times, and still can't stop cracking up at the Jake \nrunning part... That was just epic! xD"
p708
aS"'ur so mouthwatering..man' lol "
p709
aS"edward: this is the last time you'll ever see me Bella:eddy no Edward turns \naround slappin her like a sissyXD "
p710
aS'Bella we made your cake LOL in bloopers uh Hogg uh ohhhh'
p711
aS'NIPPLE TWIST OF DEATH'
p712
aS'look at how white he looks'
p713
aS'PUPPY!!!'
p714
aS'i highly doubt it since he moved to LA'
p715
aS'Your a ..... PENGUIN!!?'
p716
aS"what is it with ryan and nipple twisting?! and lol alice's pit hair..."
p717
aS'pleeeeeeeeeeeeeeeeeeeeeeeeease do the hunger games!'
p718
aS'LOL look how Tim is dancing in the back with jaspy! at 0:26'
p719
aS'He fell out of house. Lol.'
p720
aS'Alice. Omfg hilarious hahaha!'
p721
aS'LOL!!! XD'
p722
aS"Watch my video batmanbinsupuman's vlog 2"
p723
aS'I li'
p724
aS'Mon... xD'
p725
aS'LOL!! You guys sre sooo good at this. Do you think its possible you could \ndo Phantom of the Opera??'
p726
aS'Hawaiian '
p727
aS'Nah your still too fat LOL'
p728
aS'you should do breaking dawn '
p729
aS'Ya mon'
p730
aS'Eddie...lol'
p731
aS'"know would you kiss me,no your so fat '
p732
aS'Hi'
p733
aS'Is that your girlfriend'
p734
aS'HAHA SEAN'
p735
aS'do eclipse!!!!'
p736
aS'I miss Sean lol'
p737
aS'VISIT BRINKZHERE!'
p738
aS'And i love your name :)'
p739
aS'Lmao 1:43 to 1:52 XD'
p740
aS'I like the part 3 :18'
p741
aS'"it\'s time it\'s time!!" ROFLMAO'
p742
aS'lol 2:12 '
p743
aS'haha i love these videos'
p744
aS'Ryan you are and forever will be my favourite YouTuber..'
p745
aS'Lol At 0:20 - 0:30 ;D'
p746
aS'Eddie'
p747
aS'oh god Sean'
p748
aS'FUNNNNNNNNYYYYYYY'
p749
aS'(jake turns into a dog) Bella; Jake your a... penguin?'
p750
aS'0:33 epic slow mo ketchup falling...'
p751
aS'jacob should have been chester see beacuase chester is just that sexy '
p752
aS'shes soo pretty!'
p753
aS'OMG THERE HANDS! HANDS HANDS HANDS 2:54'
p754
aS'Wait.. Jacobs a .... PENGUIN?!!! I can never look at twilight the same way \nagain.. not that i liked it its just even funnier now!'
p755
aS'3:18 DAFUQ! AHAHAHAHAHA'
p756
aS'ikr she wus dancin on jasper!!lmao'
p757
aS'Your a.....pinguin?'
p758
aS'lmbo at 00:27 in tha back! lol'
p759
aS'Like if you miss the original Nigahiga crew. Sean, Tarynn, Tim, and the \nHilo Puppets'
p760
aS'Fuck you.'
p761
aS"2:55- 3:06 Ryan's left hand ."
p762
aS'Lol. Just Lol.'
p763
aS'still watching this in 2012, and probably in 2013 also. =)'
p764
aS'bella:its my birthday today,can i ask for something? ryan:....No... bella:i \nwant you to kiss me. *Both lean foward to kiss* Ryan:OH NO YOUR BREATH! xD'
p765
aS'Please do the hunger games!!!! :)'
p766
aS'"It\'s my birthday today... Can I ask for something?" "No."'
p767
aS'This is so Funny!!!!!!!!!!! Poor jasper'
p768
aS'The TRULY reason why are they so cool: They are originnaly ASIANS!'
p769
aS'I miss Sean also pmplmfaosff'
p770
aS'he jumped over a plant teehhee!!! :D'
p771
aS'Penguin!?!?!?! WHAT THE?'
p772
aS'what did I just watch'
p773
aS'Cholo adventures vs movie in minute'
p774
aS'Do hunger games!'
p775
aS"JAMAICAN MON'"
p776
aS'Funniest thing of life... Background of 0:26'
p777
aS"Won't you guys come out with an Eclipse,Breaking Dawn parody?"
p778
aS"We see Sean every once in a great while lately but we haven't seen Tim in \nages. He's a great hammy comic actor. I'd love to see another Yabo Crew \nreunion video."
p779
aS'Are you a mermaid like Edward? Is Edward a penguin like you?'
p780
aS'What a supportive Edward...'
p781
aS"You're a... Penguin?"
p782
aS'No tee hee? Oh well, still a good vid. Ty for puttin in bloopers! :DDD'
p783
aS'Cholo adventures vs movie in minute'
p784
aS'never thought about that...'
p785
aS'Lols'
p786
aS'Do girl vampires get there period?'
p787
aS"O my gawd it's a freakin penguin!!!"
p788
aS"Lol! At the end! It's sooooo hilarious!"
p789
aS'This is so Funny'
p790
aS'Well th knife was legit :P'
p791
aS'Hahaha! Alice has sexy dancing with Jasper in the background'
p792
aS'Snap, blonde dude got nurpled.'
p793
aS"This would work but she's prettier than Bella."
p794
aS'retard this movie was shot in 2009 hes not gonna see it post this on the \n2012 ones '
p795
aS'O yeah. 3:04'
p796
aS'This is even gay! -.-'
p797
aS'Is it just me or does Ryan looks really hot as Edward lol'
p798
aS"nope. they don't even pee."
p799
aS'Lama'
p800
aS'1:45 LOL '
p801
aS'it looks like shes like u kno gettin ....... at 0:14'
p802
aS'LOL'
p803
aS'ok mean your crazyyy ..bat i love that:) im steel leafing \nhahahahahhahaahaha gayyou the best !!! XD IM DYING XD '
p804
aS'1:16 shes like, THE FUCK. '
p805
aS"I love twilight but this is HILARIOUS :')"
p806
aS'Alice. Is. AMAZING! xDD This just as funny as the first time I saw this.'
p807
aS'The best part was the bloopers'
p808
aS'looks like the cat boy off the grudge'
p809
aS'check out the prank we release when we get 100 subs, so sub us!!!'
p810
aS'Asian version of twilight XD '
p811
aS'Did anybody else see Ryan\'s hands on her butt in the bloopers? o.o"!'
p812
aS'Is that the same girl as the girl in agents of secret stuff?'
p813
aS"5. now go outside 6. buy a plane ticket to rio 7. rent a plane for \nskydiving 8. dive your way to the Jesus statue 9. land your face to Jesus' \npalm 10. arrive at the hospital alive :)"
p814
aS'hey you should make a twilight movie in minutes on eclipse and braking dawn \npart 1 and 2 when it comes out'
p815
aS'No ur still to fat 0:26 he starts dancing on him lol'
p816
aS'Lmfao 3:18 too funny '
p817
aS'"You\'re a......Penguin?" me: OMYGAWSH YES.'
p818
aS'now will u kiss meh?......um no noo your still to fat *turns away* haha \nloled so hard'
p819
aS'3:21-3:24 sean literally disappears!!!!!'
p820
aS'Ryan the MAN!!!'
p821
aS'does twillight is about fairy not vampires?'
p822
aS'Movies in Minutes: Hunger Games! Like if you agree '
p823
aS"What's that song in the end?"
p824
aS'ryan and that girl are cute together:)'
p825
aS'i dont think he ever taisted kechup..so thats probley why he went after \nbella..'
p826
aS'I could watch bloopers all day '
p827
aS' DO A HUNGER GAMES MOVIE IN MINUTE! THUMBS UP IF YOU AGREE!'
p828
aS'what about eclipse and breaking dawn!!!!????? + hunger games'
p829
aS'tarynn:will you kiss me now?? me: yes'
p830
aS'1.cover your mouth 2.make a wish 3.post this on another video 4.look at \nyour hand'
p831
aS'Look at Tim (Alice) Dancing in the back at 0:26 XDDD'
p832
aS'0:34 Thats Ketchup!!'
p833
aS'it was her lower back'
p834
aS'0:49 Nipple twist on Jasper!! xDDD LOL! :DD'
p835
aS'Spoofs are not always made to insult a production but rather honor it with \nthier sense of humor and ideas'
p836
aS'NOOOOOO not until they make it!!! lol'
p837
aS'The blupers were hilarious.haha'
p838
aS'Still a better love story than Twilight. '
p839
aS'Girl: its my birfday and can i ax u sumtin Guy: NO Girl : i want tyou ta \nkiss MMEE Guy:Euww!!! NO your breath!'
p840
aS'OMG LOLZ DA TOY HOUSE wheres da sparkles? And I want a giant piece of cake'
p841
aS'woah in the bloopers ryan just cant get his hands off of her'
p842
aS"Tarynn : Now will you kiss me? Ryan : No, you're still too fat. Lol xD"
p843
aS'awww this cast....'
p844
aS'0:26 its funny how the guy is dancing lmfao'
p845
aS'ok let me see why u falling dude its called jumping over everything and \nwatch where ur going hahaha jk'
p846
aS'2:27 ahhahha, looks like the actual movie there '
p847
aS'now will you kiss me? nohhh u are still too fat XD '
p848
aS'why were they saying uh ohhhhhhhhhhhhhhhhhhhhhhhhhhhhhhhhhhhhhhhhhhhhhhhhhhh'
p849
aS'thanks! knife! OW! Knife hurt!'
p850
aS'they broke up a long time ago'
p851
aS'XDDDD lololol this is so funny and awesome XDDD lolol'
p852
aS'ur a...... PENGUIN?!? HAHA'
p853
aS'1:43 I used to have a playhouse just like that!'
p854
aS'0:26-0:30 LOL'
p855
aS'0:47 awesome vampire niple twist'
p856
aS"lol well the main girl and Ryan broke up and i'm guessing the others just \nmoved on with life. lol I dunno, i'm not close friends with nigahiga \nhimself. ask him"
p857
aS'what did happen to them? '
p858
aS'hes running in a house.....'
p859
aS'Last blooper Is so funny'
p860
aS'Yep, that pretty much sums it up lol'
p861
aS'Notice how all the cast in his videos are Asian.'
p862
aS"Lol pause at 0:14 and look at bella's face"
p863
aS'ROBSTEN forever!!! ROBERT+KIRSTEN=ROBSTEN!!'
p864
aS'The Book is so good i read it in two days'
p865
aS'Ending of the bloopers LMAO!!!!!!!'
p866
aS'omg stop at 1:48 he looks so evil '
p867
aS'Nice job brake the kids toy house jerk lol'
p868
aS'great deal'
p869
aS'Whats up with the quality'
p870
aS'LOL Your a...... Penguin? You should totally do the hunger games \xf0\x9f\x91\x8c'
p871
aS'so now will you kiss me... na your still to fat '
p872
aS'(:'
p873
aS'I love Alice! XDXD '
p874
aS"Am I the only one who notices Ryan's hand all up on that girl behind during \nblooperz?? Lucky -_-"
p875
aS"you want the hunger games?Here it is:you become a muslim and wait for \nramaddan and there you go HUNGGA' GAMES.LOL just kidding."
p876
aS'THE HUNGER GAMES PLZ PLZ PLZ'
p877
aS"It's time It's time.... Love it"
p878
aS'the hunger games suck '
p879
aS'i meant 2:48 oops '
p880
aS'What about Breaking Dawn?'
p881
aS'You should have put Chester See as Jacob'
p882
aS'give you a knife? '
p883
aS'3:18 thats wats up!!!'
p884
aS'Ya do the hunger games!! Good idea'
p885
aS'This is funny'
p886
aS'YOUR A PENGUIN '
p887
aS'would every body shut up about the hunger games'
p888
aS'Emma We baked u a cake (Emma looking confused'
p889
aS'Lmfao'
p890
aS'The bloopers r really funny especially the last one :P'
p891
aS'Their rubbing butts on jasper'
p892
aS'"so now will you kiss me?" "no your still too fat." lol so funny!!! =D'
p893
aS'This is legit man !'
p894
aS'Better love story than twilight'
p895
aS'I DEMAND A BREAKING DAWN OR ECLIPSE MOVIES IN MINUTES'
p896
aS'Alice is cool :D Jacob Run and Run'
p897
aS'You should make the rest of the twilight movies'
p898
aS"where's the rest? Eclipse, breaking dawn? please, make a video of those 2 \nmovies!"
p899
aS'Lol why was "Jacob" Jamaican?'
p900
aS"are they canadian i ask because i'm hearing a slight acent idk maybe it's \njust me"
p901
aS'2:54 the way ryan is holding her then looks at her is so cuteee :O im \njealous '
p902
aS'0:26 WTF dance'
p903
aS'I started laughing so hard on the bloopers'
p904
aS'ryan and tarynn look so cute together<3'
p905
aS"I missed the old NigaHiga, with Sean and the Yabo Crew(Tim Enos, Kyle Chun, \netc.) But at least, he's working big time with his new homies, \nYTF(ChesterSee, D-Trix, Garcia, KevJumba, etc.)"
p906
aS'Ryan u \nsooooooooooooooooooooooooooooooooooooooooooooooooooooooooooooooooooooooooooooooooo \nCUTE!!!!!!!!!!!!!!!!!!!!!!!'
p907
aS'true '
p908
aS'ya the red booger was from red cross lol jk'
p909
aS'0:27 is funny as fuck! "Jass does this dress make me look fat?" He nodds LOL'
p910
aS'LOVE LOVE The END BLOOPER'
p911
aS"This was posted on my ninth b-day. But now I'm 11"
p912
aS'yup =)'
p913
aS'Looks like Laurent has a new catch phrase. "Mon"'
p914
aS"More than the actual parody, i seriously laughed for all the blooper's in \nit... And you seriously have the best Friend's Ryan as you crew who are not \nscared to be Dumb and silly... Finally: MY FRIEND'S WOULD NEVER LISTEN TO \nME IF I WANTED TO DO SOMETHING SILLY LIKE THIS!!!"
p915
aS"We havn't seen any of the Twighlight moviesvut we can get an idea of what \nit's about by seeing this. =) -Two kids"
p916
aS'Does this dress make look fat??? L0L!!!'
p917
aS'Not only you.'
p918
aS'Can that Edward kiss me please?!'
p919
aS'funniest part 3:18 i luaghed my ass off '
p920
aS'Jake, your a penguin!'
p921
aS'YAH THIS WAS COOL........ MON'
p922
aS'52800 nmber of like :)'
p923
aS'NIGAHIGA IS HILARIOUS!!!!!'
p924
aS'0:27 hahaha strip dance. '
p925
aS'Wow it.so origanial amazing'
p926
aS'Mermaids are more masculine.'
p927
aS'Wait why a knife for her bday?? Jkjk it was really cool'
p928
aS'When r u guys going do the new ones'
p929
aS'@Moonlar1001 it\'s from the video "Sean returns" think of it like a twinkie'
p930
aS'Jacob, youre a... penguin?'
p931
aS"yes bella, he's a penguin. just like edward is a mermaid."
p932
aS'totes hillaire!!'
p933
aS'why did he have to punch her lol! 0:40 '
p934
aS"i know they are sposed to be all close for the 'movie' but seriously were \nthey dating ? cuz at 2:59 they r definately holding hands in an adorable \nway!"
p935
aS'and eclipse!!!'
p936
aS'DO THE HUNGER GAMES PARODY PLEAZ RYAN WE LUV U'
p937
aS'STUPID 20 PIECE MCNUGGETS'
p938
aS'im LMFAO at 0:28 ! omgg, XD '
p939
aS'bless my big sis 4 telling me about niga higa '
p940
aS"Lol r they gay for dancing Luke a stripper lol jk luv ya all !!!!!'"
p941
aS'HUNGER GAMES! do this one. '
p942
aS"Omg I was suppose to b doing my HW but my brain hurt so I took a break and \nI wached this. I laughed so loud. Me parent were just like wats going on \nand I was like... I read some thing funny... On my home work? So ya I \ncouldn't help laughing. Bloopers: jasper looked kinda uncomfortable...! \nLol!!"
p943
aS'0:25 my bad'
p944
aS'1:52 really sounds like the real bella! '
p945
aS'omg! u should make another parody with breaking dawn XD'
p946
aS'Why did Tarynn and Ryan broke up'
p947
aS'3:18 till ned WHAT THE!? '
p948
aS'Somethings awkward hmmm well lets see.......yeah dats it didnt u notice \nsomething the vid is incomplete becz there is no TEEHEE! In the end of the \nvid'
p949
aS'How did you know her name? '
p950
aS'does this dress make my look fat'
p951
aS"You're a..............PENGUIN!?!?!?!"
p952
aS'Lol'
p953
aS'Your a................penguin'
p954
aS'she is a better K. Stu!!! and has some expressions!!!!! THIS IS BETTER THAN \nTWILIGHT'
p955
aS"Probably was. If at all. He's single right now. "
p956
aS'pingone'
p957
aS'Twilight and JB are the best jokes on the world xD '
p958
aS'0:17 - 0:50'
p959
aS'I had that little toy play house when I was little :D '
p960
aS'So jealous seeing Ryan holding the girls hand and waist.. 2:59'
p961
aS'I call this the Asian twilight'
p962
aS'Dear Ryan, Do hunger games'
p963
aS"you're a...penguin? HAHAHA "
p964
aS'0:26!!! Lmbooo!!!!!!!'
p965
aS'alice was stripin to jasper on bellas birthday.........'
p966
aS'1:35 lmfao!!! Awesome!!!'
p967
aS'@littleangel7900 she still to fat to yhis day XD'
p968
aS'nipple twist mans worst weakness'
p969
aS'2:25 what the..'
p970
aS'the way he stroked her waist and the way she held on to his thumb makes me \nthink that she is/was(?) his girlfriend awww cute'
p971
aS'do the hugner games!!!!!'
p972
aS"Bella get ur facts right..... HE'S A POTATO!"
p973
aS'0:26 in the background. LMAO! :D'
p974
aS'The blood looks like a red booger'
p975
aS'LMFAO!(;'
p976
aS'" Your a... Penguin? "'
p977
aS'he should do a parody of eclipse and breaking dawn too'
p978
aS'nice'
p979
aS'Jacob has a llip percing loll ((typo)) haha \xe2\x99\xa5\xe2\x99\xa5'
p980
aS'@azmuni234 no oh your breath can you hear correctly'
p981
aS'asian jacob has no hops'
p982
aS'this alice is really funny lol '
p983
aS'I love this lol'
p984
aS'justs starts grinding on jasper XD'
p985
aS'NAHHH your still to fat :('
p986
aS'Does this dress make me look fat :() and then the dance in the backround'
p987
aS'can u do movie in minutes breaking dawn?? '
p988
aS'haha naw your still fat'
p989
aS'Lol'
p990
aS"You're a... Penguin?!o;"
p991
aS"What is the song that's playing at the end called??!!! "
p992
aS'Ryan looks so HOT !!!!!!!!!!!!'
p993
aS'AHHAHAHAHAAHAHHAAHAHAHAHHAA'
p994
aS'Omg night elf dance 0:27'
p995
aS'Why r Asians so sexy?!'
p996
aS'U forgot TEEHEE!! Im mad! Not really'
p997
aS'Wow that was weird'
p998
aS'Definitely better than the original :D'
p999
aS'this is sooooooooo much better then any of the originals!!!! THANK U GUYS! \n:D'
p1000
aS'It would be so funny if she was all "jacob...you\'re...a lamp?!" Lol.'
p1001
aS'I love the part when "Jakob" came into the house and then he runs and \nfalls! XD'
p1002
aS'The way he says dress lol 3:08 i miss Tim'
p1003
aS'Wow lol :-X'
p1004
aS'tim*'
p1005
aS'"now will u kiss me"? "No, ur still to fat" '
p1006
aS'thumbs up for movies in minutes breaking dawn!!'
p1007
aS'I like the new nigahiga videos, but I miss these old videos in Hawaii.'
p1008
aS'The last blooper was so hilarious I was laughing so hard every time I watch \nit'
p1009
aS'LOL goes in and falls out of the play house'
p1010
aS'TEHEE?'
p1011
aS'@nigahiga can you do one for eclipse and breaking dawn? That would be great '
p1012
aS' eddy!!!!!!!!!!!!!!!!!!!'
p1013
aS'Your a penguin'
p1014
aS'They use to date'
p1015
aS'i love the bloopers when the guy was doin it to the jasper aprody dude XD'
p1016
aS'This the best movie ever!!!!'
p1017
aS'@omfbhamannda'
p1018
aS'time enos is hilarious'
p1019
aS'alice dancing in the background!!!! LMAO'
p1020
aS'Lol the very end!!'
p1021
aS'I laughed so hard when I saw the new edition of Jacob XD!! Good one'
p1022
aS'Laughed my ass off:)'
p1023
aS'I miss the old crew :-('
p1024
aS'can you do the movie AVATAR??? '
p1025
aS'Anyone else see Alice give Jasper a little dance? Lmao hahaha!!! I miss \nthese old videos!'
p1026
aS'so the twilight saga made a spoof on this right?'
p1027
aS'I know!!!! He should!!!!!!!!'
p1028
aS'Lol'
p1029
aS"nahhhhh..... you're still too fat"
p1030
aS'Can I ask you something?No.Will you kiss me?AW YOUR BREATH!XD'
p1031
aS'Dirty dirty dancer, dirty dirty dancer on 0:27'
p1032
aS'jacob, shirt offf, they are simetrical'
p1033
aS'so now will you kiss me?? no your still so fat XD'
p1034
aS'can u do hunger games'
p1035
aS'This sucks.... But it IS better than New Moon!'
p1036
aS'1:26 how long does he run'
p1037
aS'1:42 - 1:51 is the absolute best!!!'
p1038
aS'Can u do Dora or winhie and pooh lol but seriously?'
p1039
aS'"ur a penguin?!?" lmfao'
p1040
aS'Lol "now will you kiss me? *hesitates* nah, you\'re still too fat."'
p1041
aS'0:25 LMFAO!! Best Part!!!'
p1042
aS'Penguins=10 times more badass'
p1043
aS'House is alive'
p1044
aS'Lol imagine at 1:50 some random person sees you'
p1045
aS'I beg ninja assasin version! :D'
p1046
aS'1:47 cant stop laughing'
p1047
aS'Where is the TEEHEE?'
p1048
aS'I love how Jacob is Jamaican.'
p1049
aS'wheres the teehee?'
p1050
aS'really funny dont understand why edward would punch bella and Laurent looks \nso funny LOL '
p1051
aS"if you've watched the other video he made about twilight in minutes you \nwould get it ;p"
p1052
aS'OUH MY GOOOD! '
p1053
aS'what ever happened to her after sean left and ryan joined the YTF'
p1054
aS'Jajaaj I love the dance jajaja'
p1055
aS'Do the Hunger Games!!!'
p1056
aS'" I just can\'t help my self . . you\'re so mouthwatering . . . mon " LOL.'
p1057
aS'In the bloopers you can clearly see Ryan and that girl was going out XD'
p1058
aS'@TheCrazyDiscoDj1 LOL someones taking this video too seriously...'
p1059
aS'@meijfye Temple run is a game....not a movie'
p1060
aS'HAHAHA SHE SAID PENGUIN!!!!!!!!!! XD'
p1061
aS"I love jasper's face at 0:26."
p1062
aS'YOUR A...PENGUIN-Bellas just that stupid'
p1063
aS'alice!'
p1064
aS'ROFL running house!!!!!!!!!!!!!'
p1065
aS'I never new houses could walk..... Hmm'
p1066
aS'Your a... Penguin'
p1067
aS'Here is a way to get a free $10 iTunes gift card! First download Junowallet \n(app) Second when it asks to enter a code enter NF281138'
p1068
aS"and I have too say I was a little disappointed the dog version of Jacob \nwasn't Marley."
p1069
aS'dear ryan can you do a twilight eclipse'
p1070
aS'does this dress make me look fat? '
p1071
aS'ur so mouth watering...mon'
p1072
aS'1:27 - 1:51 made me laugh so hard especially from 1:41 - 1:50 XD'
p1073
aS'XD! (looks at dog) "...your a... PENGUIN?!'
p1074
aS'In the bloopers at the end there was one guy standing there as jasper 2 \nguys were like rubing on to the guy name jasper that is gay but funny \n\xf0\x9f\x98\x81\xf0\x9f\x98\x9c\xf0\x9f\x98\x9d\xf0\x9f\x98\x82'
p1075
aS'LOOOOL 3:18-3:21 .'
p1076
aS'should totally do breaking dawn part 1'
p1077
aS'i want you to kiss me ....... o no your breath lol'
p1078
aS'RYAN KEEPS TOUCHER HER BUTT'
p1079
aS'YOU FAIL . Duumbass .'
p1080
aS'LOOL when Ryan gives her the knife and in the background Tim is dancing on \nSean xD'
p1081
aS'hahahah please can u do a minute movie of TEMPLE RUN game??? hahaha '
p1082
aS'"Now will you kiss me?" "No, your still too fat :0". LOL'
p1083
aS'Lol there is 2012 dislikers..'
p1084
aS'what happened to to the other twilight movies?'
p1085
aS'lol ummmmm what was that last part??????'
p1086
aS'3:03!!! Teletubby time!!!!'
p1087
aS'Dear Ryan can you be ugly for once'
p1088
aS'bella: so now will you kiss me? edward: nah. your still too fat. '
p1089
aS'JAKE JAKE NO..... YOUR A penguin?'
p1090
aS'this is why we should let ashians write our movies >.<'
p1091
aS"This is NOTHING like Twilight New Moon and i know because im a Twilight \nexpert!! And Armand is a nice bad vampire he doesn't do anything to Bella."
p1092
aS'"Bella, we built you a cake". LOL!'
p1093
aS'omg do one for eclipse!!!!'
p1094
aS'@valkarie789 They broke up in 2009 '
p1095
aS'whats up with him and a purple nurple????'
p1096
aS'Alice is the best lololol.'
p1097
aS"Awwww so Ryan wasn't forever alone when years this :3"
p1098
aS'Wow this video is stupid but funyyyyyyyy!'
p1099
aS'Why the heck did that?'
p1100
aS'"he just left you here mon" lmao'
p1101
aS'HAHAHA WHo else saw "alice" Dancing around jasper at the beginning LOL'
p1102
aS'when did bella turn vampire xDDDD'
p1103
aS'That cake looks delicious.'
p1104
aS'its not a movie!!!!! its a PARODY TRAILER!!'
p1105
aS'The wigs... the wigs are the best part :)'
p1106
aS'WATCH KONY 2012!!'
p1107
aS'"So now will you kiss me?" "No. Your still to fat" XD'
p1108
aS'@trubelieber1994 True dat!!!! U guys r the greatest thing 2 hit youtube \nsince it started!'
p1109
aS'1:47 MGS STYLE '
p1110
aS'@Kate99212 cool'
p1111
aS'Lol'
p1112
aS'2:39 he fell into the bushes/trees lol'
p1113
aS'"Now will you kiss me?" "Nah, your still fat" Lol that\'s kind of mean \nthough first you said her breath stinks wow, (oh well) I LUV UR VIDEOS'
p1114
aS'Now will u kiss me.... Nah your still to fat'
p1115
aS'@kitkat7786 where she go?? lol'
p1116
aS'Still better than the regular twilight'
p1117
aS'no Teehe?'
p1118
aS'IS SHE UR GIRLFRIEND RYAN? AT 2:57 U WERE HOLDING HER WAIST!!!'
p1119
aS'omg ryan could u please PELASE make movies in minutes breaking dawn? and \neclipse? i love the twilight saga and it would really be awesome if you \ncould make those movies. thanks!'
p1120
aS'ur a... penguin?'
p1121
aS'i hate how he looses all these cool friends and gets new ones and there \narent even as funny '
p1122
aS'Hve you done eclipse?'
p1123
aS'i luv u guys .u guyz r frekn hilArius . keep up da good work :)'
p1124
aS'ITS TIME ITS TIME. '
p1125
aS"In the bloopers, it looked like Sean just freakin' dissapeared! (O_o)"
p1126
aS'Hahha! Alice dancing was distracting me!'
p1127
aS'Sean!!!!!!!!!'
p1128
aS'nah your still so fat LOL'
p1129
aS"naah, you're still so fat ROFL"
p1130
aS'for a moment i thought that jacob was a werehouse'
p1131
aS'@yayatutu135 quit with the fucking teehees! we get it'
p1132
aS'jacob to the rescue dun dun dun turns into PENGUIN!!!!'
p1133
aS'oh my gosh! just now after a million times watching this, i know at sean \nsaid. "ur so mouthwatering-*something*" he said "mon" lololololol...im so \nslow'
p1134
aS'no teehee?? :('
p1135
aS"howl's moving castle ;)"
p1136
aS'omg look at alice at 0:25'
p1137
aS'0:25 how can he stand not laughing!?'
p1138
aS'konys a scam '
p1139
aS"That awkward moment when you're taking a history test and you randomly \nstart thinking of this video and laugh :p "
p1140
aS'\xe2\x94\x8f\xe2\x94\x81\xe2\x94\x81\xe2\x94\x81\xe2\x94\x81\xe2\x94\xb3\xe2\x94\x81\xe2\x94\x81\xe2\x94\x81\xe2\x94\xb3\xe2\x94\x81\xe2\x94\x81\xe2\x94\x81\xe2\x94\xb3\xe2\x94\x93\xe2\x95\x8b\xe2\x94\x8f\xe2\x94\xb3\xe2\x94\x81\xe2\x94\x81\xe2\x94\x81\xe2\x94\xb3\xe2\x94\x81\xe2\x94\x81\xe2\x94\x81\xe2\x94\x93 \xe2\x94\x83\xe2\x94\x8f\xe2\x94\x93\xe2\x94\x8f\xe2\x94\x93\xe2\x94\x83\xe2\x94\x8f\xe2\x94\x81\xe2\x94\x81\xe2\x94\xab\xe2\x94\x8f\xe2\x94\x81\xe2\x94\x81\xe2\x94\xab\xe2\x94\x83\xe2\x95\x8b\xe2\x94\x83\xe2\x94\x83\xe2\x94\x8f\xe2\x94\x81\xe2\x94\x81\xe2\x94\xab\xe2\x94\x8f\xe2\x94\x81\xe2\x94\x81\xe2\x94\x9b \n\xe2\x94\x97\xe2\x94\x9b\xe2\x94\x83\xe2\x94\x83\xe2\x94\x97\xe2\x94\xab\xe2\x94\x97\xe2\x94\x81\xe2\x94\x81\xe2\x94\xab\xe2\x94\x97\xe2\x94\x81\xe2\x94\x81\xe2\x94\xab\xe2\x94\x97\xe2\x94\x81\xe2\x94\x9b\xe2\x94\x83\xe2\x94\x97\xe2\x94\x81\xe2\x94\x81\xe2\x94\xab\xe2\x94\x97\xe2\x94\x81\xe2\x94\x81\xe2\x94\x93 \xe2\x95\x8b\xe2\x95\x8b\xe2\x94\x83\xe2\x94\x83\xe2\x95\x8b\xe2\x94\x83\xe2\x94\x8f\xe2\x94\x81\xe2\x94\x81\xe2\x94\xab\xe2\x94\x8f\xe2\x94\x81\xe2\x94\x81\xe2\x94\xab\xe2\x94\x8f\xe2\x94\x81\xe2\x94\x93\xe2\x94\x83\xe2\x94\x8f\xe2\x94\x81\xe2\x94\x81\xe2\x94\xab\xe2\x94\x8f\xe2\x94\x81\xe2\x94\x81 \n\xe2\x95\x8b\xe2\x95\x8b\xe2\x94\x83\xe2\x94\x83\xe2\x95\x8b\xe2\x94\x83\xe2\x94\x97\xe2\x94\x81\xe2\x94\x81\xe2\x94\xab\xe2\x94\x97\xe2\x94\x81\xe2\x94\x81\xe2\x94\xab\xe2\x94\x83\xe2\x95\x8b\xe2\x94\x83\xe2\x94\x83\xe2\x94\x97\xe2\x94\x81\xe2\x94\x81\xe2\x94\xab\xe2\x94\x97\xe2\x94\x81\xe2\x94\x81\xe2\x94\x93 \xe2\x95\x8b\xe2\x95\x8b\xe2\x94\x97\xe2\x94\x9b\xe2\x95\x8b\xe2\x94\x97\xe2\x94\x81\xe2\x94\x81\xe2\x94\x81\xe2\x94\xbb\xe2\x94\x81\xe2\x94\x81\xe2\x94\x81\xe2\x94\xbb\xe2\x94\x9b\xe2\x95\x8b\xe2\x94\x97\xe2\x94\xbb\xe2\x94\x81\xe2\x94\x81\xe2\x94\x81\xe2\x94\xbb\xe2\x94\x81\xe2\x94\x81\xe2\x94\x81\xe2\x94\x9b '
p1141
aS'Do a "Movie in Minutes - Superbad" EVERYONE loves that movie. &If u guys \ndid a funny 2min skit about it ... I\'d prolly get every person i know to \nwatch it. LOL'
p1142
aS'0:27 in the background, LMFAO'
p1143
aS'I cant stop laffing at 0:30'
p1144
aS'This never gets old'
p1145
aS'Anyone else see Ryan holding tht chicks hand and side;) lol'
p1146
aS'LOL AT 0:47'
p1147
aS"Was that Ryan's ex girlfriend?"
p1148
aS'they shoulda used marley for the wolf/:'
p1149
aS'ryan and his ex gf so cuuuuuute <3'
p1150
aS'He just'
p1151
aS'Better than the original!'
p1152
aS'at 0:27 dat dude was gettin it hahah, He was Dropin It Lik Its Hot lol'
p1153
aS'LOOL LAUGHING MY ASS OFF, I CANNOT STOP LAUGHING AT 0:25 SOOOO FUCKING \nFUNNY. BEST PARTT !!!'
p1154
aS'i wonder where those people are now his videos were funnier back then'
p1155
aS'Now will you kiss me naw your still to fat'
p1156
aS'dear ryan,can you make a video with your old friends???? alot of us miss \nthem '
p1157
aS'the girl who plays bella has a hella epic beuatiful dress '
p1158
aS'Lol that drop of blood almost looked like a booger...'
p1159
aS'@candycane3210 LOL that is so true'
p1160
aS'the best part is at 2:02'
p1161
aS'0:22 WHERE DID I SEE HIM BEFORE!?!??!?!'
p1162
aS"Everyone knows that the girl who plays Bella is ryan's girlfriend, right?"
p1163
aS'BWAHAHAHAHAHA!!!!'
p1164
aS"bella : would you kiss me ? edward : nah , you're breath ! xD"
p1165
aS'That awkward moment when the top comments are both the same O_O'
p1166
aS"People he can't do more twilight movies because that girl that played bella \nis gone"
p1167
aS"I miss SEAAAAAAAAAAAAAAAAAAAAAAAAAAN )':"
p1168
aS'is dat girl his gf'
p1169
aS'Please, also do eclipse and Breaking dawn'
p1170
aS'Hahahahahahahahahahahaha I laughed Sooo hard when he was dancing in the \nbackground XD'
p1171
aS'Priceless from wen the guy fell down the steps to wen he started dancin'
p1172
aS'post'
p1173
aS'OH MY GOSH!! DO ECLIPSE, DO ECLIPSE, DO ECLIPSE!!! AND THEN TRY AND DO \nBREAKING DAWN PART 1!!!!'
p1174
aS'wow whentey were practicing i was laughing so hard!!!!! TEEHEE!!'
p1175
aS"You're a...(dramatic music plays) Penguin? \xf0\x9f\x98\x9d\xf0\x9f\x98\x9d\xf0\x9f\x98\x9d\xf0\x9f\x98\x9d\xf0\x9f\x98\x9d\xf0\x9f\x98\x9d\xf0\x9f\x98\x9d\xf0\x9f\x98\x9d\xf0\x9f\x98\x9d"
p1176
aS'omg i luv how alice is dancing in the back i laughed sooooo hard'
p1177
aS'why did edward punch bella lol u are so funny and who is eddie'
p1178
aS'Ryan should make the new hunger games movie. That would be epic XD!'
p1179
aS'3:18 sean looks a little uncomfortable'
p1180
aS'No TEEHEE '
p1181
aS'ryan is so hot as a vampire. You should do more vids as a vampire. Give the \npeople what we want'
p1182
aS'COMMENTS Y U NO ORIGINAL!?!?!?!'
p1183
aS'0:26-0:29 lol!!!'
p1184
aS'0:25-0:29 best part!!!'
p1185
aS'you shud do eclipse'
p1186
aS'dear ryan,can u do eclipse ?'
p1187
aS'303 ass grab'
p1188
aS'3:09 Guy- Does this dress make me look fat? Sean- Get off of me! LOL '
p1189
aS'please do eclipse and breaking dawn'
p1190
aS"Heres a KNIFE for your birthday. Don't cut yourself. OUCH!"
p1191
aS'OMG!!!!! ALICE IS HILARIOUS!! Who gives somebody a knife for a b-day present'
p1192
aS'did anyone could pay attention to ryan while alice was dancing in the back ?'
p1193
aS'The blood that fell on the floor looked like a red booger'
p1194
aS'mosquito. lol'
p1195
aS'The bloopers where fucking funny!!!! The last part was even funnier'
p1196
aS'can nigahiga do movies in minutes- (battle royale) '
p1197
aS'If you would do The Hunger Games, I gaurantee it would be funny! Please?'
p1198
aS'so pretty with white make up'
p1199
aS'You are no Taylor Lautner but you are ok'
p1200
aS'Jasper does this dress make me,look fat ? ( nod nod)'
p1201
aS'Which one is jacob'
p1202
aS'SEAN!!!!! '
p1203
aS'what is it with him and purple nurples lol'
p1204
aS"Jake, your a, penguin? Lol that's funny"
p1205
aS'Lol... Way too funny :-)'
p1206
aS"Haha , in the back yhu could see the girl dancing , '"
p1207
aS'I wish Ryan would make more videos like this... I miss his old style of \nmaking hilarious videos.. MAKE MORE MOVIES IN MINUTES RYAN HIGA!!!! I MISS \nTHOSE VIDS!!!!! '
p1208
aS'Girl:Now Will You Kiss Me? Ryan:Nahh Your Still To Fat'
p1209
aS'PENGUIN?!'
p1210
aS'LOOOOOOOOOOOOOOOOOOOOOOOOL TWILIGHT AD IN THE CORNER!'
p1211
aS'PO-TA-TO'
p1212
aS"Did you notice that Alice's lip is pierced"
p1213
aS'that poor house'
p1214
aS'eclipse?'
p1215
aS'can we kiss now? No your still to fat '
p1216
aS'I miss the whole crew making vids together. :c'
p1217
aS'I would feel really weird if somewon, a girl, started grinding all on me! I \nwould have been like uhhhhh no... :P But anyways I LOVE YHU RYAN HIGA'
p1218
aS'@fordashitsandgiggles - vengaboys- boom boom boom a speeded up version.'
p1219
aS"I laughed through the whole thing and I'm still laughing now! XD"
p1220
aS'" now will you kiss me?" "no your still too fat." LOL!'
p1221
aS'Bella:will u kiss me now? Edward: no ur too fat.'
p1222
aS'LOL. she was giving Jasper a lap dance'
p1223
aS'stupid fred '
p1224
aS'\xe2\x94\x8f\xe2\x94\x81\xe2\x94\x81\xe2\x94\x81\xe2\x94\x81\xe2\x94\xb3\xe2\x94\x81\xe2\x94\x81\xe2\x94\x81\xe2\x94\xb3\xe2\x94\x81\xe2\x94\x81\xe2\x94\x81\xe2\x94\xb3\xe2\x94\x93\xe2\x95\x8b\xe2\x94\x8f\xe2\x94\xb3\xe2\x94\x81\xe2\x94\x81\xe2\x94\x81\xe2\x94\xb3\xe2\x94\x81\xe2\x94\x81\xe2\x94\x81\xe2\x94\x93 \xe2\x94\x83\xe2\x94\x8f\xe2\x94\x93\xe2\x94\x8f\xe2\x94\x93\xe2\x94\x83\xe2\x94\x8f\xe2\x94\x81\xe2\x94\x81\xe2\x94\xab\xe2\x94\x8f\xe2\x94\x81\xe2\x94\x81\xe2\x94\xab\xe2\x94\x83\xe2\x95\x8b\xe2\x94\x83\xe2\x94\x83\xe2\x94\x8f\xe2\x94\x81\xe2\x94\x81\xe2\x94\xab\xe2\x94\x8f\xe2\x94\x81\xe2\x94\x81\xe2\x94\x9b \n\xe2\x94\x97\xe2\x94\x9b\xe2\x94\x83\xe2\x94\x83\xe2\x94\x97\xe2\x94\xab\xe2\x94\x97\xe2\x94\x81\xe2\x94\x81\xe2\x94\xab\xe2\x94\x97\xe2\x94\x81\xe2\x94\x81\xe2\x94\xab\xe2\x94\x97\xe2\x94\x81\xe2\x94\x9b\xe2\x94\x83\xe2\x94\x97\xe2\x94\x81\xe2\x94\x81\xe2\x94\xab\xe2\x94\x97\xe2\x94\x81\xe2\x94\x81\xe2\x94\x93 \xe2\x95\x8b\xe2\x95\x8b\xe2\x94\x83\xe2\x94\x83\xe2\x95\x8b\xe2\x94\x83\xe2\x94\x8f\xe2\x94\x81\xe2\x94\x81\xe2\x94\xab\xe2\x94\x8f\xe2\x94\x81\xe2\x94\x81\xe2\x94\xab\xe2\x94\x8f\xe2\x94\x81\xe2\x94\x93\xe2\x94\x83\xe2\x94\x8f\xe2\x94\x81\xe2\x94\x81\xe2\x94\xab\xe2\x94\x8f\xe2\x94\x81\xe2\x94\x81 \n\xe2\x95\x8b\xe2\x95\x8b\xe2\x94\x83\xe2\x94\x83\xe2\x95\x8b\xe2\x94\x83\xe2\x94\x97\xe2\x94\x81\xe2\x94\x81\xe2\x94\xab\xe2\x94\x97\xe2\x94\x81\xe2\x94\x81\xe2\x94\xab\xe2\x94\x83\xe2\x95\x8b\xe2\x94\x83\xe2\x94\x83\xe2\x94\x97\xe2\x94\x81\xe2\x94\x81\xe2\x94\xab\xe2\x94\x97\xe2\x94\x81\xe2\x94\x81\xe2\x94\x93 \xe2\x95\x8b\xe2\x95\x8b\xe2\x94\x97\xe2\x94\x9b\xe2\x95\x8b\xe2\x94\x97\xe2\x94\x81\xe2\x94\x81\xe2\x94\x81\xe2\x94\xbb\xe2\x94\x81\xe2\x94\x81\xe2\x94\x81\xe2\x94\xbb\xe2\x94\x9b\xe2\x95\x8b\xe2\x94\x97\xe2\x94\xbb\xe2\x94\x81\xe2\x94\x81\xe2\x94\x81\xe2\x94\xbb\xe2\x94\x81\xe2\x94\x81\xe2\x94\x81\xe2\x94\x9b'
p1225
aS'Who gets a knife for their girlfriends birthday?!?!'
p1226
aS'@iluvryanhigaful same here '
p1227
aS"OMG : LIKE if you agree that the role of Jacob should have been played my \nD'Trix/Dominic! (:"
p1228
aS'That girl is so lucky to have friends like them :D'
p1229
aS'U need to make ECLIPSE!!!!!'
p1230
aS'I love 0:21 throught 0:30 the dude in the background hahahahahaha'
p1231
aS'0:12 xDDDDD Lol'
p1232
aS"You're a... penguin?!?"
p1233
aS'@blondie1234568 Alice fall fail.'
p1234
aS'@nigahiga DEAR RYAN CAN YOU PLEASE DO ECLIPSE AND BREAKING DAWN??? THUMBS \nUP SO HE CAN SEE PLEASE'
p1235
aS'" jacob your a ............... Penguin?!"'
p1236
aS'These remind me of the scary movies that they did for scream'
p1237
aS'Tarynn and nigahiga is soooooo cute together ><'
p1238
aS"You're a...........Penguin?!? LOL"
p1239
aS"omg... i didn't realize that he was skanking XD AHAHAHAH"
p1240
aS'I wish you were Edward. Then I might actually reconsider watching \nTwilight... Or not.'
p1241
aS'first he says that her breath stinks and then he says shes still too fat \nwhen she wants to kiss himm..... it doesnt make sense'
p1242
aS'JACOB!! BAD WOLF BAD WOLF!! I SAY MON!!!'
p1243
aS'awww the good old days'
p1244
aS'Oh Sean... xD'
p1245
aS'jake your a a a penguin '
p1246
aS'i dont remember edward being as hot as this in the real movie'
p1247
aS'OMG LOL 3:19!!!'
p1248
aS'@KlUMSy1000 Ever think they might be dating!? I think they might be '
p1249
aS'A penguin?'
p1250
aS'epic nipple sqeez'
p1251
aS'is he wearing face mask?haha too white XD'
p1252
aS'@OrigaOLIVIA it was...'
p1253
aS'Does anyone know the ending song for the bloopers? :s'
p1254
aS'LMFAO 1:04-1:08'
p1255
aS'will you kiss me now? naaah, ur still to fat...'
p1256
aS'Oh em gee! Do Eclipse next! And then Breaking Dawn! ;D'
p1257
aS'Ryan is cute'
p1258
aS'at 1:48 is the best moment of all time!'
p1259
aS'omg'
p1260
aS'Edward cool moves at 1:04'
p1261
aS'0:44 BIG FOOT!!!!!!!!!'
p1262
aS'bloopers are awesome :)'
p1263
aS'Did anyone notice Alice had pit hair? LMAO!'
p1264
aS'Lol'
p1265
aS'Dear Ryan can you be a FBI most wanted :)'
p1266
aS'Lol 0:25-0:30'
p1267
aS'1:29 ish = PARKOUR '
p1268
aS'lol! 2:40!!!!'
p1269
aS"Omg at 2:58-3:02 Ryan and the girl are like kinda holding hand and while \nthere laughing she doesn't let go aww lol they look like there together, \nRyan looks a lil too comfy when he's holding her behind her back (; lol"
p1270
aS'huh?? penguin :s'
p1271
aS'LOL! I laughed so hard! 0:26 - 0:29'
p1272
aS"It looks that girl as Bella, is Ryan's real life girlfriend. :)"
p1273
aS'Haaa love it!:) they did an awesome job!:)'
p1274
aS'Jaspy does this dress make me look fat, uhhah'
p1275
aS'lmfao rosealy fall FAIL'
p1276
aS'Bella or Ella watev subsitute is pretty'
p1277
aS'Bella-JAKE RUN!!! Jake-turns wolf Bella-Jake your a a a PENGUIN! XD'
p1278
aS'lol '
p1279
aS"the best i've ever seen! "
p1280
aS'dear Ryan, you can make a parody of Eclipse:-3'
p1281
aS'Teehee :( but I love! :D'
p1282
aS"So now will you kiss me? No, you're still too fat. LMFAO"
p1283
aS'@Pipokinha33 what do u mean- IT WAS...? u mean they broke up? ..... :o'
p1284
aS'LO L WHEN ALICE DANCED'
p1285
aS'omgggg'
p1286
aS"Beat part is the last blooper and Ryan what's the song for the bloopers"
p1287
aS'I love the part wen they say : I want u to kiss me ....... Ahh no ur \nbreath!! Hahah I laughed so hard'
p1288
aS'lol,he looks just like jasper,it always looks like hes in Payne '
p1289
aS'Notice how "Jasper" in the bloopers didn\'t say anything about the men \ndancing on him until "Bella" screamed OH MY GOSH!!! Lmao! :D'
p1290
aS'People, shut the fuck up about the hunger games! Who cares about it?'
p1291
aS'Better than the original one'
p1292
aS'jake? your a........... penguin????? lol'
p1293
aS'I laughed hard at the last blooper!! LOL!'
p1294
aS'Aug 2009, but still having comments. nice..'
p1295
aS'0:30 Nice dance you got there lol'
p1296
aS'omg i love nigahiga tumbs up if you do to:)'
p1297
aS'Alice is an amazing dancer xD'
p1298
aS'i think ryan has a crush!! oohhhh! :3 Less than 3!!!'
p1299
aS"I am like adicted to Twilight, and take it really offensively wen some1 \ntakes the the mickey out of it, but i actually couldn't stop laughing \nduring this! I honestly think you should do one of Eclipse! Lolz xx BTW i \nLOVE ur vids, ur awseome!!! x :)"
p1300
aS'Omg they were belly dancing all over him on the last blooper!!! :)\xf0\x9f\x98\x8a'
p1301
aS'This version, way more epic. '
p1302
aS"NOOOOOOOOO master chingching's house :( "
p1303
aS'Mon.'
p1304
aS"lol. at how ryan is holding bella's hip throughout bloopers in the living \nroom. hehe"
p1305
aS'@LOLsofia1 Ohhh yes...;D'
p1306
aS'0:25 LMFAO '
p1307
aS'Funny, I love the bloopers though.'
p1308
aS'Ryan r u planing on doing the new twilight movie????'
p1309
aS'Ryan is so funny... I like all his videos...'
p1310
aS'LOL'
p1311
aS"Bella:it's my bday can I ask for something Edward:no Bella:a kiss Edward:oh \nno ur breath I was dieing"
p1312
aS"Naaaaaah you're still too fat XD"
p1313
aS'was that a red pin at 0:34??'
p1314
aS'3:18 lol:)'
p1315
aS'Still laughing. lol I can\'t get over the "Uh ohhhh" and Alice dancing on \nJasper in the bloopers.'
p1316
aS'teehee teehee teehee teehee teehee teehee teehee teehee teehee teehee \nteehee teehee teehee teehee teehee teehee teehee teehee teehee teehee \nteehee teehee teehee teehee teehee teehee teehee teehee teehee teehee \nteehee teehee teehee teehee teehee teehee teehee teehee teehee teehee \nteehee teehee teehee teehee teehee teehee teehee teehee teehee teehee \nteehee teehee teehee teehee teehee teehee teehee teehee teehee teehee \nteehee teehee teehee teehee teehee teehee teehee teehee teehee teehee teehee'
p1317
aS'hahahahaha " nahhhh ur still too fat" hahahahahahaha'
p1318
aS'LOL Alice is hilarious!!!! Especially in 0:10 - 0:30!!!!!'
p1319
aS'*GIRL*So now ill you kiss me? :D *Jack*......Nah your still to fat :3'
p1320
aS'couldnt stop laughing '
p1321
aS'lol last blooper is FUNNY!'
p1322
aS'Ryan is the only one, who actually looks good as a vampire... Robert just \nsuck.'
p1323
aS'LMFAO 0:26 SOOO jokes'
p1324
aS'lol picks up the house at 1:43'
p1325
aS'alice is getting it inn son haha! 0:26'
p1326
aS'i love the part where Alice was dancing Jasper'
p1327
aS"Lmfao ! ' Naww, Your Still Too Fat . ' I LOVE RYAN !(:"
p1328
aS'Ryan. I love you.'
p1329
aS'0:25 was wen that dude was dancing!'
p1330
aS'If Edward/Ryan thinks that SHES fat than I MUST BE HUGE!!!!!!!!!'
p1331
aS'Hahahah oh god the laugh in the very last second of the video cracked me \nupppp'
p1332
aS'HIlarious!'
p1333
aS'lol i miss Tim!'
p1334
aS'Ryan, is she you girlfriend?? '
p1335
aS'LOL I HAVE THE SAME EXACT KIDDY HOUSE IN MY YARD LOL'
p1336
aS'Is that his gf!?!? Bcuz he was touching her butt..?'
p1337
aS'Now will you kiss me? naaa ur still too fat LOLL'
p1338
aS'The moment the guy with the dreadlocks jumps around all I hear is Tro lo lo \nlo loo looo lolo lo lo lo lo loooo tro lo loo lo loo lo loo loo (Be aware \nthat the number of "o"\xc2\xb4s could not be matching with the official version) =D'
p1339
aS'ur a...penguin? XDDDDDDDDDDDD '
p1340
aS'I would rather see this t'
p1341
aS'Lol like the bit that goes jasper does this dress make me look fat..... \nYes.....'
p1342
aS'RYAN!!! wut ever happened to that guy who was wearing that funky hair? \n(this guy is in this vid)'
p1343
aS'Dear ryan, u shuld do eclipse and breaking dawn'
p1344
aS"Omgg he's gorgeous \xe2\x99\xa5"
p1345
aS"you're so mouthwatering....mon"
p1346
aS'HAHAHAHAHAH'
p1347
aS"3:08 where's the Kool aid guy?"
p1348
aS'a werepenguin would be epic'
p1349
aS"Jacob... You're a.... Penguin!?"
p1350
aS"the bloopers at 3:18 Kyle and Tim are grinding Sean I love the look on his \nface he's like wth?? umm help me. LMFAO!!! "
p1351
aS'no teehee'
p1352
aS'i luv how hes always sayin no ur still too fat or no ur too fat lmao XD'
p1353
aS'Wtf is new moon?'
p1354
aS'still a better lovestory then twilight.. oh wait o.o'
p1355
aS'Can you also do the hungergames? ;D'
p1356
aS'\xe2\x94\x8f\xe2\x94\x81\xe2\x94\x81\xe2\x94\x81\xe2\x94\x81\xe2\x94\xb3\xe2\x94\x81\xe2\x94\x81\xe2\x94\x81\xe2\x94\xb3\xe2\x94\x81\xe2\x94\x81\xe2\x94\x81\xe2\x94\xb3\xe2\x94\x93\xe2\x95\x8b\xe2\x94\x8f\xe2\x94\xb3\xe2\x94\x81\xe2\x94\x81\xe2\x94\x81\xe2\x94\xb3\xe2\x94\x81\xe2\x94\x81\xe2\x94\x81\xe2\x94\x93 \xe2\x94\x83\xe2\x94\x8f\xe2\x94\x93\xe2\x94\x8f\xe2\x94\x93\xe2\x94\x83\xe2\x94\x8f\xe2\x94\x81\xe2\x94\x81\xe2\x94\xab\xe2\x94\x8f\xe2\x94\x81\xe2\x94\x81\xe2\x94\xab\xe2\x94\x83\xe2\x95\x8b\xe2\x94\x83\xe2\x94\x83\xe2\x94\x8f\xe2\x94\x81\xe2\x94\x81\xe2\x94\xab\xe2\x94\x8f\xe2\x94\x81\xe2\x94\x81\xe2\x94\x9b \n\xe2\x94\x97\xe2\x94\x9b\xe2\x94\x83\xe2\x94\x83\xe2\x94\x97\xe2\x94\xab\xe2\x94\x97\xe2\x94\x81\xe2\x94\x81\xe2\x94\xab\xe2\x94\x97\xe2\x94\x81\xe2\x94\x81\xe2\x94\xab\xe2\x94\x97\xe2\x94\x81\xe2\x94\x9b\xe2\x94\x83\xe2\x94\x97\xe2\x94\x81\xe2\x94\x81\xe2\x94\xab\xe2\x94\x97\xe2\x94\x81\xe2\x94\x81\xe2\x94\x93 \xe2\x95\x8b\xe2\x95\x8b\xe2\x94\x83\xe2\x94\x83\xe2\x95\x8b\xe2\x94\x83\xe2\x94\x8f\xe2\x94\x81\xe2\x94\x81\xe2\x94\xab\xe2\x94\x8f\xe2\x94\x81\xe2\x94\x81\xe2\x94\xab\xe2\x94\x8f\xe2\x94\x81\xe2\x94\x93\xe2\x94\x83\xe2\x94\x8f\xe2\x94\x81\xe2\x94\x81\xe2\x94\xab\xe2\x94\x8f\xe2\x94\x81\xe2\x94\x81 \n\xe2\x95\x8b\xe2\x95\x8b\xe2\x94\x83\xe2\x94\x83\xe2\x95\x8b\xe2\x94\x83\xe2\x94\x97\xe2\x94\x81\xe2\x94\x81\xe2\x94\xab\xe2\x94\x97\xe2\x94\x81\xe2\x94\x81\xe2\x94\xab\xe2\x94\x83\xe2\x95\x8b\xe2\x94\x83\xe2\x94\x83\xe2\x94\x97\xe2\x94\x81\xe2\x94\x81\xe2\x94\xab\xe2\x94\x97\xe2\x94\x81\xe2\x94\x81\xe2\x94\x93 \xe2\x95\x8b\xe2\x95\x8b\xe2\x94\x97\xe2\x94\x9b\xe2\x95\x8b\xe2\x94\x97\xe2\x94\x81\xe2\x94\x81\xe2\x94\x81\xe2\x94\xbb\xe2\x94\x81\xe2\x94\x81\xe2\x94\x81\xe2\x94\xbb\xe2\x94\x9b\xe2\x95\x8b\xe2\x94\x97\xe2\x94\xbb\xe2\x94\x81\xe2\x94\x81\xe2\x94\x81\xe2\x94\xbb\xe2\x94\x81\xe2\x94\x81\xe2\x94\x81\xe2\x94\x9b'
p1357
aS'Waste of movie and book, but this spoof was SOOOOOOOO FUNNY!'
p1358
aS'0:35 he pushes her out of the way then punches her......LMAO!! xD'
p1359
aS'0:27. Lap Dance. :P'
p1360
aS'I love it when you guys do "Movie In Minutes"!!'
p1361
aS'This is actually better than the original movie.'
p1362
aS'penguin?! XDD'
p1363
aS'0:46 NIPPLE TWISTZ!!!!!!'
p1364
aS'I like the "no your still to fat"'
p1365
aS'@coolsayl yeah u can c it unless thats in the script: hand on hands or hand \non small of back :/ they look like a cute couple tho :)'
p1366
aS"LMFAO Had Me Weak When Alice Was Dancinq In The Back And Jasper's Face's \n!!!!xDD"
p1367
aS'I like bloopers best'
p1368
aS"you're a.....penguin?"
p1369
aS'Bella: now will u kiss me Ed: no your still to fat Lol'
p1370
aS'I like how he stops , looks, then jumps over it:D 1:34'
p1371
aS'does anyone see her in the back ground LOL '
p1372
aS'@coolsayl WAS dating. This waaaas a while back.'
p1373
aS'LOL... epic!'
p1374
aS'1:47 o my god'
p1375
aS'@LPSGirlzzz so funny!!!!!!!!!!!!!!!!!!!!!'
p1376
aS'00000000MMMMMMGGGGGG Noooooo teehee'
p1377
aS"Alices face at the end looks so good. It's the perfect face for Alice. \nLMFAOO."
p1378
aS'Yup. Pretty much sums up the whole movie.'
p1379
aS'"You\'re a..... Penguin???" lol'
p1380
aS'Lol..and dayum that girl is pretty'
p1381
aS"boy can drop it down! XD haven't seen a guy dance like that since the gay \nguy in heels at a nightclub! ^_^ good job!"
p1382
aS"Wait...! I don't remember Edward being Asian... I thought he was Indian! >)"
p1383
aS'nah ur still too fatting'
p1384
aS'hahahahhaha that blood drop'
p1385
aS'Is anyone else waiting for eclipse and breaking dawn by nigahiga?'
p1386
aS'its realy funny'
p1387
aS'3:17 '
p1388
aS'can u make a video of u being a cosmetic sergeon? im 1 of your biggest fans \nand im obsessed with gummy bears!!!!!!!!!!!!!'
p1389
aS'THE JACOB SCENES!!'
p1390
aS'penguin want is this yugioh abriged?'
p1391
aS'1:45 I HAD THE SAME DOLL-HOUSE!!!!!!! =O'
p1392
aS'omg lol hilarious.'
p1393
aS'Add 3:20 :D '
p1394
aS'ok at 0:18 ryan looks super hot lol '
p1395
aS'you got a very pretty girl friend :D'
p1396
aS'2:52- 3:07 : its so obvious ryan higa is dating the girl (Tarynn) ...just \nlook at their hands...so obvious!'
p1397
aS'PENGUIN xD'
p1398
aS'ur a penguin!?!?!? '
p1399
aS'if he left u here ............... mon'
p1400
aS'0:26 lol'
p1401
aS'LOL. 1:45.'
p1402
aS'Alice and Jasper!! Eeek!! '
p1403
aS'how much come you mean to him if he just left you here, mon... lol'
p1404
aS'it was funny when jacob fell when he was in the house also the ballet '
p1405
aS"...HAH! iz been a lung time n I'm bak here AGAAAAAIN!!!! Bet Tarynn \nREAAALLY regrets now since he FAAAAMOOOUUUUS!! I heard she also makes vids \n.. Mostly singin ones"
p1406
aS'@deevinyl07 looool me to '
p1407
aS'" Bella, we baked you cake!" laughed so hard'
p1408
aS'@coolsayl Duhh... As youh can see... O.O'
p1409
aS'lol at 1:13 - 1:14 HAHAHAHA LOL Laurent Best Channel ever!!'
p1410
aS'1:45-1:50 lol '
p1411
aS'@coolsayl its so cute'
p1412
aS"@Havaldon She's definitely got the moves!!"
p1413
aS'i love these old vids'
p1414
aS'@coolsayl thats because he was'
p1415
aS'hahaha y does he punch her lol '
p1416
aS'jasper omgod!!'
p1417
aS'Hahaha.... the very last scene of the bloopers'
p1418
aS'Are there any more spoofs of the Twilight series?'
p1419
aS'This is so damn funny thumbs up if your watching this in 2012'
p1420
aS'really hope that ryan-tarynn will come back together..'
p1421
aS'Bella: Want you to kiss me. *Edward moves closer* Edward: OH NO! you \nbreath! BAHAHAHAHAAAAAAA'
p1422
aS'if he just left ya hear mun.. XD'
p1423
aS'jake your a penguin LOLZ'
p1424
aS'Thumbs up if u Think Nigahiga is Cute:)'
p1425
aS"@coolsayl and they're so cute :x "
p1426
aS'Lol so funny!! :)'
p1427
aS'1:48 I wanna take the castle with me'
p1428
aS'@coolsayl that was back then i think theyre not dating anymore'
p1429
aS'LOL!!! '
p1430
aS'1:48 only snake from MSG can successfully hide in boxes like he tried to'
p1431
aS'@BigBossSnake100 I mean mgs'
p1432
aS'0:45-0:49 lol'
p1433
aS'does this dress make me look fat? *nods*'
p1434
aS'Chibi is cute enough.'
p1435
aS'"nah, you\'re still to fat"'
p1436
aS'DO ECLIPSE! DO ECLIPSE! DO ECLIPSE!'
p1437
aS"I wish Ryan couldv'e found another girl for Alice... ah well, it was \nfunnier this way ;)"
p1438
aS'Did anyone else hear her say Jake Ward?'
p1439
aS"@NachoCat17 yeah, i don't anymore after seeing how much it sucks.... i just \nsaw him on a smosh vid and thought he might be worth watching, i was \nwrong....."
p1440
aS'The person playing Alice deserves an Oscar.... js.'
p1441
aS'i BET YA THE "BLOOD" was acutually ketchup....'
p1442
aS'3:19 :D'
p1443
aS'AHAHAHAHAHA AMAZING! :DD'
p1444
aS'hahhaha he always does titty twisters hahaha '
p1445
aS'@LITTLExC i do '
p1446
aS'I wonder if Ryan misses her...'
p1447
aS'Alice: Jasper does this dress make me look fat? Jasper nods(:'
p1448
aS"@natn14 -.-'"
p1449
aS'Why did they give her a knife'
p1450
aS'1:03 xDDDDDDD'
p1451
aS'How they make it in minutes, the get all the important stuff... And throw \nit all out! :D'
p1452
aS"Nah you're still to fat lol"
p1453
aS'Poor Sean.. '
p1454
aS'This is how I see every twilight movie.'
p1455
aS"@2:04 *Jacob changes into a dog* Bella: YOU'RE A PENGUIN!!!! So FUNNY!"
p1456
aS'Omg I love the end on how both are dancing by jasper xD'
p1457
aS'IN the back round when Alice is dirty danceing around jasper...>HAHAHAH'
p1458
aS'@mrstupidity123ABC I read the hunger games but I love twilight.'
p1459
aS"@marstellx3 still prefer smosh. nigahiga's kinda slapstick and corny."
p1460
aS'So funny the bloopers looked so fun'
p1461
aS'Epic house lift 1:43 EPIC!!!!!!!!'
p1462
aS'poor Sean, he had to b dirty danced by a she-man and had 2 b eaten by \na...penguin?'
p1463
aS'lol no your still to fat'
p1464
aS'Ur a..... pengiun'
p1465
aS'that is so funny ryan!!!!!!!!!!'
p1466
aS'hey did anyone notice on the bloopers eddy puts his hand on bellas butt'
p1467
aS'1:12 , VERY attractive...'
p1468
aS'after he pushes "bella" into the couch at 0:38 is it really neccesary 2 \npunch her?'
p1469
aS'penguin? '
p1470
aS"The Twilight saga would've been soooo much better if Bella was an asian!!!!"
p1471
aS'It was soo funny seeming Alice dance on jasper when he gave her the knife. \nI almost peed my pants.'
p1472
aS'he broke the house!!!'
p1473
aS'At the end, it sounds like a dying chicken.'
p1474
aS'That blood drop was definitely ketchup bahaha i died. '
p1475
aS'1997 people are still too fat '
p1476
aS'at 2:56'
p1477
aS'Bella: so now will u kiss me? Edward: naw ur still too fat. Lmao!!!'
p1478
aS'okay just throwing this out there who gives another teen a knife?!?!?!'
p1479
aS'great impression of alice :D'
p1480
aS'Lol thumbs up of u noticed Alice dancing with jasper LOL'
p1481
aS'They would make a cuteeeee couple!'
p1482
aS'where did these people go?'
p1483
aS'2:02 LOL 0:11 LOL 1:05 LOL 1:48 LOL 2:09 LOL 2:14 LOL And thats WITHOUT \nblooperz!! BRING ON ECLIPSE AND BREAKING DAWN!!!!!!!!!!! XD'
p1484
aS'Keep pressing 7...'
p1485
aS'THUMBS UP FOR HER CALLING IM EDDIE!!!!XD>.<:O'
p1486
aS'hahahahahahahaaha 00:25 - 00:30 at alice getting down on jasper :O'
p1487
aS'lol Alice dancing in the backround '
p1488
aS'@mycreation214 they were boyfriend and girlfriend in those days, but they \nbroke up now '
p1489
aS'Hahaha!!!!! 2:35 LMAFO!!!!!!;()'
p1490
aS'Eddie? '
p1491
aS"It's my birthday so can I ask you for something? No"
p1492
aS'LMFAO!! His face was powdered white...XD'
p1493
aS'AHAHAHA 0:25'
p1494
aS'@egggirl21 lol thats alice'
p1495
aS'@natn14 dick face face dick daceceda wifawhwoaiawd'
p1496
aS'watch from 3:09 to the end. POOR SEAN! XD'
p1497
aS'keep pressing 7 '
p1498
aS"@egggirl21 It's sooo freaking hillarious~!!"
p1499
aS"Ryan's super attack: *pinching nipple!!* lol"
p1500
aS'HAHAHAHAHAHAHAHAHAHAHAHA 0:40'
p1501
aS'The beginning at :20 when Alice drops it likes its hot.... LOL!'
p1502
aS'This made me laugh so hard I cried'
p1503
aS'the reason he tried to atack bella cause is he didnt there will be more \nmovies lo'
p1504
aS'is ryan and tarynn really going out like for real'
p1505
aS'have you noticed that at 2:52-3:06 ryans hand keeps WANTING to slip down \nher ass?'
p1506
aS'jake your a.......*shows DOG*.......penguin?'
p1507
aS"@egggirl21 That wasn't no lady..."
p1508
aS'he so look like dora with that wig XD'
p1509
aS'can we kiss now no u to fat '
p1510
aS'Poor Playhouse'
p1511
aS'That girl really needs to learn her mythical creatures.'
p1512
aS"Woow she's prettier than Bella!! but also Edward's very handesome..:D "
p1513
aS'At 2:10 I choked on my cookie...'
p1514
aS'"now will u kiss me?" "no ur still to fat!" lol!'
p1515
aS'"Jake run" (turns into a dog) "Your a...... penguin?"'
p1516
aS'so funny loves it '
p1517
aS'Sean!'
p1518
aS'hahahaha 0:29! '
p1519
aS'tim is indestructible'
p1520
aS'"Oh no your breath!" LOOOLZ XD'
p1521
aS'"you\'re so mouthwatering.......man...."'
p1522
aS'LOL 1:05 haha XD'
p1523
aS'Some sexyness in the back xD 0:27'
p1524
aS'Dear ryan can u do eclipse!'
p1525
aS'WOW....O_o i never saw wut he was doing in the background at 0:27'
p1526
aS'It would have been way better if that were the case : )'
p1527
aS'at :27 seconds look to the left '
p1528
aS'HHAHAHA the dancing 0.27 .. i could have been killed, laughed so hard'
p1529
aS'Me and Ryan have the same birthday! :D'
p1530
aS'What happened to tim & sean ?;o'
p1531
aS'Last video with Sean in it :('
p1532
aS'Ur a......... Penguin?'
p1533
aS'Jacob is HOT'
p1534
aS'@egggirl21 that "lady" is Alice, lol'
p1535
aS"Now can we kiss? No you're still too fat... The best part was when he went \ninto that little house and broke it."
p1536
aS'haha'
p1537
aS'I bought u a gift ouch blood stripper in back'
p1538
aS'What da Hell'
p1539
aS'Jasper is getting raped'
p1540
aS'What happened to Sean p.z answer nigahiga'
p1541
aS'@Laura32147 OMAIGAWD YES!'
p1542
aS'Make eclipse and breaking dawn'
p1543
aS'@0:27 lol wth??!!!'
p1544
aS'2:51'
p1545
aS'ur a penguion o dogs showing lol'
p1546
aS'0:28 his dancing lol. '
p1547
aS'thumbs up if you want to see eclipse !'
p1548
aS"What does he say at 3:20? I can't hear."
p1549
aS'0:45 tittie twisters lol '
p1550
aS'do breaking dawn next please '
p1551
aS'i <3 u ryan :] thumbs up if u do to:}'
p1552
aS'Dear ryan make a breaking dawn movie in mins'
p1553
aS'Hey jaspy does this dress make me look fat? ( shakes his head) lol'
p1554
aS'i can imagine it being awkward with almost all guys and just 1 girl.... its \nlike yaoi'
p1555
aS'you should do breaking dawn :D'
p1556
aS'@natn14 then dont watch it. '
p1557
aS'Lmao The girl dancing LOL '
p1558
aS'@egggirl21 I think thats all anyone noticed LMAO xD'
p1559
aS'Have you done Paranormal Activity? That would be hilarious!'
p1560
aS'Your a..............PENGUIN????'
p1561
aS'Omg now u have 2 do eclipse and breaking dawn haha!'
p1562
aS'HEY THAT WAS MY HOUSE!!!!!'
p1563
aS'What is the backround music at the end ?!?!?!?! It sounds soooo awesome'
p1564
aS"@natn 14 ur a douche nigahiga is awesome!!!! Smosh is too they're both \nawesome n funny"
p1565
aS"@Laura32147 I agree with you, except that Ryan's gf broke up and unable to \nplay Bella anymore :("
p1566
aS'DANCE '
p1567
aS"LOL AT 0:44 i remember that from New Moon (expect it wasn't not spoofed)"
p1568
aS'THIS IS HILARIOUS!'
p1569
aS'I luv it it funny'
p1570
aS'relax it was meant to be funny'
p1571
aS'Jasper is getting the D. x'
p1572
aS'Hahaa kids!.(:'
p1573
aS'lol'
p1574
aS'Ryan at 3:03'
p1575
aS'they should do eclipse, nd breaking dawn.! >.<'
p1576
aS'omg'
p1577
aS'ITS WEIRD CAUSE ALICE IS GIVIN JASPER A LAP DANCE WOW LOL =P'
p1578
aS'nahhh still to fat'
p1579
aS'if he just left you here ... man '
p1580
aS'Wayy better than the movie lol:)'
p1581
aS'@tdalehite i know right they need to make thoes 2 movies'
p1582
aS'your '
p1583
aS"OMG ya'll r 2 funny!!!!!!!!!!!!!!!"
p1584
aS'"Jaspy? Does this dress make me look fat?" LOOOOOOOL'
p1585
aS'Sean!!,!,,'
p1586
aS'Lol!! He so pail'
p1587
aS'Hillarious!!! XD'
p1588
aS'Bella:Now will u kiss me? Edward:......No.Ur still too fat.'
p1589
aS'lol now will you will kiss me? ......... no your still to fat XD'
p1590
aS'Haha so watch bonus features if you knew about the misqituos xD'
p1591
aS'Alice: Jasper, does this dress make me look fat? Jasper: *nods*'
p1592
aS"i've always been on team edward. and now ryan's edward less than 3"
p1593
aS'How bout eclipse and breaking dawn??? '
p1594
aS"@XxOrangeBananasxX I know, right? That's my favorite part, too. The actor \nthat plays Alice is hilarious."
p1595
aS"i didn't now jacob had a lip piercing or alice????............ p.s. look at \nda titanic 1 dat 1 really funny"
p1596
aS'@toriann1632 he was but they broke up already!'
p1597
aS'LOL LOL ROFL'
p1598
aS'U shud make a movies in minutes on the Degrassi No where to run'
p1599
aS"in the real twilight , i'm on team jacob. but in this version, I'M TOTALLY \nFOR EDWARD!!!!!!! (RYAN)"
p1600
aS'First movie she said Edward was a mermaid, now she said Jacob is a \npenguin.. Is she retarded or something??'
p1601
aS'yes and do you see the girl in the baack round '
p1602
aS'LOL when the guy in the background is dancing it cracks me up soo bad!!'
p1603
aS'@arbiterrulesdude LOL!'
p1604
aS'so now will you kiss me? naw your still too fat FUNNIEST PART XD'
p1605
aS'omg wat the heck is alice doing in the background from 0:26-0:30.....WEIRD \nTHUMBS UP IF U NOTICED THT 2'
p1606
aS'3:03-3:06, ryan caressing her... back'
p1607
aS"I'm a twilightaholic but I don't care this is awesome!!!"
p1608
aS'Alice: Jaspey, does this dress make me look fat? Jasper: *nods* How do you \nguys do that without laughing ur heads off!?'
p1609
aS'1:26 PARKOUR!'
p1610
aS'hahha'
p1611
aS'Pause 1:22-1:23. Bobby pins every1 wer round his head.!! hahahaha'
p1612
aS'LOLLLLLLL'
p1613
aS"@natn14 his videos are random... its random humor duh...it's the corniness \nwhich makes it funny. smosh has great videos and them too but personally \nryan is better which is why he has more subscribers and views than them"
p1614
aS"everytime i watch this video, i look at alice dancing on jasper. this was \nthe first time i noticed edawrd giving bella a freakin' knife as a \npresent!!!! lol wthhh"
p1615
aS"you're a...penguin?"
p1616
aS'Lmao This Is Hilarious! xD'
p1617
aS'What is the music at the end o:??'
p1618
aS'How old was ryan and tarynn here?'
p1619
aS'i think ryan was with that girl!;P'
p1620
aS'o god plz stop ur making me laugh so hard'
p1621
aS'Almost 2,000 dislikes???!!!! WHAT?!?!?!'
p1622
aS"this is my favorite video out of all the ones you've made! love it! "
p1623
aS"i crack up each time xD Bella's recieving her gift and Alice is over there \ngiving Jasper a random lap dance"
p1624
aS'"sooo now will u kiss me?" (intense staring) "nah, ur still too fat" LOL LOL'
p1625
aS"nahhh, you're still too fat(:"
p1626
aS'penguin?!'
p1627
aS'Penguin?!'
p1628
aS'LOOKS WAY BETTER THAN TE REAL MOVIE. I WOULD TOTALLY GO SEE THIS!!'
p1629
aS'go jacob!!'
p1630
aS'i love how everyone is asian. xD '
p1631
aS'make one for breaking dawn !!!!!!!'
p1632
aS'@vicekarly who gives someone a knife that IS wrapped up! xD'
p1633
aS'someone noticed TwilightE?'
p1634
aS'funny!!!!!!!!'
p1635
aS'1 I love how her hair was different from Twilight 2 I love 0:26 and the end \n3 I love the blooperss(:'
p1636
aS'Jake your a \xe2\x80\xa6 penguin?'
p1637
aS'you should do a movie in minutes of Eclipse'
p1638
aS'you should make a movies in minutes for Eclipse and Breaking Dawn Part1!!!'
p1639
aS'LMFAO!!!! when he was dancing. that was too funny'
p1640
aS'I am a flying panda.....'
p1641
aS'that was so funny could you make a funny stupid Milley Syrus Cyrus movie in \nmin. {: )-l<l=:llll'
p1642
aS'i saw jaspers hair and i cant qit laughing!!'
p1643
aS'Bella:so now will you kiss me Edward: no your still to fat lol'
p1644
aS"You're funny:)"
p1645
aS'I mean, what if he actually showed up in the house? How do you react to \nthat?'
p1646
aS'NIPPLE TWIST!!! XD'
p1647
aS'LOL The kids around are probably yelling "Mommy Mommy there\'s a moving \nhouse outside"'
p1648
aS"I don't I have ever laughed that hard in my life! This was HILARIOUS!!"
p1649
aS'Edward is FINALLY hot in a movie!!!!! Love it!!'
p1650
aS'I like your face teehee!!!!!!!!!'
p1651
aS'your a penguin '
p1652
aS'love all of the bobbypins in his hair.'
p1653
aS'nice body!!!!!! luv his abs'
p1654
aS'@nigahiga you should do a movies in minutes for Eclipse! thumbs up if you \nagree ;)'
p1655
aS'Great video :D '
p1656
aS"Really guys he's funny but that Was kind of gross COOL"
p1657
aS'she still has the price tag on her pants at 1:56'
p1658
aS"Third time i've watched this and its still the funniest thing I've seen on \nyoutube "
p1659
aS'SEAN!!!!!!!!!!!!'
p1660
aS'super funny thumps up !!'
p1661
aS'I love the house-run and fall over. That was hilarious <3'
p1662
aS'Team Jacob!!!!'
p1663
aS'lol 3:18 to 3:26 lmfao!!!!'
p1664
aS'loook at the boy with the girl wig dancing on the dude lol'
p1665
aS'2 things bout the video 1) edwards cuter than jacob 2)its a chinese remake '
p1666
aS'Why dont you make Eclipise PS I LOVED THE VIDEO!!!!!'
p1667
aS'Bella: Can I ask you for something? Edward: No. Bella: I want you to kiss \nme. Edward: Oh no! Your breath! Bella: Eddie! LMFAO i laughed so hard i \ncried!'
p1668
aS'ha,ha,ha,ha,ha,ha,ha,ha i loved it he is a penguin! Check out the chicken \nwing song. it is hilarious!'
p1669
aS'LOL 1:35'
p1670
aS'aaaa i miss seaann '
p1671
aS"Jacob's run was so awesome ..."
p1672
aS'Alice.dancing in jasper!\xc2\xab3'
p1673
aS'DO ONE ON ECLIPSE!!!'
p1674
aS'Will You kiss me..... Na ur still to fat o_0 HAHAHAH'
p1675
aS'\xe1\x83\x9a(\xe0\xb2\xa0\xe7\x9b\x8a\xe0\xb2\xa0\xe1\x83\x9a)'
p1676
aS'1:43 I swear every time I see it I laugh. My mom was in the room and she \nwas like....wth.'
p1677
aS'i heard "Vampires Suck" was a parody'
p1678
aS'epic werewolf transformation'
p1679
aS'0:27 :)'
p1680
aS'i lov this its so funny. who gives someone a knife thats not wrapped up?'
p1681
aS'thanks for looking aT my post and could you make a nother one'
p1682
aS'SEAN'
p1683
aS'DO ONE ON ECLIPSE!!!! please?....'
p1684
aS'Hehehehehehehehehehe!'
p1685
aS'this is soooo hysterical'
p1686
aS'U r Awsome Ryan higa'
p1687
aS'\xc2\xa2\xe2\x98\xba\xe2\x98\xbc\xe2\x99\x82'
p1688
aS'0:29 nice armpit hair alice xD \xe1\x83\x9a(\xe0\xb2\xa0\xe7\x9b\x8a\xe0\xb2\xa0\xe1\x83\x9a) Y U NO SAY TEEHEE?!'
p1689
aS'tnat was sooooooo funny thanks for looking at my post you should make a \nEclipse that will be very funny :)'
p1690
aS'i wish my laptop was louder so i could here'
p1691
aS"I just had to pause the video like 15 times because I was laughing so hard \nbut didn't want to miss any parts. :P"
p1692
aS'@Elilalalulu I bet ryan would rather date a guy then date you bitch.'
p1693
aS"1,982 don't like watching Nigahiga pull another dude's nipples."
p1694
aS'Hahaha I love the last blooper.'
p1695
aS'"Jaspey does this dress make me look fat" *Looks up and down then nodes \nyes* '
p1696
aS'lol alice... :)'
p1697
aS'0:26 the dancing, is too funny!!'
p1698
aS'can you do the eclipse one? '
p1699
aS'So now will you kiss me? ..... Nah your still too fat'
p1700
aS'@SSKA4LIFE Who said they were all Chinese?'
p1701
aS'Who gives someone a knife for a present?'
p1702
aS'nah u still too fat '
p1703
aS'This is funny'
p1704
aS'Is that ryans gf ?'
p1705
aS'Plzzzz do breaking dawn'
p1706
aS'THUMBS UP FOR PENGUIN JAKE xD'
p1707
aS"; i can't get over how cute Ryan and the girl look at 2:53 through 3:07 <3 \nthey're SO adorable. <33 (:"
p1708
aS'TEAM JAKE.. YYYEEEHHHH PENGUINS'
p1709
aS'i like the shreck in the background at 0:21 '
p1710
aS'@BEnzwalkable i didnt see it was put up two years ago...'
p1711
aS'lol a knife as a gift. '
p1712
aS"I was in a relly bad mood now I'm happy again coz I saw dis a few yrs ago \nwen my frend n I culd c each other now she's to busy n so m I so dis made \nme happy!"
p1713
aS"''Now will you kiss me?'' *long pause ''Nah, your still fat.'' LOL FUNNY"
p1714
aS'watch the end and you will see alice and emmet dancing lololo'
p1715
aS'"I want you to kiss me" "Ew no your breathe" lol crack up man'
p1716
aS'0:34 ketchup...yum'
p1717
aS'hahahahahahahahaha so funnyyyyyyyyyyyyyyyyyyy'
p1718
aS'SEAN CAME BACK!!! OMG'
p1719
aS'wow bella dumb'
p1720
aS'@giester17 Yeah like 2 years ago LMAO!'
p1721
aS'Ryan is sooo much more hotter than Robert pattinson'
p1722
aS'Your a....penguin? Lol'
p1723
aS'I may turn to Team Alice because of this.'
p1724
aS'"you\'re a....penguin?" lol XD'
p1725
aS'2:55 (: they look romantic and hes touching her ass <3'
p1726
aS'A knife for a gift'
p1727
aS'BELLA IS SO PRETTY! <3'
p1728
aS'ooo no your breath lol'
p1729
aS'is ryan dateing the girl in real life SOMEONE ANSWER ME PLZ xd'
p1730
aS"Omg you're a...penguin?"
p1731
aS'@albaniarocks100 so right'
p1732
aS'he should make eclipse and breaking dawn '
p1733
aS'Funny'
p1734
aS'3:05-3:06 watch itO.o'
p1735
aS'nice present... '
p1736
aS'"ooh! knife cut" no big deal...'
p1737
aS'wtf?'
p1738
aS'lol alice '
p1739
aS'teehee'
p1740
aS'ever fail!'
p1741
aS'Bella:now will u kiss me? (puase) Ryan/Edward:u still look fat XD'
p1742
aS'jake ur a penguin! '
p1743
aS'LMFAO 0:26 i cant stop laughing at the guy dancing! look at his armpits:D'
p1744
aS"annnnddd that's how you move a house"
p1745
aS"Omg pls tell me if Ryan is dating her.....PLS.....if she is she's \ndead.....I luv u Ryan pls pls pls marry me !!!!!"
p1746
aS"Haha I've watched this so many times it's so funny"
p1747
aS'=))'
p1748
aS'How much could You possibly mean to him...mon. Lol'
p1749
aS'They used to date. This video is old Melon; he and Tarynn split years ago. \n:('
p1750
aS'Watch ryans twilight spoof! It is hilarious'
p1751
aS'What does Ryan say at the very end to make them die laughing?'
p1752
aS'those kids must be really mad at you 4 busting down their house thumbs up \nif you agree'
p1753
aS'Bahaha! 0:26 is hilarious!'
p1754
aS'its funny i keep noticing the two little girls in the picture on the mantle'
p1755
aS'funny '
p1756
aS'Love this one too I agree with other comment, twilight movies would be \nbetter with all Asians :))'
p1757
aS"Alice's lapdance to Jasper makes the video deffinitely."
p1758
aS"I freaking Miss SEAN. :( he's the one who first got me 2 watch this whole \nthing 3 years AGO . . . !"
p1759
aS'poor playhouse'
p1760
aS"If u look closely at ryan's face at 0:32 to 0:34 u can c at some point he \nsmiles a little."
p1761
aS'Classic nipple twist. Oh heck yeah xD'
p1762
aS"I really love watching Ryan's movie spoofs ^^"
p1763
aS'Hahahhahahahahhahahahhahahahahahaha Teehee? Where did it go)'
p1764
aS"look at ryan's hand.. at 3:02 lmao xD i have no life T_T XD"
p1765
aS'What is the name of that song u always play during the bloopers???'
p1766
aS'I think the Twilight Saga would be WAYYY more sexier with all Asians. Ohh \nmy.'
p1767
aS"In the last minutes, Ryan's hand was on girl's butt.... Gotcha Pervert!!!"
p1768
aS'1980 people are penguins'
p1769
aS"you're a....penguin?!"
p1770
aS'i want the old u tube without the adds back:('
p1771
aS"Bella's probably thinking: DUDE! WHY'D YOU PUSH ME INTO THAT TABLE!!!?"
p1772
aS'lol OH NO YOUR BREATH '
p1773
aS'excellent! u makes my life meaningful! so funny! :D'
p1774
aS'bella- *now can u kiss me*? edward- *no ur still to fat* lol'
p1775
aS'@iheartbieber29 thats a bit racist '
p1776
aS"heyy where's d TEE HEE"
p1777
aS'@iheartbieber29 uh......yer it is'
p1778
aS'0:14 PAUSE AND LOOK AT HERE FACE'
p1779
aS"lol jake you're a penguin? "
p1780
aS"Make a happy birthday vid for mee? It's nov 5"
p1781
aS'my first ryan nigahiga vid and it all began. i love him, he is hilarious.lol'
p1782
aS'Ryan used nipple twist!!! Its super efective!!!'
p1783
aS'hahah dude really that guy who plays alice DANCES CRAZY HAHAHA :)) NICE \ntouch ryan '
p1784
aS'Oooo catfight! 1:05! xD'
p1785
aS'in 00:33 you can see that ryan wanted to laugh right after the cut herself \nu could see his smirk xD'
p1786
aS'your girlfriend is hot.'
p1787
aS"LOL I can't stop laughing"
p1788
aS'So, Tim and Sean played werewolves? Awesome.'
p1789
aS'U guyz mak me crack up alot!!!!!!!!!!! r all of u guys related?'
p1790
aS'shake your bootayy'
p1791
aS'@meinpeoplerock Soo sad when people try to copy what the first person \nalready done..'
p1792
aS'Alice and Jasper. AMAZING couple! Ryan Higa, you are AWESOME. '
p1793
aS'Thumbs up if you really thought the blood was real the first time'
p1794
aS'Can u make the breaking dawn part 1 trailer?'
p1795
aS"@unicornjake32 The movie in minutes is a spoof of the trailer, that's what \nit says in the description"
p1796
aS"In the background 0:27 LMAO, He's dancing on him xD"
p1797
aS'i love you niga higa! ahh you are the best '
p1798
aS'hahahaahah'
p1799
aS'The last 9 seconds are so hilarious...'
p1800
aS'jake you are a punguin? oh that cracked me up haha'
p1801
aS'"So now will you kiss me?" "Nah your still too fat..."'
p1802
aS'OMG amazing trailor'
p1803
aS'who gives knife as a birthday present?? seriously nigahiga is hilarious'
p1804
aS'@MrTheeyeball why would anyone need proof?'
p1805
aS'"You\'re a...penguin?!"'
p1806
aS'@MrTheeyeball thats kinda racist '
p1807
aS'"so, now you will kiss me?" "no! you\'re still too fat" xD'
p1808
aS'"now will you kiss me?" "naa, your still too fat."'
p1809
aS"you're a ... PENGUIN?"
p1810
aS'Are you doin an Eclipse one??'
p1811
aS'"how much can he you possibly mean to him? ....... mon"'
p1812
aS'I should lay off the juice boxes at night [:'
p1813
aS'how come alice is fat?:S hmmmmm....'
p1814
aS'I love these videos. Little compilations of art. '
p1815
aS'Bella is cute...but not too bright. Unless that actually was a penguin....'
p1816
aS'@msgothgirl118 That wasnt racist at all. o_0'
p1817
aS"the bloopers were hilarious! :'D"
p1818
aS'cute doggie appears :D '
p1819
aS'haha'
p1820
aS'hahahhaha in the background :)'
p1821
aS'the way ryan held "bella" from2;50 -3;05 was soooo sweet '
p1822
aS'"What happened with Jasper was nothing." "Nothing to what could have \nhappened. I promise to never put you through something like that every \nagain." -slaps her shoudler- "OW! What was that for?" "Mosquito."'
p1823
aS'ur so mouthwatering.. man *jamacain*'
p1824
aS'r u gonna do eclipse?????'
p1825
aS'why is alice giving jasper a booty dance lmao'
p1826
aS'i love the part where "alice" is dancing on "jasper" ! '
p1827
aS'i loved the bloopers and y was alice pole danceing on jaspers leg '
p1828
aS"You're a...penguin? (it's a dog..XD)"
p1829
aS'Your a...... Penguin?'
p1830
aS'Jaspy... Does this dress make me look fat? '
p1831
aS'so, what ever did happen to sean? even tho you moved ryan, would you please \nenlighten us with that story? pretty please. YTF'
p1832
aS'should totally do breaking dawn part 1'
p1833
aS'now do eclipse with the exact same people '
p1834
aS'ASIANS FTW!! AWW RYAN <3'
p1835
aS'HHAHAHAAHAHAHA!!!!!! LAUGHED SO HARD ON THE BLOOPERS LOLOL'
p1836
aS'lol i love when alice is like "jaspie does this dress make me look fat?" \nand he nods.'
p1837
aS'Oh i want Alica to strip like that on my Brithday ;D Lmao'
p1838
aS'0:33 KETCHUP!!!! RUN FOR YOUR LIVES!!!!!'
p1839
aS'0:28'
p1840
aS'I like this gang of Ryan a lot more than his new ones. :('
p1841
aS'when are u gonna do the eclipse one? '
p1842
aS'0:26-0:30 HAHAHHHAH LMAO'
p1843
aS'"Today\'s my birthday. Can I ask for something?" "No" "Would you kiss me?" \n"*about to kiss her* Oh no your breath" "Eddie!"'
p1844
aS'lol.. the top comments are the same.. -_- anyway.. love yah ryan!'
p1845
aS'"that awkward moment when" the top comments are the same. -.-'
p1846
aS'0:47 NIPPLE TWIST!'
p1847
aS'nigahiga is proof that asians are awesome'
p1848
aS'jake, your a...penguin?'
p1849
aS'*Now will you kiss me?* *Not that close to kissing her*Nah your still to \nfat. '
p1850
aS'"Todays my birthday. Can I ask for something?" "No" "Would you kiss me?" \n"*about to kiss her* Oh no your breath" "Eddie!"'
p1851
aS'Hi Ryan!'
p1852
aS"OMG! I saw Regina's Wig!"
p1853
aS'lol 0:22-0:31 laughed sooooo hard look at "alice" in the back with "her" \n"bf".....lol'
p1854
aS'aw i miss you guys doing videos like these... '
p1855
aS"you're so mouth watering.... TROLOLOLOL "
p1856
aS'that awkward moment when "alice" is goin down on "jaspers" dick during the \nbirthday party'
p1857
aS'Does this dress make me look fat? *nod*'
p1858
aS'Yay a penguin. It would have better if he was a penguin'
p1859
aS'Whoah! 2:24 look how she licks her lips'
p1860
aS'Purple Nurple'
p1861
aS'There was a asian prositi dancing infront of Jasper '
p1862
aS'your a.....penguin?'
p1863
aS'Cool so alike'
p1864
aS'1:45 laughed my ass off'
p1865
aS'1:55 omg its a dog penguin that roars like a lion! and it moos? XD'
p1866
aS'Wow, Penguin?!? too funny! Like if you agree!'
p1867
aS'i lOVE YOU! and she is FIIINNNEEEE'
p1868
aS'I love how NigaHiga actually has the same hairstyle as Robert Pattinson. XD'
p1869
aS'"this is the last time you\'ll ever see me" *he leaves* "Edward no!" *she \ngrabs him* *beats her like a girl* "AUW! Eddie, Eddie!" *she let him go* \nHahhaha... :-D '
p1870
aS'@crewsk LMAO i ALWAYS wondered that!'
p1871
aS"lmfaooooooo!!!!!! i can't stop!"
p1872
aS'make eclipse!!!!!! =D'
p1873
aS'Lots of love'
p1874
aS'lol 0:27 look at the background '
p1875
aS'Wow!!! haha best funny parts 0:26 0:42-0:43 0:47 NIPPLE TWIST!!! '
p1876
aS'i love it in the real movie where she gets a tiny cut and edward throws her \nass across the room and it makes it worse'
p1877
aS'Wow! ese lado tierno de Ryan cuando tiene la mano en la cintura de la chica \ny su dedo agarrado, me encanta como se ve. Super guapo. '
p1878
aS'jake your a....... penguin! lol'
p1879
aS'I like them as the actors better than the actual cast of the actual \ntwilight movies lol'
p1880
aS'ryan should so totally do eclipse'
p1881
aS'Edward is shiny!Especially in this video!'
p1882
aS'0:27 The best part! Wahahahahahahahaha!!!'
p1883
aS"The Wendy house! :'D"
p1884
aS'look at ryan hands @ 3:02 !!! omg! like a couple!'
p1885
aS'i love nigahiga!!!'
p1886
aS'Shes so pretty!'
p1887
aS'Lol he pushes her then punches her! xD 0:40'
p1888
aS'HUH?'
p1889
aS'0:26 LMFAO!!!'
p1890
aS'Bella: so now will you kiss me Edward:...... NA your still to fat'
p1891
aS"1:40 to 1:51 , you dont know how hard i was laughing x'D"
p1892
aS'Now will you kiss me ..... No your still to fat hahahaab XD'
p1893
aS'aww .. i miss all of them .. please reunite for MIM: Eclipse .. HAHA ! :)'
p1894
aS'ur a penguin?'
p1895
aS'Press 4 over and over for epic eye roll'
p1896
aS'oh my God i laughed so hard at alice'
p1897
aS'Does anyone else notice at 0:27 ? Hahaha'
p1898
aS'NIPPLE SCWEEZE'
p1899
aS'ur a penguin'
p1900
aS'Pause at 0:30!!! xDDD'
p1901
aS'fuck team edward and team jacob go team Ryan'
p1902
aS'I miss Sean!!!!!!!!'
p1903
aS'I MISS SEAN:( '
p1904
aS'jacob......your a ...penguin?!'
p1905
aS'Thats so funny'
p1906
aS"LMAO 0:27-0:30 i'm surprised that its not in the Top Comments...."
p1907
aS"that's xbox sound. when she cuts herself."
p1908
aS'press 4 over and over for epic eye rolling!'
p1909
aS'1:43 I DIE every time he falls and screams!'
p1910
aS'do u no ryan and tht girl makes a good couple but they might bro and sis \nsry '
p1911
aS"@crewsk u've obviously nvr read the books or seen the movies, jasper \nattacks her wen she cuts her finger, and within the second book he totally \ncontains control over her blood"
p1912
aS'omg alice xD'
p1913
aS'My friend and i once dared each other not to laugh at this video. when ryan \nstarted punching her on the couch, we were done. completely in tears.'
p1914
aS'Youre a......... penguin?? '
p1915
aS'Asian Black guys! Oh yeah!'
p1916
aS'wow my face hurts!!!! :D :D :D and whats with the purple nurples!?!?!?!?!'
p1917
aS'at 3:18 my ribs were hurting! lmfao'
p1918
aS"''So will you kiss me?'' ''Na.You're still fat.''"
p1919
aS'@andreaupadhya amen!'
p1920
aS'@sadsonglover1 seriously dont post this shit. its all fake and it only \nfreaks out the little noobs. so shut up and dont post this shit'
p1921
aS'was that sean......omg'
p1922
aS'Penguin?'
p1923
aS'"If he just left you here mon." I thought Laurent was French...'
p1924
aS"Shewolf7771 Did you see alice's face lol"
p1925
aS'Thumbs up if u think NigaHiga should do a video on Eclipse'
p1926
aS'@sadsonglover1 p.s. learn how to spell'
p1927
aS'Alice is one of the funniest lol'
p1928
aS'i like the play house FAILXD '
p1929
aS'Now will you kiss me..... Naw your still too fat '
p1930
aS'first a mermaid now a penguin'
p1931
aS'00.26 look at the background near jasper'
p1932
aS'Eddy!'
p1933
aS'Now will you kiss me? No, you still too fat. :) '
p1934
aS'EDDIE!!'
p1935
aS'"Now will you kiss me?" "Nahh, your still to fat"'
p1936
aS"i really dont understand why ryan always pinches men's nipples. XD. what? \nsensitive part?"
p1937
aS'does anyone else think tim is way too good at playing a girl?'
p1938
aS'wow. when ever "bella" said Eddie! i was like yeah mom!? thats my name. \nHURPADURP'
p1939
aS'old dog! '
p1940
aS'This is my favorite movie in min. x]'
p1941
aS'Thumbs Up If You Want Ryan To Do Eclipse!!'
p1942
aS'@icanguessmyuser i accidentaly click dislike sorry '
p1943
aS'i love tim enos LOL'
p1944
aS'Ur a... Penguin?'
p1945
aS'@UnicornsRAwesome01 You had me at "im more of a Potterhead :3" :D Harry \nPotter: End of an Era Twilight: End of an Error xD'
p1946
aS'Tim : Do I look fat in this dress? Sean : Hell yeah you do! :DD'
p1947
aS'That was rn to the bathroom funny lol I love it!!!!!!'
p1948
aS'ROTFL AT ALICE IN THE BACKGROUND.'
p1949
aS"I'm laughing tears! xDDD Aliiiiiice <33"
p1950
aS'that is so messed up HaHaHa '
p1951
aS'xD bitch slap!!~'
p1952
aS'if i was bella in the original movie,ya know the shitty one like all of \nthem are, id say whyu the fuck did you push me pale bitch! '
p1953
aS'I love the end scene ^.^'
p1954
aS'0:33 if you watch slowly, Ryan was forcing a smile! :) Thumbs up if you \nsaw!!! :)'
p1955
aS"You guys are going to do the other two moives right? I can't wait to see \nyou guys' twist on them!"
p1956
aS'I laughed so hard when the playhouse tipped and he fell through the \nroof!!!!!'
p1957
aS'0:00 for ad skipping?'
p1958
aS'Lol alice <3'
p1959
aS'omg!!!! sean fujiyoshi is back <3 !! '
p1960
aS"OMG!! I'm so in love with Ryan! he looks much more handsome than Edward \nCullen. I mean Robert Pattinson!!!!!!!!!!!"
p1961
aS'thumbs up for the purple nurple.'
p1962
aS'haha Jacob uses parkour :P'
p1963
aS'i like tottally think love the part were she cuts herself and ryan starts \nto punch her and i also like the part where she thinks that jacob is a bird'
p1964
aS'if you have breakfast for dinner... is it still breakfast?'
p1965
aS'<3 Sean :)'
p1966
aS'0:34 i hate when i spill ketchup on the kitchen floor XD'
p1967
aS"The girl finaly isn't a guy in a wig ;)"
p1968
aS'mahn '
p1969
aS'whats the tune playing in the bloopers? its catchy lol'
p1970
aS'alice at 0:25 \xe2\x99\xa5'
p1971
aS'niplleee twiiiisttt!'
p1972
aS'3:03 see where his hand is at :j'
p1973
aS'@wyatt323 Happy Boom Boom'
p1974
aS'3:05 rape face rape face retarded face'
p1975
aS'why does jasper have seaweed hair? o.O'
p1976
aS"1:42 Master chinchin's house :DD"
p1977
aS'sub to my chanel if you want another top asian youtuber'
p1978
aS'thumbs up when jacob leaped nd made that noise that sounded like big fart'
p1979
aS'your a ...... penguin?!'
p1980
aS'this is effin epic'
p1981
aS'You should do a movies in minutes for twilight eclipse '
p1982
aS'nigahigas classic nipple twist <3'
p1983
aS'thumbs up for the titty twistyerr'
p1984
aS"@crewsk Im not saying im a fan of S Meyer (im more of a Potterhead :3) but \nmy friend said that S Meyer answered that question n said that since it's \ndulled it doesnt really appeal to him. oh and btw it was Jasper that lunged \nat her. Still hate Twilight though."
p1985
aS'Is that supposed to be Jacob at 3:26? '
p1986
aS'click 5'
p1987
aS'I have a serious question. If Edward was with Bella ALL THE TIME, and he \nbarely held control in science class whhn she meets a fan, and he almost \nkills her when she cuts her finger at her birthday party. Im just wondering \nwhere he goes when shes on her period. o.0'
p1988
aS'and thumbs up for "jacod black"'
p1989
aS'How does he make that face?'
p1990
aS"What's the name of the song that you use for bloopers!?!"
p1991
aS'I miss the old gang sooo much :( you guys were just to funny'
p1992
aS'3:17 xD lmfao i could see them gettin it with those dance moves at the \nclubs! xS lol'
p1993
aS'The ending they were grinding on sean! HAHA oh god guise ;D'
p1994
aS'"You\'re so mouthwatering......... man."'
p1995
aS'Asian new moon :-'
p1996
aS'dear ryan, can you make twilight breaking dawn?'
p1997
aS'3:03 I SEE WHAT U DID THERE! LOL TROLL FACE!'
p1998
asS'time'
p1999
ctime
struct_time
p2000
((I2009
I8
I4
I9
I31
I46
I1
I216
I-1
t(dtRp2001
sS'id'
p2002
V4dx0MwgIZos
p2003
s.