(dp1
S'title'
p2
VThe Big Bouncing Inflatable Green Ball
p3
sS'url'
p4
Vhttp://www.youtube.com/watch?v=5fDBl1wT2Lk&feature=youtube_gdata_player
p5
sS'image'
p6
Vhttp://i.ytimg.com/vi/5fDBl1wT2Lk/0.jpg
p7
sS'comments'
p8
(lp9
S'Omg these old ones \xf0\x9f\x98\x82\xf0\x9f\x98\x82\xef\xbb\xbf'
p10
aS'It is physically impossible for anyone to watch this with a straight face.\xef\xbb\xbf'
p11
aS':"Throw it at your Lamborghini!"\nI see you did your research.\xef\xbb\xbf'
p12
aS'I Watched this 22 million times, still sooooo good.\nI miss these videos\xef\xbb\xbf'
p13
aS'Ryan That hair Color made you Look Boss\xef\xbb\xbf'
p14
aS'This was uploaded on my bday lol XD\xef\xbb\xbf'
p15
aS"And you'll never not ever not say that you don't not love the big bouncing \ninflatable green ball.\xef\xbb\xbf"
p16
aS'who else is watching this in 2014\xef\xbb\xbf'
p17
aS"Who's watching this in 19283049?\xef\xbb\xbf"
p18
aS'Posted On 2009?!? I am like watching it in 2014 :D\xef\xbb\xbf'
p19
aS'Haha\xef\xbb\xbf'
p20
aS'Where was the TEEHEE?\xef\xbb\xbf'
p21
aS'I love this! \xf0\x9f\x98\x82\xf0\x9f\x98\x82\xe2\x9d\xa4\xef\xb8\x8f\xef\xbb\xbf'
p22
aS'How does he make that potato stand up?!\xef\xbb\xbf'
p23
aS'Like if you are watching this in 2014!\xef\xbb\xbf'
p24
aS'Who is watching this in the Year After Colony 0198?\xef\xbb\xbf'
p25
aS'Whoa dude ur hair <3\xef\xbb\xbf'
p26
aS'LOL are u high?? XD jk\xef\xbb\xbf'
p27
aS'So back in elementary school, youtube was the forbidden site. But after my \nfifth grade year was over, I watched something on youtube. This was the \nvideo even though it is not that impressive :P\xef\xbb\xbf'
p28
aS'He talks soooooooooo quick\xef\xbb\xbf'
p29
aS"This has 20 million+ views, I'm not sure how I feel about this...\xef\xbb\xbf"
p30
aS'2014\xef\xbb\xbf'
p31
aS"And you'll never not ever not say that you do not love the big bouncing \ninflatable green ball!!!!!!\xef\xbb\xbf"
p32
aS'BARK\xef\xbb\xbf'
p33
aS'I HAVE NO BALL\xf0\x9f\x91\xba\xef\xbb\xbf'
p34
aS'Weird HAIR!!!!!!@#$%^&*\xef\xbb\xbf'
p35
aS'his hair is so pretty\xef\xbb\xbf'
p36
aS'no teehee in this video *cry*\xef\xbb\xbf'
p37
aS'The views are now 22,525,060\xef\xbb\xbf'
p38
aS'how much?\xf0\x9f\x98\x84\xef\xbb\xbf'
p39
aS'Wow I want that Lamborghini\xef\xbb\xbf'
p40
aS'Nice ^-^\xef\xbb\xbf'
p41
aS'how can you speak so fast?\xef\xbb\xbf'
p42
aS'omg his hair "whattttt"\xef\xbb\xbf'
p43
aS'Oh, POTATOOO\xef\xbb\xbf'
p44
aS'WHY HE NOT DO NO TEEHEE AT DEE END??!!\xef\xbb\xbf'
p45
aS'Lol\xef\xbb\xbf'
p46
aS'Like if watching in 2014\xef\xbb\xbf'
p47
aS'lol\xef\xbb\xbf'
p48
aS'Throw back *\xef\xbb\xbf'
p49
aS"He's right, it took me like a thousand tries to watch this with a straight \nface.\xef\xbb\xbf"
p50
aS'ooh POTATO lol\xef\xbb\xbf'
p51
aS'My childhood.\xef\xbb\xbf'
p52
aS'if i wached this 1,000,000,000,000 times it would still be funny! XD\xef\xbb\xbf'
p53
aS'Like if your not watching this!\xef\xbb\xbf'
p54
aS"Who's watching this in 2014?\xef\xbb\xbf"
p55
aS'You can spin the inflatable green ball with one finger.\xef\xbb\xbf'
p56
aS'its so weird to think ive been watching him since 2009\xef\xbb\xbf'
p57
aS'It got me at throw it at your Lamborghini\xef\xbb\xbf'
p58
aS'Them eyebrows\xef\xbb\xbf'
p59
aS'This is not mine! Im not trying 2 steal it. It belongs to NigaHIga, a \nyoutube account. He is so awesome\xef\xbb\xbf'
p60
aS'There was no teehee\xef\xbb\xbf'
p61
aS'i want. i need\xef\xbb\xbf'
p62
aS'whaaaat?!?\xef\xbb\xbf'
p63
aS'lol wat? \xef\xbb\xbf'
p64
aS'You forgot the teehee\xef\xbb\xbf'
p65
aS'HE HAS MYSPACE hehehehehehehe look in the description\n\xef\xbb\xbf'
p66
aS'Oh my god,your talking way too fast lol but whatever \n"whaaaat?!"\xef\xbb\xbf'
p67
aS'Lol can someone put subtitles to this video?XD I would just want to \nunderstand each word he said\xef\xbb\xbf'
p68
aS'Who else is watching this in 2027\xef\xbb\xbf'
p69
aS'Funniest vid I have ever seen\xef\xbb\xbf'
p70
aS'A potato flew around the room before you came.\xef\xbb\xbf'
p71
aS'Lol\xef\xbb\xbf'
p72
aS"Ryan looks good with his hair style in this video. You're so a good looking \nguy! \xef\xbb\xbf"
p73
aS"His hair in this video! :D I'm so used to seeing it all black\xef\xbb\xbf"
p74
aS'same\xef\xbb\xbf'
p75
aS'eminem be collabing with ryan :)\xef\xbb\xbf'
p76
aS'Throw it at your dog! BARK.\xef\xbb\xbf'
p77
aS'Classic...\xef\xbb\xbf'
p78
aS'Lamborghini (tractor) that made me laugh soooooo much teehee\xef\xbb\xbf'
p79
aS'LOLZZY\xef\xbb\xbf'
p80
aS'so much eyebrow game......\xef\xbb\xbf'
p81
aS'it didnt have teehee at the end\xef\xbb\xbf'
p82
aS'I remember when me and my sisters were obsessed with this video when we \nwere younger\xef\xbb\xbf'
p83
aS"I love these old videos there still very funny after a few years, old \ntimes. I don't want to say he doesn't make good videos anymore but they \ndon't crack me up as much.\xef\xbb\xbf"
p84
aS'Lol he ha MySpace \xef\xbb\xbf'
p85
aS'I like the nineties ad kid saying stuff like : That makes sence ! What ?! \n:p\xef\xbb\xbf'
p86
aS'Pohhhh-taaaa-tooooe\xef\xbb\xbf'
p87
aS"Two questions,\n-what ever happened to the big inflatable green ball?\n-why was Ryan's dyed blonde back then?\xef\xbb\xbf"
p88
aS'PO-TA-TO\xef\xbb\xbf'
p89
aS'Potato\xef\xbb\xbf'
p90
aS'This video never gets old... :3\xef\xbb\xbf'
p91
aS'Aww throwback :(\xef\xbb\xbf'
p92
aS'Lololol XD XD XD\xef\xbb\xbf'
p93
aS'thats soo old....\xef\xbb\xbf'
p94
aS'like if you are watching this in 2014 or 2015\xef\xbb\xbf'
p95
aS'LOL! Look in the description! Ryan had a myspace!\xef\xbb\xbf'
p96
aS'Hahahaha I clicked the Transcript button cause I wanted to know what he was \nsaying "and wether really guarantor this potato" I laughed my head off \nhahahaha!\xef\xbb\xbf'
p97
aS'Who else is watching this in 2014? X3\xef\xbb\xbf'
p98
aS'PO TA TO\xef\xbb\xbf'
p99
aS"Watch this vid it's awesome \xef\xbb\xbf"
p100
aS'Make more vids like this plz.\xef\xbb\xbf'
p101
aS'Golden comment no.1\n\xef\xbb\xbf'
p102
aS'meet ryan 5 years ago\xef\xbb\xbf'
p103
aS"You know what?  For nostalgia's sake...\nThrow it at your dog!  Bark.\nThrow it at your cat!  MEOW.\nSeriously though, one of my first videos on YouTube, and I'm proud of it.\xef\xbb\xbf"
p104
aS'HE FORGOT THE TEEHEE 0.O\xef\xbb\xbf'
p105
aS'Dear Ryan, this vid is 5 years old...... Can you throw the Big Bouncy \nInflatable Green Ball at your potato?\xef\xbb\xbf'
p106
aS'The ball appeared in his first (now available) video\xef\xbb\xbf'
p107
aS'Whaaat?\xef\xbb\xbf'
p108
aS'His hair brings back the memories :3\xef\xbb\xbf'
p109
aS'I ordered it and I got a medium rolling deflated blue cube\xef\xbb\xbf'
p110
aS'Why was his hair like that black and blonde\xef\xbb\xbf'
p111
aS'How does this have dislikes?\xef\xbb\xbf'
p112
aS'He posted a link into the description to his MySpace \xf0\x9f\x98\x82\xef\xbb\xbf'
p113
aS'Classic\xef\xbb\xbf'
p114
aS'Po-tatoooo wwhhhaat\xef\xbb\xbf'
p115
aS'Wwwhhhaaattt\xef\xbb\xbf'
p116
aS'Now I know why his current end of video background thingy is green balls \nwow \xef\xbb\xbf'
p117
aS'I kinda miss these :P\xef\xbb\xbf'
p118
aS'Wait what\xef\xbb\xbf'
p119
aS'Oh, My, POTATO>\xef\xbb\xbf'
p120
aS'THIS IS THE BEST VIDEO OF ALL TIME\xef\xbb\xbf'
p121
aS'like who else  is still watching in 2014\xef\xbb\xbf'
p122
aS'No teehee?\xef\xbb\xbf'
p123
aS'Omg ryan \xf0\x9f\x98\x82\xef\xbb\xbf'
p124
aS'Lol he was talking so fast\xef\xbb\xbf'
p125
aS'That hair -_-\xef\xbb\xbf'
p126
aS'my favorite video\xef\xbb\xbf'
p127
aS'This is iconic.\xef\xbb\xbf'
p128
aS'He has his hair long! And no Teehee! OMG that is so... I have only watched \nhis later vids!\xef\xbb\xbf'
p129
aS'0:28 - 0:30 and 0:36 xD\xef\xbb\xbf'
p130
aS'THAT HAIR THOUGH OMG\xef\xbb\xbf'
p131
aS"heheh i changed the speed to 0.5 and it's so funny! and oh yeah i finally \nunderstand wat he's saying :D \xef\xbb\xbf"
p132
aS'His hair is different \xef\xbb\xbf'
p133
aS'He talks sooooo fast\xf0\x9f\x98\xb9\xf0\x9f\x98\xb9\xef\xbb\xbf'
p134
aS'Lol.Really stupid but you just gotta laugh\xef\xbb\xbf'
p135
aS'no teehee in the end\xef\xbb\xbf'
p136
aS"It's like Batman's pretending to be a cat...\xef\xbb\xbf"
p137
aS'omg i have a big bouncing inflatable green ball\xef\xbb\xbf'
p138
aS'kids react\xef\xbb\xbf'
p139
aS'put on captions for 0:22 also 0:40\xef\xbb\xbf'
p140
aS'This video has made me obsessed over potatoes. ._.\xef\xbb\xbf'
p141
aS'fetus ryan\xef\xbb\xbf'
p142
aS'The original rap god\xef\xbb\xbf'
p143
aS'#TEEHEE\xef\xbb\xbf'
p144
aS'"MEOW!!!" Lol that cracked me up\xef\xbb\xbf'
p145
aS'I miss these Ryan\xef\xbb\xbf'
p146
aS'POH-TAY-TOH\xef\xbb\xbf'
p147
aS'What is with his hair\xef\xbb\xbf'
p148
aS"I love this video so much, i'm going to cry!\xf0\x9f\x98\x82\xef\xbb\xbf"
p149
aS'You look really hot when you have your hair colored and your videos always \nmake me laugh <3\xef\xbb\xbf'
p150
aS'Probably the only video with no editing and 22M views :D so awesome :P\xef\xbb\xbf'
p151
aS'XD\xef\xbb\xbf'
p152
aS'When I was like 8 nigahiga was channel I watched with my best friends older \nbrother who watched him and me and my best frien were like "OMG this is so \ncool" but then we kinda stopped and I rediscovered nigahiga and now me and \nmy best friend STILL watch nigahiga! This was one of my first videos on \nYouTube....excluding annoying orange wich seemed to be so popular back then\xef\xbb\xbf'
p153
aS'I have a big bouncy inflatable RED ball!!!!!\xef\xbb\xbf'
p154
aS'WHAAAAT\xef\xbb\xbf'
p155
aS'There was no teehee at the end :O\xef\xbb\xbf'
p156
aS'I just said big bouncing green balls \xef\xbb\xbf'
p157
aS'OMG your hair\xef\xbb\xbf'
p158
aS'Where do I order one!\xef\xbb\xbf'
p159
aS'You Forgot to say TeeHee ..\xef\xbb\xbf'
p160
aS'this video was my childhood\xef\xbb\xbf'
p161
aS'you should do a remake of this and maybe some of your other hilarious \nvideos from years ago\xef\xbb\xbf'
p162
aS'Kids react reacted to this\xef\xbb\xbf'
p163
aS'This was the shit in 5th grade...\xef\xbb\xbf'
p164
aS'Funny\xef\xbb\xbf'
p165
aS"It's not just a ball, it's a big bouncy inflatable green ball!\xef\xbb\xbf"
p166
aS'Ooooo... POTEYTOE...\xef\xbb\xbf'
p167
aS'ARE YOU CAZY!?!?! Never through a big bouncy inflatable green ball at a \nfabulous potato\xef\xbb\xbf'
p168
aS"This is the very first video I've ever seen on youtube. and the second was \nthe sham- WOOHOO. Shout out to my cousin for showing me these!\xef\xbb\xbf"
p169
aS'WHY DOES THIS STILL AMUSE ME!\xef\xbb\xbf'
p170
aS'YAY\xef\xbb\xbf'
p171
aS'MEOW\xef\xbb\xbf'
p172
aS'and thus a legend was born\xef\xbb\xbf'
p173
aS'I love how ur hair was back then :) and now too\xef\xbb\xbf'
p174
aS'you dyed your hair?\xef\xbb\xbf'
p175
aS'WACKY WAVING INFLATABLE ARM FLAILING TUBE MAN WACKY WAVING INFLATABLE ARM \nFLAILING TUBE MAN\xef\xbb\xbf'
p176
aS'Whaaaat\xef\xbb\xbf'
p177
aS'ugh. these were the days \xf0\x9f\x98\x82\xef\xbb\xbf'
p178
aS'Where is the tee hee\xef\xbb\xbf'
p179
aS'Getting mine today!! :D\xef\xbb\xbf'
p180
aS'i have an even bigger bouncing inflatable PURPLE ball\xef\xbb\xbf'
p181
aS'dear ryan\nthis video is 5 years old. you are not reading this, but if you are, dress \nteddy up in a bear costume\xef\xbb\xbf'
p182
aS'Like This if your watching this in 2014\xef\xbb\xbf'
p183
aS'i wanna big bouncing inflatable green ball\xef\xbb\xbf'
p184
aS'dem eyebrows doe\xef\xbb\xbf'
p185
aS'0:26 BARK\xef\xbb\xbf'
p186
aS'First YouTube. video I ever watched love it so much\xef\xbb\xbf'
p187
aS'POTATO ):3\xef\xbb\xbf'
p188
aS'Hilarious!!!\xef\xbb\xbf'
p189
aS"it's so weird watching thee older videos. ryan looks so different and the \nvideo quality (as in quality of the actual video, not the content) is so \nmuch higher now\xef\xbb\xbf"
p190
aS'TBBIGB!\xef\xbb\xbf'
p191
aS'whaat\xef\xbb\xbf'
p192
aS'damn 2009 dear ryan can u ft ur green ball like this again haha\xef\xbb\xbf'
p193
aNaS'BEST VIDEO EVER!\xef\xbb\xbf'
p194
aS'This was the first nigahiga video I ever watched (n_n)\xef\xbb\xbf'
p195
aS'I have a big bouncy inflatable BLUE BALL. :(\xef\xbb\xbf'
p196
aS'I had one of these. It popped after I threw it at the potato...\xef\xbb\xbf'
p197
aS'Wow this was befor he said TEEHEE or had an actual good camera\xef\xbb\xbf'
p198
aS'I have a big bouncy inflatable orange ball, does that count?\xef\xbb\xbf'
p199
aS'this is Gold\xef\xbb\xbf'
p200
aS'Ah, the classics! :)\xef\xbb\xbf'
p201
aS'Press and hold 4\xef\xbb\xbf'
p202
aS'This guy! Ha!\xef\xbb\xbf'
p203
aS'Has it really been 5 years? Man im getting old\xef\xbb\xbf'
p204
aS'aa yes TBBIGB such memories\xef\xbb\xbf'
p205
aS'He threw it at a potato. He is hurting my kind! haha get it? no? okay....\xef\xbb\xbf'
p206
aS'also awesome!\xef\xbb\xbf'
p207
aS':D I love how he lifts and lowers his eyebrows unknowingly the whole time \nhe says big bouncy inflatable green ball.\xef\xbb\xbf'
p208
aS'I watched this video when it first came out and still to this day, my \nfavorite part is when he says, "Throw it at ur Lamborghini.\xef\xbb\xbf'
p209
aS'Those days when he went blond... \xef\xbb\xbf'
p210
aS'Oh memories\xef\xbb\xbf'
p211
aS'0:24 turn on the captionxD\xef\xbb\xbf'
p212
aS'oh God, I love that asian <3\xef\xbb\xbf'
p213
aS'I really missed this video!\xef\xbb\xbf'
p214
aS'you said 20 words per second\xef\xbb\xbf'
p215
aS'I want the big bouncing inflatable green ball, too!!!\xef\xbb\xbf'
p216
aS'I have no balls. :(\xef\xbb\xbf'
p217
aS'0:22 Time saver/ Shortcut to memories\xef\xbb\xbf'
p218
aS'MEOW\xef\xbb\xbf'
p219
aS"I'M ALWAYS WATCHING THIS VIDEO! You can't beat the classics! Does anyone \nknow why Ryan wears a ring in this and all the classic videos I'm pretty \nsure he wasn't married because it's on his 4th finger on his left hand [the \nwedding ring finger] \xef\xbb\xbf"
p220
aS'BARK!!!!!!!!!!!!!!!!!!!!!!!!!!\xef\xbb\xbf'
p221
aS'If anybody ever asks you what 2009 was all about, show them this.\xef\xbb\xbf'
p222
aS'wat\xef\xbb\xbf'
p223
aS'"Has this ever happened to you?"\n\n*"I HAVE NO BALLS!"*\n\nxD\xef\xbb\xbf'
p224
aS"I came here from Dave Strider advertising Ryan's Big Bouncing Inflatable \nGreen Ball XD\xef\xbb\xbf"
p225
aS'Lmao his hair xD\xef\xbb\xbf'
p226
aS'Look at the views.....\xef\xbb\xbf'
p227
aS'I slowed this down by half to understand. \xef\xbb\xbf'
p228
aS'TEEHEE!!\xef\xbb\xbf'
p229
aS'I\xe2\x80\x99ve been searching. no ball on ebay amazon.. \xef\xbb\xbf'
p230
aS'if you speed up the settings to 2 he will be speaking ultra speed\xef\xbb\xbf'
p231
aS'Uummmmmmmm.............. \nNo comment. \xef\xbb\xbf'
p232
aS'he forgot teehee\xef\xbb\xbf'
p233
aS'...\xef\xbb\xbf'
p234
aS'Still my fav one everrrrr\xef\xbb\xbf'
p235
aS'still like this video xD\xef\xbb\xbf'
p236
aS'Ooh potatooooo\xef\xbb\xbf'
p237
aS'amazing.\xef\xbb\xbf'
p238
aS'How 22 mil?\xef\xbb\xbf'
p239
aS'worked great. i threw at my Lamborghini and i was amazed at the results \xef\xbb\xbf'
p240
aS'You sound like ray wen wuuut\xef\xbb\xbf'
p241
aS'his videos are so funny\xef\xbb\xbf'
p242
aS'This advertisement needs more wacky waving inflatable arm flailing tube \nmen... and maybe some crudely painted not-so-funny plywood cut-out folk \nart.\xef\xbb\xbf'
p243
aS'lol\xef\xbb\xbf'
p244
aNaS'Still a better love story than Twilight...\xef\xbb\xbf'
p245
aS'This was the first youtube video I ever watched :3\xef\xbb\xbf'
p246
aS'Weird\xef\xbb\xbf'
p247
aS'Forgot the the teehee goddammit. \xef\xbb\xbf'
p248
aS'oi oi oi oi Ryan \nRyan. Ryan. Ryan.\nRemember this? \nheh\nhuehuehuehuehuehue\xef\xbb\xbf'
p249
aS'its 2014 now\xef\xbb\xbf'
p250
aS'Well... that explains why there is always green balls in his videos. (in \nevery ending)\xef\xbb\xbf'
p251
aS'lol\xef\xbb\xbf'
p252
aS'My classmate copied you for a project\xef\xbb\xbf'
p253
aS'What\xef\xbb\xbf'
p254
aS'I love it\xef\xbb\xbf'
p255
aS'But seriously I would have loved the Oxyclean spoof...\xef\xbb\xbf'
p256
aS"nigahiga's most famous video is somehow at 12th most viewed\xef\xbb\xbf"
p257
aS'Lol\n\xef\xbb\xbf'
p258
aS'*too focused on his hair*\xef\xbb\xbf'
p259
aS'thanks to the big bouncing inflatable green ball.... I GIVE UP\xef\xbb\xbf'
p260
aS'i want to buy the big bouncing inflatable green ball! hey ryan where can i \nget one?\xef\xbb\xbf'
p261
aS'This made my day, thank you nigahiga\xef\xbb\xbf'
p262
aS'Potatooo XD\xef\xbb\xbf'
p263
aS'Where do I order\xef\xbb\xbf'
p264
aS'oh... pooootatoeeeee\xef\xbb\xbf'
p265
aS'*Slams money on the table* I will take 10!!!\xef\xbb\xbf'
p266
aS"I was watching more nigahiga videos that were so funny I couldn't breathe \nHAHAHAAHAHAHAHAHAHAHAHAH!!!!!!!!!\xef\xbb\xbf"
p267
aS'this video was life back then xD\xef\xbb\xbf'
p268
aS"'Oh...potatooo' lol\xef\xbb\xbf"
p269
aS'0:18 mad duck face\xef\xbb\xbf'
p270
aS'I WANT ONE! (With the teehee sign)\xef\xbb\xbf'
p271
aS'THAT MAKES SENSE\xef\xbb\xbf'
p272
aS'I love the way he said "woof" and "miaw". So funny! XD\xef\xbb\xbf'
p273
aS'Like if your watching in 2014. !\xef\xbb\xbf'
p274
aS'My very fast watched video of nigahiha\xef\xbb\xbf'
p275
aS'...no teehee\xef\xbb\xbf'
p276
aS'i watched this soooo many times as a kid..... that the first time i saw a \ntractor...... i screamed HEY ITS A LAMBORGHINI and the sad part is that i \nwas fully confident it was......\xef\xbb\xbf'
p277
aS'it is wierd\xef\xbb\xbf'
p278
aS'Hmm, reminds of... Whacky Waving Inflatable Arm Flailing Tube Man!  Whacky \nWaving Inflatable Arm Flailing Tube Man!  Whacky Waving Inflatable Arm \nFlailing Tube Man!  Whacky Waving Inflatable Arm Flailing Tube Man!  Whacky \nWaving Inflatable Arm Flailing Tube Man! \xef\xbb\xbf'
p279
aS'BAR LOL 0:28\xef\xbb\xbf'
p280
aS'OOF! POTATO\xef\xbb\xbf'
p281
aS'this reminds me of wacky inflatable arm flailing tube man from family guy \nlol..\xef\xbb\xbf'
p282
aS'Po...Ta...Tooooooooooo\xef\xbb\xbf'
p283
aS'TEEHEE went on holiday?\xef\xbb\xbf'
p284
aS"Dat ain't a lamberguinie son\xef\xbb\xbf"
p285
aS'Oh POTATO\xef\xbb\xbf'
p286
aS'damn that hair tho\xef\xbb\xbf'
p287
aS"This was the first Youtube video I've ever seen\xef\xbb\xbf"
p288
aS'I miss this style in videos, his videos now rnt the same, but there okay.\xef\xbb\xbf'
p289
aS'?\xef\xbb\xbf'
p290
aS"That makes sense ! I'll order thousands of it ! :)\xef\xbb\xbf"
p291
aS'Oh... Potato...!\xef\xbb\xbf'
p292
aS'Ryan hair dye!?!??!?!!??!!?!?!??\xef\xbb\xbf'
p293
aS'The ring?\xef\xbb\xbf'
p294
aS'That is not a lambo\xef\xbb\xbf'
p295
aS'TEEHEE\xef\xbb\xbf'
p296
aS"I know you in real life RYAN you just have to know who I am and when it's \ntime to come over for the party.HINT HINT:I'm younger than you\xef\xbb\xbf"
p297
aS'Oh, boy. Five years later, but this never gets old! XD\xef\xbb\xbf'
p298
aS'I spilled table all over my liquids! \xf0\x9f\x98\x86\xef\xbb\xbf'
p299
aS'Oh po. ta. ton\xef\xbb\xbf'
p300
aS"He didn't teehee at the end of this one! Whaaaaaaat?\xef\xbb\xbf"
p301
aS'I remember when this came out, it was the funniest video to ever exist\xf0\x9f\x98\x82 \ncongrats ryan x\xef\xbb\xbf'
p302
aS'haha I love this video :3 its my fav one xD\xef\xbb\xbf'
p303
aS'You forgot one! Throw it at a 5 year old orphan!\xef\xbb\xbf'
p304
aS'no teehee? :(\xef\xbb\xbf'
p305
aS'TEEHEE\xef\xbb\xbf'
p306
aS'Pootaato\xef\xbb\xbf'
p307
aS'Like if your watching this in 2014\xef\xbb\xbf'
p308
aS' #POTATO  \xef\xbb\xbf'
p309
aS'oh gosh the hair O-o\xef\xbb\xbf'
p310
aS'no Teehee?\xef\xbb\xbf'
p311
aS'I have been with Ryan since how to be ninja...\xef\xbb\xbf'
p312
aS'I hate the big bouncy inflatable green ball! ( LOL )\xef\xbb\xbf'
p313
aS'Where do i pay?\xef\xbb\xbf'
p314
aS"I'll take 7\xef\xbb\xbf"
p315
aS'WHERES THE TEEHEE!!!!!!!!!!!!\xef\xbb\xbf'
p316
aS'Thumbs up if you are watching in 2014\xef\xbb\xbf'
p317
aS'Oh great. Now that you mention it, I really want it. Green ball!!!\xef\xbb\xbf'
p318
aS'Just so Sweg\xef\xbb\xbf'
p319
aS'OH PO TA TO\xef\xbb\xbf'
p320
aS'Throw it at your dog BARK \nThrow it at your cat MIA\xef\xbb\xbf'
p321
aS'I have no ball lol\xef\xbb\xbf'
p322
aS' I could only get a Big Bouncy Inflatable Blue Ball.\n\n:(\xef\xbb\xbf'
p323
aS'Have you duhdytvtvtextbhceyje bigball? jdjrjajhfjwksjrjwid! \nTesyaojeiwoJduehfiajnfbig ball! That makes sense!\xef\xbb\xbf'
p324
aS'THROW IT AT YOUR BUTT!\xef\xbb\xbf'
p325
aS'it is just a green ball\xef\xbb\xbf'
p326
aS'OMG his eyebrows\xef\xbb\xbf'
p327
aS'Ahhahahaha this is soooo old but I love it!\xef\xbb\xbf'
p328
aS'I LOVE THIS VIDEO SO MUCH! In 5th grade me and my best friend Kiah did a \nskit of this for our talent show. We got a big green bouncy inflatable \ngreen ball, I talked (saying what you did) and kiah did the motions. WE WON \nFIRST PLACE! :D\xef\xbb\xbf'
p329
aS'Throw it at your lambo he throws it at a lawn mower.\xef\xbb\xbf'
p330
aS'Maybe someday i can handle the potato just like u!\xf0\x9f\x98\x84 ur my idol\xf0\x9f\x98\x9b\xef\xbb\xbf'
p331
aS'XD 0:38 just killed me! I cannot stop laughing! "POHTAITOH"\xef\xbb\xbf'
p332
aS'*GASP* this has no "teehee" in it\xef\xbb\xbf'
p333
aS"I'll take two.\xef\xbb\xbf"
p334
aS'Potato part reminds me of asdf movie lol\xef\xbb\xbf'
p335
aS'TEEHEE\xef\xbb\xbf'
p336
aS'Shut up and take my money!\xef\xbb\xbf'
p337
aS'Is that a wedding ring?\xef\xbb\xbf'
p338
aS'Oh my god your HAIR\xef\xbb\xbf'
p339
aS'all time fave\xef\xbb\xbf'
p340
aS'"What?". Wait, why was his hair half blonde?\xef\xbb\xbf'
p341
aS'Lol \xef\xbb\xbf'
p342
aS'No teehee noooooooooooooooooooooooo!\xef\xbb\xbf'
p343
aS'this reminds me of the wacky wavable inflatable arm-flailing tube man video \n:D\xef\xbb\xbf'
p344
aS"Where's The TEEHEE?\xef\xbb\xbf"
p345
aS'0:27 lol and 0:29 XD\xef\xbb\xbf'
p346
aS'0:28 *BORK*\xef\xbb\xbf'
p347
aS'this never gets old xD\xef\xbb\xbf'
p348
aS'Whaaat\xef\xbb\xbf'
p349
aS'I have one question! I can throw it at Harry Styles from one direction? Btw \nI am madly in love with him!\xef\xbb\xbf'
p350
aS'i love you\xef\xbb\xbf'
p351
aS'I love you hair\xef\xbb\xbf'
p352
aS"You've gotta put the speed at 2 lol\xef\xbb\xbf"
p353
aS'awesome,cool,awesome,awesome!\xef\xbb\xbf'
p354
aS'Cant believe this is still famous\xf0\x9f\x98\x90\xef\xbb\xbf'
p355
aS'You are so funny and look at your face at 0:02 hahahaha\xef\xbb\xbf'
p356
aS'Watching this after 5 wholeee years....\nWow, i was watching nigahiga for longer than i thought i was...\xef\xbb\xbf'
p357
aS'Nice Lamborghini\xef\xbb\xbf'
p358
aS'... yeah this is my favorite video on youtube EVER\xef\xbb\xbf'
p359
aS'What?? Hahahhahh\xef\xbb\xbf'
p360
aS'd*ck, y a f*cking potato, rage face   TEEHEE\xef\xbb\xbf'
p361
aS'I have the big bouncing inflatable green ball :) Just bought it couple \nmonths ago.\xef\xbb\xbf'
p362
aS'I actually have a big bouncy inflatable green ball\xef\xbb\xbf'
p363
aS'lols\xef\xbb\xbf'
p364
aS'Meow\xef\xbb\xbf'
p365
aS'This has been the best 46 seconds of my day \xef\xbb\xbf'
p366
aS'I have a big bouncy DARK green ball. :(\xef\xbb\xbf'
p367
aS"I'll take 20.\xef\xbb\xbf"
p368
aS"In the end when he does that double negative mania sentence it is a \nguarantee that you won't love it if you write it down.\xef\xbb\xbf"
p369
aS'I,have,no ball at all\xef\xbb\xbf'
p370
aS'hhahahahahahah lamborghini\xef\xbb\xbf'
p371
aS"I remember this video when I was in 4th grade. This was my first youtube \nvideo and I'm glad it was!\xef\xbb\xbf"
p372
aS'POTATO\xef\xbb\xbf'
p373
aS'Omg hi I love your videos\xef\xbb\xbf'
p374
aS"That's a sexy ass Lamborghini. '_ ')\xef\xbb\xbf"
p375
aS'I\'ll take "best nigahiga videos of all time" for 500 please, Ryan. Like if \nyou want a TEEHEE! BYE!\xef\xbb\xbf'
p376
aS'LOL but not good quality\xef\xbb\xbf'
p377
aS'WHERE CAN I BUY THIS BALL\xef\xbb\xbf'
p378
aS'" i have no ball "\xef\xbb\xbf'
p379
aS"look at his hair and his cute little face and his flawless skin... this \nvideo brings my inner fangirl out :')\xef\xbb\xbf"
p380
aS'whaaaaaaaaaaaaaaaaaaaat???\xef\xbb\xbf'
p381
aS'The first. 48 second video, that has 21, 835, 814 views. O.o\xef\xbb\xbf'
p382
aS'haha\xef\xbb\xbf'
p383
aS'makes sense\xef\xbb\xbf'
p384
aS'P.O.T.A.T.O.\xef\xbb\xbf'
p385
aS'geniuss\xef\xbb\xbf'
p386
aS'U suck\xef\xbb\xbf'
p387
aS'FETUS DAYS\xef\xbb\xbf'
p388
aS'nice lamborgini\xef\xbb\xbf'
p389
aS'Fuckin classic\xef\xbb\xbf'
p390
aS'wake up at 7:00 am, go back to sleep! TEEHEE!!!!! thats another awesome \nvideo i will post\xef\xbb\xbf'
p391
aS'You didnt say TEEHEE!\xef\xbb\xbf'
p392
aS'POTATOE\xef\xbb\xbf'
p393
aS'PO-TA-TO\xef\xbb\xbf'
p394
aS'I just watched a 30 second ad and then a 45 second video...\xef\xbb\xbf'
p395
aS'0:48 THOUGHT EXACTLY THE SAME\xef\xbb\xbf'
p396
aS'Or just funny?\xef\xbb\xbf'
p397
aS'Not the Lamborghini !\xef\xbb\xbf'
p398
aS'I SAID ALL OF THIS IN GYM CLASS BECAUSE WE WERE USING A BIG BOUNCING \nINFLATABLE GREEN BALL AND I THREW IT AT MY TEACHER XD\xef\xbb\xbf'
p399
aS'Oh po-ta-toe lol\n\xef\xbb\xbf'
p400
aS'What, no "Teehee!"?\xef\xbb\xbf'
p401
aS"YOU DIDN'T SAY TEE-HEE!\xef\xbb\xbf"
p402
aS'Thank you Ryan for making me feel happy again.... :) I was mad for \nsomething that happen to me than watch this and make me forget about \neverything..... <3 Ilysm... <3\xef\xbb\xbf'
p403
aS'only Ryan can talk that fast...just sayin\xef\xbb\xbf'
p404
aS'u forgot to teehee\xef\xbb\xbf'
p405
aS'LOL\xef\xbb\xbf'
p406
aS'Those were the days...\xef\xbb\xbf'
p407
aS'Ahh the memories ;D\xef\xbb\xbf'
p408
aS'you didnt say teehee\xef\xbb\xbf'
p409
aS'"ifyouordernowyoucangetanbigbouncinginflatablegreenballagainyouwillneversayyoudonthaveballsagain"\xef\xbb\xbf'
p410
aS'Lol he has a link to his myspace account in the description\xef\xbb\xbf'
p411
aS'That kid is a consumer\xef\xbb\xbf'
p412
aS'Ehh. I like your Google Glasses Human better...\nBut my favorite line was "That makes sense!"\n:3\xef\xbb\xbf'
p413
aS'Wait 141 FREAKING LIKES!!!!\xef\xbb\xbf'
p414
aS'Shut up and take my money!\xef\xbb\xbf'
p415
aS'wait what?\xef\xbb\xbf'
p416
aS"That's a nice lambergini! XD\xef\xbb\xbf"
p417
aS'Hahahaha \xef\xbb\xbf'
p418
aS'#needsateehee\xef\xbb\xbf'
p419
aS'first\xef\xbb\xbf'
p420
aS'Ryan is wandering around his house, pondering an idea for a video. He can\'t \nseem to think of anything until his foot collides with something that \nproceeds to roll away from him. Confused, he looks from his foot and to the \nobject that he just lightly kicked--an exercise ball. His eyes light up, he \ntakes in a small gasp and says proudly to himself, "The Big Bouncing \nInflatable Green Ball! Genius!"\xef\xbb\xbf'
p421
aS'looks in description... finds myspace\xef\xbb\xbf'
p422
aS'This reminds me of the Family Guy "WackyWaving Inflatable Arm Flailing Tube \nMan" spiff\xef\xbb\xbf'
p423
aS'Shut up and take meh money\xef\xbb\xbf'
p424
aS'Dafuq did I just watch?!\n\xef\xbb\xbf'
p425
aS'ill do it for you TEEHEE\xef\xbb\xbf'
p426
aS'Face at 0:02 AHA\xef\xbb\xbf'
p427
aNaS'Potatoooo\xef\xbb\xbf'
p428
aS'Thank you so much! This is just the video I needed right now :D\xef\xbb\xbf'
p429
aS'Whaaaaatttt?\xef\xbb\xbf'
p430
aS'uhh po ta to\xef\xbb\xbf'
p431
aS'LOL Lamborghini\xef\xbb\xbf'
p432
aS'Makes me crack up every time \xef\xbb\xbf'
p433
aS'0:27 is my favorite part omg i cant stop laughing\xef\xbb\xbf'
p434
aS"Can't believe its been 5 years...\xef\xbb\xbf"
p435
aS'whaaaaat\xef\xbb\xbf'
p436
aS'I WANT A BBIGB\xef\xbb\xbf'
p437
aS'ugh PO TA TO\xef\xbb\xbf'
p438
aS'I have a big bouncing inflatable orange ball! :D\xef\xbb\xbf'
p439
aS'Is he gay?\xef\xbb\xbf'
p440
aS'\xf0\x9f\x98\x81\xf0\x9f\x98\x81\xf0\x9f\x98\x81\xf0\x9f\x98\x81\xf0\x9f\x98\x81\xf0\x9f\x98\x81\xf0\x9f\x98\x81\xf0\x9f\x98\x81\xf0\x9f\x98\x81\xf0\x9f\x98\x81\xf0\x9f\x98\x81\xf0\x9f\x98\x81\xf0\x9f\x98\x81\xf0\x9f\x98\x81\xf0\x9f\x98\x81\xf0\x9f\x98\x81\xf0\x9f\x98\x81\xf0\x9f\x98\x81\xf0\x9f\x98\x81\xf0\x9f\x98\x81\xf0\x9f\x98\x81\xf0\x9f\x98\x81\xf0\x9f\x98\x81\xf0\x9f\x98\x81teehee\xef\xbb\xbf'
p441
aS'PO TA TO\xef\xbb\xbf'
p442
aS'How do we get The Big Bouncing Inflatable Green Ball\xef\xbb\xbf'
p443
aS'Ohh potato lolz\xef\xbb\xbf'
p444
aS'MEEEEEEAWWWW\xef\xbb\xbf'
p445
aS"You'll not ever never not have a big bouncy inflatable green again! \nWaaaaaaaaaaaaaaaaaaat?\xef\xbb\xbf"
p446
aS'At the very end I said what just as the little kid ryan said it xD\xef\xbb\xbf'
p447
aS'what the heck? they changed youtube playlist!! >:(\xef\xbb\xbf'
p448
aS'0:08 wedding ring?\xef\xbb\xbf'
p449
aS'What no TeeHee\xef\xbb\xbf'
p450
aS'its like a rap\xef\xbb\xbf'
p451
aS'Where is the teehee\xef\xbb\xbf'
p452
aS'Well I want one now.\xef\xbb\xbf'
p453
aS'When I was nine (when this was made) I remember this being longer, and I \nwould watch his videos for hours on end\xef\xbb\xbf'
p454
aS'po-ta-to :D\xef\xbb\xbf'
p455
aS"That's what she said\xef\xbb\xbf"
p456
aS'I died when he said throw at your lamborghini\xef\xbb\xbf'
p457
aS'Dis is like the video I ever saw from Nigahiga!!!\xef\xbb\xbf'
p458
aS'Whaaaaaaaaat!? XD\xef\xbb\xbf'
p459
aS'0:36 lol "O!"\xef\xbb\xbf'
p460
aS'l love it\xef\xbb\xbf'
p461
aS"And you'll never not ever not say that you don't not love the Big Bouncing \nInflatable Green Ball. Wwwwwhhhhaaaattttt? LOL\xef\xbb\xbf"
p462
aS'omg he was so cuuute in this vid! ^^\xef\xbb\xbf'
p463
aS'i have one but its puple and my chair\xef\xbb\xbf'
p464
aS'Dear Ryan can you cause a potato to explode and make French fries\xef\xbb\xbf'
p465
aS'TEEHEE Whaaaaaatttttt????\xef\xbb\xbf'
p466
aS'throw at this potato\xef\xbb\xbf'
p467
aS'this is like me saying somthing noone understands.\nsomeone says what and i say exactly after they say what\xef\xbb\xbf'
p468
aS'Dear Ryan did you dye your hair?\xef\xbb\xbf'
p469
aS'This was one of the best shortest RH videos ive seen xD po-ta-to\xef\xbb\xbf'
p470
aS'*war flashbacks from fifth grade*\xef\xbb\xbf'
p471
aS'oh ... poootaaaatooooe\xef\xbb\xbf'
p472
aS'WAAAAAAAAAAAAAAAAAAAAT\xef\xbb\xbf'
p473
aS'the... fu? this... Su-AWSOME\xef\xbb\xbf'
p474
aS'i used to watch this 4 years ago and i still know all the words...\xef\xbb\xbf'
p475
aS'Whattt?\xef\xbb\xbf'
p476
aS'I mean the big bouncy inflatable green ball\xef\xbb\xbf'
p477
aS'I wished he made videos like this again I remember always watching his \nvideos and laugh \nHow to be ninja and the rest of that series \nMovie minutes and there funny bloopers\nHis videos now there okay\n\xef\xbb\xbf'
p478
aS'I have a big bouncy inflatable green ball from walmart\xef\xbb\xbf'
p479
aS'Lol\xef\xbb\xbf'
p480
aS'LIONBLAZE!!!!!!!\xef\xbb\xbf'
p481
aS'Lol\xef\xbb\xbf'
p482
aS'Talking really fast... WHAAAT!?\n\xef\xbb\xbf'
p483
aS'I want a big reen ball will you give me one?\xef\xbb\xbf'
p484
aS'Oh poooootaaaatooooooe\xef\xbb\xbf'
p485
aS'Oh! PO - TA - TO\xef\xbb\xbf'
p486
aS'potato\xef\xbb\xbf'
p487
aS'TEEHEE lol\xef\xbb\xbf'
p488
aS'NO TEEHEE!?\n\xef\xbb\xbf'
p489
aS"best 49 seconds I've ever wasted\xef\xbb\xbf"
p490
aS'he was too fast\xef\xbb\xbf'
p491
aS"bahahahaha i love you ryan i've watched this video when it first came out \nand i hadn't watched it for a while <3\xef\xbb\xbf"
p492
aS'Its so hard to understand\xef\xbb\xbf'
p493
aS'Happens to me all the time\xef\xbb\xbf'
p494
aS'Where is the teehee\n\xef\xbb\xbf'
p495
aS'Old,but gold!\xef\xbb\xbf'
p496
aS"Wasn't this one of his first videos \xef\xbb\xbf"
p497
aS'Hes so awesome and funny hahaha\n\xef\xbb\xbf'
p498
aS'That. Is. Funny\xef\xbb\xbf'
p499
aS'this old school vid but its still great and funny keep up  the good work \nRyan :)\xef\xbb\xbf'
p500
aS'Po-Ta-To!\n\xef\xbb\xbf'
p501
aS'Who is Ryan?\xef\xbb\xbf'
p502
aS'Yes.\xef\xbb\xbf'
p503
aS'why did you knock me over? :(\xef\xbb\xbf'
p504
aS'Dat meow\xef\xbb\xbf'
p505
aS'Ryan higa, oh gawd man, you always find a way to make anything funny\xef\xbb\xbf'
p506
aS"where's the teehee?\xef\xbb\xbf"
p507
aS"Dear Ryan, can you donate to the children's hospital?\xef\xbb\xbf"
p508
aS'is your hair hilighted by brown\xef\xbb\xbf'
p509
aS'UGH... po-ta-toooooooooo!!!\xef\xbb\xbf'
p510
aS'Lol\xef\xbb\xbf'
p511
aS'WHAT? BIG BOUNVY INFLATABLE GREEN BALL!!!\xef\xbb\xbf'
p512
aS'I wish I had a lambourghini as beautiful as his\xef\xbb\xbf'
p513
aS'There was no teehee!\xef\xbb\xbf'
p514
aS'Kids React brought me here.\n\nPO-TA-TO!!! XD\xef\xbb\xbf'
p515
aS'he has beautiful skin.\nlike idk why but i cant stop noticing just how smooth and even the color is \n*u*\nhes still so funny <3\xef\xbb\xbf'
p516
aS'I got sent here by a dA comment. XD\xef\xbb\xbf'
p517
aS'lol\xef\xbb\xbf'
p518
aS'I hatethe highligts in his hair!\xef\xbb\xbf'
p519
aS'i loved funny\xef\xbb\xbf'
p520
aS'whaaat ? He is beautiful *-* and super funny ;)\xef\xbb\xbf'
p521
aS'one of the best\xef\xbb\xbf'
p522
aS'Those where the days...\xef\xbb\xbf'
p523
aS'(Dark voice)meow \xef\xbb\xbf'
p524
aS'Best Video for the giggles\xef\xbb\xbf'
p525
aS'-.- You forgot to tell me where to buy it\xef\xbb\xbf'
p526
aS'what does idk mean i dont know i dont know either nobody knows\xef\xbb\xbf'
p527
aS'whuuuuuuuuuuuuut?\xef\xbb\xbf'
p528
aS'waaaaaaaat?\xef\xbb\xbf'
p529
aS'Throw it at your dog!\nBARK\nThrow it at your cat!\nMEOW\nthrow it at your Lamborghini!\n(Tractor)\nXD I love this video.\xef\xbb\xbf'
p530
aS'oh...po-tae-toe. <3\xef\xbb\xbf'
p531
aS'139,911 I was the 911\xef\xbb\xbf'
p532
aS'he has no ball? hahaha!\xef\xbb\xbf'
p533
aS"you didn't say teehee at the end of the video!!!!\xef\xbb\xbf"
p534
aS'Still hilarious. He looks like Johnny Tsunami in this video, haha.\xef\xbb\xbf'
p535
aS'I have no ball!\xef\xbb\xbf'
p536
aS'Balls. \xef\xbb\xbf'
p537
aS'I want a big bouncy inflatable green ball\xef\xbb\xbf'
p538
aS'I have no balls :D\xef\xbb\xbf'
p539
aS'lol\xef\xbb\xbf'
p540
aS'PO-TA-TOE\xef\xbb\xbf'
p541
aS'Funny \xef\xbb\xbf'
p542
aS'how do you talk so fast!\xef\xbb\xbf'
p543
aS".....Ryan's hair\nIts so...\nCute!\n<3 (Less than three?)\xef\xbb\xbf"
p544
aS'This is so funny!\xef\xbb\xbf'
p545
aS'I have a purple ball\xef\xbb\xbf'
p546
aS'Lol Ryan higa is ahmazing ! Been watching him since I was like 10 lol \xef\xbb\xbf'
p547
aS'the longest 48 secs of my life.\xef\xbb\xbf'
p548
aS'Nooooo, Noooo teehee \xf0\x9f\x98\x82\xef\xbb\xbf'
p549
aS'Can you have a link to the website to order my big bouncing inflatable \ngreen ball?\xef\xbb\xbf'
p550
aS'Thats so awesome I want one\xef\xbb\xbf'
p551
aS'whaaaat\xef\xbb\xbf'
p552
aS'Ha ha ha, so old but its still awesome\xef\xbb\xbf'
p553
aS'fat\xef\xbb\xbf'
p554
aS'what?  I want a superfantasticinflatiblegreenball\xef\xbb\xbf'
p555
aS'That would be to hard\xef\xbb\xbf'
p556
aS'bark\xef\xbb\xbf'
p557
aS'How do I order?\xef\xbb\xbf'
p558
aS'?\xef\xbb\xbf'
p559
aS'Um..........o.k?\n\xef\xbb\xbf'
p560
aS'does he sell the big bouncing inflatable green ball\xef\xbb\xbf'
p561
aS'0:37-0:39 POTATO.\xef\xbb\xbf'
p562
aS"Ryan, advertise this video. Because it's like a real add xD\xef\xbb\xbf"
p563
aS'he is saying WAT for a reson\xef\xbb\xbf'
p564
aS'first.\xef\xbb\xbf'
p565
aS'I know what I want for Christmas. SANTA!!!!!!!!!!!!\xef\xbb\xbf'
p566
aS'That video hurt my brain. So much to take in\xef\xbb\xbf'
p567
aS'omg no teehee\xef\xbb\xbf'
p568
aS'why so many views this video has\xef\xbc\x9fcoz everyone definitely watched more than \ntwice\xef\xbc\x81\xef\xbb\xbf'
p569
aS'You talk so fast you should join the olympics\xef\xbb\xbf'
p570
aS'you look gay with that hair\xef\xbb\xbf'
p571
aS'throw it at your lamborghini\xef\xbb\xbf'
p572
aS'SAY IT!!!! SAY IT!!!....\nYou are HEISENBERG\xef\xbb\xbf'
p573
aS'lol\n\xef\xbb\xbf'
p574
aS"wow it's been 4 years and i still remember every word\xef\xbb\xbf"
p575
aS'I remember seeing this video in my 5th grade class\n\nYears ago O_e\xef\xbb\xbf'
p576
aS'I miss this:(\xef\xbb\xbf'
p577
aS'He threw it at a lamp!!!! THATS US!!!!!!\xef\xbb\xbf'
p578
aS'and for the most daring: throw it at a potato!\n*hits potato* PO-TA-TO XD\xef\xbb\xbf'
p579
aS" {} This guy has no face but he is on jimmy's team.\n\\[]/\n /\\\xef\xbb\xbf"
p580
aS'DO IT!\xef\xbb\xbf'
p581
aS'00:08 that ring\xef\xbb\xbf'
p582
aS'how can you breathe?\xef\xbb\xbf'
p583
aS'I already own one... \xef\xbb\xbf'
p584
aS'Love his hair :P\xef\xbb\xbf'
p585
aS'you forgot the TEEHEE \xef\xbb\xbf'
p586
aS"I can't talk that fast\xef\xbb\xbf"
p587
aS'first ever video I saw from ryan one of his best\xef\xbb\xbf'
p588
aS"Where's the TEE-HEE ending?\xef\xbb\xbf"
p589
aS'Lol no teehee ending\xef\xbb\xbf'
p590
aS"One of my first YouTube videos I ever watched (': \xef\xbb\xbf"
p591
aS'THAT MAKES SENSE! XD\xef\xbb\xbf'
p592
aS'do a baby food chalenge\xef\xbb\xbf'
p593
aS'How does he go from funny nerd to epic hilarious cool guy? Like...puberty?\xef\xbb\xbf'
p594
aS'wait...theres no TEEHEE in this video!\xef\xbb\xbf'
p595
aS'POTATO!!!!\xef\xbb\xbf'
p596
aS'This the FIRST vid I saw of urs!\xef\xbb\xbf'
p597
aS'TEHE\xef\xbb\xbf'
p598
aS'What happend to your hair now you look ugly sorry. Chang your hair back to \nblack plz thz\xef\xbb\xbf'
p599
aS"aaaaw you're so cute :3\xef\xbb\xbf"
p600
aS'I love his ADHD. And his hair from before ^-^\xef\xbb\xbf'
p601
aS'Dear Ryan, Can you be an orange Sode\xef\xbb\xbf'
p602
aS'OH! P-O-T-A-T-O-E\xef\xbb\xbf'
p603
aS'XD\xef\xbb\xbf'
p604
aS'10,886,474th subscriber!\xef\xbb\xbf'
p605
aS'potato\xef\xbb\xbf'
p606
aS'POTATO\xef\xbb\xbf'
p607
aS'This is actually the only reason I discovered his channel. The audio for \nthis was on an animation posted on Flipnote Hatena, and I looked it up. \nThis video is very nostalgic to me because of that. I love it. ^^\xef\xbb\xbf'
p608
aS'00:08 that ring\xef\xbb\xbf'
p609
aS'No TEEHEE?!\xef\xbb\xbf'
p610
aS'Yah! No TEEHEE?\xef\xbb\xbf'
p611
aS'OK, TEEHEE!!\xef\xbb\xbf'
p612
aS"I was watching this with my friend earlier and suffice to say, I creeped \nhim out because I said everything Ryan said perfectly and as fast as he \ndid. Well, I guess we're not hanging out soon anymore.\xef\xbb\xbf"
p613
aS'i got to say ryan this is one of ur not so funny videos\xef\xbb\xbf'
p614
aS'POTATO! HAHAHA\xef\xbb\xbf'
p615
aS'throw it at your dog BBAARRKK\xef\xbb\xbf'
p616
aS'well that was bally\xef\xbb\xbf'
p617
aS'2 words\nTALK. SLOWER.\xef\xbb\xbf'
p618
aS"what was up with your hair in 2009 ???? \nhahahahahaahahahahahahahahahahahahahhaa that's non sens ! xD \xef\xbb\xbf"
p619
aS'"i have no ball"\nLOL\xef\xbb\xbf'
p620
aS'OH! POTATO!\xef\xbb\xbf'
p621
aS'5,743 people wanted a Big Bouncing Inflatable Green Ball.. \xef\xbb\xbf'
p622
aS'Lol waaAattttttttt? Lmafo\xef\xbb\xbf'
p623
aS"Ur hair it's brown and black OH POTATO \xef\xbb\xbf"
p624
aS'no tehee...\xef\xbb\xbf'
p625
aS'UH, PO-TAT-TOH!\xef\xbb\xbf'
p626
aS"This reminds me so much of when I was younger. I loved this so much. I've \nbeen a fan since at least 2007\xef\xbb\xbf"
p627
aS'Ouh potato XD\xef\xbb\xbf'
p628
aS'The memories\xef\xbb\xbf'
p629
aS"WELL THAT'S GREAT IDIOT \xef\xbb\xbf"
p630
aS'Them feels\xef\xbb\xbf'
p631
aS'HOW do you talk so fast?!?!?!?!\xef\xbb\xbf'
p632
aS'Big change\xef\xbb\xbf'
p633
aS'Cool\n\xef\xbb\xbf'
p634
aS'TEEHEE!!!\xef\xbb\xbf'
p635
aS'is it free cuz i got a blue one off of ebay it came flat\xef\xbb\xbf'
p636
aS"There's no TEEHEE for this one!\xef\xbb\xbf"
p637
aS'I like you ball\xef\xbb\xbf'
p638
aS'Ryan Give Me A The Big Bouncing Inflatable Green Ball Too\xef\xbb\xbf'
p639
aS'these r hilarious\xef\xbb\xbf'
p640
aS'i repeated the whole thing by memory to my friend and he looked scared... \nit was hilarious =D\xef\xbb\xbf'
p641
aS'I have a big black ball\xef\xbb\xbf'
p642
aS'CHECK OUT T FUNNY THIS I FOUND WHEN I WAS FOOLING AROUND!!!\xef\xbb\xbf'
p643
aS'such a tongue twister\xef\xbb\xbf'
p644
aS'Wtf\xef\xbb\xbf'
p645
aS'Nice lamborghini where did you buy that abd how much?\xef\xbb\xbf'
p646
aS'Potatoooooo XD\xef\xbb\xbf'
p647
aS'"And for the really daring throw it at this potato".\nWhen you said it that way,I started fearing potatoes.Like,potatoes are \ntough guys to me now.\xef\xbb\xbf'
p648
aS'Amazing!\xef\xbb\xbf'
p649
aNaS'I LOVE this video!\xef\xbb\xbf'
p650
aS"where's the teehee?\xef\xbb\xbf"
p651
aS"OMG NOT ONE VIDEO I SEE BOB (in sarcasm) I'm bob copy and paste this all \nover utube so we can get the old comment section back . I do agree but it \njust annoys me a lot ): sry for ppl who do this I didn't mean to offend u \n:/\xef\xbb\xbf"
p652
aNaS'They missed 0.48\xef\xbb\xbf'
p653
aS'POTATO NOOOOOO\xef\xbb\xbf'
p654
aS'Miss the big bouncing inflatable green ball. ... \xef\xbb\xbf'
p655
aS'whaaat?\xef\xbb\xbf'
p656
aS'haha\xef\xbb\xbf'
p657
aS'Where the TEEHEE?\xef\xbb\xbf'
p658
aS"Captions make this so much better... if that's even possible.\xef\xbb\xbf"
p659
aS'Thumbs up if you watch in 2013\xef\xbb\xbf'
p660
aS'where is teehee?\xef\xbb\xbf'
p661
aS'wate\xef\xbb\xbf'
p662
aS'Whuut\xef\xbb\xbf'
p663
aS'Awww... The good times. :)\xef\xbb\xbf'
p664
aS'His hair was only like this for a video or two. \xef\xbb\xbf'
p665
aNaS'Awesome!\n\xef\xbb\xbf'
p666
aNaS"So Funny and weird, I can't say it that fast. Just watch to find out!\xef\xbb\xbf"
p667
aS'Classic...\xef\xbb\xbf'
p668
aS'WHAAAAAT xD\xef\xbb\xbf'
p669
aS'first video i watched in niggahigas channel\xef\xbb\xbf'
p670
aS'ann loves balls\xef\xbb\xbf'
p671
aS'this video is awesome\xef\xbb\xbf'
p672
aNaNaNaS'The Big Bouncing Inflatable Green Ball\xef\xbb\xbf'
p673
aS'Check out this video on YouTube:\xef\xbb\xbf'
p674
aS'Check out this video on YouTube:\xef\xbb\xbf'
p675
aS'Check out this video on YouTube:\xef\xbb\xbf'
p676
aNaS"5,739 people still didn't get their shipments\xef\xbb\xbf"
p677
aS'\xef\xb8\xbb\xe2\x95\xa6\xe2\x95\xa4\xe2\x94\x80     WE SHALL TAKE BACK THE OLD COMMENT SECTION!\n    \xe2\x98\xbb/        /     \n    /\xe2\x96\x8c                              \xef\xb8\xbb\xe2\x95\xa6\xe2\x95\xa4\xe2\x94\x80   \xef\xb8\xbb\xe2\x95\xa6\xe2\x95\xa4\xe2\x94\x80   \xef\xb8\xbb\xe2\x95\xa6\xe2\x95\xa4\xe2\x94\x80   \xef\xb8\xbb\xe2\x95\xa6\xe2\x95\xa4\xe2\x94\x80   \xef\xb8\xbb\xe2\x95\xa6\xe2\x95\xa4\xe2\x94\x80  \xef\xb8\xbb\xe2\x95\xa6\xe2\x95\xa4\xe2\x94\x80\n    / \\                              \xef\xb8\xbb\xe2\x95\xa6\xe2\x95\xa4\xe2\x94\x80   \xef\xb8\xbb\xe2\x95\xa6\xe2\x95\xa4\xe2\x94\x80   \xef\xb8\xbb\xe2\x95\xa6\xe2\x95\xa4\xe2\x94\x80   \xef\xb8\xbb\xe2\x95\xa6\xe2\x95\xa4\xe2\x94\x80   \xef\xb8\xbb\xe2\x95\xa6\xe2\x95\xa4\xe2\x94\x80  \xef\xb8\xbb\xe2\x95\xa6\xe2\x95\xa4\xe2\x94\x80\n /""""""""""""\\=======I   \xef\xb8\xbb\xe2\x95\xa6\xe2\x95\xa4\xe2\x94\x80   \xef\xb8\xbb\xe2\x95\xa6\xe2\x95\xa4\xe2\x94\x80   \xef\xb8\xbb\xe2\x95\xa6\xe2\x95\xa4\xe2\x94\x80   \xef\xb8\xbb\xe2\x95\xa6\xe2\x95\xa4\xe2\x94\x80   \xef\xb8\xbb\xe2\x95\xa6\xe2\x95\xa4\xe2\x94\x80  \xef\xb8\xbb\xe2\x95\xa6\xe2\x95\xa4\xe2\x94\x80\n /"""""""""""""""""""\'\\         \xef\xb8\xbb\xe2\x95\xa6\xe2\x95\xa4\xe2\x94\x80   \xef\xb8\xbb\xe2\x95\xa6\xe2\x95\xa4\xe2\x94\x80   \xef\xb8\xbb\xe2\x95\xa6\xe2\x95\xa4\xe2\x94\x80   \xef\xb8\xbb\xe2\x95\xa6\xe2\x95\xa4\xe2\x94\x80   \xef\xb8\xbb\xe2\x95\xa6\xe2\x95\xa4\xe2\x94\x80  \xef\xb8\xbb\xe2\x95\xa6\xe2\x95\xa4\xe2\x94\x80\xef\xbb\xbf'
p678
aS'omg ryan was so cute! (still is)'
p679
aS'I was waiting for the "TEEHEE" but... NOPE.'
p680
aS"You didn't say TEEHEE "
p681
aS'great looking lamborghini (lol)'
p682
aS'Tehee'
p683
aS'Pohtatoh'
p684
aS'YouTube Classic'
p685
aS'Good Memories'
p686
aS'Wow he has changed'
p687
aS'No TEHEE??'
p688
aS'You forgot something here I got it TEHHE'
p689
aS'whaat'
p690
aS'Whaaaaaaaaaaaaaaaaaaaaaatttttttttttttttttt'
p691
aS"This was an old video, notice how he looks different? Watch other old \nvideos and he won't do the teehee in those either."
p692
aS'There is no teehee'
p693
aS"carl jr's new portebello mushroom burger was better."
p694
aS'No teehee'
p695
aS'"And you\'ll never not never not say that you don\'t not love the big \nbouncing inflatable green ball today!" 6 negatives we hate the big bouncing \ninflatable green ball'
p696
aS'love your hair ^^'
p697
aS'I have watched this 20,000 times and still snigger and giggle throughout \nthe whole video.'
p698
aS'His hair is blond'
p699
aS'TEEHEE!!!!'
p700
aS'YOU FORGOT THE FOLUCKING TEEHEE'
p701
aS'Well,If you must if he if has been on youtube that long I think he would \nfind out how to make GOOD videos and make them more like with a border and \nsome of thing linking to some other of his videos make it easier for people \nto get around to see his "amazing" videos like I said, I am not impressed.'
p702
aS'So funny'
p703
aS'where do i order?'
p704
aS'He forgot the TEEHEE '
p705
aS"sooo that's where I got poooohhhttayyyytoooeee!!!"
p706
aS'po-tat-o.'
p707
aS'MEOW'
p708
aS'I dont want any green balls that are inflatable'
p709
aS'but Ryan, i thought you liked lamps.. '
p710
aS' aww no teehee :('
p711
aS'Uh! Potato'
p712
aS'Wow, he dyed his hair. 0.o'
p713
aS'He forgot a TEEHEE'
p714
aS'Best part was.... Oh. POH TAY TOE'
p715
aS'I want that batman cat.'
p716
aS'MEOW'
p717
aS'Where Can I Buy This Green Ball!'
p718
aS'Love it'
p719
aS'0:49 TEEHEE'
p720
aS'The... the TEEHEE? Nu teehee? Go to :20 for my fucking reaction.....'
p721
aS'and for the really daring throw it at this potato! UH! \nPPPPOOOOOOOTTTTTTTAAAAAATTTTTTOOO!'
p722
aS"Cool hair bro' <3"
p723
aS'NO TEEHEE!!!!!!!!!!!!!!!!!!!!!!!!!!!! '
p724
aS'Po-Ta-To '
p725
aS'mind fucked lol'
p726
aS'Watched it the First time around 7 years ago. I still watch it and LMFAO. \nLove u Ryan! Keep going!'
p727
aS'you soud ave had the voice of glados from portal for the potato'
p728
aS'I feel so bad for that potato>'
p729
aS'wow you look so young with highlights '
p730
aS"either it was just a coincedence or he ment to do it, but when he sais \nthrow it at your lamborghini, most of you think its funny '\xc3\xa7ause'its just a \ntractor(lawnmower), but lamborghini also made tractors(lawnmower). \nlamborghini tratorri"
p731
aS'datpotato'
p732
aS'PO-TAY-TOH'
p733
aS'Y u no teehee'
p734
aS'WHO WHO'
p735
aS'I bet taht then you hit your potato with your Big Bouncing Inflatable \nPurple Ball it dosent say PPOOOTAAATOOOEE'
p736
aS'YEAH ELENA YOU ARE THE BEST WANT TO BE BFF?'
p737
aS"1. I LOVE THIS VIDEO 2. YOU DIDN'T SAY TEEHEE :( 3. GO TO 0:18 AND PAUSE 4. \n*DEEP MAN VOICE* BARK. MEYOW. 5. BAHAHAHAHAHAHAHAHAHAHA"
p738
aS'POTATOOO XD'
p739
aS'I have so many of those bouncing balls!!! Dey r so much of funn!!!'
p740
aS'NO TEEHEE!!!!!!'
p741
aS'Hm... Seems Legit :3'
p742
aS'why is your hair,...ORANGE! '
p743
aS'Lamb ahahah'
p744
aS'Ryan\xc2\xb7I have no ball'
p745
aS'"Throw it at your lamborghini!" XD'
p746
aS'Lol throw it at your dog "BARK"'
p747
aS'what!?'
p748
aS"THERE'S NO TEEHE!!!"
p749
aS'Um ya it us retard'
p750
aS'PO-TA-TOE!'
p751
aS'all time favorite makes me laugh everytime'
p752
aS'Ahem 0:49 TEHHE'
p753
aS'Eyebrows no longer seem human...'
p754
aS'NO TEEHEE? \nNUUUUUUUUUUUUUUUUUUUUUUUUUUUUUUUUUUUUUUUUUUUUUUUUUUUUUUUUUUUUUUUUUUUUUUUUUUUUUUUUUUUUUUUUUUUUUUUUUUUUUUUUUUUUUUUUUUUUUUUUUUUUUUUUUUUUUUUUUUUUUUUUUUUUUUUUUUUUUUUUUUUUUUUUUUUUUUUUUUUUUUUUUUUUUUUUUUUUUUUUUUUUUUUUUUUUUUUUUUUUUUUUUUUUUUUUUUUUUUUUUUUUUUUUUUUUUUUUUUUUUUUUUUUUUUUUUUUUUUUUUUUUUUUUUUUUUUUUUUUUUUUUUUUUUUUUUUUUUUUUUUUUUUUUUUUUUUUUUUUUUUUUUUUUUUUUUUUUUUUUUUUUUUUUUU'
p755
aS'Wow you had blond in your hair!'
p756
aS'Click on the channel... mind=blown '
p757
aS'its behind "WUUUUT???" 0:47'
p758
aS"That's confusing enough to make sense! I'll take 20. :3"
p759
aS'thats right dramawind ima take over this world with my big bouncy \ninflatable green ball!!! '
p760
aS'fuck you to sir i just probably dont think some christan piece of shit is \nthat important'
p761
aS'a stunt to through it at a potato? really? lol!'
p762
aS'throw it at your friend!!!!!!!!!!!!!!!11 '
p763
aS'I have a big bouncing gray ball its not the same :('
p764
aS'ill take one to hit my enimes lol XD and my puato(spelled it wrong)'
p765
aS'its not just a ball its a BIG BOUNCING INFLATABLE GREEN BALL!'
p766
aS"I know! It's pre-Teehee! Haha _______ Your questions, answered. Check my \nchannel out"
p767
aS"I don't like your hair..."
p768
aS'Hahahahaha! I love your videos Ryan! You make me laugh when I am going \nthrough tough times, please never stop making videos!'
p769
aS'i now want a big bouncing inflatable green ball now...'
p770
aS'Lol so funny'
p771
aS'No tehee'
p772
aS'How the heck are these people getting the same exact names?'
p773
aS'And why is this funny?'
p774
aS"may i know who's billy mays ?"
p775
aS'WHAT!'
p776
aS'BUARK'
p777
aS"b.... bu... but that's impossibru. "
p778
aS'Potato'
p779
aS'Oh.. potato'
p780
aS'and le wild old lady says WAT'
p781
aS'lol im still watching it!'
p782
aS'whaaat??'
p783
aS'is this Green Ball really a product out there in the U.S..?? '
p784
aS'hilaiouse :) XD'
p785
aS'throw it at your tractor'
p786
aS"I didn't understand anything but it was hilarious..."
p787
aS'rofl'
p788
aS"No. It didn't. At least, not the way Ryan's Big Bouncing Inflatable Green \nBall did. It said POOOTAAATOOOEEE in a Scottish accent which then switched \nover to a Spanish accent on the last syllable. "
p789
aS'TEEHEE'
p790
aS'i want that ball'
p791
aS"o and you didn't have 21,483,831 views I just watched this 21,483,830 times \n:3"
p792
aS'definitely one of the classics of nigahiga!! He is seriously a master of \ntongue twisters and talking fast~'
p793
aS'My father is a potato, and this video offends me.'
p794
aS'Anyone else get the Lamborghini tractor thing?'
p795
aS'I would like to say... is it free? you gave no cost, so can you deliver to \nmy house right away?'
p796
aS'Ryan, you talk to slow'
p797
aS"=YOUTUBE IDIOTS ONLY= Do you hate spammer? There's already a button for \nthat. Actually there's TWO. Let's press BOTH and see what happens. +1 \nDislike to previous comment, along with a +1 on the spam voting! YAY!"
p798
aS'Duh!'
p799
aS'Try say that 10 times fast'
p800
aS'This got about twice as much views as his other videos, just because you \ncan see a big green ball in the thumbnail!'
p801
aS'is it bad that now I want a big inflatable bouncy green ball? '
p802
aS'All praise the big bouncing inflatable big ball...'
p803
aS'...'
p804
aS'Am I the only one who has memorized this and says it with Ryan every time I \nwatch it? :D'
p805
aS'aww Poor Poor Potato'
p806
aS'ryan i have a suggestuion for a mmovie the small blue ball'
p807
aS'No... teehee...'
p808
aS'Dudes, 2009. Did he get the idea of saying TEEHEE?'
p809
aS'Oh. POH TAEH TOH'
p810
aS'I tried to say everything he says..with him. And I can only do the \nfast-talking when he says "Big Bouncing Inflatable Green Ball"'
p811
aS'Its blonde'
p812
aS'im not late i use the internet every day i keep up with every thing new i \njust dont know who chuck norris is. is he important in a way?'
p813
aS'acid'
p814
aS'HOW DO U TALK SO FAST RYAN?!?!'
p815
aS"Hey Ryan, you should make a vid about Asian snacks, I stinkin' love them \nand bet you could make a great vid out of it. Like Pocky, Panda Cookies, \nall that fun stuff. P.S You're epically funny, been watching you since \nmiddle school."
p816
aS'Internet Icon'
p817
aS"and you'll never not ever not say that you don't not love the big bouncing \ninflatable green ball today"
p818
aS"You can't spell Chuck Norris... YOU NEED PROFESSIONAL HELP!"
p819
aS'we want the TEEHEE we all want the TEEHEE'
p820
aS'I will try. But first I have to go to the store. All I have is yams...'
p821
aS'...Gender matters?'
p822
aS'Therefore, I did the TEEHEE myself.'
p823
aS"I don't like the big green ball"
p824
aS'lol '
p825
aS'Wheres the TEEHEE?'
p826
aS'Oooohhhhh poo tayyyy towers'
p827
aS'No TEEHEE???'
p828
aS"It's still amazing"
p829
aS'wheres the teehee'
p830
aS'I noticed! '
p831
aS'ohh po-ta-to'
p832
aS'ur too cute ryan :)'
p833
aS'The first two seconds had me on the floor'
p834
aS'his hair o.O'
p835
aS'The only reason I know Chuck Norris is because you crazy people of YouTube \nshowed me a picture of him. Really, you people actually watch TV?!'
p836
aS"they didn't give us the number..."
p837
aS'HE WAS TOO YOUNG WHY POTATO WHY!!!!!!!!!!!!!! NO'
p838
aS'taling real fast here mqn'
p839
aS'omfg lol'
p840
aS"Who is saying Potato? I'm tripping balls because that's like my voice."
p841
aS"You forgot to teehee, so I'll do it for you. TEEHEE"
p842
aS'What?'
p843
aS'there was no teehee '
p844
aS'FAV VIDEO EVER STILL!!'
p845
aS'That actually made me want to buy the big bouncy inflatable green ball'
p846
aS'where do I order? '
p847
aS'I have a Big Bouncing Inflatable RED Ball!'
p848
aS'POTAATOO'
p849
aS'like if you tryed to say it but failed'
p850
aS'why is it so important to know who chuck norris. is he important or \nsomething'
p851
aS'his hair '
p852
aS'\xe3\x83\x9d\xe3\x83\xbc\xe3\x83\x86\xe3\x83\xbc\xe3\x83\x88\xe3\x83\xbc'
p853
aS'copyright'
p854
aS"That isn't really him. Click on his face and you'll see a random person's \nchannel."
p855
aS'please repeat what you said'
p856
aS'i wonder how long it took for him to say that without fucking up his lines'
p857
aS'Only 9.99$ plus shipping and handling! (22.95$)'
p858
aS'XD'
p859
aS'NOOO! 0:34'
p860
aS'Dear ryan:Can you kick the green inflatable ball.'
p861
aS'AND FOR THE REALLY DARING THROW IT AT THIS POTATO! OOF! PO-TA-TO'
p862
aS'you talk to fast -_-'
p863
aS"EMERGENCY ryan didn't include a teehee."
p864
aS"Where's the Tee-Hee ?"
p865
aS"That's what she said"
p866
aS'IM SO HAPPY HE INVENTED TEEHEE'
p867
aS'what did he say'
p868
aS'nowhere its a real commercial'
p869
aS'too funny, ive been watching since 2010 and it still makes me laugh. ive \nshown it to everyone i know'
p870
aS"it doesn't say tehee at the end o.o"
p871
aS'Awww wow this is old XD'
p872
aS'Teehee i love him'
p873
aS'watch the video again and just look at his eyebrows :D'
p874
aS"Android and Apple users only! Get free iTunes, Steam, Amazon, PSN, or XBL \ngift codes straight from your Android or Apple device! 1. Open up the web \nbrowser on your Apple/Android device -> go to tinyurl .com /itunes4ever 2. \nInstall an app and keep it open for 30 seconds. 3. Open the web browser \nagain to redeem and receive one of the previously mentioned $10 gift cards \nof your choice! I've already received $30 worth of Steam gift codes this \nweek! "
p875
aS"Me and my neighbors have always been your greatest fans! You are the \nfunniest people alive! Even now, 2013 I'm still watching all of your \nvideos! Rock on Sean and Ryan!"
p876
aS'Dude, he said "It was like 2007 or something." I think he couldn\'t really \nremember what year he watched it.'
p877
aS'MEOW'
p878
aS'Dang.'
p879
aS'No teehee'
p880
aS'u said u watched this in 2007 and it was uploaded in 2009 '
p881
aS'he forgot the teehee'
p882
aS'Yup that makes perfect sense :) Uploaded in 2009, watched in 2007, of \ncourse :)'
p883
aS'no actually you guys i fell bad for because you guys make a big fucking \ndeal about this your brains are to undeveloped and act like 2 year olds \nwhen some says they dont know who chuck norris is. and learn how to spell \nimpossible '
p884
aS'/watch?v=kV6vUd-Sadc Kid Copycat :o'
p885
aS'Lamps and potatoes :)'
p886
aS'i like balls my big roud pink 2 balls '
p887
aS"Here's a teehee"
p888
aS'Teehee'
p889
aS'Yep. '
p890
aS'has anyone else watched this too many times, you feel like his talking \nregularly?'
p891
aS'He didnt say TEEHEE'
p892
aS'Hi lights'
p893
aS"Android and Apple users only! Get free iTunes, Steam, Amazon, PSN, or XBL \ngift codes straight from your Android or Apple device! 1. Open up the web \nbrowser on your Apple/Android device -> go to tinyurl .com /itunes4ever 2. \nInstall an app and keep it open for 30 seconds. 3. Open the web browser \nagain to redeem and receive one of the previously mentioned $10 ($20 for \nSteam and PSN) gift codes of your choice! I've already received $40 worth \nof Steam gift codes this week!"
p894
aS'Whaat?'
p895
aS'THROW IT A YOUR POTATO O POTATO LOL I LIKE THAT PART'
p896
aS'whaaaaaat'
p897
aS'no TEEHEE! I cant believe nobody noticed it!'
p898
aS'911'
p899
aS'no TEEHEE?'
p900
aS'He talks so fast!'
p901
aS'how do you get the big bouncy inflatable green ball...!'
p902
aS'what are you saying'
p903
aS'What? Why no TeeHee?'
p904
aS'THOSE EYEBROWS'
p905
aS'And their rival company? HigaNiga, who makes Big Bouncy Inflatable Red Balls'
p906
aS"there's one thing Ryan and i have in common is that we both talk really fast"
p907
aS'POTATO!!!!!!!!!!!!!!!!!'
p908
aS'Yoga Ball.'
p909
aS'Nice hair. NO TEEHEE?!'
p910
aS"WTF, it's the same name, how????"
p911
aS'Where can I order the big bouncing inflatable green ball? Hahahaha'
p912
aS'I have no ball either ('
p913
aS'After i watched the end of episode 7 of internet icon i immediately thought \nof this'
p914
aS'XD- oh pootaatoo'
p915
aS'Thumbs up if you tried to copy everything he said at the same speed.'
p916
aS'MAPOTI'
p917
aS'Pooottttaaaatttttooooo'
p918
aS'Well I was watching it but since I only decided to read this comment after \nI watched it I suppose a "Thumbs up if you watched this video within the \nlast 30 seconds" would be more accurate. But then again that would just \nfall under youtube\'s conundrum of repetition so I\'d rather just say that \nthis video is a good one. '
p919
aS'MIAAAAOOOH!'
p920
aS'watches in 2013...'
p921
aS'OMG no TEEHEE'
p922
aS"no ..i'm watching this in the year 3000 with the GREAT, GREAT, GREAT, \ngranddaughter of Jonas Brothers........P.S...We live under water... "
p923
aS"I'm watching this on my iDog in 2400"
p924
aS'MAPOTI!!!'
p925
aS'This was before the teehee.'
p926
aS'no im watching this yesterday'
p927
aS'whaaaaaat?'
p928
aS'Po Ta Toe. Oops'
p929
aS'What?'
p930
aS'who the fuck spammed Higa god!!!??? THey shall die!'
p931
aS'teehee? '
p932
aS'MEOWWWW!!'
p933
aS'SILENCE FOOL!-throws batarang-'
p934
aS'WTF R U TALKIN BOUT'
p935
aS'so cool'
p936
aS'Bring like five of these to a weather station. No one will ever know what \nhit them...'
p937
aS"I'm in 5013 and I'm still watching it! xD"
p938
aS"Of course it does! Though I might have thrown it too hard... My lamp won't \nturn on anymore..."
p939
aS'WHAT?!'
p940
aS"OMG!!! still can't stop laughing!"
p941
aS'Where.Is.The.Teehee.'
p942
aS'YOUR HAIR?? '
p943
aS"the best video doesn't even have a teehee "
p944
aS'where is the TEEHEE?'
p945
aS'I ordered it 4 years, 1 month, 25 days, 22 hours, 17 minutes and 37 seconds \nago. lol'
p946
aS'can i order from your youtube channel X3'
p947
aS'Sooooooo I rely don nos wa no tehe from ryn'
p948
aS'FAKE!!!'
p949
aS'Maybe you should throw your Big Bouncing Inflatable Purple Ball into \nanother potato'
p950
aS'None. At all.'
p951
aS'I used to have this memorized when it came out... but not I have to \nmemorize it again... poo'
p952
aS'Whaaat? I love the bark, meow, Lamborghini and potato!'
p953
aS'THAT MADE SENSE! '
p954
aS'UOH! PO TA TO!! '
p955
aS'I have a big bouncy inflatable purple ball...'
p956
aS'Po-ta-tooo hahahahahaha'
p957
aS'No TEEHEE ! D: But I still enjoy this video anyway. woohoo ! xDD'
p958
aS'Epic.'
p959
aS"I'll sub!"
p960
aS'Awesome sauce'
p961
aS'bark meeeaaaaaoow'
p962
aS'he should make how to be a rap star'
p963
aS'Wow he talks fast'
p964
aS"Where's TEEHEE !"
p965
aS'OH, P.O.T.A.T.O!!!!'
p966
aS'Teehee?'
p967
aS'Funny when he was saying "throw it at a potato uhh pooottaaato." LIK IT LOL'
p968
aS'thats what she said! haha sorry...'
p969
aS'He hot.'
p970
aS'Ooh POTATO'
p971
aS'Whaaaat no teehee:('
p972
aS"Where's the teehee"
p973
aS'Hi'
p974
aS'hilariouse '
p975
aS"Don't worry... he probably dose'nt exist by your simple powers of willing \nit."
p976
aS'No teehee ??'
p977
aS'I used to have a big bouncing inflatable blue ball....'
p978
aS'awesome'
p979
aS'you forgot to say TEEHEE'
p980
aS'epic ryan is epic'
p981
aS'press 7 on your keyboard to see the potato'
p982
aS'but it clearly says...uploaded on June 29,2009......'
p983
aS'POTATO?!? WHERE?!?'
p984
aS'No TeeHee?'
p985
aS"When do YOU think I'm watching this?"
p986
aS'And my time machine agrees.'
p987
aS'mitchell u cant spell. '
p988
aS'He forgot the TeeHee :o'
p989
aS'Watch bloopers on his higaTv channel'
p990
aS'OH! PO-TA-TO....'
p991
aS'I have been subscribed to this guy since 2006!!!!!!!'
p992
aS'LOOK AT THE VIEWS.'
p993
aS"Where's the teehee"
p994
aS'The big bouncing inflatable green ball'
p995
aS"He had blondish hair back in 2009? now I've seen everything"
p996
aS'What with the hair Ryan???'
p997
aS'ryan old hair'
p998
aS'THERE! The Master has spoken! Now stop your bickering!!'
p999
aS'Marry me xD'
p1000
aS'His highlights lol'
p1001
aS'What?\xc2\xbf lmfao'
p1002
aS'MY FIRST EVER NIGAHIGA VIDEO'
p1003
aS'they can do what they want '
p1004
aS'Where the TEEEEHEEEE'
p1005
aS'His hair....'
p1006
aS'SHIT... I have a purple one...'
p1007
aS'Do they come in blue?'
p1008
aS'O MY GOODDD!!1'
p1009
aS'its 2013 and this video is still piping hot. woho! less than 3'
p1010
aS"For those of you complaining about no teehee, he didn't do teehee back \nthen. It's really that one famous early video that represents the YouTuber. \nEvery YouTuber has one, like Smosh's Pokemon Theme Song. R.I.P. Anthonymon."
p1011
aS'You forgot to say teehee at the end'
p1012
aS'He has an engagement ring on left hand look close'
p1013
aS'that video was kinda offensive'
p1014
aS'i got one'
p1015
aS'yeah i can see what your talking about....wait no what? '
p1016
aS'Gram lied to me'
p1017
aS'*audience claps*'
p1018
aS'I need this.'
p1019
aS'Over 21 million views'
p1020
aS'no one goes full retard like you right '
p1021
aS'49 seconds of awesomeness!!!! :)'
p1022
aS'5,657 people dont have The Big Bouncing Inflatable Ball'
p1023
aS'"Throw it at your Lamorghini!" *Throws at lawnmower* xDDD'
p1024
aS'Can you buy me one'
p1025
aS'Haha'
p1026
aS'My god, I love this video'
p1027
aS'the eyebrows'
p1028
aS'press 6 for the MEOW'
p1029
aS'U should start rapping'
p1030
aS'Buying The Big Bouncing Inflatable Green Ball...!'
p1031
aS"That's not actually him..."
p1032
aS'PokePotato.'
p1033
aS"I have a Big Bouncing Inflatable Purple Ball! It's not green, but it still \nhits that potato."
p1034
aS'I guess......'
p1035
aS'THIS IS LIKE ONE OF THE FIRST YOUTUBE VIDEOS I EVER SAW'
p1036
aS'I think my stomach growled what?'
p1037
aS'OH! POTATO! '
p1038
aS'wow his videos changed a lot '
p1039
aS'Lamborghini'
p1040
aS'Haizzzzz the perks of being famous, 49 seconds and 21 million views! I mean \nI still love nigahiga, just jealous....'
p1041
aS'pot\xc3\xa9tooo lool'
p1042
aS'Lol'
p1043
aS"no to wasn't "
p1044
aS'Happy birthday Ryan!'
p1045
aS'YOU FORGOT THE TEEHEE >:('
p1046
aS"There's no TEEHEE at the end :("
p1047
aS'SOO u cut ur arms n legs off umm one question how diid u put in this \ncomment?'
p1048
aS'potatoo'
p1049
aS'What?'
p1050
aS'the sfagfefgdbshef green ball..'
p1051
aS'NO TEEHEE'
p1052
aS'...Whaaaat?'
p1053
aS'where is teehee'
p1054
aS'bark meow potato '
p1055
aS'Lambroghinis started as tractors'
p1056
aS'Oh really? You watched the video too??? No way!!'
p1057
aS'Lol'
p1058
aS'WARNING: this video has no TEEHEE, so say it yourself'
p1059
aS'0:01 "I have no ball" O_________O'
p1060
aS'I have no balls!'
p1061
aS" OMG. There's no teehee... "
p1062
aS'Lol'
p1063
aS'(Goey ball) Laughing until yo stomach hurts.'
p1064
aS'BARK'
p1065
aS'Haha I luv it when he say it all so fast'
p1066
aS'man typo'
p1067
aS'I have one at this minute!!!!!!! '
p1068
aS':B TEEHEE'
p1069
aS"It probably took him a long time to get that potato to stand up on it's \nend, without cutting it or deforming it in any way, just for him to knock \nit over with the Big Bouncy Inflatable Green Ball."
p1070
aS'thumbs up! 100% awesome'
p1071
aS"You should sue apple becuase in the iPod human commercial they used this \nproduct and didn't get permission"
p1072
aS'XD'
p1073
aS"The number of 12 year olds that don't know this is a really old video, IS \nTOO DAMN HIGH!!"
p1074
aS'Look at his eyebrows throughout the video, they go up and down a lot. :3'
p1075
aS'NO TEEHEE? WHAAAAAAAAAAAAAAAAAAAA?!?'
p1076
aS'FAAAAAAAAAKE!'
p1077
aS'PO-TAE-TOE'
p1078
aS'Teehee'
p1079
aS'Haha you got highlitghts here!'
p1080
aS'Its funny because Lamborghini used to make tractors'
p1081
aS"i remember when this is posted :')"
p1082
aS'*is'
p1083
aS'Cool but you talk to fast'
p1084
aS'I am? Well, I am not the one that comes out of nowhere, posting random \ncomments.'
p1085
aS'Throw at your Lamborghini!!! XD'
p1086
aS'Haha I remember watching this with my friends back when he first uploaded \nit! brings back good memories xD'
p1087
aS"I don't love it lol"
p1088
aS'...'
p1089
aS'The inflatable green ball hahaha'
p1090
aS'Ohhrgh.. PO TA TAAAWW'
p1091
aS'Only reason this guy has subscribers is because of his videos editing skill \n:/ Im not impressed'
p1092
aS'lol thanks for puting on youtube '
p1093
aS'nobady will hate u okay, y would they, just dont post these sympathy \ncomments on other peoples popular vids because that is how u will get hate.'
p1094
aS'oh. potato.'
p1095
aS'oh... Po-te-toe ahahahahahha'
p1096
aS'No teehee???'
p1097
aS'whhaaat'
p1098
aS'what you watched is called god humor!'
p1099
aS'This is easy to understand once you watch it 3 times :)'
p1100
aS'throw at your dog bark throw at your cat meow'
p1101
aS'Dear Ryan, CAN YOU SURVIVE A RYAN APOCALYPSE??'
p1102
aS"I'll have 50"
p1103
aS'What happened to our favorite part? THE TEEHEE!!!'
p1104
aS'"Throw it at your cat!" (Raspy) Meow... HAHA! that part gets me every time'
p1105
aS'wheres the tee hee? !'
p1106
aS'Lol I am super daring. U going down potato'
p1107
aS'Wat!?!'
p1108
aS"Where's the TEEHEE? The world just ended..."
p1109
aS'No TEEHEE?????'
p1110
aS'What happened to your hair'
p1111
aS'Well I noticed'
p1112
aS'No teehee at the end '
p1113
aS'fucka you bitch'
p1114
aS'Why no teehee?'
p1115
aS'The legend had spoken to you.'
p1116
aS'this was befor'
p1117
aS'NO, ITS A BIG BOUNCY INFLATABLE GREEN BALL!'
p1118
aS'Teehee!'
p1119
aS"Y'all are reading too much into this. 2007, 2009... Who cares when it was \nuploaded and when I saw it? I was reminiscing on the first YouTube video I \nwatched, not picking a fight."
p1120
aS'I can say everything he just said'
p1121
aS'waaaaaaaat ?'
p1122
aS'Your eyebrows are amazing'
p1123
aS'TEHEE'
p1124
aS'nbnb'
p1125
aS'WE WANT THE TEEHEE WE WANT THE TEEHEE WE WANT THE TEEHEE'
p1126
aS'Hilarious'
p1127
aS'no i just dont know who chuck norris is'
p1128
aS'never not ever not say that you do not love the big bouncy inflatable green \nball... right that makes sense xD'
p1129
aS'luv u ryan :)'
p1130
aS'What???'
p1131
aS'The bloopers are harious'
p1132
aS'wheres the Tehee'
p1133
aS'what?????????????????????'
p1134
aS'Those eyebrows'
p1135
aS'U are the biggest idiot ever.'
p1136
aS'\xe2\x9d\xa4\xe2\x9d\xa4\xe2\x9d\xa4\xe2\x9d\xa4\xe2\x9d\xa4\xe2\x9d\xa4\xe2\x9d\xa4\xe2\x9d\xa4\xe2\x9d\xa4\xe2\x9d\xa4\xe2\x9d\xa4\xe2\x9d\xa4\xe2\x9d\xa4\xe2\x9d\xa4\xe2\x9d\xa4\xe2\x9d\xa4\xe2\x9d\xa4\xe2\x9d\xa4\xe2\x9d\xa4\xe2\x9d\xa4\xe2\x9d\xa4\xe2\x9d\xa4\xe2\x9d\xa4\xe2\x9d\xa4\xe2\x9d\xa4\xe2\x9d\xa4\xe2\x9d\xa4\xe2\x9d\xa4\xe2\x9d\xa4\xe2\x9d\xa4\xe2\x9d\xa4\xe2\x9d\xa4\xe2\x9d\xa4\xe2\x9d\xa4\xe2\x9d\xa4\xe2\x9d\xa4\xe2\x9d\xa4\xe2\x9d\xa4\xe2\x9d\xa4\xe2\x9d\xa4\xe2\x9d\xa4\xe2\x9d\xa4\xe2\x9d\xa4\xe2\x9d\xa4\xe2\x9d\xa4\xe2\x9d\xa4\xe2\x9d\xa4\xe2\x9d\xa4\xe2\x9d\xa4\xe2\x9d\xa4\xe2\x9d\xa4\xe2\x9d\xa4\xe2\x9d\xa4\xe2\x9d\xa4\xe2\x9d\xa4\xe2\x9d\xa4\xe2\x9d\xa4\xe2\x9d\xa4\xe2\x9d\xa4\xe2\x9d\xa4\xe2\x9d\xa4\xe2\x9d\xa4\xe2\x9d\xa4\xe2\x9d\xa4\xe2\x9d\xa4\xe2\x9d\xa4\xe2\x9d\xa4\xe2\x9d\xa4\xe2\x9d\xa4\xe2\x9d\xa4\xe2\x9d\xa4\xe2\x9d\xa4\xe2\x9d\xa4\xe2\x9d\xa4\xe2\x9d\xa4\xe2\x9d\xa4\xe2\x9d\xa4\xe2\x9d\xa4\xe2\x9d\xa4\xe2\x9d\xa4\xe2\x9d\xa4\xe2\x9d\xa4\xe2\x9d\xa4\xe2\x9d\xa4\xe2\x9d\xa4\xe2\x9d\xa4\xe2\x9d\xa4\xe2\x9d\xa4\xe2\x9d\xa4\xe2\x9d\xa4\xe2\x9d\xa4\xe2\x9d\xa4\xe2\x9d\xa4\xe2\x9d\xa4\xe2\x9d\xa4\xe2\x9d\xa4\xe2\x9d\xa4\xe2\x9d\xa4\xe2\x9d\xa4\xe2\x9d\xa4\xe2\x9d\xa4\xe2\x9d\xa4\xe2\x9d\xa4\xe2\x9d\xa4\xe2\x9d\xa4\xe2\x9d\xa4\xe2\x9d\xa4\xe2\x9d\xa4\xe2\x9d\xa4\xe2\x9d\xa4\xe2\x9d\xa4\xe2\x9d\xa4\xe2\x9d\xa4\xe2\x9d\xa4\xe2\x9d\xa4\xe2\x9d\xa4\xe2\x9d\xa4\xe2\x9d\xa4\xe2\x9d\xa4\xe2\x9d\xa4\xe2\x9d\xa4\xe2\x9d\xa4\xe2\x9d\xa4\xe2\x9d\xa4\xe2\x9d\xa4\xe2\x9d\xa4\xe2\x9d\xa4\xe2\x9d\xa4\xe2\x9d\xa4\xe2\x9d\xa4\xe2\x9d\xa4\xe2\x9d\xa4\xe2\x9d\xa4\xe2\x9d\xa4\xe2\x9d\xa4\xe2\x9d\xa4\xe2\x9d\xa4\xe2\x9d\xa4\xe2\x9d\xa4\xe2\x9d\xa4\xe2\x9d\xa4\xe2\x9d\xa4\xe2\x9d\xa4\xe2\x9d\xa4\xe2\x9d\xa4\xe2\x9d\xa4\xe2\x9d\xa4\xe2\x9d\xa4\xe2\x9d\xa4\xe2\x9d\xa4\xe2\x9d\xa4\xe2\x9d\xa4\xe2\x9d\xa4\xe2\x9d\xa4\xe2\x9d\xa4\xe2\x9d\xa4\xe2\x9d\xa4\xe2\x9d\xa4\xe2\x9d\xa4\xe2\x9d\xa4\xe2\x9d\xa4\xe2\x9d\xa4\xe2\x9d\xa4\xe2\x9d\xa4\xe2\x9d\xa4\xe2\x9d\xa4\xe2\x9d\xa4\xe2\x9d\xa4\xe2\x9d\xa4\xe2\x9d\xa4\xe2\x9d\xa4\xe2\x9d\xa4\xe2\x9d\xa4\xe2\x9d\xa4\xe2\x9d\xa4\xe2\x9d\xa4\xe2\x9d\xa4\xe2\x9d\xa4\xe2\x9d\xa4\xe2\x9d\xa4\xe2\x9d\xa4\xe2\x9d\xa4\xe2\x9d\xa4\xe2\x9d\xa4\xe2\x9d\xa4\xe2\x9d\xa4\xe2\x9d\xa4\xe2\x9d\xa4\xe2\x9d\xa4\xe2\x9d\xa4\xe2\x9d\xa4\xe2\x9d\xa4\xe2\x9d\xa4\xe2\x9d\xa4\xe2\x9d\xa4\xe2\x9d\xa4\xe2\x9d\xa4\xe2\x9d\xa4\xe2\x9d\xa4\xe2\x9d\xa4\xe2\x9d\xa4\xe2\x9d\xa4\xe2\x9d\xa4\xe2\x9d\xa4\xe2\x9d\xa4\xe2\x9d\xa4\xe2\x9d\xa4\xe2\x9d\xa4\xe2\x9d\xa4\xe2\x9d\xa4\xe2\x9d\xa4\xe2\x9d\xa4\xe2\x9d\xa4\xe2\x9d\xa4\xe2\x9d\xa4\xe2\x9d\xa4\xe2\x9d\xa4\xe2\x9d\xa4\xe2\x9d\xa4\xe2\x9d\xa4\xe2\x9d\xa4\xe2\x9d\xa4\xe2\x9d\xa4\xe2\x9d\xa4\xe2\x9d\xa4\xe2\x9d\xa4\xe2\x9d\xa4\xe2\x9d\xa4\xe2\x9d\xa4\xe2\x9d\xa4\xe2\x9d\xa4\xe2\x9d\xa4\xe2\x9d\xa4\xe2\x9d\xa4\xe2\x9d\xa4\xe2\x9d\xa4\xe2\x9d\xa4\xe2\x9d\xa4\xe2\x9d\xa4\xe2\x9d\xa4\xe2\x9d\xa4\xe2\x9d\xa4\xe2\x9d\xa4\xe2\x9d\xa4\xe2\x9d\xa4\xe2\x9d\xa4\xe2\x9d\xa4\xe2\x9d\xa4\xe2\x9d\xa4\xe2\x9d\xa4\xe2\x9d\xa4\xe2\x9d\xa4\xe2\x9d\xa4\xe2\x9d\xa4\xe2\x9d\xa4\xe2\x9d\xa4\xe2\x9d\xa4\xe2\x9d\xa4\xe2\x9d\xa4\xe2\x9d\xa4\xe2\x9d\xa4\xe2\x9d\xa4\xe2\x9d\xa4\xe2\x9d\xa4\xe2\x9d\xa4\xe2\x9d\xa4\xe2\x9d\xa4\xe2\x9d\xa4\xe2\x9d\xa4\xe2\x9d\xa4\xe2\x9d\xa4\xe2\x9d\xa4\xe2\x9d\xa4\xe2\x9d\xa4\xe2\x9d\xa4\xe2\x9d\xa4\xe2\x9d\xa4\xe2\x9d\xa4\xe2\x9d\xa4\xe2\x9d\xa4\xe2\x9d\xa4\xe2\x9d\xa4\xe2\x9d\xa4\xe2\x9d\xa4\xe2\x9d\xa4\xe2\x9d\xa4\xe2\x9d\xa4\xe2\x9d\xa4\xe2\x9d\xa4\xe2\x9d\xa4\xe2\x9d\xa4\xe2\x9d\xa4\xe2\x9d\xa4\xe2\x9d\xa4\xe2\x9d\xa4\xe2\x9d\xa4\xe2\x9d\xa4\xe2\x9d\xa4\xe2\x9d\xa4\xe2\x9d\xa4\xe2\x9d\xa4\xe2\x9d\xa4\xe2\x9d\xa4\xe2\x9d\xa4\xe2\x9d\xa4\xe2\x9d\xa4\xe2\x9d\xa4\xe2\x9d\xa4\xe2\x9d\xa4\xe2\x9d\xa4\xe2\x9d\xa4\xe2\x9d\xa4\xe2\x9d\xa4\xe2\x9d\xa4\xe2\x9d\xa4\xe2\x9d\xa4\xe2\x9d\xa4\xe2\x9d\xa4\xe2\x9d\xa4\xe2\x9d\xa4\xe2\x9d\xa4\xe2\x9d\xa4\xe2\x9d\xa4\xe2\x9d\xa4\xe2\x9d\xa4\xe2\x9d\xa4\xe2\x9d\xa4\xe2\x9d\xa4\xe2\x9d\xa4\xe2\x9d\xa4\xe2\x9d\xa4\xe2\x9d\xa4\xe2\x9d\xa4\xe2\x9d\xa4\xe2\x9d\xa4\xe2\x9d\xa4\xe2\x9d\xa4\xe2\x9d\xa4\xe2\x9d\xa4\xe2\x9d\xa4\xe2\x9d\xa4\xe2\x9d\xa4\xe2\x9d\xa4\xe2\x9d\xa4\xe2\x9d\xa4\xe2\x9d\xa4\xe2\x9d\xa4\xe2\x9d\xa4\xe2\x9d\xa4\xe2\x9d\xa4\xe2\x9d\xa4\xe2\x9d\xa4\xe2\x9d\xa4\xe2\x9d\xa4\xe2\x9d\xa4\xe2\x9d\xa4\xe2\x9d\xa4\xe2\x9d\xa4\xe2\x9d\xa4\xe2\x9d\xa4\xe2\x9d\xa4\xe2\x9d\xa4\xe2\x9d\xa4\xe2\x9d\xa4\xe2\x9d\xa4\xe2\x9d\xa4\xe2\x9d\xa4\xe2\x9d\xa4\xe2\x9d\xa4\xe2\x9d\xa4\xe2\x9d\xa4\xe2\x9d\xa4\xe2\x9d\xa4\xe2\x9d\xa4\xe2\x9d\xa4\xe2\x9d\xa4\xe2\x9d\xa4\xe2\x9d\xa4\xe2\x9d\xa4\xe2\x9d\xa4\xe2\x9d\xa4\xe2\x9d\xa4\xe2\x9d\xa4\xe2\x9d\xa4\xe2\x9d\xa4\xe2\x9d\xa4\xe2\x9d\xa4\xe2\x9d\xa4\xe2\x9d\xa4\xe2\x9d\xa4\xe2\x9d\xa4\xe2\x9d\xa4\xe2\x9d\xa4\xe2\x9d\xa4\xe2\x9d\xa4\xe2\x9d\xa4\xe2\x9d\xa4\xe2\x9d\xa4\xe2\x9d\xa4\xe2\x9d\xa4\xe2\x9d\xa4\xe2\x9d\xa4\xe2\x9d\xa4\xe2\x9d\xa4\xe2\x9d\xa4\xe2\x9d\xa4\xe2\x9d\xa4\xe2\x9d\xa4\xe2\x9d\xa4\xe2\x9d\xa4\xe2\x9d\xa4\xe2\x9d\xa4\xe2\x9d\xa4\xe2\x9d\xa4\xe2\x9d\xa4\xe2\x9d\xa4\xe2\x9d\xa4\xe2\x9d\xa4\xe2\x9d\xa4\xe2\x9d\xa4\xe2\x9d\xa4\xe2\x9d\xa4\xe2\x9d\xa4\xe2\x9d\xa4\xe2\x9d\xa4\xe2\x9d\xa4\xe2\x9d\xa4\xe2\x9d\xa4\xe2\x9d\xa4\xe2\x9d\xa4\xe2\x9d\xa4\xe2\x9d\xa4\xe2\x9d\xa4\xe2\x9d\xa4\xe2\x9d\xa4\xe2\x9d\xa4\xe2\x9d\xa4\xe2\x9d\xa4\xe2\x9d\xa4\xe2\x9d\xa4\xe2\x9d\xa4\xe2\x9d\xa4\xe2\x9d\xa4\xe2\x9d\xa4\xe2\x9d\xa4\xe2\x9d\xa4\xe2\x9d\xa4\xe2\x9d\xa4\xe2\x9d\xa4\xe2\x9d\xa4\xe2\x9d\xa4\xe2\x9d\xa4\xe2\x9d\xa4\xe2\x9d\xa4\xe2\x9d\xa4\xe2\x9d\xa4\xe2\x9d\xa4\xe2\x9d\xa4\xe2\x9d\xa4\xe2\x9d\xa4\xe2\x9d\xa4\xe2\x9d\xa4\xe2\x9d\xa4\xe2\x9d\xa4\xe2\x9d\xa4\xe2\x9d\xa4\xe2\x9d\xa4\xe2\x9d\xa4\xe2\x9d\xa4\xe2\x9d\xa4\xe2\x9d\xa4\xe2\x9d\xa4\xe2\x9d\xa4\xe2\x9d\xa4\xe2\x9d\xa4\xe2\x9d\xa4\xe2\x9d\xa4\xe2\x9d\xa4\xe2\x9d\xa4\xe2\x9d\xa4\xe2\x9d\xa4\xe2\x9d\xa4\xe2\x9d\xa4\xe2\x9d\xa4\xe2\x9d\xa4\xe2\x9d\xa4\xe2\x9d\xa4\xe2\x9d\xa4\xe2\x9d\xa4\xe2\x9d\xa4\xe2\x9d\xa4\xe2\x9d\xa4\xe2\x9d\xa4\xe2\x9d\xa4\xe2\x9d\xa4\xe2\x9d\xa4\xe2\x9d\xa4\xe2\x9d\xa4\xe2\x9d\xa4\xe2\x9d\xa4'
p1137
aS" =APPLE AND ANDROID MOBILE DEVICES ONLY= Do you shop on Amazon or iTunes? \nIf yes, follow the instructions below for a free TEN DOLLAR e-gift card of \nyour choice for Amazon or iTunes! I. Open your MOBILE (iOS/Android) web \nbrowser and go to tinyurl .com\\giftAMAZON II. Install any app and keep the \napp open for at least 30s to receive credit III. Open your web browser \nagain to pick a TEN DOLLAR e-gift card for Amazon or iTunes I have two \nAndroid devices so I've already redeemed 2x Amazon gift cards!"
p1138
aS'Im on Mars and Can you guys stop that shit??? '
p1139
aS'POOOTATOO!!'
p1140
aS'WHAT?'
p1141
aS'Potato And mojo jojo Sound the same!!'
p1142
aS'PO-TE-TO'
p1143
aS'how the hell is this a top comment!?'
p1144
aS'Nigahiga is the funniest person on YouTube'
p1145
aS'WTf 8million subs '
p1146
aS'no dislikes on any video'
p1147
aS"There's a video for it."
p1148
aS'What!!??... LOL! Po.ta.to! LOL'
p1149
aS'he has them on Higatv'
p1150
aS'Throw it at your friends throw it at tour enemy throw it at your dog bark \nthrow it at you cat. E'
p1151
aS'he really looked like ruffio back then'
p1152
aS'no teehee'
p1153
aS"Don't u luv talking 'bout big balls?...JK"
p1154
aS'oh po_ta_to '
p1155
aS'@lilmizomy totally ( mind shattered beyond repair )'
p1156
aS'Where is the teehee???'
p1157
aS'Lol'
p1158
aS'So. Much. Views. For. An. Awsome cool bouncing inflatateable green ball'
p1159
aS'Meow throw it at you (idk) throw it at this lamp throw it at you potato ugh \npotato'
p1160
aS'hahaha you are so funny!!!!!!!!'
p1161
aS'TeeHee'
p1162
aS'No, the reason the guy has subscribers is because he was one of the first \nYouTubers ever. He also continues to roll out good quality, funny videos. \nStop being so butthurt and get over yourself, please.'
p1163
aS'Shut up and take my money!'
p1164
aS'now he did '
p1165
aS'where is the TEEHEE!'
p1166
aS'i actually have a big bouncing inflatable green ball LOL'
p1167
aS'potato? :D'
p1168
aS'I HAVE NO BALL'
p1169
aS'This was made 4 years ago... I think he knows he forgot the TEEHEE'
p1170
aS'OH... POOTTTAAATTTOOO'
p1171
aS'Did you know Lamborghini was originally a tractor company'
p1172
aS'where is teehee ? '
p1173
aS'i must be amazing then right :o i have survived 16 years of not knowing who \nthis chuck norris guy is... maybe im like the next him or something!!!!!!! '
p1174
aS"Your hair looks freaking epic! I'd totally do that to my hair! x3"
p1175
aS'TEEHEE!'
p1176
aS'hax'
p1177
aS'"i have no ball >:(" thats what she said ._.'
p1178
aS'Shut up and take my money'
p1179
aS'No teehee'
p1180
aS"Hey please check out my channel I am trying to get it going so I can get on \nthe partnership program and make money off of it ps Ryan you're awesome I \nwish my videos were as awesome as yours"
p1181
aS'throw it at your lamborghini! *tractor*'
p1182
aS'Dear Ryan, can you go back to your old videos that does not have a Teehee \nand add one to the end of them?'
p1183
aS'Awesome'
p1184
aS'Lol looking at him back then he looks sooo different'
p1185
aS'MAPOTI'
p1186
aS'They forgot the teehee'
p1187
aS'Very funny'
p1188
aS'WHERE DA FUCK IS THE "TEEHEE"'
p1189
aS'WHAAAAATTT'
p1190
aS'Wait, so how can I order it?'
p1191
aS'my laptop shutdown for thousands of years so now here I am with my laptop \nfucked up its my great great great great grandpas'
p1192
aS'He looked so cute with that hair but he still is hot now '
p1193
aS'Potat'
p1194
aS'TEEHEE'
p1195
aS'Po ta to'
p1196
aS'question Ryan did you have Marley at this time?'
p1197
aS'Po-ya-to'
p1198
aS'ye I am in 3010'
p1199
aS'/watch?v=MLxEYtMXe_I'
p1200
aS'I have a big bouncing inflatable BLUE ball, I guess I need this one to make \nme happy again :P'
p1201
aS"Has anyone else relised that there is no dislikes? Let's keep that way... \nThis man is a comedic genuis!"
p1202
aS"He didn't say TEEHEE!!! "
p1203
aS'I want your Lamborghini lol'
p1204
aS'love the way u said "what" haha'
p1205
aS'Hahaha lol XD'
p1206
aS'You forgot, teehee!!'
p1207
aS'Lmao young ryan throw it at your lamborghini lol lawn mower comes up'
p1208
aS'Heyy Guyz ! I\'m Ahsani John..16 Years old singer From Brussels I\'hve 8-9 \nSongs On youtube ..They\'re all Not so Good But some Of Them you will like \nit i hope :/ Can U guyz Plz Take 5mins Of your life N..Type "Ahsani John \nBroken\'Heart" On youtube ..N Comment if you like The Song Or Not ..i Wrote \nThe Lyrics By Heart Please Check it Out :) It Will make a HUGE difference \nTo me ! Thaaaaaanks :) '
p1209
aS'Lol, this video almost identical to Steve Ballmer that intoduced windows \n1.0. But this video is a joke... :D'
p1210
aS'new hair!!!! right? '
p1211
aS'I have a big bouncy inflatable BLUE ball lol ;)'
p1212
aS'Haha! This made my day'
p1213
aS"why isn't there a teehee "
p1214
aS'No tehee'
p1215
aS'how in the heck can he talk so fast !!??'
p1216
aS"Can't. Stop. Staring. At. His. Eyebrows. "
p1217
aS'I WANNA BUY IT!!!!!!!!!!!!!!!'
p1218
aS'POH-TAY-TOU'
p1219
aS'POTATOO'
p1220
aS'no teehee? '
p1221
aS'Ooh po-ta-to'
p1222
aS' throw it at your dog bark throw it at your cat MEOW'
p1223
aS'yaaaaaaaaaaaa'
p1224
aS'Po Ta To'
p1225
aS'meow. bark. POTATO.'
p1226
aS'TEEHEE'
p1227
aS'I broke the replay botton :3'
p1228
aS'aww yeah, a free virus!!!'
p1229
aS'Dude, this must be like, the 1st movie he made or something XD'
p1230
aS"No I'm watching in 3013 on my alien tablet."
p1231
aS'true tha bro'
p1232
aS'hahahahhahahahhahahahahhahahahahhahahaha And For The Most Daring throw it \nat this potato uuuhhhhh... potato LOVE IT'
p1233
aS'Awesome'
p1234
aS'I hate these as much as you do but plz check out my channel'
p1235
aS':3 potato'
p1236
aS'That Hair.'
p1237
aS'WHY NO TEEHEE????'
p1238
aS'Oh Potato! Lol '
p1239
aS'OMG LMFAO THROW IT AT YOURSELF XDD'
p1240
aS'No I am watching this on June 29,2009'
p1241
aS'what up wit his hair? lol'
p1242
aS"I'm watching it at 2 000 000 BC on my iRock!"
p1243
aS'watch?v=auA0Qnff_14 please watch our videos guys!'
p1244
aS'OH PO TA TOOOOO'
p1245
aS'Aaarg stop saying that the first time i heard that comment it was okay and \nnow its SO FUCKING ANNOYING. '
p1246
aS'MEOW.'
p1247
aS'PO TA TO'
p1248
aS'LOLOLOLOLOLOLOLOLOL'
p1249
aS'0:35 WAHAHAHAHAHAAH'
p1250
aS'Yeah, that is true ._.'
p1251
aS'So that was like, double, quadruple negative? :P'
p1252
aS'What was with the wedding ring? Did I miss something?'
p1253
aS'Dang I only have an Big Bouncing Inflatable Blue Ball.... Well I guess my \nBig Bouncing Inflatable Blue Ball is out of date. Time to upgrade to the \nThe Big Bouncing Inflatable Green Ball!!!'
p1254
aS"I don't not love the big bouncing inflatable green ball. JK"
p1255
aS'NO TEEHEE?'
p1256
aS'people who get top comments on videos like this, 21 MILLION views, are like \nchuck norris'
p1257
aS'NEEEEEED TEEHEE!!!!!!!!!!!'
p1258
aS"takin' it back."
p1259
aS'That cat sounds like batman.'
p1260
aS"I'm watching this in 0013 with my iStone."
p1261
aS"You're acting like a shit-head!"
p1262
aS'No teehee'
p1263
aS"There's no TEEHEE :( "
p1264
aS'Where is the teehee???'
p1265
aS"WHAT? NO! IM WATCHING THIS IN THE 1980's!"
p1266
aS'No TeeHee?'
p1267
aS"I'm CatMAN"
p1268
aS'Watched this when I was like 9'
p1269
aS'I have The Big Bouncing Inflatable Blue Ball with spikes =)'
p1270
aS'This brings back memories :))'
p1271
aS'My brother and nephews love this video they crack up every time they watch \nit.'
p1272
aS"What the heck is he doing with his eyebrows... It's scaring me..."
p1273
aS'what the heak'
p1274
aS'So Lamborghini now make garden equipment too, then.'
p1275
aS'like, if your going to watch this vid on the future!'
p1276
aS'Haha so funny'
p1277
aS'Where can I get one?'
p1278
aS'I just made my first funny commercial! Please check it out! '
p1279
aS'What happend to the tee hee?'
p1280
aS'He,t'
p1281
aS"no I'm watching it in 2020 on my red-retarder iPod Human"
p1282
aS'patato. '
p1283
aS'can u actuall get a big bouncy big whatever ball '
p1284
aS'throw it at a dog BARK...throw it at a cat MEOW...throw it at a potato OOF \nPOTATOOO!! xD LOL'
p1285
aS'potato '
p1286
aS'MAPOTI'
p1287
aS'PO TA TO'
p1288
aS'O potato'
p1289
aS'hes gotta thing for them'
p1290
aS'Whaaaaat?'
p1291
aS'This was the first video I watched of nigahiga in 2009 XD still watching it \nin 2013 :) love you Ryan'
p1292
aS'wwhhat !?'
p1293
aS'Through it at your lambo lol your hot'
p1294
aS"I'm DEFINITELY buying that!"
p1295
aS'Or :36. Or :37! :D'
p1296
aS'PO TA TO'
p1297
aS'Same'
p1298
aS'how long did it take to stand up that potato! '
p1299
aS'Throw it at your dog, (bark), throw it at your cat, (meow) LOLOLOL'
p1300
aS'7 years? Try 4 years dude, this was uploaded in 2009'
p1301
aS'How in the world does he talk so fast?!'
p1302
aS'this was made before he did the teehee thing'
p1303
aS'OMG I HAVE A BIG PINK BALL WITH PURPLE STARS AT MY HOUSE AND HER NAME IS \nPATRICIA'
p1304
aS'Awesome Ryan is AWESOME. I just wish he brings back these kind of vids.'
p1305
aS'where do i buy this product?'
p1306
aS'The big ball is a exersize ball'
p1307
aS"this was the first nigahiga video i ever watched... i was in the 6th grade. \ni started to watch more of his videos, & they made me laugh. i thought they \nwere hilarious. now he's more popular, & i'm glad i discovered & came \nacross his channel. :) thank u for being funny, ryan. ^.^"
p1308
aS"LOL I couldn't understand HALF of it..."
p1309
aS"Don't enter my channel !"
p1310
aS"=APPLE AND ANDROID MOBILE DEVICES ONLY= Do you shop on Amazon or iTunes? If \nyes, follow the instructions below for a free TEN DOLLAR e-gift card of \nyour choice for Amazon or iTunes! I. Open your MOBILE (iOS/Android) web \nbrowser and go to tinyurl .com\\giftAMAZON II. Install any app and keep the \napp open for at least 30s to receive credit III. Open your web browser \nagain to pick a TEN DOLLAR e-gift card for Amazon or iTunes I have two \nAndroid devices so I've already redeemed 2x Amazon gift cards!"
p1311
aS"He doesn't know who chuck noriss is... we all wish him best luck surviving \nthe next day."
p1312
aS'Wait......what?'
p1313
aS'Dont tell them they cant know his true form.'
p1314
aS'Wtf did he just say?!?'
p1315
aS'......'
p1316
aS'Whaaat? :o'
p1317
aS'Was curious as to how many hits a video on bouncing a ball would get. This \nhas a pretty good hit count eh?'
p1318
aS'How the hell do u tALK that fast'
p1319
aS'Funnu'
p1320
aS"BECAUSE THEY'RE AWESOME!!!!!!!!!!!!!"
p1321
aS"I don't understand english quickly. Nut when ryan speaks, I don't kow how I \nunderstand it!!! Even though he speaks a way too fast..."
p1322
aS'The only video without a Tee Hee! '
p1323
aS'potato!!!!!'
p1324
aS'NOT THE LAMBORGHINI DX'
p1325
aS'DEAR RYAN,,, CAN YOU TALK SLOWLY... JUST KIDDING LOVE YOU RYAN TEEHEE'
p1326
aS'Not as fun to say WACKY WAVING INFLATABLE ARM FLAILING TUBE MAN.'
p1327
aS'"gasps" no teehee!!!'
p1328
aS'wheres the TEEHEE??'
p1329
aS'This is probably my fave Nigahiga video'
p1330
aS"Because lamps are awesome. But you would have to be awesome to understand \nthat. Which you aren't. So you don't."
p1331
aS'The world may never know... o_o'
p1332
aS'"Throw it at your Lamborghini!" ...and it\'s a lawn mower. XD'
p1333
aS'Lamps are awesome. Peace out.'
p1334
aS'Po-ta-to\xf0\x9f\x98\x86'
p1335
aS' I will throw it at the daring patatoe'
p1336
aS'No.'
p1337
aS'Eh ok'
p1338
aS'POTEEEEITOOO'
p1339
aS'I have watch this lots'
p1340
aS'u move ur eyebrows toooo much but,actuallyyy i like tht!'
p1341
aS'thank u rayn 4that teehee'
p1342
aS'i did :( it is really sad but i still love him :) hbu? '
p1343
aS'he really changed ahah '
p1344
aS'"its not shamwoohoo, its shamWOOHOO"'
p1345
aS'This is a 49 second long video about a inflatable green ball. And 21 \nmillion people have watched it. O_O'
p1346
aS'TEEHEE!there?'
p1347
aS'Me too'
p1348
aS'U forgot something'
p1349
aS'lol, his eyebrows! '
p1350
aS'po tatoo '
p1351
aS'why did people even like it?'
p1352
aS'I HAVE NO BALL!'
p1353
aS'Its a big bouncy inflatable ball'
p1354
aS'Hes a Fake!'
p1355
aS'did you dye your hair?'
p1356
aS'Those where the good days.'
p1357
aS'I need to green balls'
p1358
aS'How did he say all that so fast????!!!!!'
p1359
aS'o_0 ummm....'
p1360
aS'I would take 2 BIG BOUNCY INFLATABLE GREEN BALLS TO GO '
p1361
aS'He talked too fast'
p1362
aS'Love te "waaaat?!" XD'
p1363
aS'/watch?v=OrOyIyeis3o'
p1364
aS'I have no balls XD'
p1365
aS'truck'
p1366
aS'vf the green ball '
p1367
aS'no'
p1368
aS'Po, Po-ta-to XD'
p1369
aS'you look better now a days then you did in this video or how to be ninja '
p1370
aS'Haha'
p1371
aS'...and 4 the really daring throw it at this potato. ohh po-ta-to hahahaha!'
p1372
aS'its the lamborghini grassablo'
p1373
aS'potatoe....... '
p1374
aS'thumbs up if you want the big green ball '
p1375
aS':0 there was no tehee'
p1376
aS'thanks for liking check out my chanel '
p1377
aS'teehee'
p1378
aS'teehee?'
p1379
aS'The first generation'
p1380
aS"He'd make a good salesperson. "
p1381
aS'Uh u forgot teehee'
p1382
aS'What did I just watch'
p1383
aS'lol'
p1384
aS'man that must have been really hard to say all that really really really \nfast u go dude'
p1385
aS'Y no teehee'
p1386
aS'Big green inflatable bouncing ball'
p1387
aS'Hey everyone, check out MeanwhileInTheWorld1. Vids r rilly gud0! I bet u \nwont regret it!'
p1388
aS'woahhhhh!!! Dat hair....'
p1389
aS'no im watching this in 1621 with my istone'
p1390
aS'aahhh po tato '
p1391
aS"No? It's not?"
p1392
aS'There are bloopers. they are on his second channel (HigaTV) '
p1393
aS"because he's broken so many with that big bouncy inflatable green ball"
p1394
aS'Ooooooooooooooooooooooooooooooooooooooooooooooooooooooooooooooooooooooooooooooooooooooooooooooooooooooooooooooooooooooooooooiooooooooooooooooooooooooooooooooooootooooooooooooooooooooooooooooooooooooooooooooooooopoooooooooooooooooooooooooooooooooooooooooooooooooooooooooooooooopooooooooooooooooooooooooooooooooooooooooooooooooooooooooooooooooooooo\xc3\xb4ooo\xc5\x93oooooooooooppppppppppppppppooooooooooooooooooooooooooooooooooooooooo'
p1395
aS'haha go watch luanlegacy!'
p1396
aS'Hey you made this vid while its my birthday'
p1397
aS'No TEHEE'
p1398
aS'TEEHEE?'
p1399
aS'POTATOOO..LOL '
p1400
aS'Nigahiga you awesome'
p1401
aS'Did he get.......highlights!?'
p1402
aS"There's no Teehee..."
p1403
aS'Oh! POTATO!'
p1404
aS'The climax of this story "...POTATO"'
p1405
aS'Hair is different'
p1406
aS'What'
p1407
aS'Glenn XD'
p1408
aS'you can'
p1409
aS'OMG I WANT IT! *screaming like a 4 year old wanting a toy in a store*'
p1410
aS'I missed that. Can you start again from the big bouncy inflatable green \nball thing?'
p1411
aS'Oh PO TA TO best part xD'
p1412
aS'Dat hair'
p1413
aS'What'
p1414
aS"ryan are your eyebrows having a spasm attack? haha i'm just joking you're \nthe best :)"
p1415
aS'Lol no teehee'
p1416
aS'My second video! youtube.com/watch?v=E6Fq0dUcK5w . . . . . .'
p1417
aS'why do ppl keep asking that in his videos. HE WONT ALWAYS HAVE A TEEHEE'
p1418
aS'Nice vid'
p1419
aS'Me to BirDie pie'
p1420
aS'what kind of Lamborghini was that?'
p1421
aS'I have no ball!!!'
p1422
aS'going back to watch this after all these years :p crazy how fast u spoke! \nevery video youve made has been so funny and entertaining :)'
p1423
aS"Where's *"
p1424
aS'Is it bad that I watched this, looked over to the side, and saw a big \nbouncy inflatable green ball?'
p1425
aS'lol wheres the TEEHEE :D'
p1426
aS"Oh wow I just noticed this but you should pay attention to his eyebrows \nwhen he's talking fast, it's hilarious!"
p1427
aS'Ohh sounds tasty~ Potato stew?'
p1428
aS"WHAT IF I CAN'T FIND A POTATO LIKE THAT ONE??"
p1429
aS'Spaz attack. Still love u though'
p1430
aS'First video I ever watched thanks to mah friend'
p1431
aS'So adorable'
p1432
aS'The movement of your eyebrows is so.... Intriguing.'
p1433
aS'And my time machine says that your comment is correct.'
p1434
aS"Where's the TEHE"
p1435
aS"Where's the TEEHEE"
p1436
aS"This got over 21 million views.. It's amazing how you've changed Ryan. I \nlove you."
p1437
aS'Cause that was the olden days.'
p1438
aS"Don't be stupid its not 2000 yet"
p1439
aS'OMG!! how do i buy it!'
p1440
aS'he didnt say teehee!!!'
p1441
aS'no teehee! :('
p1442
aS'yay i wnt a green ball '
p1443
aS'His hair is so different! XD'
p1444
aS'why are all the great videos i watch made on my birthday?!'
p1445
aS"I'm in 2299 and I'm still watching it! "
p1446
aS'Please go and watch LifeAsLibbyLou'
p1447
aS'JB has no ball.'
p1448
aS"What's up with your hair"
p1449
aS'This is so old. :,D'
p1450
aS'This is the best video '
p1451
aS'How can u say it so fast \xf0\x9f\x98\xb3'
p1452
aS"There's no TEEHEE at the end of this video!"
p1453
aS'wheres my Big Bouncing Inflatable Green Ball'
p1454
aS'Ryan you paint hair??'
p1455
aS'You been living on a tree? Everyone uses iBranch...'
p1456
aS'XD'
p1457
aS'where is the teehee? '
p1458
aS'TEEHEE!'
p1459
aS'Love the potato part!!'
p1460
aS'"throw it at your dog\' : bark "throw it at your cat" : meow Seems lidget '
p1461
aS'What no teehee!'
p1462
aS'pootaayyyytoooeee'
p1463
aS"CAN'T U GUYS UNDERSTAND WHAT THIS GUY IS SAYING WOW I U UNDERSTAND YOUR \nPROBLEY ASIAN LIKE ME!"
p1464
aS'Po.Ta.To.'
p1465
aS'Whattttt?'
p1466
aS'WHAAAAAT? :3 So cute when he says that.'
p1467
aS"No I'm watching this on June 29,2009"
p1468
aS'BOO HOO !! I love that tell me that u like that !! boooohhhhhhooou!'
p1469
aS'anyone else all nostalgic right now ?'
p1470
aS'No We Died In December ;3'
p1471
aS'Teehee'
p1472
aS'people still watch this? wow it is sooo old now!'
p1473
aS'MAPOTI!'
p1474
aS'Lol'
p1475
aS'MAPOTI!'
p1476
aS'throwback thursday'
p1477
aS'That doesnt mean it doesnt count ;)'
p1478
aS'Green ballllll'
p1479
aS"No, I'm watching it in June 29, 2009."
p1480
aS'WHERES THE FUCK TEEHEE AT THE END'
p1481
aS'4 years on youtube and this video is still funny!'
p1482
aS'the hair '
p1483
aS'From "throw it at your friends\' to "and for the really daring, throw it at \nthis potato." I was not able to hear the rest, I was laughing too hard.'
p1484
aS'Robby go away'
p1485
aS'NO TEEHEE!!!!!!!!!!!'
p1486
aS'No..It was the lamborghini!'
p1487
aS"YOU DIDN'T SAY TEEHEE"
p1488
aS'Stop jo spamming!'
p1489
aS'OH MEMORIES!'
p1490
aS'Throw at your friends!throw it at your enemies!throw it at your dog \n"bark"!throw it at your cat"meow"!'
p1491
aS'oh... Po-te-toe.. haha '
p1492
aS'i liked when the potato said potato'
p1493
aS'Your hair......'
p1494
aS'Guys plz check out my channel! You will help me a lot!'
p1495
aS"It's a fake."
p1496
aS'you forgot the teehee'
p1497
aS'OUGH. POTATO'
p1498
aS"Hello! I'm the Nagainst, I really need you to help me. My family is going \nthrough a very difficult time financially, they can not buy a notebook for \nme. I love making videos, my dream is to be a youtuber, but I'm not have \ncomputer, so I can not make my videos more. While I try to earn my Notebook \nby town hall, giving me help like this comment and subscribing to my \nchannel. Please help me to realize this dream, I have potential. Note: I'm \nin a lan house. Thank you for your attention."
p1499
aS'No teehee and your hair is like....so awesome then'
p1500
aS'lol funny '
p1501
aS'throw it at your dog: AAARRRFFF!!! throw it at your cat: MMEEOOWW!!! me: \nhahahahahahaha!!!!!!! i did that once at my cat!!'
p1502
aS'Oh! Po ta toe'
p1503
aS'I WANNA WATCH THE NEW EVIL DEAD!'
p1504
aS'That would be a complete copy of smosh'
p1505
aS'This the best video ryan have nade'
p1506
aS'Wait...what?'
p1507
aS'Does it come in black? - Bruce Wayne'
p1508
aS'can i have potato '
p1509
aS'Where is the TEEHEE?'
p1510
aS"What's with his hair in this?"
p1511
aS'fast ass'
p1512
aS'What the ***k'
p1513
aS'I like the way you think!'
p1514
aS'*teehee'
p1515
aS'49 seconds 21 million views!'
p1516
aS'Ryan, wtf? In the past you was having blond hair? O_o'
p1517
aS'i want to see all the outtakes...'
p1518
aS"Where's the TEHEE?!"
p1519
aS'Lamps are people too! You are heartless!!!'
p1520
aS'I have no BALLS! LOL funny as hell '
p1521
aS'I have no ball :('
p1522
aS'Lol'
p1523
aS'Its... not the SAME!'
p1524
aS'because this was his old vid.'
p1525
aS'how long did this video take to make??? oh and i like the Lamborghini. '
p1526
aS'What is this sorcery?'
p1527
aS'back when ryan had blonde in his hair'
p1528
aS'Cool'
p1529
aS'Awww he honored the old oxi clean guy:D what about the sham woohoo?'
p1530
aS"WHERE'S THE NUMBER TO CALL OR WEBSITE TO BUY IT OFF OF, I NEED THIS \nBALL!!!!!!!"
p1531
aS'WOW I wanna inflatable big ball green ball wait \nWWWWWWWWWWWWWAAAAAAAAAAAAAAAAAATTTTTTTTTTTTT'
p1532
aS'Thumbs up if your watching this in 2013'
p1533
aS'po ta to'
p1534
aS'Lol'
p1535
aS'holy shit this hair..'
p1536
aS'just color it green with a sharpy '
p1537
aS'WHERES THE TEEHEE????'
p1538
aS'and for the really dearing throw it at ths potatoe PO-TA-TOE teehee'
p1539
aS'Did the potato die?'
p1540
aS'*Potato* Not today'
p1541
aS'everyone stop the video and press 1. just do it'
p1542
aS'youre funny'
p1543
aS'Sorry Ryan but I reported this video for potato abuse... Nah just joking'
p1544
aS'lol '
p1545
aS'0:47 to 0:49'
p1546
aS'He looks soooo different'
p1547
aS'OH POTATO'
p1548
aS'why 360p why????'
p1549
aS'Lol'
p1550
aS"I remember watching this a few years ago. Time flies by so fast :')"
p1551
aS'UH P.O.T.A.T.O!!!! '
p1552
aS'Ryan: 2007 looks like a 13 year old, 2013 looks like a 21 year old. Me: \n2007 looks like a 7 year old, 2013 looks like a 12 year old. IM 14!'
p1553
aS'TEEHEE'
p1554
aS'hes HOT with blonde hair!!!!!!'
p1555
aS'good job for revealing your age over the internet'
p1556
aS'Lmfao oh! Potato'
p1557
aS'Where can I order?'
p1558
aS"HAHAHAHAHAHAHAHAHAHAHAHAHAHAH THAT CAT AND DOG :')"
p1559
aS'He made it cool'
p1560
aS'Green Ball'
p1561
aS'PO-TA-TO! LOL :D'
p1562
aS'Its a big bouncy inflatable exercise Ball!'
p1563
aS'I AGREE!'
p1564
aS'He forgot the teehee'
p1565
aS"i'll say is for you, teehee "
p1566
aS'Ryan had the part blonde hair thing before it was cool. '
p1567
aS'MAPOTI'
p1568
aS'Remember when this video had 1,000 views? Yea, neither can I.'
p1569
aS'LOL the meow sound'
p1570
aS'He looks like Glenn'
p1571
aS'Hey!'
p1572
aS'what number do I call to get the big bouncy inflatable GREEN ball?'
p1573
aS'TEEHEE'
p1574
aS'O potato'
p1575
aS'no it more like POOTAAAYYTTOOO'
p1576
aS'the acc is fake'
p1577
aS'busta....'
p1578
aS'are you alien? because you have green ball'
p1579
aS'0:27'
p1580
aS'hahahahaha'
p1581
aS'No TEEHEE'
p1582
aS'WHAAAAAAAAAAT?!??'
p1583
aS'NO TEEHEE'
p1584
aS'im pretty sure this is my 125th time watching this video'
p1585
aS'Ryan...why isnt it purple? NO ONE CARES ABOUT PURPLE!!!!!'
p1586
aS'Gaga'
p1587
aS'Whacky waving inflatable arm flaying tube man xD'
p1588
aS'poor potato. '
p1589
aS'Potato love it'
p1590
aS"Or 'cause he's not the real Chuck Norris but he's just a wannabe."
p1591
aS'and whats guns you weak little loser'
p1592
aS'99% of youtube is chuck norris and barrack obama'
p1593
aS"THERE'S NO TEE HEE!! NOOOOOOOOOOOOOOOOOO!!!!"
p1594
aS'49 seconds, 20,000,000 views '
p1595
aS'And scouts'
p1596
aS'y u no teehee'
p1597
aS'WWWAAATTT the heck this is AWESOME!!!!! hahahahaha'
p1598
aS'love u'
p1599
aS'My green ball went through 6 potatoes, 2 lambos, 5 cats, 3 dogs, 10 friends \nand 4 lamps. I love my big bouncing inflatable green ball. :D'
p1600
aS'I missed the TEEHEE'
p1601
aS'What did you say dick head your a fat ugly wise chinese btch take off those \nglasses you ugly fat sht nice hair cut too u ugly mofo'
p1602
aS'Why the fuck is there no teehee u btich'
p1603
aS'PO TA TOE'
p1604
aS'good god...! your eyebrows! '
p1605
aS'U dident say teehee?'
p1606
aS'I have no BALL!'
p1607
aS'this is so wrong, on so many levels '
p1608
aS'An old video, but still fucking awesome!!!! Go nigahiga!!!'
p1609
aS'I though Chuck Norris could spell "one" correctly'
p1610
aS'Poor potato ):'
p1611
aS'Lol'
p1612
aS'Why do you keep responding on yourself chuck?'
p1613
aS"hey homeboy I did 18 years in prison and don't find a lot of things that \nmake me laugh but your videos are really funny man! straight up ese I am \nabout to spend the next 4 hours watching your videos! thanks lil homie! "
p1614
aS'No teehee?'
p1615
aS'*one and if you were the real Chuck Norris....then everyone here would no \nlonger exist...0.0'
p1616
aS'At least i got some videos instead of Penguins'
p1617
aS'lol I wanna throw one at my Lamborghini!'
p1618
aS'still funny in 6095'
p1619
aS'51 people are time lords...'
p1620
aS'Through it at your Lamborghini'
p1621
aS'so much has changed in 4 years... '
p1622
aS'first niga higa i watched...'
p1623
aS'BBIGB IS AWESOME '
p1624
aS"I'm using my BFF's account tomorrow"
p1625
aS'what the fuck just happened'
p1626
aS'WHEEEEEEEEHEEHEEHEEHEEHEEHEEHEE *falls on floor laughing*'
p1627
aS'ya i know im not stupid im saying that his videos changed alot from this \nstuf to his new stuf'
p1628
aS'throwback.'
p1629
aS'Well screw that buy my big bouncing gray ball its better its a 10 value for \njust 29.99 order now 180 big ball'
p1630
aS'Ryan Higa is Ryan Higa and Austin Smith will be Austin Smith'
p1631
aS'But does it his that lamp? '
p1632
aS'never gets old'
p1633
aS'Hahaha one of my favorites '
p1634
aS'We have been watching you for years and we wanted to thank you for \ninspiring us to start our own channel (which just passed 2,300 subs!). You \nare the best :)'
p1635
aS'Wait wait. You NEVER said how to order one! I have no ball either. I too \nwant to throw a big inflatable one at a potato, and maybe at a durian too!'
p1636
aS"ok maybe i don't "
p1637
aS'NO SHIT'
p1638
aS'uhmmm, no TeeHee? :('
p1639
aS'here at balls australia, we love all kinds of balls. And this ball here is \nno exception'
p1640
aS"i will be a MAPOTI but *you're"
p1641
aS'or do i.......'
p1642
aS"That's a pretty cool Lamborghini."
p1643
aS'Forgot the. Teehe'
p1644
aS"I don't own a Lamborghini, but I own an Mercedes Benz"
p1645
aS'ok jk'
p1646
aS'o-otttttttttttttttttttttttttttttttttttttttttttttt go suck a d**** if u dont \nlike it go ssuck a thing >:O its nigahiga BITCH'
p1647
aS'Lol'
p1648
aS'There is no TEEHEE'
p1649
aS'i have no balls '
p1650
aS'Throw it at your Lamborghini! LOL'
p1651
aS"you're soooo cute!!"
p1652
aS"After being on YouTube for 2 years now, I know how much hate people can \ngive to me when reading these kinds of comments but maybe someone may be \nnicer. My dream is to be an actor and i like to perform, but i cant get in \nperforming school, and i just got 1,147 subs, which is pretty impressive to \nme, but I'll never get noticed with these numbers. If someone would have \nthe heart just to give this a thumbs up and spend all of 30 seconds \nwatching a vid, it would mean the world. Thank you all"
p1653
aS'His face is all ripely at the end'
p1654
aS'There is no Tee Hee!!!!!!!! :O but i like unicorns'
p1655
aS"i like to think i'm nice. sure, i'll watch your videos. however, being rich \nand famous can make you change, so don't lose you're down-to-earth blue \ncollar attitude."
p1656
aS'Potato\xc2\xa1'
p1657
aS'I dont dare to throw the big bouncing inflatebol green ball to a patato'
p1658
aS'Teehee?'
p1659
aS"WTH!?!? There's like, 5 Chuck Norris' on YouTube!?!?!?"
p1660
aS'TEE HEE :) :D ^_^'
p1661
aS'@Aydrey Narwa'
p1662
aS'Big green balls'
p1663
aS'big fbffifjfjfbdjdsnhdhdhs ball'
p1664
aS'This was the first YouTube video I ever watched! It was like 2007 or \nsomthing.'
p1665
aS'he forgot to say "TEEHEE!" '
p1666
aS'Why???'
p1667
aS'lol'
p1668
aS'What number do I call for this product? :p'
p1669
aS'Haha love it!!'
p1670
aS"One of the links in the description says MYSPACE!?!?!?!? It's the last of \nthe prehistoric websites"
p1671
aS'po-ta-to i choose you!!! (trows pokeball)'
p1672
aS'but the potato is dead'
p1673
aS'ahh...good times! i found ur channel thanks to thefinebros (i think) but \nthis is the first video i saw and i loved it! u where great and thanks for \nmaking me laugh my sock off u are great as the old and time still being \ngreat like being ur self! :)'
p1674
aS'BARK'
p1675
aS'Happy Birthday Ryan'
p1676
aS'where do i order :P'
p1677
aS"This video isn't complete without the Tehee"
p1678
aS'TEEHEE????'
p1679
aS'hi nigahiga ur awesome'
p1680
aS'awe... i wish i got one lol'
p1681
aS'You know... Nobody cares.'
p1682
aS'Bark. meow'
p1683
aS'NO! YOU WILL GET A GREEN ONE RIGHT NOW AND YOU WILL LIKE IT!'
p1684
aS'"BALL"'
p1685
aS'suck my D'
p1686
aS'LOL'
p1687
aS'How long did it took to say that so fast'
p1688
aS"i hate people who promote their own videos on comments for other people's \nvideos"
p1689
aS'Nice Lamborghini wish I had one'
p1690
aS'The big bouncing inflatable green ball looks awesome'
p1691
aS"I'm still trying to figure out how he said that "
p1692
aS':O NO TEEHEE >:('
p1693
aS"He's actually from Hawaii"
p1694
aS'still awsome!'
p1695
aS'Boil em, mash em, stick em in a stew?'
p1696
aS'Dear Ryan, can you be a big bouncing inflatable green ball?'
p1697
aS'o po ta to'
p1698
aS'Funny lol ^_^'
p1699
aS'i saw a big bouncy inflatable green ball in the road today. no lie.'
p1700
aS'The first Ryan Higa video I ever saw, back in the summer of 2009.'
p1701
aS"I have a big bouncy inflatable green ball!! AND IT'S GREEN!!!!"
p1702
aS'You forgot the teehee'
p1703
aS'Uh, PO.TA.TO. '
p1704
aS'BARK MEOW'
p1705
aS'old videos >'
p1706
aS'dafaq did I just watch'
p1707
aS'PUUUTAAAATO XD '
p1708
aS'Its not the same !!'
p1709
aS'Teeeheeee?'
p1710
aS'POTAATOO!'
p1711
aS'i would like to order one rite now '
p1712
aS"This should be one of the best video's on his channel."
p1713
aS"After being on YouTube for 2 years now, I know how much hate people can \ngive to me when reading these kinds of comments but maybe someone may be \nnicer. My dream is to be an actor and i like to dance in public, but i cant \nget in performing school, and i just got 1,653 subs, which is pretty \nimpressive to me, but I'll never get noticed with these numbers. If someone \nwould have the heart just to give this a thumbs up and spend all of 30 \nseconds watching a vid, it would mean the world. Thank you all"
p1714
aS'This all started as a humorus conversation that you ruined.'
p1715
aS'MEMORIES!!!!!!'
p1716
aS"where's the teehee"
p1717
aS'what 2013? im watching this on my istone in 200 bc '
p1718
aS'Just watch Wipeout. They have TWO BIG RED BALLS!!!!'
p1719
aS'IT.... hahahha you made my day'
p1720
aS'*thump*'
p1721
aS'No teehee'
p1722
aS'Awww his hair though :")'
p1723
aS'T. Bbgjn'
p1724
aS'barbie24 dear ryan can you be a rockstar'
p1725
aS'Lol lol lol lol lol lol lol lol lol lol lol I wish I had a big bouncy \ninflatable green ball even though im not a gay wad Like you cuz you play \nwith a fake and ugly PENIS!'
p1726
aS'Sweet lambo bro!'
p1727
aS'My youtube browser is messed up heres what happened when i clicked the \n0:27, *click*--"APOLLO.COM FOR YOUR CHANCE TO GO TO SPACE" No joke, i \nclicked it and i heard that. Any fixes for it?'
p1728
aS"you've come so far ryan (x"
p1729
aS'STEPHANO!!!WHY ARE YOU NOT WITH PEWDS!?!?!?'
p1730
aS'What makes less sense?'
p1731
aS'How the heck does he talks so fast! I am so jealous'
p1732
aS'my brain hurts'
p1733
aS'NO TEEHEE!!!!!!!!! :0'
p1734
aS'I need it'
p1735
aS'how do you know '
p1736
aS'Interesting hair'
p1737
aS'i want one'
p1738
aS'to me it is... (-___0)'
p1739
aS'Wtf did u say'
p1740
aS'MySpace ha ha ha ha ha'
p1741
aS'i me some balls '
p1742
aS'"Whaaaaat."'
p1743
aS'no teeheee? :)'
p1744
aS"He didn't say teehee"
p1745
aS'You hurt a potato... Germany is going to get pissed DX'
p1746
aS'Ur eyebrows are having a'
p1747
aS'Soo old but funny!'
p1748
aS'Best #1 Video'
p1749
aS'I liked cheesy grown-top hair ryan.'
p1750
aS'wtf i just watched?? :D'
p1751
aS'Ur so fast to speak wwwwwwwwwoooooooooooooo. \nLolololololololololololololololo'
p1752
aS'how dose he talk so fast! anyways this is funny'
p1753
aS'POSER'
p1754
aS'No, THIS IS.. SPARTAA!'
p1755
aS'Haha lol'
p1756
aS'XD'
p1757
aS'This is one of his older videos :/ '
p1758
aS'Look at how young he looks. X) '
p1759
aS'O_O lambuerghini idk how to spell it'
p1760
aS'i have a red one'
p1761
aS'everyone realize theres no tehee'
p1762
aS'What?'
p1763
aS'is it bad that i dont know :('
p1764
aS"I don't have a ball"
p1765
aS'according to my time machine, it will never not be funny'
p1766
aS'Jeez- you r sooo young in this video!!! ;lll'
p1767
aS'Throw it at your dog----BARK. Throw it at your cat----MEOW! XDDD'
p1768
aS'I like your "whaaaat" sound xD'
p1769
aS'its crazy ive been watching nigahiga since 2009! and nigahiga was the first \nchannel i subscribed to! damn'
p1770
aS'What?!'
p1771
aS'2009 1,098 veiws 2013 20,908,100 veiws Man nigahiga has goten popular '
p1772
aS'Thumbs up whoever watch "The kendama toy" and recall this vid and search \nand watch it again.'
p1773
aS'Po-ta-to.'
p1774
aS'POTATO!!!!!!!!!!!!!!!!!!!!!!!!!!!!!'
p1775
aS'You look good with two-toned hair XD'
p1776
aS'that is hulairius'
p1777
aS'how do you talk so fast? '
p1778
aS'I <3 this vid its SOOOOOOOOOOO funny'
p1779
aS'Forgot the TEEHEE '
p1780
aS'No teehee'
p1781
aS'first video of ryans i ever saw=) ahhh...memories'
p1782
aS'THE BIG BOUNCING INFLATABLE GREEN BALL!....... always ends up breaking \nsomething -_-....'
p1783
aS'the t is not necessary really'
p1784
aS'Lol! This is funny.'
p1785
aS'throw it at ur friends,throws it at ur enemys, throw it at ur dog,throw it \nat ur dog, throw it at your dog,throw it at ur self, throw it at ur \nlamgrgine, throw it at ur lamp,and throw it at a potaeo dont know how it \nspell sorry'
p1786
aS'Your hair :}'
p1787
aS'Love u'
p1788
aS'Dat hair. :3'
p1789
aS'I want da BIGBOUNCINGINFLATIBLEGREENBALL! '
p1790
aS'Lol in the discription!LOL'
p1791
aS'"Whaaat?"'
p1792
aS'Am I the only one who went "PO TA TO" With him? xD'
p1793
aS'Letters "T" and "N" are not close enough for you to make that mistake.'
p1794
aS'Has This ever happened to you! I have no ball! Thats what she said '
p1795
aS'hey guys please come and check out my videos, i just started and im trying \nto get my channel going. a lot of good content is coming just please trust \nme. everyone must start somewhere.'
p1796
aS'no teehee (='
p1797
aS"I'll do it for you. Tee-Hee."
p1798
aS'Thumps Up if you watching This in 2013 Or Mabey b.c on your Cavetube.'
p1799
aS'F and N...'
p1800
aS'pootaatoo! ( potato)'
p1801
aS'This video is 3 years old :-)'
p1802
aS"Isn't this his 1st video?"
p1803
aS'why is his hair blonde'
p1804
aS'This was uploaded 3 years ago ._.'
p1805
aS'potatoe'
p1806
aS'Who agrees Ryan should do a video of him reacting to Kids React to him!'
p1807
aS'mind = blown'
p1808
aS'Happy birthday Ryan!!!'
p1809
aS'OH.. Po-ta-to! xD'
p1810
aS'Extreme overuse of the eyebrows, dude.'
p1811
aS'Lol turn on the captions when watching this video they make absolutely no \nsense because Ryan is talking so fast...'
p1812
aS'no, because it was only uploaded in 2009 '
p1813
aS'All i here is :" balls, balls, balls" hahahaha'
p1814
aS'Just read description. Billy Mays is actually dead?'
p1815
aS'I dOnT sEe SeAn.... '
p1816
aS'U make me feel smarter'
p1817
aS'LOL you awesome!'
p1818
aS'how can i order if i dont know how to?? I need a number or a website. :('
p1819
aS"What's with your hair"
p1820
aS'I wonder if Ryan looks back at his old videos and is amazed at how awesome \nhe is?'
p1821
aS'Tehee?'
p1822
aS"I'll take it!"
p1823
aS'Haha his eyebrows move when he talks!!! XD'
p1824
aS'no TEEHEE o_O??'
p1825
aS'"POTETO" Cx'
p1826
aS'dear ryan can you be a poop head '
p1827
aS'Love your hair in this!'
p1828
aS'Look at Ryan...this was filmed in 2009 wow.'
p1829
aS'He looks like my friend Harry xD'
p1830
aS'Y no teehee? '
p1831
aS'Oh poor tato!'
p1832
aS'Make a video called big bouncy inflatable green ball 2.0'
p1833
aS'This is so funny L.O.L '
p1834
aS'I have no words'
p1835
aS'How the Hell are you able to talk that fast Oo? '
p1836
aS'No TEEHEE at end'
p1837
aS"Where's the teehee"
p1838
aS'WHAAAATT!?!?'
p1839
aS'I have such a dirty mind *----*'
p1840
aS'How do u speak so fast????'
p1841
aS"Wasn't this a commercial? I saw it on T.V. once."
p1842
aS'"Potato"'
p1843
aS'GTFO'
p1844
aS'You sir are a genius. '
p1845
aS'no i am watching this in space in the year of 3014 with my robot family!'
p1846
aS'I mean haha! Stupid spell check'
p1847
aS'Where do I order my big bounce inflatable greeeeen ball !!!!!'
p1848
aS"TeeHee. Where's it at bro?"
p1849
aS'Im convinced I have to get one =D '
p1850
aS'i want 1'
p1851
aS'THATS WHAT SHE SAID'
p1852
aS'Teehee'
p1853
aS'Hohh POTATO!!'
p1854
aS'wibbly wobbly, timey wimey...'
p1855
aS'brb, cavia on your head'
p1856
aS'LOL'
p1857
aS'TEEHEE there. I did it for you'
p1858
aS'So annoying.'
p1859
aS'nice lambo'
p1860
aS'no teehee'
p1861
aS'Yo'
p1862
aS'Moo I mean no!'
p1863
aS'so i can take over the world with a bouncy inflatable green ball... and \nload it into a cannon THE POSSIBILITES ARE ENDLESS... but sadly it touched \na pin and went pop '
p1864
aS'LOOOOOOL'
p1865
aS'bark'
p1866
aS'But... but... you already threw it at the potato. So, yeah!'
p1867
aS"I can say everything he says in this video it's awesome ( I've been \npracticing for like 3 years )"
p1868
aS"WHAT!! Doesn't it turn you on, when he says that!"
p1869
aS'ME AND MY FRIEND ISABELLA WATCH THSI!!!ITS HILARIOUS!'
p1870
aS'Lmao this takes me back. XD Throw it at your dog. Bark! Throw it at your \ncat. Meow! Lmao'
p1871
aS"I just realized, this doesn't have a TEEHEE"
p1872
aS'I like this video and the rest of them '
p1873
aS'TEE HEE?!?!?!?!?'
p1874
aS'whaaaaaaaaaaaaaaaaaaat?'
p1875
aS'BARK ;_;'
p1876
aS'Nice cat noise'
p1877
aS'Can i fly with it'
p1878
aS'20,000,000 + views!!!!'
p1879
aS'love the bark, meow and POTATO!!!'
p1880
aS'Practice.'
p1881
aS'This was funny!'
p1882
aS'No'
p1883
aS'LOL, If they sold this video How To Be Emo'
p1884
aS'...is that a wedding ring'
p1885
aS'Like if the only thing you understood was green ball'
p1886
aS'*in the begining of the vid* .______. i have a dirty mind...'
p1887
aS'This takes me back lmao'
p1888
aS'This is the video that invited me to you NigaHiga :D'
p1889
aS'Big green balls'
p1890
aS'dam u talk mad fast'
p1891
aS'Not the real nigahiga, but okay.'
p1892
aS'Nice lamburgini you have it would be a SHAME if somthing were to happen to \nit'
p1893
aS'He talks so FAST'
p1894
aS'He didnt say teehee'
p1895
aS'Anybody else notice this ball from his older videos? '
p1896
aS'???'
p1897
aS'That Makes Sense!!!!!! '
p1898
aS'I love the way he says what?????'
p1899
aS'Holy shit, this was the first youtube vid i eva dun seen'
p1900
aS'NO TEEHEE WHY WOULD YOU'
p1901
aS'No teehee...?'
p1902
aS'Brings back the memories'
p1903
aS'Watching in 2013'
p1904
aS'whaaat '
p1905
aS'No tee hee yyy'
p1906
aS"I love Ryan's dyed hair Lol __"
p1907
aS'with it you can also! read,run,laugh,cry,tickle,giggle,pickle,fly,look your \nenimies in the eye,and figure out the end of pi'
p1908
aS'well 48 sec wow'
p1909
aS'go look at bikegangproductions on YouTub'
p1910
aS'0:01 sounded SO wrong...'
p1911
aS'No. Teehee?'
p1912
aS'How you can speak so fast? :o'
p1913
aS'-.- stop lying you liar! if you where the friend of the cousin of ryan he \nwould have commented to you and you would off been more famous than that!. \nokay make me believe you! meet ryan.film him and upload it to youtube! NOW!'
p1914
aS'omg ryan, your eyebrows are totally AMAZZIIINNGG!! xD xD xD xD hehe'
p1915
aS'I did this one... SO FLIPPING HARD'
p1916
aS'oh potato lol'
p1917
aS'O PO-TA-TO :O'
p1918
aS'He says Lamborghini and throws it at a riding lawn mower... XD'
p1919
aS'Uhhhhh whaaa!!! Was that'
p1920
aS'This is awsome'
p1921
aS'i have no ball woah o_O'
p1922
aS'too late, you slow, BYE '
p1923
aS'you have no ball i have two'
p1924
aS'throw it at your friends throw at enamies and for real talk throw it at \nthis photato ugh ball photato'
p1925
aS"I'm not hating I love ur vids but, hot can this get 20 million views?"
p1926
aS'WoW no TEEHEES'
p1927
aS'He didn\'t say " TEHEE'
p1928
aS'he forgot the teehee!!!!!!!!!!!!!!!!!!!!!!!!! '
p1929
aS'can you say "The big bouncing inflatable green ball" 10 times non-stop?'
p1930
aS'Po-ta-to!'
p1931
aS'whaaaaaaa-at?'
p1932
aS'ryan there is no teehee'
p1933
aS'No Teehee??!!'
p1934
aS'What about the TEEHEE!!! :) '
p1935
aS'I WANT IT'
p1936
aS"I'm still watching it..."
p1937
aS"I'll take twenty!"
p1938
aS'no dislikes thats how boss the big bouncing inflatable green ball is'
p1939
aS"I love hw he says 'the big inflatable green ball' so fast XD "
p1940
aS'first video i watched.'
p1941
aS'I have a big Pink/purple star inflatable ball in my house :3'
p1942
aS'Thumbs up if you dont care.'
p1943
aS'PO-TA-TO!!,'
p1944
aS'Theres only TEEHEE'
p1945
aS"He didn't say Teehee, waaat?"
p1946
aS'ALL UNDER CONTROL TEEHEE'
p1947
aS'Thumbs up if you got here from Kids React!'
p1948
aS'The sound effects are amazing! What program do you have?'
p1949
aS'Lol at potato'
p1950
asS'time'
p1951
ctime
struct_time
p1952
((I2009
I6
I29
I21
I5
I38
I0
I180
I-1
t(dtRp1953
sS'id'
p1954
V5fDBl1wT2Lk
p1955
s.