(dp1
S'title'
p2
VOff The Pill - Farts
p3
sS'url'
p4
Vhttp://www.youtube.com/watch?v=5pZbpUy7i_s&feature=youtube_gdata_player
p5
sS'image'
p6
Vhttp://i.ytimg.com/vi/5pZbpUy7i_s/0.jpg
p7
sS'comments'
p8
(lp9
S"Hey, i really love your video, that's funny and i even laughed out when i \nwas Boss office!;) I only have one questions, because i'm a video editor \nonline too, can you tell me which video editing tool you're using? Thx\xef\xbb\xbf"
p10
aS'Smelling farts help prevent cancer\xef\xbb\xbf'
p11
aS'palatupusies\xef\xbb\xbf'
p12
aS'He kinda looks like vanossgameing\xef\xbb\xbf'
p13
aS"I mostly like the sound of farts. You squeeze a bottle of soap, and it \nfarts. Your chair moves and squeaks, and it's a squeaky fart. Intestinal \ngas vibrates as it exits the anal sphincter, and is very similar to a fart, \nbut not completely. I use the word fart a lot. Fart fart fart fart fart. Oh \nyeah, and fart.\xef\xbb\xbf"
p14
aS'Who Like farts i do\xef\xbb\xbf'
p15
aS"I don't want to be rude. But I'm curious, what is your race?\xef\xbb\xbf"
p16
aS'Dear Ryan add Shaun too one skitzo \xef\xbb\xbf'
p17
aS'Nigahiga liked Soulja Boy back then\xef\xbb\xbf'
p18
aS"Lol queefs are girl farts.......that's why guys say we don't fart.....or do \nwe =3\xef\xbb\xbf"
p19
aS'Due to science, farting lowers your blood pressure so farting is good.\xef\xbb\xbf'
p20
aS'Lol I did a project on photosynthesis \xef\xbb\xbf'
p21
aS'Girls fart pink smoke this is a fact.\xef\xbb\xbf'
p22
aS'I once heard a.story about a guy who once farted in a small restaurant and \nkilled the guy behind him. when i heard it i laughed in my friends faces \nand they just looked at me. Turns out it was true. Whoops.\xef\xbb\xbf'
p23
aS'Dear Ryan, what should happen if you stopped saying,"Tee Hee" at the end of \nyour videos?\xef\xbb\xbf'
p24
aS'I farted while watching this...\xef\xbb\xbf'
p25
aS'Lol my cat farted before\xef\xbb\xbf'
p26
aS'how honest is that? .... do not you follow the facebook link below to learn \nmore about me ..\xef\xbb\xbf'
p27
aS'Farts can KO a baby\xef\xbb\xbf'
p28
aS'People who hold their fart should Let it go, Let it go.\xef\xbb\xbf'
p29
aS"haha a,u're really cuteeee':)\xef\xbb\xbf"
p30
aS'This video never gets old, still funny like hell\xef\xbb\xbf'
p31
aNaS"What's the intro song?\xef\xbb\xbf"
p32
aS"Why am I watching this on the same day as this video O.o\nIt's September 30 right now DUN DUN DUUUUUUNNNNN\xef\xbb\xbf"
p33
aS"I remember when I was 27, and I gave my Mom a dutch oven. A dutch oven is \nwhen you make a berkins under the covers and pull the covers over the \npersons head so they are trapped with the smell of berkins. It was around 3 \na.m., and I snuck into Mom's bed and let it rip. It was a really powerful \nstinky berkins!!! I pulled the covers over Mom's head and trapped her in \nthe dutch oven. She started screaming that she couldn't breathe, so I let \nher out of the treacherous berkins infused dutch oven. She started chasing \nme, and I slid on some of my Hot Wheels crashing face first into the coffe \ntable breaking my nose! : (    p.s., my Mom makes me call farts berkins.\xef\xbb\xbf"
p34
aS'"Im trying to save lives! what are you doing? You\'re killing babies." OMG i \nCANNOT tell you how much i love this guy!!\xef\xbb\xbf'
p35
aS'dear ryan can you do off the pill burps\xef\xbb\xbf'
p36
aNaS'(((((((((((((((: \xef\xbb\xbf'
p37
aS"Its so true that girls don't fart!\xef\xbb\xbf"
p38
aS'Intro song?\xef\xbb\xbf'
p39
aS'My favorite part of his lists is the etaka :P\xef\xbb\xbf'
p40
aS'I wonder if Ryan gets the comments from the videos from like 3 years ago, \nRyan if you get this send me a message\xef\xbb\xbf'
p41
aS'Loud n proud= nitrogen and oxygen\nSilent but violent= sulfur\xef\xbb\xbf'
p42
aS"there's this kid in my homeroom who farts so much, he could stink a whole \nentire room and literally he can. And it's gross\xef\xbb\xbf"
p43
aS'We just hold it in\xef\xbb\xbf'
p44
aS'Lol " soldier boy up in the hoe. That\'s the whole chorus!?" " I don\'t know. \nWhy dont youuuuuuuuuuuu figure it out!? " " that\'s genius! " most favorite \npart: GIRLS NEVER FART! Lol\xef\xbb\xbf'
p45
aS'Dear Ryan,I bet your not going to see this cause this video was 5 years \nago.Yup 5!!!!Not 3 months!!!!5!!!!MWAHAHAHAHAHAHAHAH!!!\xef\xbb\xbf'
p46
aS'could not stop laughing!!!!\xef\xbb\xbf'
p47
aS'Omg this is so old. He still has his accent.\xef\xbb\xbf'
p48
aNaS'Dear Ryan, do you play and watch soccer?\xef\xbb\xbf'
p49
aS'2:08 moment made me lmao\xef\xbb\xbf'
p50
aS'I have ADHD too\xef\xbb\xbf'
p51
aS'my colleague sitting next to me burps non stop after a meal. not only does \nthe sound gross me out i can smell what he ate for lunch at times.. the \nsmell!!  =((\xef\xbb\xbf'
p52
aS'He sounds so different from what he sounds like now\xef\xbb\xbf'
p53
aS'His face at 2:26 xD\xef\xbb\xbf'
p54
aS'Baby killers!!!\xef\xbb\xbf'
p55
aS'Dear Ryan,I bet your not going to see this cause this video was 5 years \nago.Yup 5!!!!Not 3 months!!!!5!!!!MWAHAHAHAHAHAHAHAH!!!\xef\xbb\xbf'
p56
aS'But If your \xc3\xa0 male, your not killing babies cuz some other male will Have \nintercourse making babies. Unless ur \xc3\xa0 female, then ur killing babies\xef\xbb\xbf'
p57
aS'What is the music?\n\xef\xbb\xbf'
p58
aS'I was diying of laughter!!!!!\xef\xbb\xbf'
p59
aS'When you said queef I thought of south park\xef\xbb\xbf'
p60
aS'aweso0me\xef\xbb\xbf'
p61
aS'So confused...\xef\xbb\xbf'
p62
aS'Yup my fart is silent.\xef\xbb\xbf'
p63
aS'Got me in tears! Hahaha \xf0\x9f\x98\x82\xf0\x9f\x98\x82\xf0\x9f\x98\x82\xf0\x9f\x98\x82\xf0\x9f\x98\x82\xf0\x9f\x98\x82\xef\xbb\xbf'
p64
aS"Isn't that right ? YES ! \xf0\x9f\x98\x82\xf0\x9f\x98\x82\xf0\x9f\x98\x82\xef\xbb\xbf"
p65
aS'Lmao Dragons :D\xef\xbb\xbf'
p66
aS"Dear Ryan,I bet you won't see this cause this video was 5 years ago.Yea \n5!!!Not 3 months!!!\xef\xbb\xbf"
p67
aS'Best comments about Ryan higa competition\xef\xbb\xbf'
p68
aS'dosent really work !! lol!!\xef\xbb\xbf'
p69
aS'I just realized off the pill was a rant thing. :l\xef\xbb\xbf'
p70
aS'girls farts smell more than guys farts\xef\xbb\xbf'
p71
aS'The queefs,a bunch of wanna be farts coming from the vagayyy\xf0\x9f\x98\x82\xf0\x9f\x98\x82\xef\xbb\xbf'
p72
aS'LOL, Put this in 0.5 speed, its hahalius, starting at 0:58\xef\xbb\xbf'
p73
aS"omg i hold my fart a lot when i'm in public that i feel like my stomach's \nabout to explode but as soon as i reach home well....sorry mom and dad :) \nTEEHEE\xef\xbb\xbf"
p74
aS'Fart loud\xef\xbb\xbf'
p75
aS'Is there a Off The Pill Burps video?\xef\xbb\xbf'
p76
aS'Dear Ryan,do ADHD pills help you?\xef\xbb\xbf'
p77
aS'This is soooooo funny i miss his off the fill videos so much\xef\xbb\xbf'
p78
aS'Hold in your farts = babey killers\xef\xbb\xbf'
p79
aS'That fart just comes out like a ninja lololololol \xef\xbb\xbf'
p80
aS"Anyone else notice Marley's reaction when Ryan told him to stop breathing? (\n0:57) ^^\xef\xbb\xbf"
p81
aS"Lol don't kill babies.... And that is what is the lesson of the day XD\xef\xbb\xbf"
p82
aS'MARLEYYY\xef\xbb\xbf'
p83
aS'I have a silent but deadly fart and always use the blame game\xef\xbb\xbf'
p84
aS'Yeah I hate how people think that farts are disgusting. All seven billion \nof us do it, but people think it is gross. Farts are humanly natural \npeople!\xef\xbb\xbf'
p85
aS'I love the way you say etc \xef\xbb\xbf'
p86
aS'Lol!!!!!! Fart\xef\xbb\xbf'
p87
aS'Sharts!\xef\xbb\xbf'
p88
aS"I've been here sence this video and I'm still here in a big fan and I hope \nRyan responds to me\xef\xbb\xbf"
p89
aS'0:32 that octopus tho\xef\xbb\xbf'
p90
aS'I took a dump while watching this\xef\xbb\xbf'
p91
aNaS'my lamp is 4 years old. I Love My Lamp <3\xef\xbb\xbf'
p92
aS'No farts= dead babies\xef\xbb\xbf'
p93
aS'I farted during this vid ahahah aha \xef\xbb\xbf'
p94
aS'cool video\xef\xbb\xbf'
p95
aS"Most farts don't even stink though because it's mostly swallowed air with \nonly a small percentage of sulfur\xef\xbb\xbf"
p96
aS'Etica\xef\xbb\xbf'
p97
aS'*sitting next to girlfriend and then she farts* AHHHHHHH AHHHHH AHHHH GURLZ \nDONT FART THIS WORLD IS GOING INSANE *sits in conner of empty room*\xef\xbb\xbf'
p98
aS"I don't fart I whisper in my pants and sometimes it's a scream....\xef\xbb\xbf"
p99
aS'the way I see it, is that when ppl say, "excuse me" after they fart, I \nalways say, "it\'s a natural body function, you don\'t need to say excuse me. \nThat\'s like saying excuse me for moving your arm or walking."\xef\xbb\xbf'
p100
aS'lamps fart... legit logic\xef\xbb\xbf'
p101
aS'"Every time you hold in a fart, you\'re that much closer to killing a baby" \nThat\'s a vivid thought...\xef\xbb\xbf'
p102
aS'we need this intro back\xef\xbb\xbf'
p103
aS"DON'T DRINK WATER DURING THIS KIDS\xef\xbb\xbf"
p104
aS'This video was the reason why I pronounce etc "etek" not "exectra" or \nhowever you spell it XD oh the memories <3\xef\xbb\xbf'
p105
aS'Let it go, let it gooo!!!!!! The stink never bothered me anyways...... (Lol \nlet it go from frozen FYI)\xef\xbb\xbf'
p106
aS'Ikr waat everyone farts....\xef\xbb\xbf'
p107
aS'Lol ninja\xef\xbb\xbf'
p108
aS'I love the way you say etc \xef\xbb\xbf'
p109
aS'"that wasn\'t me"\n"what wasn\'t you"\n*farts*\n"that"\xef\xbb\xbf'
p110
aS'i have the same curtains\xef\xbb\xbf'
p111
aS'Laughed my ass off whole time\xef\xbb\xbf'
p112
aS'Well thank you all for coming here and listening to me that WAS MY PROJECT \nON PHOTOSYNTHESIS hope you enjoyed it\n\n One of the funniest Ryan Higa moments ever XD XD XD \xef\xbb\xbf'
p113
aS'LOL. youre a genius ryan :D\xef\xbb\xbf'
p114
aS'He sounds so different \xef\xbb\xbf'
p115
aS"This is the first video I've ever saw and it made me love this dude \xef\xbb\xbf"
p116
aS'yuuuuuuuuuuuuuuuuuh\xef\xbb\xbf'
p117
aS'Omg!! Watched this video while eating food!!\n\xef\xbb\xbf'
p118
aS'LOL\xef\xbb\xbf'
p119
aS'243\xef\xbb\xbf'
p120
aS'I love these ( ^A^)/*\xef\xbb\xbf'
p121
aS'y did I find u reli cute in ur off the pill....rant...well...ottoki...\xef\xbb\xbf'
p122
aS'let it go let go cant hold it back anymorrrre:p\xef\xbb\xbf'
p123
aS'Lol 1:15\xef\xbb\xbf'
p124
aS'You must really like the solder boy song\xef\xbb\xbf'
p125
aS'BWAHAHAHAHAHAHAHAA\xef\xbb\xbf'
p126
aS'Killing babies lol\xef\xbb\xbf'
p127
aS'Genius.\xef\xbb\xbf'
p128
aS'2:10 his shirt says pull my finger \xf0\x9f\x91\x86\xef\xbb\xbf'
p129
aS'Whaaaaaaaaaa.......?\xef\xbb\xbf'
p130
aS'Trust this mans wisdom \xef\xbb\xbf'
p131
aS'2:50 hahahahahaahahhahah! \nLOL\xef\xbb\xbf'
p132
aS"I can't believe his voice was like this 4 years ago\xef\xbb\xbf"
p133
aS'0:06  DO do do do do do . I laughed for a long time.\xef\xbb\xbf'
p134
aS'I laughed until I farted.\xef\xbb\xbf'
p135
aS'Does any one notice that the curtain opens on its own at 2:43\xef\xbb\xbf'
p136
aS'lol \ni love your vidose\xef\xbb\xbf'
p137
aS'Every time you hold in a fart, you\'re that much closer to killing a baby!"\xef\xbb\xbf'
p138
aS'1:15 lol\xef\xbb\xbf'
p139
aS'This vid, Ryan still has a hawaian accent. \xf0\x9f\x98\x84\xef\xbb\xbf'
p140
aS'y did I find u reli cute in ur off the pill....rant...well...ottoki...\xef\xbb\xbf'
p141
aS'i fart all tha time and does every1s\xef\xbb\xbf'
p142
aS"2:50 I'm diying \xef\xbb\xbf"
p143
aS'I love your videos\n\xef\xbb\xbf'
p144
aS'whats that song at the intro plz someone replay\xef\xbb\xbf'
p145
aS'xD laugh uncontrollably!\xef\xbb\xbf'
p146
aS"\\ 0 /\n  l\n  l\n/   \\ \nthis is fred he is bob's friend spread the word copy and paste it on \nyoutube\xef\xbb\xbf"
p147
aS'The face at 0:33 lol\xef\xbb\xbf'
p148
aS'Lololol\xef\xbb\xbf'
p149
aS'Queafs #### off\xef\xbb\xbf'
p150
aS'You forgot the explosive farts.\xef\xbb\xbf'
p151
aS'I love this video~~\xef\xbb\xbf'
p152
aS"Haha that's what I'm like after I don't take my pill in class,my friend \nhates it when she's writing and then I will take random stuff out of her \nbinder or take her book(yea I'm a girl)\xef\xbb\xbf"
p153
aS'This guy has a gift. Luv him.\xef\xbb\xbf'
p154
aS'Still my favorite off the pill always make me laugh every time XD love you \nryan! :)\xef\xbb\xbf'
p155
aS'Logic\xef\xbb\xbf'
p156
aS'This made my day xD\xef\xbb\xbf'
p157
aS'You killed me at the types of farts!!!!!! XD\xef\xbb\xbf'
p158
aS' RYAN do u know what a noble cause u r doing by spreading awareness about \nFARTS in society\xef\xbb\xbf'
p159
aS'First high video ever saw \xef\xbb\xbf'
p160
aS'Wtf lol\xef\xbb\xbf'
p161
aS'whats the outro you used\xef\xbb\xbf'
p162
aS'his logic is flawless\xef\xbb\xbf'
p163
aS'F-A-R-T\xef\xbb\xbf'
p164
aS'love it\xef\xbb\xbf'
p165
aS'OMG !!!!!! FARTS ............ F to the A to the R to the T !!!!!! proud and \nloud, silent but violent, qweefs, the shots !!!!! XD \xef\xbb\xbf'
p166
aS'00:28-00:38 love that music in the background\xef\xbb\xbf'
p167
aS'lol okay buddy. \xef\xbb\xbf'
p168
aS'2:07 Hope you enjoyed it  XD\xef\xbb\xbf'
p169
aS'XD\xef\xbb\xbf'
p170
aS'Do do do, do do do do do, do so do, do.\xef\xbb\xbf'
p171
aS'What is the intro music\xef\xbb\xbf'
p172
aS'LOL XD\xef\xbb\xbf'
p173
aS'I miss these videos\xef\xbb\xbf'
p174
aS'lol\xef\xbb\xbf'
p175
aS'2:43 THE CURTAIN MOVED!!!!!! is that the dog again?\xef\xbb\xbf'
p176
aS'You forgot machine gun farts. Duh\xef\xbb\xbf'
p177
aS"Actually if you don't fart your fart will go back through your body and \nyou'll have fart breath SO FART\xef\xbb\xbf"
p178
aS'like things dat r very obvious\xef\xbb\xbf'
p179
aS"Girls don't fart they toot\xef\xbb\xbf"
p180
aS'Dafuq that was funny\xef\xbb\xbf'
p181
aS"DON'T LET THE DRAGONS EAT MY PARTS WHEN I EXPLODE\xef\xbb\xbf"
p182
aS'U are so cool XD\nEven though u are really weird\n\xef\xbb\xbf'
p183
aS'etc.\xef\xbb\xbf'
p184
aS'Did you notice the curtain move in the background?\xef\xbb\xbf'
p185
aS"Pillows and lamps don't fart and girls do fart but you never hear or smell o\nIt\xef\xbb\xbf"
p186
aS'i really had to fart during this video :D\xef\xbb\xbf'
p187
aS'Hahaha yooooouuuu\xef\xbb\xbf'
p188
aS"Girls don't fart. They toot.\xef\xbb\xbf"
p189
aS'I agree with you +ryanhiga\xef\xbb\xbf'
p190
aS"Actually, holding in a fart will not make you explode. (I know, crazy, \nright?) Anyway my biology teacher taught us that the gas will find another \nway out and will eventually just come out your mouth and you'll breathe \nfart breath. The more you know.\xef\xbb\xbf"
p191
aS'#DearyRyan do you actually have ADHD?\xef\xbb\xbf'
p192
aS'That soulja boy scene killed me.\xef\xbb\xbf'
p193
aS'Ewwwww...... queefs\xef\xbb\xbf'
p194
aS'you said it ryan\ntouch\xc3\xa9 to that\xef\xbb\xbf'
p195
aS'Loud n Proud, Silent but Violent, Queefs, And Sharts THE 4 AVATARS OF \nFARTS \xef\xbb\xbf'
p196
aS'Lolz\xef\xbb\xbf'
p197
aS"Everybody farts everybody farts. It's not like they smell bad, but I just \nforget how this song goes and is mean to deaf people!!!\xef\xbb\xbf"
p198
aS'youuuuuuuu xD\xef\xbb\xbf'
p199
aS'Farts r funny man \xf0\x9f\x98\x82\xf0\x9f\x98\x82\xf0\x9f\x98\x82\xf0\x9f\x98\x82 wudnt "perform" them but still FUNNY!!!! Lol\xef\xbb\xbf'
p200
aS"That moment when your in a classroom taking a test, it's completely silent, \nand somebody farts a loud and proud.\xef\xbb\xbf"
p201
aS'+Ryan Higa Yep AGREE.\xef\xbb\xbf'
p202
aS"Rabbits don't fart\xef\xbb\xbf"
p203
aS'The fart called "Scilent Killer" ?\xef\xbb\xbf'
p204
aS'*BEST VIDEO EVER !!!!!!!!!!!!!!!!!!!!!!!!!!!!!!!!!!!!*\xef\xbb\xbf'
p205
aS'The first ever NigaHiga video i ever saw :3\xef\xbb\xbf'
p206
aS'etc\xef\xbb\xbf'
p207
aS'Hey ima girl and I am the loudest farter in my family I like farting its \nnice v.v\xef\xbb\xbf'
p208
aS'girls farts\xef\xbb\xbf'
p209
aS"what happens if they run out of remains to eat that's right they'll go for \nyour babys\xef\xbb\xbf"
p210
aS'I fart!!!!\xef\xbb\xbf'
p211
aS"Why does every boy think girls don't fart\xef\xbb\xbf"
p212
aS'Soooo funny!!!\xef\xbb\xbf'
p213
aS'This made me laugh too much \xef\xbb\xbf'
p214
aS'I hold my farts (< _ >)\xef\xbb\xbf'
p215
aS'I have ADHD too and I always say, "just kidding, but seresly"\xef\xbb\xbf'
p216
aS'lol. photosynthesis x)\xef\xbb\xbf'
p217
aS'girls farts\xef\xbb\xbf'
p218
aNaS'\n2:54-2:56 I\'ve watched this video countless times since its release, and \nyet I STILL can\'t understand half of that sentence. "Dogs, cats, dragons, \nsheep--they\'re all gonna be eating all your *____*, but what happens when \nthey run out of *_______*? That\'s right, they\'re gonna go for your babies." \nCan anyone please fill in the blanks for me?\xef\xbb\xbf'
p219
aNaS'Tonight im gonna do a review on this infamous video\xef\xbb\xbf'
p220
aS' I laughed so hard at: " That wasnt me.." "what wasnt you?" " farts THAT"\xef\xbb\xbf'
p221
aS'Off the pill- Obvious things....I would like u 2 make a video of this kind\xef\xbb\xbf'
p222
aS"So they're perfect for birthday parties!\xef\xbb\xbf"
p223
aS' \n\xe2\x96\x88\xe2\x96\x88\xe2\x96\x88\xe2\x96\x88\xe2\x96\x88\xe2\x96\x88\xe2\x96\x88 ]\xe2\x96\x84\xe2\x96\x84\xe2\x96\x84\xe2\x96\x84\xe2\x96\x84\xe2\x96\x84\xe2\x96\x84\xe2\x96\x84             Bob is building an army.\n\xe2\x96\x82\xe2\x96\x84\xe2\x96\x85\xe2\x96\x88\xe2\x96\x88\xe2\x96\x88\xe2\x96\x88\xe2\x96\x88\xe2\x96\x88\xe2\x96\x88\xe2\x96\x88\xe2\x96\x88\xe2\x96\x85\xe2\x96\x84\xe2\x96\x83\xe2\x96\x82           \xe2\x98\xbb/   This tank & Bob are against Google+\nIl\xe2\x96\x88\xe2\x96\x88\xe2\x96\x88\xe2\x96\x88\xe2\x96\x88\xe2\x96\x88\xe2\x96\x88\xe2\x96\x88\xe2\x96\x88\xe2\x96\x88\xe2\x96\x88\xe2\x96\x88\xe2\x96\x88\xe2\x96\x88\xe2\x96\x88\xe2\x96\x88\xe2\x96\x88\xe2\x96\x88\xe2\x96\x88].      /\xe2\x96\x8c    Copy and Paste this all over \n  \xe2\x97\xa5\xe2\x8a\x99\xe2\x96\xb2\xe2\x8a\x99\xe2\x96\xb2\xe2\x8a\x99\xe2\x96\xb2\xe2\x8a\x99\xe2\x96\xb2\xe2\x8a\x99\xe2\x96\xb2\xe2\x8a\x99\xe2\x96\xb2\xe2\x8a\x99\xe2\x97\xa4..      / \\     Youtube if you are with us\xef\xbb\xbf'
p224
aS'Ah, I remember this. \xef\xbb\xbf'
p225
aS'I have 3 videos of farts on my Chanel\xef\xbb\xbf'
p226
aNaS'Girls never fart just kidding but seriously = ]'
p227
aS'So Tru'
p228
aS'Like Begger '
p229
aS'Your killing babies'
p230
aS'I was holding In a fart whilst watching this video'
p231
aS'Me Gusta :}'
p232
aS'SILENT LAUGH'
p233
aS'I wish I could speak as fast as you'
p234
aS"You're right"
p235
aS'A prick is like a jerk or a person who only cares about themselves.'
p236
aS"U talk quick I'm a new fan first vid if yours I've seen I scroll randomly \nnear the bottom and press any button"
p237
aS'lololololololololololololo'
p238
aS'My friends and I know every word of this video!'
p239
aS'"Girls don\'t fart, they whisper in their undies." -Mari from Smosh'
p240
aS"sometimes I let out a fart because sometimes there's so much noise its \nalmost impossible to hear...sometimes I have my earphones on..."
p241
aS"Freakin' ninja farts."
p242
aS"I farted we'll"
p243
aS'ETC THAT CRACKED ME UP'
p244
aS'Wait Lamps under 3? WHAT'
p245
aS'Speaks so fast'
p246
aS"I think farting should be socially acceptable... Sneezing is and it's not \nmuch different:)"
p247
aS'this was one of the first videos I ever watched weird ... I still quote it \naha'
p248
aS'Lol etica'
p249
aS'U FUCKING LEGEND XD, HOW HAVE I NOT SUBSCRIBED YET'
p250
aS'This amuses me'
p251
aS'so funny '
p252
aS'i just farted in the middle of the video ;3'
p253
aS'OMG me and my brother just watched this and have been LMFAO sience the \nvideo ended!'
p254
aS'i fart all the time and people leave the room and its loud and my silent is \nlike ...... what? '
p255
aS"I farted as he said girl's don't fart. :3 I'mma girl!"
p256
aS'lol the wanna be farts xD'
p257
aS'that was hilarious!'
p258
aS'ever had one of those farts that smelt so bad you had to run away? but then \nit just follows you'
p259
aS'Ditto totally agree Leslie:D'
p260
aS"You're meant for each other."
p261
aS'wtf'
p262
aS'thanks for sharing '
p263
aS'Me too.'
p264
aS'This made me laugh so hard no sound cane out! XD'
p265
aS'Definitely has adhd'
p266
aS'Am I the only one who farted during this video?!'
p267
aS"Comparing to Ryan's videos nowadays..i just realised this vid is really \nshort LOL but for some reason i feel like i'm watching a 10 mins vid xD"
p268
aS'what song is at 0:23-0:38??'
p269
aS'F to the A to the R to the T'
p270
aS"It's so clear now(;"
p271
aS'You never fart.'
p272
aS'i fart......'
p273
aS'... and that was mY PROJECT ON PHOTOTHeses!'
p274
aS':) '
p275
aS'Sounds like me, on the pill....'
p276
aS'etc ! hahahh'
p277
aS'What have I just seen xD'
p278
aS'I love this!!!'
p279
aS'My sister says I fart in my sleep so I fart and I am a girl. I fart some \nLoud and Proud and some Silent but Violent'
p280
aS'Hahaha dilent but violent hahahaha :D'
p281
aS'do u know how old this video is'
p282
aS'dragons?.......soooo awesome....lol'
p283
aS"I don't hold in my farts"
p284
aS"This video reminds me of a girl who sat next to me and farted, then she's \nlike eww you're nasty, and i'm like Duh fuq?"
p285
aS"I'm cracking up"
p286
aS'oh god he speaks so fast'
p287
aS'check out my name'
p288
aS'Racist '
p289
aS'NOPE!'
p290
aS'its so funny when he says just kidding but seriously '
p291
aS'laughed too much'
p292
aS'dear ryan, how old is marley?'
p293
aS'Listen. That was my 7 year old little brother and by the way. Go fuck \nyourself. Loljk'
p294
aS'Laughing so hard in my empty room (forever alone), then I almost fall of my \nchair. I continue laughing then I actually fall off this time! XD'
p295
aS'One less baby killed lol'
p296
aS'CLARA :D'
p297
aS'I farted while watching'
p298
aS'iconic'
p299
aS'So their perfect for birthday parties'
p300
aS"I found that really interesting. I found this coz my associate became a \nlady-magnet He went from zero to hero. He behaved like it was normal for a \nlittle bit. He finally admitted it on Friday. He mentioned he learned from \nthe Jake Ayres Master Attraction Formula. Google it and you'll find it... \nHe is on a date now with a beautiful girl... "
p301
aS"Omg i watched this video along time ago when i didn't know who me was"
p302
aS'Eteca'
p303
aS"but, if you don't provide your body parts for the animals to eat, they'll \ngo for your babies sooner. so actually holding in farts save babies"
p304
aS'His eyes were purple...'
p305
aS'haha etc- ehtehcah'
p306
aS'His "Off the pill" Means he is off of his crazy A.D.D. pills. (Thats right! \nHis adding pills!)'
p307
aS'what does "off the pill" mean? '
p308
aS"Well I'm watching this tomorrow."
p309
aS'thank you for answering :) '
p310
aS'soo freaking hilarious '
p311
aS"Ninja farts!! Do do do do do do do!! The newest kind of farts!!! Hahaha let \nyour fart out or you'll be killing babies!!"
p312
aS"My science teacher didn't allow people to fart in class."
p313
aS'Actually Benjamin Franklin wrote an essay called fart proudly. '
p314
aS':)'
p315
aS'If you are reading this THANK YOU so much. Though no one would probably \nread or like it i believe someone would see it. Its so hard to get \nrecognized on Youtube. The comedy community is extremely competitive and \nthere are tons of channel that no one even knows about. These channel need \na chance too. All i want is for people to give me a chance. Check me out. \nIf you take few seconds, that would mean alot to me.'
p316
aS'Omg he put his MySpace account in the description...RIP MySpace lol'
p317
aS'I fart!'
p318
aS'Watching this'
p319
aS'Hold in a fart and you kill a baby Do YOU want to be a baby killer'
p320
aS"Lamps And Pillows Don't Fart."
p321
aS'I just started watching you regularly, it is one of the best decisions I \nhave made in a long time. You make me laugh so much!'
p322
aS'did anyone else see the rainbows in his eyes at the start! :D'
p323
aS'actually no when you hold in a fart you exhale it through your breath \ninstead of blowing'
p324
aS"You're killing babies !!!!!!!!"
p325
aS'F to the A to the R to the T?'
p326
aS'STOP FARTING ! like he got choice'
p327
aS'At 2:44 your curtain opened A little... GHOSSTTT!'
p328
aS'A baby killer'
p329
aS'This guy should be #1 on you-tube!'
p330
aS'excetricta '
p331
aS'etaca for etc. hahahahaha!!!'
p332
aS'lol. "im trying to save lives! what r u doin? ur killing babies!"'
p333
aS'thank you guy'
p334
aS'girls do fart '
p335
aS'Im pretty sure its a kind of asian language'
p336
aS'I love his rants :D'
p337
aS'Your eyes like...sparkle like they do in animes when the character sees \nsomething amazing at 0:19 *u*'
p338
aS"You are the funniest guy i have ever seen on Youtube!!!! I can't stop \nlaughing!!!! You're awesome!!!"
p339
aS"The first blank is 'remains' and the second blank is your remains"
p340
aS'Lol dafuq?!'
p341
aS'so how old is Marley now? lol'
p342
aS'Wat the hell etc'
p343
aS'Lovethis'
p344
aS'this made me laugh so much xD'
p345
aS'this was the first video i ever saw of you. i was like nine years old and i \nnever thought i would be watching this right now!'
p346
aS'aaawww baby marley o.o'
p347
aS'handsome :3'
p348
aS'Look between his Eyebrows '
p349
aS'Girls fart'
p350
aS'ADHD is a gift.'
p351
aS'Breath is stink. -Ryan Higa,2009 Btw i love your videos Rayan keep up the \ngood work. '
p352
aS"I'm trying to save lives. What are you doing? You're killing babies!"
p353
aS'DAT INTRO XD'
p354
aS'Why? Did u stop making these'
p355
aS'do do do do do do do do do do'
p356
aS'whoever made the ryme did the crime'
p357
aS'How did he do this without laughing his ass off??'
p358
aS"you won't kill a baby you will just burp"
p359
aS'son fast speaking '
p360
aS'You talk too quickly! XD'
p361
aS'I farted during this bid'
p362
aS'GIRLS NEVER FART'
p363
aS'etc :D '
p364
aS'2:26 PAUSE THE VID'
p365
aS"Ryan, you're so weird . . . but I guess that's part of why we love you so \nmuch :P!"
p366
aS'"That wasn\'t me." "What wasn\'t you?" *farts* "That?" Lol that made me laugh \nso hard'
p367
aS'Funniest 1 yet'
p368
aS'Cool im watching this when I was born'
p369
aS'lol totally deservers 1 billion likes'
p370
aS'your explanation and reasoning ofwhy not to hold in your farts is jaw \ndropping!'
p371
aS"I'm saving lives. What are YOU doing? You're killing babies -.-"
p372
aS'Lololololololol xD'
p373
aS'Girls fart for sure.... even.. my best friend during sleepovers... a little \ntoo loud and proud.'
p374
aS'Watchin this in 2013 and still madly in love with Ryan Higa'
p375
aS'Girls do too fart but i hold it in at scool cuz it comes in the sileny \nclassroom'
p376
aS'LMFAO jeez man, you\'re the best ever!!!! x"DD'
p377
aS'(sniff) just stop breathing lmfao '
p378
aS'OMG when you said just kidding, it was such a high pitches voice xD'
p379
aS'LIES!'
p380
aS'Its all clear to me now...'
p381
aS'thank you i to totally agree'
p382
aS'GIRLS NEVER FART LOL'
p383
aS'would she give them detentions if they did...? :-/'
p384
aS'I miss you Nigahiga, so much'
p385
aS'That my song solider boy'
p386
aS'OMG I love u soo much!!'
p387
aS'\xe2\x9d\xa4\xe2\x9d\xa4\xe2\x9d\xa4\xe2\x9d\xa4\xe2\x9d\xa4\xe2\x9d\xa4\xe2\x9d\xa4\xe2\x9d\xa4\xe2\x9d\xa4\xe2\x9d\xa4\xe2\x9d\xa4\xe2\x9d\xa4\xe2\x9d\xa4\xe2\x9d\xa4\xe2\x9d\xa4\xe2\x9d\xa4\xe2\x9d\xa4\xe2\x9d\xa4\xe2\x9d\xa4\xe2\x9d\xa4\xe2\x9d\xa4\xe2\x9d\xa4\xe2\x9d\xa4\xe2\x9d\xa4\xe2\x9d\xa4\xe2\x9d\xa4\xe2\x9d\xa4\xe2\x9d\xa4\xe2\x9d\xa4\xe2\x9d\xa4\xe2\x9d\xa4\xe2\x9d\xa4\xe2\x9d\xa4\xe2\x9d\xa4\xe2\x9d\xa4\xe2\x9d\xa4\xe2\x9d\xa4\xe2\x9d\xa4\xe2\x9d\xa4\xe2\x9d\xa4\xe2\x9d\xa4\xe2\x9d\xa4\xe2\x9d\xa4\xe2\x9d\xa4\xe2\x9d\xa4\xe2\x9d\xa4\xe2\x9d\xa4\xe2\x9d\xa4\xe2\x9d\xa4\xe2\x9d\xa4\xe2\x9d\xa4\xe2\x9d\xa4\xe2\x9d\xa4\xe2\x9d\xa4\xe2\x9d\xa4\xe2\x9d\xa4\xe2\x9d\xa4\xe2\x9d\xa4\xe2\x9d\xa4\xe2\x9d\xa4\xe2\x9d\xa4\xe2\x9d\xa4\xe2\x9d\xa4\xe2\x9d\xa4\xe2\x9d\xa4\xe2\x9d\xa4\xe2\x9d\xa4\xe2\x9d\xa4\xe2\x9d\xa4\xe2\x9d\xa4\xe2\x9d\xa4\xe2\x9d\xa4\xe2\x9d\xa4\xe2\x9d\xa4\xe2\x9d\xa4\xe2\x9d\xa4\xe2\x9d\xa4\xe2\x9d\xa4\xe2\x9d\xa4\xe2\x9d\xa4\xe2\x9d\xa4\xe2\x9d\xa4\xe2\x9d\xa4\xe2\x9d\xa4\xe2\x9d\xa4\xe2\x9d\xa4\xe2\x9d\xa4\xe2\x9d\xa4\xe2\x9d\xa4\xe2\x9d\xa4\xe2\x9d\xa4\xe2\x9d\xa4\xe2\x9d\xa4\xe2\x9d\xa4\xe2\x9d\xa4\xe2\x9d\xa4\xe2\x9d\xa4\xe2\x9d\xa4\xe2\x9d\xa4\xe2\x9d\xa4\xe2\x9d\xa4\xe2\x9d\xa4\xe2\x9d\xa4\xe2\x9d\xa4\xe2\x9d\xa4\xe2\x9d\xa4\xe2\x9d\xa4\xe2\x9d\xa4\xe2\x9d\xa4\xe2\x9d\xa4\xe2\x9d\xa4\xe2\x9d\xa4\xe2\x9d\xa4\xe2\x9d\xa4\xe2\x9d\xa4\xe2\x9d\xa4\xe2\x9d\xa4\xe2\x9d\xa4\xe2\x9d\xa4\xe2\x9d\xa4\xe2\x9d\xa4\xe2\x9d\xa4\xe2\x9d\xa4\xe2\x9d\xa4\xe2\x9d\xa4\xe2\x9d\xa4\xe2\x9d\xa4\xe2\x9d\xa4\xe2\x9d\xa4\xe2\x9d\xa4\xe2\x9d\xa4\xe2\x9d\xa4\xe2\x9d\xa4\xe2\x9d\xa4\xe2\x9d\xa4\xe2\x9d\xa4\xe2\x9d\xa4\xe2\x9d\xa4\xe2\x9d\xa4\xe2\x9d\xa4\xe2\x9d\xa4\xe2\x9d\xa4\xe2\x9d\xa4\xe2\x9d\xa4\xe2\x9d\xa4\xe2\x9d\xa4\xe2\x9d\xa4\xe2\x9d\xa4\xe2\x9d\xa4\xe2\x9d\xa4\xe2\x9d\xa4\xe2\x9d\xa4\xe2\x9d\xa4\xe2\x9d\xa4\xe2\x9d\xa4\xe2\x9d\xa4\xe2\x9d\xa4\xe2\x9d\xa4\xe2\x9d\xa4\xe2\x9d\xa4\xe2\x9d\xa4\xe2\x9d\xa4\xe2\x9d\xa4\xe2\x9d\xa4\xe2\x9d\xa4\xe2\x9d\xa4\xe2\x9d\xa4\xe2\x9d\xa4\xe2\x9d\xa4\xe2\x9d\xa4\xe2\x9d\xa4\xe2\x9d\xa4\xe2\x9d\xa4\xe2\x9d\xa4\xe2\x9d\xa4\xe2\x9d\xa4\xe2\x9d\xa4\xe2\x9d\xa4\xe2\x9d\xa4\xe2\x9d\xa4\xe2\x9d\xa4\xe2\x9d\xa4\xe2\x9d\xa4\xe2\x9d\xa4\xe2\x9d\xa4\xe2\x9d\xa4\xe2\x9d\xa4\xe2\x9d\xa4\xe2\x9d\xa4\xe2\x9d\xa4\xe2\x9d\xa4\xe2\x9d\xa4\xe2\x9d\xa4\xe2\x9d\xa4\xe2\x9d\xa4\xe2\x9d\xa4\xe2\x9d\xa4\xe2\x9d\xa4\xe2\x9d\xa4\xe2\x9d\xa4\xe2\x9d\xa4\xe2\x9d\xa4\xe2\x9d\xa4\xe2\x9d\xa4\xe2\x9d\xa4\xe2\x9d\xa4\xe2\x9d\xa4\xe2\x9d\xa4\xe2\x9d\xa4\xe2\x9d\xa4\xe2\x9d\xa4\xe2\x9d\xa4\xe2\x9d\xa4\xe2\x9d\xa4\xe2\x9d\xa4\xe2\x9d\xa4\xe2\x9d\xa4\xe2\x9d\xa4\xe2\x9d\xa4\xe2\x9d\xa4\xe2\x9d\xa4\xe2\x9d\xa4\xe2\x9d\xa4\xe2\x9d\xa4\xe2\x9d\xa4\xe2\x9d\xa4\xe2\x9d\xa4\xe2\x9d\xa4\xe2\x9d\xa4\xe2\x9d\xa4\xe2\x9d\xa4\xe2\x9d\xa4\xe2\x9d\xa4\xe2\x9d\xa4\xe2\x9d\xa4\xe2\x9d\xa4\xe2\x9d\xa4\xe2\x9d\xa4\xe2\x9d\xa4\xe2\x9d\xa4\xe2\x9d\xa4\xe2\x9d\xa4\xe2\x9d\xa4\xe2\x9d\xa4\xe2\x9d\xa4\xe2\x9d\xa4\xe2\x9d\xa4\xe2\x9d\xa4\xe2\x9d\xa4\xe2\x9d\xa4\xe2\x9d\xa4\xe2\x9d\xa4\xe2\x9d\xa4\xe2\x9d\xa4\xe2\x9d\xa4\xe2\x9d\xa4\xe2\x9d\xa4\xe2\x9d\xa4\xe2\x9d\xa4\xe2\x9d\xa4\xe2\x9d\xa4\xe2\x9d\xa4\xe2\x9d\xa4\xe2\x9d\xa4\xe2\x9d\xa4\xe2\x9d\xa4\xe2\x9d\xa4\xe2\x9d\xa4\xe2\x9d\xa4\xe2\x9d\xa4\xe2\x9d\xa4\xe2\x9d\xa4\xe2\x9d\xa4\xe2\x9d\xa4\xe2\x9d\xa4\xe2\x9d\xa4\xe2\x9d\xa4\xe2\x9d\xa4\xe2\x9d\xa4\xe2\x9d\xa4\xe2\x9d\xa4\xe2\x9d\xa4\xe2\x9d\xa4\xe2\x9d\xa4\xe2\x9d\xa4\xe2\x9d\xa4\xe2\x9d\xa4\xe2\x9d\xa4\xe2\x9d\xa4\xe2\x9d\xa4\xe2\x9d\xa4\xe2\x9d\xa4\xe2\x9d\xa4\xe2\x9d\xa4\xe2\x9d\xa4\xe2\x9d\xa4\xe2\x9d\xa4\xe2\x9d\xa4\xe2\x9d\xa4\xe2\x9d\xa4\xe2\x9d\xa4\xe2\x9d\xa4\xe2\x9d\xa4\xe2\x9d\xa4\xe2\x9d\xa4\xe2\x9d\xa4\xe2\x9d\xa4\xe2\x9d\xa4\xe2\x9d\xa4\xe2\x9d\xa4\xe2\x9d\xa4\xe2\x9d\xa4\xe2\x9d\xa4\xe2\x9d\xa4\xe2\x9d\xa4\xe2\x9d\xa4\xe2\x9d\xa4\xe2\x9d\xa4\xe2\x9d\xa4\xe2\x9d\xa4\xe2\x9d\xa4\xe2\x9d\xa4\xe2\x9d\xa4\xe2\x9d\xa4\xe2\x9d\xa4\xe2\x9d\xa4\xe2\x9d\xa4\xe2\x9d\xa4\xe2\x9d\xa4\xe2\x9d\xa4\xe2\x9d\xa4\xe2\x9d\xa4\xe2\x9d\xa4\xe2\x9d\xa4\xe2\x9d\xa4\xe2\x9d\xa4\xe2\x9d\xa4\xe2\x9d\xa4\xe2\x9d\xa4\xe2\x9d\xa4\xe2\x9d\xa4\xe2\x9d\xa4\xe2\x9d\xa4\xe2\x9d\xa4\xe2\x9d\xa4\xe2\x9d\xa4\xe2\x9d\xa4\xe2\x9d\xa4\xe2\x9d\xa4\xe2\x9d\xa4\xe2\x9d\xa4\xe2\x9d\xa4\xe2\x9d\xa4\xe2\x9d\xa4\xe2\x9d\xa4\xe2\x9d\xa4\xe2\x9d\xa4\xe2\x9d\xa4\xe2\x9d\xa4\xe2\x9d\xa4\xe2\x9d\xa4\xe2\x9d\xa4\xe2\x9d\xa4\xe2\x9d\xa4\xe2\x9d\xa4\xe2\x9d\xa4\xe2\x9d\xa4\xe2\x9d\xa4\xe2\x9d\xa4\xe2\x9d\xa4\xe2\x9d\xa4\xe2\x9d\xa4\xe2\x9d\xa4\xe2\x9d\xa4\xe2\x9d\xa4\xe2\x9d\xa4\xe2\x9d\xa4\xe2\x9d\xa4\xe2\x9d\xa4\xe2\x9d\xa4\xe2\x9d\xa4\xe2\x9d\xa4\xe2\x9d\xa4\xe2\x9d\xa4\xe2\x9d\xa4\xe2\x9d\xa4\xe2\x9d\xa4\xe2\x9d\xa4\xe2\x9d\xa4\xe2\x9d\xa4\xe2\x9d\xa4\xe2\x9d\xa4\xe2\x9d\xa4\xe2\x9d\xa4\xe2\x9d\xa4\xe2\x9d\xa4\xe2\x9d\xa4\xe2\x9d\xa4\xe2\x9d\xa4\xe2\x9d\xa4\xe2\x9d\xa4\xe2\x9d\xa4\xe2\x9d\xa4\xe2\x9d\xa4\xe2\x9d\xa4\xe2\x9d\xa4\xe2\x9d\xa4\xe2\x9d\xa4\xe2\x9d\xa4\xe2\x9d\xa4\xe2\x9d\xa4\xe2\x9d\xa4\xe2\x9d\xa4\xe2\x9d\xa4\xe2\x9d\xa4\xe2\x9d\xa4\xe2\x9d\xa4\xe2\x9d\xa4\xe2\x9d\xa4\xe2\x9d\xa4\xe2\x9d\xa4\xe2\x9d\xa4\xe2\x9d\xa4\xe2\x9d\xa4\xe2\x9d\xa4\xe2\x9d\xa4\xe2\x9d\xa4\xe2\x9d\xa4\xe2\x9d\xa4\xe2\x9d\xa4\xe2\x9d\xa4\xe2\x9d\xa4\xe2\x9d\xa4\xe2\x9d\xa4\xe2\x9d\xa4\xe2\x9d\xa4\xe2\x9d\xa4\xe2\x9d\xa4\xe2\x9d\xa4\xe2\x9d\xa4\xe2\x9d\xa4\xe2\x9d\xa4\xe2\x9d\xa4\xe2\x9d\xa4\xe2\x9d\xa4\xe2\x9d\xa4\xe2\x9d\xa4\xe2\x9d\xa4\xe2\x9d\xa4\xe2\x9d\xa4\xe2\x9d\xa4\xe2\x9d\xa4\xe2\x9d\xa4\xe2\x9d\xa4\xe2\x9d\xa4\xe2\x9d\xa4\xe2\x9d\xa4\xe2\x9d\xa4\xe2\x9d\xa4\xe2\x9d\xa4\xe2\x9d\xa4\xe2\x9d\xa4\xe2\x9d\xa4\xe2\x9d\xa4\xe2\x9d\xa4\xe2\x9d\xa4\xe2\x9d\xa4\xe2\x9d\xa4\xe2\x9d\xa4\xe2\x9d\xa4\xe2\x9d\xa4\xe2\x9d\xa4\xe2\x9d\xa4\xe2\x9d\xa4\xe2\x9d\xa4\xe2\x9d\xa4\xe2\x9d\xa4\xe2\x9d\xa4\xe2\x9d\xa4\xe2\x9d\xa4\xe2\x9d\xa4\xe2\x9d\xa4\xe2\x9d\xa4\xe2\x9d\xa4\xe2\x9d\xa4\xe2\x9d\xa4\xe2\x9d\xa4\xe2\x9d\xa4\xe2\x9d\xa4\xe2\x9d\xa4\xe2\x9d\xa4\xe2\x9d\xa4\xe2\x9d\xa4\xe2\x9d\xa4\xe2\x9d\xa4\xe2\x9d\xa4\xe2\x9d\xa4\xe2\x9d\xa4\xe2\x9d\xa4\xe2\x9d\xa4'
p388
aS'GIRLS NEVER FART'
p389
aS'lol'
p390
aS'gotta love off the pill stuff'
p391
aS'2:37 how nikki minaj makes her songs '
p392
aS'LUV it '
p393
aS"I'm a ninja :D"
p394
aS'Sillent but violent :D:D:D:D Dude u make my day funnier :)'
p395
aS"He's totally gonna comment all 60k comments on each video..."
p396
aS'if my pillow fart on me, i will fart it back'
p397
aS'Poor marley lol'
p398
aS'His said etc weird'
p399
aS"I'm cracking up.....!"
p400
aS'I farted during this video '
p401
aS'how will you kill a baby if you fart?'
p402
aS'etc~'
p403
aS'Platypies, platypuses, platy... Horses, cows etc'
p404
aS"Don't forget that ketchups fart"
p405
aS'Funny stuff hahagaaa'
p406
aS"I can't tell if the fact that you have top comment means its wrong or if \nits ok ? "
p407
aS'OK does any body else notice in every video when ever he talks his eye \nbrows squish together and looks like a hole in-between his eyebrows!! LOL'
p408
aS'sweet jesus i do dat :3'
p409
aS'No.'
p410
aS'ahaha my mom watched this.then i showed her 20 farts from D-trix \nchannel.She likes the SNEEZE-FART part.'
p411
aS"I think I'm a baby killer :("
p412
aS'This was funny xD lol'
p413
aS'@imissmessywessy racist ass bitch'
p414
aS'stop it i am dieing'
p415
aS'Eww stop breathing'
p416
aS'Wats the intro song called it sounds awsome i tried looking for it so does \nanybody know wat its called?'
p417
aS'lol with the captions on'
p418
aS'watching this video, while farting'
p419
aS'their breathe is stink '
p420
aS'Shart: When you gamble...and lose.'
p421
aS'Thanks to u Ryan I just farted'
p422
aS"Omg can't stop laughinggggggg"
p423
aS'He kills me'
p424
aS'soulja boy part is epic!'
p425
aS'my brother thought he was just going to fart but then he farted out shit'
p426
aS'2:43 look at the curtains o.o'
p427
aS"platypi, yesssss that's the kind of vocabulary that we learn in germany!"
p428
aS'good old old days of youtube'
p429
aS'is it me or your eyes are kinda .. purple ? '
p430
aS"Pillows and Lamps fart. That's why my desk beside my couch stinks so much. \nAnd I blamed the dog."
p431
aS"Lol one of my coworkers told me that if you never hear a girl fart it's a \nsign that she wears thongs all the time"
p432
aS'He could be a direct TV guy'
p433
aS'2:54-2:56 I\'ve watched this video countless times since its release, and \nyet I STILL can\'t understand half of that sentence. "Dogs, cats, dragons, \nsheep--they\'re all gonna be eating all your ______, but what happens when \nthey run out of _________? That\'s right, they\'re gonna go for your babies." \nCan anyone please fill in the blanks for me?'
p434
aS'AHAHHAHAHAHAHAHAGAHAHA OMG! I think I love you! xD'
p435
aS'Holly shmoot u talk soooo fast!!! ...I was out of breath at the end of the \nvid man!! Lol'
p436
aS"we just don't do it near people because it would be embarassing . espacialy \nnear boys. or we just do it very quietly. : ) ; )"
p437
aS'thumbs up if you farted during this video'
p438
aS'Im a girl and I fart'
p439
aS'Where in the world can I get myself that brown squid thing in his intro??'
p440
aS'okay i agree farting naturally and put into and awesome show go ryan!!!!!'
p441
aS'Hahahaha do,do,do,do,do,do,do,do,do lol'
p442
aS"Lol that sounds like me when I'm outta adhd medicine"
p443
aS'hhhaaahhhhhhaaaaaaaa '
p444
aS'Hiiii siun'
p445
aS'Girls fart Ryan'
p446
aS'yes :D'
p447
aS'Dear ryan, can you speak without moving your eyebrows?'
p448
aS'My grandmother farts'
p449
aS'check out my intros :o'
p450
aS'thank you for answering !'
p451
aS'He has to take meds for his ADHD and this is probably when he runs out for \na short period of time.'
p452
aS'It was Ryan farting...'
p453
aS'i sharted in hollywood video once it smelled like a rotten penis lol'
p454
aS'Haha'
p455
aS'his pet dog,i guess.. '
p456
aS"Can't stop laughing"
p457
aS'Awesome uncle you have.'
p458
aS'I farted while watching the video'
p459
aS'I lecture my friends on this ;-;'
p460
aS"You deserved to lose your parents you sick asshole, you're using their \ndeath to get views on youtube. They look forward to reuniting with you in \nhell, fuckface. I bet your music sucks by the way, otherwise you wouldn't \nbe begging like a dog on youtube."
p461
aS'My mom gets mad at me when I fart'
p462
aS'Quif....'
p463
aS'If you hold a fart for 60 years the fart will be as powerful as atombomb...'
p464
aS'it totally is funny'
p465
aS'Lamps fart??? Lol'
p466
aS'I am a,ways the one who gets the silent farts. I passs gas. "What is that \nsmell?" "I dunno?"'
p467
aS'This is the best video I have ever seen.'
p468
aS"The silent violent ones are the ones with the big buttholes so when air is \nblown through the butt cheeks don't flail together making the noise that's \nwhy they stink so bad."
p469
aS'HAHAHAAHAHAHAAHAHAHAHAAHAHAHAHAHAHAHAHAHAHAAAAAAAAAAAAAAAAAAAAAAAAAAAAAAAAAAAAAAAAAAAAAAAAAAAAAAAAAAAAAAAAAAAAAAAAAAAAAAAAAAAAAAAAAA \n!!'
p470
aS'what about the duck fart'
p471
aS'I MISS OFF THE PILL'
p472
aS'that awkward moment when you fart during the video'
p473
aS'my friends are like this vid i use raise the volume A LOT'
p474
aS'Loud & proud'
p475
aS'Lmfao'
p476
aS'my dad is so the loud and proud '
p477
aS'I farted while arch'
p478
aS'Do do do, do do do do do, do do do, do :D'
p479
aS'I love you nigahiga!! xD '
p480
aS'Aw. Sad day....'
p481
aS'lol i never hold in my farts so i dont kill babies'
p482
aS'When I fart I sneeze...'
p483
aS'This was the first video I ever watched by Ryan'
p484
aS'i think it may be like ryans theme song or something, cuz he uses it in a \nlot of his videos, i may be wrong though'
p485
aS'Am I the only one who has to think of the farts song thing he does at the \nbeginning every time someone mentions farts?'
p486
aS"If you can't comprehend this, you have a really slow mental process..."
p487
aS'its platypeople'
p488
aS'lamps fart hahahahaahha.... and i totally agree with you '
p489
aS'What if i said i was watching this in 2014?'
p490
aS"*Fart* (loud and proud) Girls don't fart well I just did"
p491
aS'I thought it was silent but deadly, but silent but violent sounds better xD'
p492
aS"The theme u used in the intro use it for more of your vids it's like your \nsignature it's only in a few vids"
p493
aS'evrytime he says farts..i fart '
p494
aS'Dear ryan, please do another off the pill today.'
p495
aS'While i was watching this my mom farted at me. -_-'
p496
aS'And thus, Crank That (Soulja Boy) was born.'
p497
aS'haha he said vagina'
p498
aS'OMG YOU WON 1 MILLION DOLLARS!!!!!!!!!!!'
p499
aS'LOOOL LAMPS'
p500
aS"hello if your reading this Nigahiga I would like to know if you are going \nto do more off the pill rants. They are one of the best types of videos \nthat you do and I'm looking forward to more. That is if you wont to if not \nforget about this post because I don't like bothering the people I like. \nOkay bye bye now "
p501
aS'"Etecuh" (etc.) HAHAHAHAHAHAHAHAH!'
p502
aS'This is sooooo fuunnnnnyyyy'
p503
aS'I farted watching this video'
p504
aS'Clever uncle! :D'
p505
aS'Probably the dog.... or not.. DUN DUN DUNNNNNN 0_o'
p506
aS'nigahiga has a great life '
p507
aS'Farts'
p508
aS'PARANORMAL ACTIVITY!!!!'
p509
aS'I use denial and blame it on some one else.(blame the fish)'
p510
aS'PHO-TO-SYN-THE-SIS!!!'
p511
aS'Blame the controller :)'
p512
aS'its proply marly '
p513
aS'Just the wind... '
p514
aS'I love you nigahiga!'
p515
aS'I thought the four magor farts were fizzfuzz, rattly poop, tearass, and \nsqueaky'
p516
aS'dubstep farts.'
p517
aS'When I was at school I had a silent but violent and was sent to the \nrestroom by my teacher'
p518
aS"it did didn't it!? perhaps the window was open"
p519
aS'Shart lol'
p520
aS'the silent one i always cal the assassin, the are both deadly'
p521
aS'F to the A to the R to the T to the S'
p522
aS'I farted it was silent but deadly'
p523
aS'Like if you farted during this video...'
p524
aS'I died laughing'
p525
aS'sei un UFO !!!!!!'
p526
aS'etc.'
p527
aS'Lolz'
p528
aS'Do do do do do LOL'
p529
aS'And by the way retard jk means just kidding'
p530
aS'Why lamps. Lamps! Lamps'
p531
aS'It\'s called "Off The Pill" because Ryan has ADHD (attention deficit \nhyperactive disorder) and he needs medication to stay \'normal\' and not go \ncrazy, but he wrote, filmed, edited and uploaded all of these "off the \npill" episodes WITHOUT taking his medication xD HE\'S SO FUNNY XD'
p532
aS'The first video ive ever seen by you and its still one of my favorites lol'
p533
aS'Eyes'
p534
aS'what about silent but deadly'
p535
aS'Girls Do Fart Because My Mom Can Stank Up The Place!!! CX'
p536
aS"Chickens don't..."
p537
aS"no, i'm a girl and i fart! yeah, what is the problem?"
p538
aS"i don't know butYOUUUUUUU FIGure it out ROFFLL"
p539
aS'Funny'
p540
aS'lol i havent even started the video but ur comment made me laugh so hard XD'
p541
aS'Their breath is stink lol :3'
p542
aS'bla'
p543
aS"in my opinion the best youtuber :'D"
p544
aS'Hey creeperassasion32 control you retorted brother you hater!!!!!!!'
p545
aS"I'm a girl and I fart. I really don't see a problem here"
p546
aS'Everyt ime you hold in a fart your that much closer to killing a baby LOL'
p547
aS'Most funny Video I ever saw'
p548
aS'Girls don\'t fart, they "toot", I remember i heard a dog fart in front of a \nbaby and it almost DIED'
p549
aS"I'm dying laughing because of that ending"
p550
aS'the ninja farts silent but deadly, lmao'
p551
aS"Ryan, I'm a girl it is a skill. Comes from my grandma's side of the family."
p552
aS'I laughed so hard I cried.'
p553
aS'lol!! "next we have the silent but violent. these r freakin ninjas. they \njust fff right out."'
p554
aS'haha funny '
p555
aS'The dog was messing with the crtn prolly....'
p556
aS'eteca'
p557
aS'Lamps.......'
p558
aS'Scream and shout and let it all out!!!'
p559
aS'OMG wind'
p560
aS'Ryan can u do a video about Mexican people '
p561
aS'Girls do fart.And if they deny it their lying. '
p562
aS'F to the A to the R to the T XD my new theme song'
p563
aS'Genius. Absolute genius.'
p564
aS'anyone else notice the curtains move at 2:44'
p565
aS"Hey Ryan, I'm an artist and was wondering if you wanted me to do a personal \nportrait. Please get back to me"
p566
aS'I like how he says girls can never fart and then that one fart comes from \nthe v. xD'
p567
aS'I made a Baby cry with my Fart!!! '
p568
aS'loud and proud silence but violent '
p569
aS'Ur right,Ryan. Girls don\'t fart. "We whisper through our panties". ... \n-Quote from Mari in Smosh.'
p570
aS"Fake! Girls don't fart! .."
p571
aS"If you expand your going to explode if you explode your body parts are \ngoing to be everywhere XD then dogs will eat em and when they run out of \nmeat that's right there going to go for your babys one day your going be \nlike im saving lifes what are you doing? Killing babys XDDDD"
p572
aS"Teacher: weres your homework? Boy: oh it's at home. Teacher: your fail- \nboy: I'm SORRY ill bring it ON MONDAYYYYYY! Teacher: what's that smell..."
p573
aS'I farted Halfway though the TEEHEE!'
p574
aS'Why are some youtubers adhd?'
p575
aS"I'm saving lives like right now. ;D"
p576
aS'I see his creepy red eye thing at the beginning haha Willam pointed it out. \nLove that girl!'
p577
aS'My cousin cant fart haha! He got sick and had something taken out. I dont \nknow if that is a good or bad thing for him??????? but you are really \nfunny! '
p578
aS'Etc XDXDXDXD'
p579
aS'lol 2:08'
p580
aS'Blame it on the "Black Guy".'
p581
aS'It out?'
p582
aS'=.= '
p583
aS'Girls! do! fart! dude! this! Is! Not! Apart! of! the! sentence!'
p584
aS'I literally farted at the end of this video not even kidding '
p585
aS'Your videos are slow all'
p586
aS'hi emily '
p587
aS'This is so funny ! '
p588
aS'LOL ETECA '
p589
aS'I used "raising the volume" and it worked'
p590
aS'Uploaded before my Birthday :D and todays my Birthday'
p591
aS'Etc dtfllllll'
p592
aS'I learned the hard way that the fart game takes more than two people to \nwork. '
p593
aS'I DONT WANT TO HOLD IN MY FARTS TO LOOSE MY BABIES!!!'
p594
aS"After being on YouTube for 2 years now, I know how much hate people can \ngive to me when reading these kinds of comments but maybe someone may be \nnicer. My dream is to be an actor and i like to dance in public, but i cant \nget in performing school, and i just got 1,409 subs, which is pretty \nimpressive to me, but I'll never get noticed with these numbers. If someone \nwould have the heart just to give this a thumbs up and spend all of 30 \nseconds watching a vid, it would mean the world. Thank you all"
p595
aS'Pause at 2:27! '
p596
aS'my sister sharted today and i HAD to show her this video'
p597
aS'2:13 he who denied it supplied it...'
p598
aS'lol'
p599
aS'You forgot about the squeeker and the road warrior...'
p600
aS'Youtubers ! I NEED YOUR HELP !, i actually made my FIRST vlog yesterday ! \nand it\'s called "10 things you hated as a kid" and I want to know if you \nguys think I did ok for my first time ! This is not me spamming btw...I \nlove NigaHiga\'s work and all these popular vloggers and I want to know if \nyou YOUTUBERS think I did a decent job ! All i am asking is that you check \nit out and hit like if you thought it wasnt bad ! Thanks guys ! this really \ndoes mean a lot as I\'m new to vlogging ^^ <3 u all !!'
p601
aS'How old are you'
p602
aS"I'M CRYING RIGHT NOW HAHAHAHAHA "
p603
aS'2904 baby killers'
p604
aS'Plz watch my vids at untouchablebot3000'
p605
aS'Dafuq?'
p606
aS'What about the farts that burn?! Or TacoBell farts o-o Or Mexican food \nfarts in general... And... dafuq was up with your curtain? XD'
p607
aS'see the first "off the pill" ..... he takes pills that make him focus, but \nhe makes these vids without takin them. '
p608
aS'Someone PLEASE tell me where I can find the music at 00:23!!!'
p609
aS'I wanted to say I farted during this vid, but that would be awkward. Oh \nwait, just did...'
p610
aS'I cant breath hahahahahahahahahahaha omg I love u'
p611
aS'My mom is slient and volint and i am loun and poroud'
p612
aS'I am a girl and I just farted'
p613
aS'his dog maybe?'
p614
aS'because he takes a pill i thik to keep him from being like so random but on \nthese videos he doesnt take a pill so he is hyper and random. :D'
p615
aS"It's farting."
p616
aS'PARANORMAL ACTIVITY!'
p617
aS'Wth?! killing babies..vagina farts..XD'
p618
aS"Babies r over-rated Don't fart"
p619
aS'Etc= Etaca XD'
p620
aS"i like to answer my own questions, isn't that right? YES! lol luv that part"
p621
aS'Wind.'
p622
aS'watched this for a thousand times and still find it funny :)'
p623
aS'lol i died at the end'
p624
aS'LOL ettica'
p625
aS'I farted real loud at the end of this. Doing everyone a good deed so i dont \nkill babies'
p626
aS":D Ten points to whatever house you're in. That was the best comment I have \never read."
p627
aS'dat myspace link in the description'
p628
aS'like if William bought you here '
p629
aS'well, he has 2 dogs?'
p630
aS"Couldn't stop laughing @ the end."
p631
aS'u know ur right'
p632
aS"It's funny that I'm watching this vid in a library while holding in a \nfart... "
p633
aS'girls do fart I mean Rin Farted 10 times during filming'
p634
aS'"Why don\'t YOOOOUUUUUU figure it out!" Haha best part.'
p635
aS'Omg this was soo funny!! And I swear after he said teehee I farted at the \nsame time as he did'
p636
aS"I love this kid he's funny"
p637
aS'Ryan why Do you nerver answer people in the coments HUH?'
p638
aS'Oh yeah. well im watching it tomorrow....0__0! '
p639
aS'why is it called off the pill?'
p640
aS'An old lady farted near me and it was so bad I had to leave'
p641
aS'what happens if you farted in class? what does the teacher do to you?'
p642
aS'ahahahaha quief'
p643
aS'Farts: F to the A to the R to the T to the ASS'
p644
aS'f to the a to the r to the t to the s'
p645
aS'The "etc" made me laugh so hard'
p646
aS'no'
p647
aS'I literally farted once while watching this LOLOL.'
p648
aS'Thumbs up if you think Ryan should be a dub step dj.'
p649
aS'i fart and i am a gril '
p650
aS"I'm a girl and I just farted and I'm in 4th grade Vee LOL"
p651
aS'Lol love it'
p652
aS'he has no friends so he he uses lamps '
p653
aS"I'm trying to save lives and what are you doing your killing babies"
p654
aS'lol '
p655
aS'Save the babies xD'
p656
aS'Nigger'
p657
aS"WoW I remember how I lol'ed when I watched this vid back then in 2009!!! =P"
p658
aS'so farts equals babies dying? epic logic'
p659
aS'Lolololol'
p660
aS'So FUNNY !!!!!'
p661
aS"Girls fart also. I did, everywhere I wanna fart, just fart, that doesn't \nmatter. No need to get embarrassed, all living things do that. except \npillow, lamp, etc."
p662
aS'im silent but deadly '
p663
aS'Tehe!'
p664
aS'I like cheese'
p665
aS'love at first light <3'
p666
aS'i instantly laughing just with reading the opening'
p667
aS'Best video ever lmfao'
p668
aS'beurk'
p669
aS'(Etc)'
p670
aS'This guy ^^ haha lol'
p671
aS'Eticka'
p672
aS'platy horses etaca (etc.) '
p673
aS'im trying to save lives. what r u doing? youre killing babies.'
p674
aS"Cows don't actually fart."
p675
aS'2:44 What the heck is up with the curtain?!'
p676
aS'Nvm'
p677
aS'F to the a to the r to the t'
p678
aS'Best advice to how not kill babies'
p679
aS'I dont want to kill a baby...'
p680
aS'The only thing holding in gas does is give you a really bad stomach ache. I \nspeak from experience.. ._.'
p681
aS'Loud and violent or silent and and no smell'
p682
aS"I don't wanna kill a baby"
p683
aS'"etica" XD'
p684
aS'Dat was a weird into @.@'
p685
aS'can you make a big fart'
p686
aS'Why did YOUUUUUUuuuu stop making these?'
p687
aS'Do do do do do do do do'
p688
aS'Lol the warning XD'
p689
aS'I only hate it when fatasses fart.'
p690
aS"i've watched this video like a billion times! "
p691
aS'*_* dead ...rofling'
p692
aS'Hahahahahahahaha'
p693
aS"I couldn't breathe I was aughing so hard, is it wrong that I think he is \nright? lol"
p694
aS'Im a girl and i always fart. I dont have friends.'
p695
aS"Another tip: Don't pick up the soap in jail."
p696
aS'your eyes look extremely purple in this! '
p697
aS'The funniest video ever!!!'
p698
aS'XDDD So... Funny... Ninja Farts... XDDD'
p699
aS'yeh guys... think of the babbies'
p700
aS'AGREED Lolz'
p701
aS"Wasn't Japanese? @@ "
p702
aS'do you want to be a baby killer ? because every time you hold in your farts \nyour that much closer to killing a baby ! priceless, your too funny ryan (:'
p703
aS'yyyOOOUUUUUUUUUUU!!XDD'
p704
aS'i farted while watching this video :D'
p705
aS'Hey! You Have To watch Bayu skak:Ngentut iku sehat He is copying Nigahiga'
p706
aS'i dont want to kill babies i love them to muuuuuch! ;( those poor babies \nnooooooooooooooooooooooooooooooooooooooooooooooooooooooooooooooooooooooooooooooooooooooooooooooooooooooooooooooooooooooooo! \n;('
p707
aS"This video reminds me of the kevjuma's old videos"
p708
aS'You just gotta SCREAM ND SHOUT AND LET IT ALL OUT!!!'
p709
aS'I farted before I started watching this vid'
p710
aS'Wait I lost you at the killing babies part'
p711
aS'Thought for the day: never hold your farts in, they travel up your spine, \ninto your mind, and thats where the shitty ideas come from, right Ryan?'
p712
aS'what a jokerr!!! '
p713
aS'I stuck my dick in a vagina'
p714
aS'Farting is natural then i farted'
p715
aS'I fart I am a girl'
p716
aS'Fart all the time..! And ima girl(: no shame!'
p717
aS'Oh god, I cannot stop laughing and I have no freaking clue as why...'
p718
aS'etc. haha'
p719
aS'I farted a silent but violent when he was talking and it just came out of \nmy ass like a fuckin ninja'
p720
aS' I hate to smell it, but you make me laugh.'
p721
aS'Lmao'
p722
aS'i love nigahiga!!'
p723
aS"I can't stop laughing!"
p724
aS'Dear Ryan, can you be a penguin ?'
p725
aS"2:44 that's from South Park xD"
p726
aS'Whats up with him and lamps?'
p727
aS'Dear Ryan, Can you twerk?'
p728
aS'Subscribe if you farted in this vid'
p729
aS'Burrito night?'
p730
aS'His eyes had purple sparkles in it while spelling fart??'
p731
aS"That's funny"
p732
aS'im guessing swim wih sharks :)'
p733
aS'my bf shoud watch this video! haha '
p734
aS'ect.'
p735
aS"I don't know arab y don't yoooooouuuuuuuuuuuuuu figure it out"
p736
aS'yo ryan eally tell me man i hold my farts i think i am killing babies \nplease reply this is important'
p737
aS'LOL'
p738
aS'because he just farted and the fart gas moved the curtains.'
p739
aS'Queefs?'
p740
aS'F-A-R-T'
p741
aS'pillows fart.....now thats what i want to see'
p742
aS'XD'
p743
aS'i fart all the time '
p744
aS'Who ever denied it supplied it!!!'
p745
aS'Dafuq?'
p746
aS'KA MA HA MA HAAAAAAAAAAAAAAAAAAAAAAAAAAAAAAA FART'
p747
aS"2:43 there's a ghost in the background ;D"
p748
aS'Oooops i meant I farted while watching this'
p749
aS'he he he silent but vilent he he'
p750
aS'Lmfao'
p751
aS'Scream And Shout And Let It All Out'
p752
aS'Hahaha this is just AWESOME! XD'
p753
aS'Ryan you are so smart'
p754
aS'Oh my god I LOVE THESE OFF THE PILL VIDEOS. GO ADHD.'
p755
aS'shiart'
p756
aS"I'm a girl and I fart all the time"
p757
aS'Have you seen fart kill'
p758
aS'GIRLS NEVER FART'
p759
aS'I wonder if nigahiga really farts himself?'
p760
aS"It's quite OBVIOUS you have...... ghosts. In your room. Don't believe me \nbro? just re watch the video (\xe2\x9c\x96\xef\xb9\x8f\xe2\x9c\x96) "
p761
aS'Dear Ryan Can you eat upside down :o'
p762
aS'Where?'
p763
aS'i hate when people do that'
p764
aS'I showed this to my dad he cracked up'
p765
aS"Lol Ryan's so cute"
p766
aS'SILENT BUT DEADLYYYYYYYYY'
p767
aS'Girls dont fart?? HAVE U MET MY SISTER'
p768
aS'i farted just now '
p769
aS'WAIT A MINUTE......... GUYS CANT GET PREGNET SO THEY CAN HOLD IN ALL OF \nTHEIR FARTS ...... THAT IS UNLESS ..... NOPE THEY CANT HAVE KIDS.'
p770
aS'"EhhTiCa" haha'
p771
aS"Why don't yOUUUUUUuu figure it out xD"
p772
aS'TEEHEE'
p773
aS'Hahahaha. I like the blame one.'
p774
aS'did you say " because their breath is stink"? 0:53 '
p775
aS'The trick is to talk to the person next to u'
p776
aS'I love this vid check out my vids and subscribe while your at it'
p777
aS'hillarious '
p778
aS"He's right you know."
p779
aS'You saved a baby from dying!'
p780
aS'Platyhorses!!!!!'
p781
aS'I just Farted like 6 times in the row'
p782
aS'Then you would be lying'
p783
aS'my stomach... it hurtz xD'
p784
aS'Haha, ELSKER seri\xc3\xb8st dine videoer! xD'
p785
aS'he farted'
p786
aS'Really it can be either one.'
p787
aS'did you fart in the middle of this vid? you bet I did. ;)'
p788
aS'Lololololol'
p789
aS'your a big FART..'
p790
aS'XD No problem. Now that i realize two other people answered your question...'
p791
aS'Because of Ryan, i will never hold my fart for more O___O thanks, Ryan'
p792
aS'Go home your drunk.'
p793
aS'Well, he makes these while off his ADHD pill, but ADHD is something that \nmany people "grow out of" so maybe he\'s gotten old enough that he doesn\'t \nhave many symptoms of it anymore, thus rendering his ability to make these \nvideos null and void'
p794
aS'check this video girl farting watch?v=vZWMBtjgFgE '
p795
aS'u r handsome!'
p796
aS"Dear Ryan, You got the second ones name wrong. They're called silent but \ndeadly. Gosh everyone knows that!!"
p797
aS'i love this intro '
p798
aS'Im literally ROFLing right now... I have y'
p799
aS"I've looked at all the observations on here. I believe that it's a quality \nclip. My bro simply wishes to get exceptional with women. He was taught a \nshit load from Master Attraction. (Google it if you want pretty good emails \non picking up girls.) The tips concerned with attracting girls in clubs \nfrom Master Attraction got him his 1st sex in over 2 yrs. I was really \naggravated though coz I heard them all. Awful."
p800
aS'Funniest off the pill video ever!!!'
p801
aS'dafuq did i just watch'
p802
aS'catchy! =D'
p803
aS'Lmao GIRLS NEVER FART :D'
p804
aS'HAHAHAHAHAAHAHAHAHAHAHAHHAHAHAHHAHAAH'
p805
aS'you talk to fast:-)'
p806
aS'LOL He is so funny!'
p807
aS'I think he was high that day lmfao'
p808
aS"Ha ha he's so funny"
p809
aS'I burped.'
p810
aS"I don't want to kill baby"
p811
aS"2:25 was that a queef? Let's be honest..."
p812
aS'lol not babys'
p813
aS'Your actually kinda cute...'
p814
aS'I love ur videos i mean u are the funniest guy in the world!!!!!!'
p815
aS'Funny True its medically said that one should not hold it'
p816
aS'Silent but violent'
p817
aS"i don't know why don't YOUUUUUUUUUUUUUUUUUUUUUUUUUU figure it ouuuuuuut"
p818
aS'His eyes sparkle when he is spelling'
p819
aS'Murder babies'
p820
aS'*away'
p821
aS'thats good because i the silent but violent farts everyday but with the \ngirl i like i kill about 5 babies while im around her'
p822
aS'Boys cant be pregnant'
p823
aS'i saw you ON SUPAH NINJAS '
p824
aS'woah... weird stuff dude'
p825
aS'Check out my videos nigahiga nation!'
p826
aS'I cracked up'
p827
aS'I am a girl, so obviously I kill babies everyday ;)'
p828
aS'lol i have watched this 20 times and cracked up each time '
p829
aS"Sharts XD I'm dying!!!"
p830
aS'Ketchup farts...'
p831
aS'"And yet those are the stinkest one\'s" LOL'
p832
aS'I fart haha and I am a girl'
p833
aS'I love the head nodding'
p834
aS'I think u farted '
p835
aS'girls actually fart twice as much as boys just boys admit it more '
p836
aS'That wat so funny as hell i cannot stop laughing and he talks so fast.peace \nout!Teehee'
p837
aS'@arthur lee. You obviously missed it. Watch the video again. ;)'
p838
aS'That was awesome'
p839
aS'Dear Ryan, what would you do if you swam with sharks?'
p840
aS'So what was this all about?'
p841
aS'Dear Ryan can u be a Kpop Star'
p842
aS'no '
p843
aS'"Because their breath is stink." That\'s how you truly know you\'re Asian. \nxDDDD'
p844
aS'Omg I tried so hard not to laugh'
p845
aS'lamps under the age of 3'
p846
aS'What is background music'
p847
aS'Hahahahahahaha'
p848
aS'I love thoes videos'
p849
aS"I fart and I'm a girl"
p850
aS'Lol frikin awsome!'
p851
aS'when he smiles, he looks like kim hyungjoong.'
p852
aS'baby killing with farts LOL'
p853
aS'true story'
p854
aS'Forgot to say teehee'
p855
aS'these fart are freaking ninjas they just slip right out lol'
p856
aS'i like your vids'
p857
aS'am i the only one who thinks the lyrics in the beginning and the "do\'s" \nthat he sang don\'t match?'
p858
aS'Birds dont fart.'
p859
aS'LIKE 4 LIKE'
p860
aS"I'm holding mine now...so what, I have diarea!"
p861
aS'Are you a ninja?'
p862
aS'etica! lmao.'
p863
aS'The closed caption translation of the warning at the beginning: "the \nfinding of the apartment and out of the individual that is the kind of \nartificial birth and your call it that part of the list of things but \nbasically parties did it to detective to appear discretion is advised" Wow, \nwhat are the closed captions smoking. Must be powerful stuff.'
p864
aS'lol xD'
p865
aS'Ratchet... lol'
p866
aS'I wonder how many times he farted making that video'
p867
aS'Same here ^^'
p868
aS'1:43 :)'
p869
aS'The soulja boys made me laughed so hard =)))'
p870
aS"He's soooo cute! :-)"
p871
aS'But my sister farts all the time!'
p872
aS"HE'S TALKING TOO FAST so how do we kill babies by holding a fart again?"
p873
aS':)'
p874
aS'WARNING! The following video may not be appropriate for l.a.m.p.s under the \nage of 3. best!'
p875
aS'I got pretty butt-hurt though.'
p876
aS'gnf I have all these types of farts and more if you r in class your better \nto be silent but vilant plus if you set on a char it just makes the fats \nlouder'
p877
aS'Girls never fart just kidding...seriously xD'
p878
aS'DO DO DO DO DO DO DO DO DO DO DO DO DO DO DO ... LOL '
p879
aS"So that's were yoooooooooou came from lmao"
p880
aS'I laughed so hard on this vid.......XD'
p881
aS"Girls don't fart, they poof magic pink rainbows *FACT*"
p882
aS'I never hold in farts....maybe only at school though:P'
p883
aS'I killed a baby :('
p884
aS'Farts are nothing to be ashamed of . . . unless you shart. Then you need to \ngo to the store and buy a new pair of skivvies or be caught running around \nwith skid marks all day ;D'
p885
aS"I wish he'd bring back OTP's!"
p886
aS'One time I farted in class and someone said " how immature can you get" and \nI was like -.-'
p887
aS'do do do do do do do do do dodo do do do do do'
p888
aS'he has a dog...'
p889
aS'yea i did o.O'
p890
aS'Thanks for listening THAT WAS MY PHOTOSINTHSES PROJECT HEHAHAHAHEHEHE Could \nnot stop laughing'
p891
aS'The dog had the "my life is over" eye close'
p892
aS'ALANA SMITH . YES I WAS THINKING OF HIS LOOK A LiKE. POOF'
p893
aS'I during this video'
p894
aS"don't kill the babies!!!!"
p895
aS'Girls... . Quef'
p896
aS"I LOL'd so hard at the Soulja Boy farting part! He should've done a \nTerrance & Phillip farting part on here x-D"
p897
aS'ewllllll but funny teehee'
p898
aS'I just realized nigahiga must go threw some tough times with a mind that \nblows problems up to be more than it really is...'
p899
aS'He gets little wrinkle on his forhed. Its cute'
p900
aS'How the hell can you say that? -.- '
p901
aS'Teehee'
p902
aS'phhhhhhhhhhhhh. I think you did it.'
p903
aS'right. killing babies XD'
p904
aS'Cherry pop hes asian'
p905
aS'very funny'
p906
aS'my sister tells me to stop breathing...'
p907
aS'at 2.44 the curtain blows, did he fart?'
p908
aS'giraffes fart?!'
p909
aS"he's japanese,thats why ;O"
p910
aS"Can't stop laughing!!"
p911
aS'2:35 I LOL so hard i nearly pissed myself.'
p912
aS"Nothing wrong with farting. It's just that you should not do it in public. \nIt's rude for some people. But you can pass gas all you want when you're \ninside your house. "
p913
aS'My mom farted in an elevator in South Korea and blamed it on an old lady LOL'
p914
aS'no, lol i watch this like 2 years ago, it was just the first video i watch \nof him, thats how found him '
p915
aS'This is the best'
p916
aS'seagulls cant fart '
p917
aS'Hay do u believe in unicorns'
p918
aS"Idk bout u but I think he's hot"
p919
aS'Eteca. Lol'
p920
aS'what the fuck?'
p921
aS"Aww.... Too bad I'm a lamp under the age of three I guess I won"
p922
aS'Jesus christ, i just held in a fart...OH GOD I KILLED BABY!'
p923
aS'You can also get cancer from holding in your farts... Random fact...'
p924
aS'How can his mouth move so fast? ._.'
p925
aS"0:55 Lol! look at the dog's eyes! Ryan:Stop Breathing Dog:No."
p926
aS"I'm a girl and I always fart anywhere in school at home or anywhere I fart \ncuz ima proud"
p927
aS'Dear Ryan- How many ways can you blow up a watermelon?'
p928
aS'I shart all the time'
p929
aS'You talk to fast, it makes my computer lag.'
p930
aS'sharts.. lol '
p931
aS'what about toot ryan?'
p932
aS'lol I showed this to my 3 year old sister. :D'
p933
aS'U said lamps and my friends breath smells like poop'
p934
aS'i sharted while watching this video :D'
p935
aS'Fuck off.'
p936
aS'ryan = holded his fart to the end he killed to babys with his fart'
p937
aS'Hey guys we are a new channel please come check us out we will be putting \nout funny and great content please like our videos and subscribe'
p938
aS'Whats with your purple'
p939
aS'God i started fartinq while this vid was on'
p940
aS'about 5 babies die while im around her*'
p941
aS'thats so funny lol make more lol '
p942
aS'platy is atype of fish'
p943
aS'This is clearly an exxageration,yet it is true.Small things matter'
p944
aS'Ha girls dont fart they toot :('
p945
aS'My throat hus'
p946
aS"i'm still trying to figure out how babies are involved in this? lol ^^"
p947
aS'when he says etica instead of etc'
p948
aS'i love him'
p949
aS'i farted while I was watching this video'
p950
aS'You copied that from another video'
p951
aS'The reason people have fart breath is because they held in their fart for \ntoo long. The fart got absorbed into the lung and went right into the lungs.'
p952
aS'i farted while watching this'
p953
aS'My friend says oh comeon dude'
p954
aS'Farted while watching this.'
p955
aS'*lols*'
p956
aS'same, mine was "how to be a ninja" i think'
p957
aS'You made me laugh my head off (and all my body parts flew everywhere)'
p958
aS'sssh nz wd fan dz hh+ ft. 9'
p959
aS'OMG I DID'
p960
aS'YOUR EYES LOOK PURPLE IN THE BEGINING!!!!!'
p961
aS'Prick!Teehee'
p962
aS'i was just told this is what i sound like 50% of the time... maybe i need \nto go back on my ADHD meds...'
p963
aS'lol xD'
p964
aS'TEEHEE!'
p965
aS'at least ryan thinks farts are natrual when no one thinks so'
p966
aS'Lamps fart'
p967
aS'So so so so so SO so so so so...........FUNNY'
p968
aS'Girls are lucky 1.They can fart from the v**ina like its nothing. 2.they \ncan hide stuff in there v**ina'
p969
aS'i broke up with my girlfriend cuz she did a queef '
p970
aS"But I don't wanna kill babies"
p971
aS'YYYYOOOOUUUUU!'
p972
aS"I'm about to fart. I feel it coming..."
p973
aS'Dear Ryan you rock !!!'
p974
aS'Dear Ryan, I want to thank you for inspiring me to create my own youtube \nchannel. I always watch your videos and wonder how you become famous. I \nlove your videos. :)'
p975
aS'bababui'
p976
aS'i farted under this video'
p977
aS'Wannabe fartsthat come in the vagina'
p978
aS'lol silent but violent ;D i do that when my friends dont wanna leave -.-'
p979
aS"You talk so fast you could be an auctioneer! Seriously, I'm signing up. \nYour videos are hilarious! :-)"
p980
aS'Well sitting in class for example, gas just keeps building inside of me. As \nsoon as I get the chance I go outside for some major relief lol'
p981
aS'its called being asian...jk jk jk i love everyone :P'
p982
aS"Lol ur killing baby's !!"
p983
aS'2:01 raising the volume: that was my PROJECT ON PHOTOSYNTHESIS hope you \nenjoyed it'
p984
aS'ROFL DO MORE OFF THE PILL '
p985
aS'.m'
p986
aS'OMG!!! my dad farted during this video! my sis and I laughed our heads \noff!!!!! '
p987
aS'My girl cousin darted'
p988
aS'CSG ARMY!!!'
p989
aS'When he said eteca (for etc.) I had to stop the video nd LMAO!'
p990
aS'mitch little boy learn to speak right'
p991
aS'watch?v=GxxsP7VWVN8 see why girls never fart LOL'
p992
aS'Hehehe...I like it...Ok ryan next i will do my own video... Promise...Just \nwait.!!!!'
p993
aS'Im hot in BOTH WAYS!'
p994
aS'His curtians open at 2:44'
p995
aS"idk y don't yooouu figure it out :) xD"
p996
aS'I saved a life today.'
p997
aS'Whats The Music In The Intro'
p998
aS'lol'
p999
aS'lol'
p1000
aS'I\'ve just farted when your like "from the f to the a"'
p1001
aS'i luv this video '
p1002
aS'This is my first video i watched of nigahiga'
p1003
aS"lol but there isn't such a reaction"
p1004
aS"I love NigaHiga, he's so random and funny. I'm just here visiting some of \nhis older videos, waiting for him to come up with a new video."
p1005
aS'I tell my dog to stop breathing x)'
p1006
aS':]'
p1007
aS'Girls never fart...?Go ahead Ryan,ask my best friends what they think about \nit.'
p1008
aS'The fart before teehee scared the crap out of me, well the fart out of me \nteehee'
p1009
aS'You killing babies'
p1010
aS'TeeeeeeeeeeeeeeeeeeeeeeeeeeeeeeeeeeeeeeeeeeeeeeeeeeeeeeeeeeeeeeeeeeeeeeeeeeeeeeeeeHeeeeeeeeeeeeeeeeeeeeeeeeeeeeeeeeeeeeeeeeeeeee!!!'
p1011
aS'eteka... '
p1012
aS'I was laughing abs!!!'
p1013
aS'Do you fart on the field?'
p1014
aS'I meet people whose breathe smells like fart =))'
p1015
aS'Trolol'
p1016
aS'i just farted in front of my sisters friend who just came over for the \nfirst time. i think i embarrassed her...'
p1017
aS'lol dat ending XD'
p1018
aS'SHARTS >_< '
p1019
aS'silent but violent and loud and proud '
p1020
aS"The first one Is Linux and proud and they don't smell that bad so they r \ngreat for brith day party's :D"
p1021
aS'i just fart'
p1022
aS'Girls dont fart... We fluff.'
p1023
aS'I LIIIIIIIIIIKE!!!!!!!!!!! this video.'
p1024
aS'Platypeople!'
p1025
aS'lol platyhorse'
p1026
aS'bahahaaa his facial expressions when he farts'
p1027
aS'Mom: What stinks? Me: IT WAS THE COMPUTER...'
p1028
aS'It would be less awkward if I changed my tab to a porn site.'
p1029
aS"Girls don't fart and I'm a girl. So there you go lads."
p1030
aS'Do you really have ADHD? Or not'
p1031
aS' I farted '
p1032
aS'ill subscribe to you if you subscribe to me'
p1033
aS'One of the best videos ever :D'
p1034
aS'The shark happened'
p1035
aS'Recently I found a youtuber whos pretty funny but is not really famous so i \ndecided to give him some promotion! So everyone please check out Danomitism!'
p1036
aS'girls dont fart!!!!!!!!!!!!!!!! theey toot'
p1037
aS"That's soooo true! Lol"
p1038
aS'Not the dragons!'
p1039
aS"girls never fart they don't fart in public like some people"
p1040
aS'i tried to fart but i pooped my pants and my dog ate it'
p1041
aS'And this VideO made me fart again '
p1042
aS'Save the babies!!!!!'
p1043
aS'well thank you all for coming here and listening to me THAT WAS MY PROJECT \nON PHOTOSYNTHESIS ... hope you enjoyed it :) '
p1044
aS'LOL'
p1045
aS'correction, awesome'
p1046
aS'SHIT! My lamp is the age under 3!'
p1047
aS'Like if you start farting while you watched this video '
p1048
aS'thx i know now after watching the first "off the pill" '
p1049
aS'i AM Going to explode in 5 4 3 2 1'
p1050
aS"u should do a video on haters that don't h8 u!!!!!"
p1051
aS"Why don't youuuuuuuuuuuu figure it out. That wasn't me. What wasn't you. \n(Farts). That"
p1052
aS'Love u!'
p1053
aS'if you hold in a fart you expand and if you expand too much you explode and \nall your hody parts go flying every where then dogs cats DRAGONS sheep etc \nwill eat them and they will go after your babys YES your babies!'
p1054
aS'right,,,, i need to do my homework now.'
p1055
aS'Agreed'
p1056
aS'FARTS! F to the A to the R to the T! to the S....'
p1057
aS'Pikapew Poop Chu. Nuff said.'
p1058
aS'Girls do fart my sis blows it up'
p1059
aS'my new fav'
p1060
aS' iloveyou '
p1061
aS"But I'm not souja boy!!"
p1062
aS'wait wait....this is called "of the pill" cuz this is you when not taking \nur ....pills..?? '
p1063
aS'etekuh LMFAO "etc"'
p1064
aS'good thing im 4 years old'
p1065
aS'what song is at the beginning '
p1066
aS'do do do do do do do do do viewer discretion is advised.'
p1067
aS'Best video yet!!!!!!!!! :) <3'
p1068
aS'I do'
p1069
aS"Girls never fart? You've never met a couple of girls I hang out with, \nthey'll literally wait for a fart to come and laugh at it."
p1070
aS'my YouTube recommendation says this is 139 years old'
p1071
aS"Couldn't stop laughing"
p1072
aS'Dear Ryan, Can you wear your hair down?!?'
p1073
aS'well you know, girls do fart :D'
p1074
aS'bahahaha, oh my fucking lord. You sir, are hilarious!'
p1075
aS'Hahahahahaha!!!!!!!!!!!!!!!'
p1076
aS'When ever I fart they always stink I own up to it and people get pist of \nand my teacher sends me to the bathroom. LOL'
p1077
aS'THIS VIDEO IS SO AWESOME! My favorite fart is the shart! SO SUNNY! :D'
p1078
aS"'WARNING. The following video may not be appropriate for lamps under the \nage of 3.' XD"
p1079
aS'CUZ YOUR BREATH IS STINK. LOL'
p1080
aS'Fun fact: Girls fart 3x more than men.'
p1081
aS'his accent seems stronger here'
p1082
aS'Yup girls do fart'
p1083
aS'My friend is a baby saver...'
p1084
aS'LAAAAAAAAAAAAAAAAAAAAAAAAAAAAAMPS'
p1085
aS"+ what don't YOUUUUUUUUUU figure out? - that's genius xD"
p1086
aS'I farted'
p1087
aS'your super funny!! :D fart on! teehee '
p1088
aS'I farted Yolo you only ish once'
p1089
aS'i love it when he says etc. like eteka XD'
p1090
aS'I am GIRL. Hear me FART!! Teehee.....'
p1091
aS'ur name is a guys name... quifs are for girls... -_-'
p1092
aS"Crank that soulja boy! Is that the only have in the chorus? I don't know A \nrab why dont YOUUUUUUUUUU figure it out? That's genius! :))"
p1093
aS'i wont kill babies.'
p1094
aS'YOOUUUUUUUUUUUUUUUUUU'
p1095
aS'I tell every one at school that when u hold in a fart u kill a baby........ \nNow my classes smell like fart :('
p1096
aS"Do not show this video to my brother or my dog. It'll give them even more \nof an excuse."
p1097
aS'today i took a biggass fart and i blame it at my friend and my teacher send \nhim to the nurses office cause i was taking aloot of farts'
p1098
aS'next time if I fart and someone is like "eww you\'re disgusting" I\'ll be \nlike "If you don\'t fart, you\'re killing babies" and I would show them this \nvideo'
p1099
aS'Lololoolooooooooooololol'
p1100
aS'I just had a quif'
p1101
aS'such good grammar you got'
p1102
aS'2:26. his face... lol.'
p1103
aS'I love the fact tht he etica instead of etcetera'
p1104
aS'good question mr heather.'
p1105
aS'This video is hilarious'
p1106
aS'(This is inappropriate for children under 3-) lets go from the f.a.r.t'
p1107
aS'well, so i am a bog baby saver :)'
p1108
aS'he hasnt changed one bit haha'
p1109
aS'watch the curtains at 2:43. O.O'
p1110
aS'Lamps!:)'
p1111
aS'platy--- horses'
p1112
aS'i farted right at the end of the video... is like the video made me fart '
p1113
aS'Etc'
p1114
aS'Hahaha'
p1115
aS'wich type of fart? '
p1116
aS'DEAD'
p1117
aS'Dear Ryan, How would you react if video games were real?'
p1118
aS'FART'
p1119
aS'At school I do all those tips especially the getting louder then your fart \none'
p1120
aS'Naturally I farted the second I started the video xD'
p1121
aS'I do fart. One time I farted and everyone backed away ~ and I felt bad :('
p1122
aS'English.'
p1123
aS"First of all I'm not a hater I am subscribed and a big fan of Nigahiga. \nSecond, he is my brother who got on my Mac and started trolling end of \nstory."
p1124
aS'allie'
p1125
aS'thanks'
p1126
aS'2:44 its healthier if you lleet it out unlucky curtain...'
p1127
aS'you wear contact lense ?? your eyes luminous !! '
p1128
aS'Am i the only one that farted after this? '
p1129
aS'Dear Ryan your shut the front door'
p1130
aS"i sure as hell ain't afraid of fartin lol I'm currently at war with my \ncousin....losing.... X("
p1131
aS"He's of the pill :)"
p1132
aS"Actually, no, take a look at vsauce's video: Youtube code: Zt9rvaijpPY - \nFart Science it states that the oxygen, nitrogen, etc are expelled out from \nthe lungs take a look at video"
p1133
aS'HAHAHAHAHAHAHAHA OMB!! HAHAHA'
p1134
aS"That's genius!"
p1135
aS'hahahahahaha'
p1136
aS'i only queef during intercourse ... o.O'
p1137
aS'ROFL. Havent whatced tis video in a while'
p1138
aS'OMFG LMFAO brb dying!!!!'
p1139
aS"and now it's 2:34,but don't worry,you're still in the safe zone. ... \nprobably."
p1140
aS"Oh my freaking God, I can't stop laughing ... Does anyone know what ethnic \nis he?"
p1141
aS'etica :D I pronounce it etcetera or ect lol'
p1142
aS'omg i cant stop laughing'
p1143
aS'and i one time farted and some dude was like who did that so then he said \nit was like a fart trying to be hidden in like pbbt and then the dude that \nlikes me (he seriously does he admitted it) he was like whoever smelt it \ndealt it LOL'
p1144
aS"i have stayed up all night watching nigahiga vids.. its 3 am!! what have i \ndone with my life? :'("
p1145
aS'me too, loud and proud Lol'
p1146
aS'just stop breathing '
p1147
aS'U should rant about teen pregnancy, just cuz ...'
p1148
aS'lol fart aiot sike '
p1149
aS'This is true... Farts, burps, and etc. are natural, So what the hell makes \nthem wrong?'
p1150
aS'Lmfao this is one of your best videos'
p1151
aS'i agree with you ryan '
p1152
aS"If you don't let out your farts other gases inside your body's gonna start \nto build up and if its starts to build up its gonna make you expand and if \nyou expand to much your gonna explode. When you explode your body parts are \ngonna fly everywhere,dogs,cats,dragons,sheep they're gonna eat all your \nremains but what happens if they run out of remains to eat,that's right \ntheir gonna go for your babies"
p1153
aS'etica sounds cute ^-^'
p1154
aS'New vids please?'
p1155
aS'Laughing all the Time :D'
p1156
aS'when i was little and i saw this when i came out... at 1:20 where he \npronounced etc wrong well for the past 2 years i was saying it like that \ncuz i thought you were supposed to do that... im so stupid lol'
p1157
aS'haha lol i agree too'
p1158
aS"Never hold in a fart, it will go up your spine into your brain and that's \nhow you get shitty ideas. XD"
p1159
aS'when ever i fart in class and my teacher says "nicole that is VERY \ninnopropriate" i just say"sooooooo....do you WANT me to kill babys?!"'
p1160
aS'0:35 no one can do a better blank face than ryan higa XD'
p1161
aS'They showed me this in class today. I almost suffocated laughing and I was \ncrying a lot! xD'
p1162
aS"Yeah, I figured that out. I spent hours watching his videos, just couldn't \nstop... Thanks :) "
p1163
aS'if hot is an ethnic i would go with that, if not i think in a later video \nhe said something about being japanese but correct me if im wrong couse ive \nspend hours watching his videos so my minds a bit ryaned...sorry fryed'
p1164
aS'so, girls are the baby killers. u know what i mean. :P'
p1165
aS'ARE YOU A GOOD PERSON? Have you ever told a lie? yes or no. Have you ever \nstolen something? yes or no. So if God judges you only on 2 of the Ten \nCommandments will you be innocent or guilty? Heaven or Hell? For God said, \nall liars and thieves cannot enter heaven but will goto hell. Does that \nconcern you at all? But Jesus bore the sins of those who CONFESS and \nREPENT(turn from sin and turn to Jesus) and put their faith and trust in \nHim as there Lord and Savior shall have everlasting life. REPENT!!'
p1166
aS'oops i just farted lol'
p1167
aS'I farted after the video no joke'
p1168
aS'lol Ryan just lol'
p1169
aS'Curtains'
p1170
aS'Hahahaha!! i am laughing so hard.'
p1171
aS'Why do you like lamps so much'
p1172
aS'GIRLS. NEVER. FART'
p1173
aS"These farts are freaking Ninja they're just ' HooF ' omg i'm dead \n.....can't stop laughing ... =''D"
p1174
aS'random'
p1175
aS"Don't kill babies"
p1176
aS'well thank you all for coming here and listening to me that was mY PROJECT \nON PHOTOSYNTHESIS... hope you enjoyed it :D '
p1177
aS'2:43 did anyone see the curtain move??? '
p1178
aS'haha love this! to funny'
p1179
aS'Its kinda normal if I shart.u happens every 2hrs(jkjk)'
p1180
aS'0:51 i farted lol '
p1181
aS'ya u need to put more videos and mine is forrest geyer'
p1182
aS'He talks fast because its a RANT'
p1183
aS'Yup my dog farts and its weird'
p1184
aS'Killing babies... Ha ha'
p1185
aS"i can see the camera reflect in your eyes ... isn't that romantic?"
p1186
aS'Because if u do u might end up farting out shi- ANYWAYS'
p1187
aS"it's the wind man the wind"
p1188
aS'I eat babeis for lunch'
p1189
aS"it's already night"
p1190
aS'2:44 the curtains moved anyone noticed?'
p1191
aS'501 people exploded'
p1192
aS'he has a dog'
p1193
aS'You talk pretty fast like me lol'
p1194
aS'jesus!.... i was eating'
p1195
aS'This is my 2nd favorite vid after the first one ive ever watched of him.'
p1196
aS'me and my m other classmate are not ashamed when we fart we even use it as \na weapon in class'
p1197
aS'how do lamps fart........ haaa the fart light!!'
p1198
aS'This is the funniest video I have ever seen.'
p1199
aS'I farted while watching this'
p1200
aS'Rootbeer hamster'
p1201
aS"I just saved a baby's life."
p1202
aS'He forgot the wet fart'
p1203
aS'Haha. Ninja farts. Haha. Thats probably me.......'
p1204
aS'Lol'
p1205
aS'he was talking as if he didnt need to breath hahaha awesome!'
p1206
aS"Who isn't?"
p1207
aS'woah! nigahiga is a fast talker'
p1208
aS'@mikllasp I think you meant, people* I* and you*, I love when people fail.'
p1209
aS'What the'
p1210
aS"Dude that's the funniest video i have seen by u. and u look like u might be \na good friend. and do u still post video's?"
p1211
aS'I agREEEEEEE!!!!!!!! *farts*'
p1212
aS'I like it when he says "etc"'
p1213
aS"From Ryan's website: What does Nigahiga mean? Pronounced \xe2\x80\x9cneega heega\xe2\x80\x9d, \nit\xe2\x80\x99s a name I made up because it rhymed. Ironically, someone who was born \nand raised in Japan, told me \xe2\x80\x9cniga (neega)\xe2\x80\x9d means \xe2\x80\x9crant\xe2\x80\x9d."
p1214
aS'I laughed to death lol'
p1215
aS'queefs, LMAFFFFFAOOOO'
p1216
aS'My big sister is a baby killer'
p1217
aS'what does arab have to do with everything??'
p1218
aS'Loud and Proud :3'
p1219
aS'Me too! nighahigaFTW'
p1220
aS'0:17 thats my face when i watch his vids :] '
p1221
aS'I was actually stupid enough to imbibe during this.'
p1222
aS'Pillows fart.... Logic'
p1223
aS'What are You doing? Youre killing babies.'
p1224
aS'To the S...'
p1225
aS'You are so funny teehee'
p1226
aS'Killing babies .......lol'
p1227
aS'etc. pronounced: et-ic-keh xD'
p1228
aS'PLATYPUSES'
p1229
aS'etc. '
p1230
aS'he talks so fast.. hehe'
p1231
aS'i am so mad right know i just had a lot of comments that said mean thing \njust beacause i reported a picture aaa'
p1232
aS'holding in your farts makes sh!tty ideas'
p1233
aS'If you hold your fart then the gases from your fart can go back to your \nlungs and you would literally have fart breath! :)'
p1234
aS"According to this, I've never harmed a baby in my life!"
p1235
aS'TMI'
p1236
aS"0:53. you don't see me going around telling people there BREATHES stink. \nHahahaha lol"
p1237
aS'@Trelan Zee thumbs up'
p1238
aS'2:42 his curtains are haunted '
p1239
aS"*they're"
p1240
aS'silence but violence \\m/ LOZL'
p1241
aS'HERE HIM BRETHREN! STOP KILLING BABIES AND LET IT BLOW!'
p1242
aS'Ryan: stop breathing!!! Dog: ????'
p1243
aS'He talk so fast'
p1244
aS'i hate farts!'
p1245
aS"Yahoo I'm going with that kid on the bottom of me!!!!!! AND I NEVER DID \nHARMED A BABY YOU B*****"
p1246
aS'Ryan ur rong girls fart alot more than boys at my school'
p1247
aS"my sister0 ];lv0 n fg5d fiyg [mbjo['09gt\\[-"
p1248
aS"Dear Ryan, why don't you have a girlfriend?"
p1249
aS'Lolz'
p1250
aS'Why am I not subscribed to you yet?'
p1251
aS"*they're"
p1252
aS'Omggg this was so funny! I love when u talk fast lol'
p1253
aS'Dear, Ryan why are you soon hot\xe2\x99\xa1\xc2\xb7\xe2\x99\xa1\xe2\x99\xa5\xc2\xb7\xe2\x99\xa5'
p1254
aS'"Silent but deadly" is what my brother and dad does.'
p1255
aS'Lol "wanna-be farts"'
p1256
aS'R.I.P headphone users... '
p1257
aS"I didn't know pillows fart "
p1258
aS'Hahaha lamps...he REALLY likes lamps'
p1259
aS"He's not kidding about girls never fart! I neverl farted In my life!"
p1260
aS'Ive saved so many babies'
p1261
aS'laughed so hard '
p1262
aS'check out my channel please :D'
p1263
aS"First video by him I've watched. Following him since 2009, still at it."
p1264
aS'Your a grill'
p1265
aS'F 2th A 2 th R 2th T'
p1266
aS"Lawl too much laughter! XD I seriously can't even type up fave quotes from \nhim cause he has too many at his speed of speech! XD So glad I decided to \ngo back through his old videos XD"
p1267
aS'I dont wanna kill babies'
p1268
aS'qweefs lol'
p1269
aS'ikr (I know right) '
p1270
aS'hack into deez nutz!'
p1271
aS'His should be the most subscriber in youtube'
p1272
aS'so damn funny '
p1273
aS'haha he said dragon'
p1274
aS'i have LOTS of loud and prouds and then my silent but deadly is DEADLY VERY \nDEADLY!!!!!!!!! DONT KILL BABIES!!!!!!!!!!!!! '
p1275
aS'i had to pause the video so i could breathe... XD'
p1276
aS'solja boy one had me dying xD'
p1277
aS'Save the babies '
p1278
aS'Well thank you all for coming here and listening to me that was my PROJECT \nON PHOTOSYNTHESIS! Hope you enjoyed it.'
p1279
aS'Love it man'
p1280
aS"I'm a baby killer D;"
p1281
aS'Ohh slaped a BABY on an airplane'
p1282
aS'Dear Ryan - could you make a parody of Adele\'s rolling in the deep and that \ndumb movie called "The hunger games"? '
p1283
aS'hahaha so funny'
p1284
aS'I tried the techniques they work!.....jk'
p1285
aS"I don't know a-rap why don't YOOOUUUUUUUUU figure it out...."
p1286
aS'Ha, misconception about girls not farting. You should hear me after taco \nnight! jkjk! :)'
p1287
aS'Do do do, do do do do, do do do, do AAAHAHAHAHAHA'
p1288
aS"don't hold in a fart...or force one out..."
p1289
aS'whats the name of the song at 0:23?'
p1290
aS'u funny cute thing :*'
p1291
aS"Maybe he's a vampire!"
p1292
aS'GIRLS NEVER FART owh really'
p1293
aS'HAH! You said farts. :D'
p1294
aS'etc a'
p1295
aS'Right when you first said everyone farts my friend farted haha'
p1296
aS"That's genius! "
p1297
aS"pshahahaha, i actually tell people to stop breathing cus it's loud and \nannoying ._. HAHAHA :3 kittyface.."
p1298
aS'He has ADHD'
p1299
aS"I hate when guys say girls don't fart. Deal with it"
p1300
aS'same that happend to me once.... hey same name!!'
p1301
aS'Silent but violent'
p1302
aS"Ryan I sowed my friend this and he couldn't stop farting he said it was so \nfunny"
p1303
aS'Yyiiin m \njijjnnnnnbbbbhhoououoyoyyuouohohjuI9990000000000000000000yu77888999999999900007uuu66u677788899'
p1304
aS'i almost explode trying to hold in a fart after eating bush baked beans '
p1305
aS"i think u meant etc.. it's pronounced (et-ce-te-ra) i love when ppl fail."
p1306
aS'\xe2\x98\xba'
p1307
aS'This video is so appropriate omg j'
p1308
aS'LOL! me and my friend came up with all the diffrent kinds of farts and \nwrote them down. Like silent but deadly, miniature elephant, bombs, machine \ngun, and the duck. They all sound like the name suggests.'
p1309
aS'Lmao !!'
p1310
aS'I dont know why dont uuuuuuuuuuuuuu figure it out'
p1311
aS'My video lagged at 0:11 so it sounded like he was going to say F***'
p1312
aS'nigahiga said \'\'started" before it was popular 00:22'
p1313
aS'I farted while watching this. It was the silent but violent.'
p1314
aS'what do you mean when you say "just kidding, but seriously"'
p1315
aS"HOW DARE SOMEONE DISLIKE THIS COMMENT?! (No I didn't! T^T)"
p1316
aS'NICE ONE SISTER!'
p1317
aS'ur never 2 old 2 laugh about farts XD'
p1318
aS'umm in kindergarten i farted while we were singing abcs unfournataley they \nheard and i blamed on a boy named liam and know hes my fiance '
p1319
aS"when i was in third grade i didn't know what sharted means so i said it to \nmy brother all the time then my mom told me what it meant then i never said \nthat in till now !!! i love you off the pill ryan "
p1320
aS'what about wet fart '
p1321
aS'Oh no! I dont want my babies to die! <--- SJ&2NE1'
p1322
aS'Dear Ryan can you post a video of your worst fears'
p1323
aS"She said in the comment that she's a girl..."
p1324
aS'Etc he pronnouced it wrong I used to say it like that too'
p1325
aS'lol '
p1326
aS'form farting to killing pre-mature babies !!!!!! \nRANDOOOOOOOOOOOOOOOOOOOOM!!!!!!!!!!!!'
p1327
aS'that dog is the cutest dog ever!!!!'
p1328
aS'I use the denial technique a lot... and the blame technique too... THEY \nWORK!!!'
p1329
aS'snndjdjdmdmd,dmdjd'
p1330
aS'2:43 any one else see the curtain move'
p1331
aS'My sis must b a man, then!'
p1332
aS'rofl u :D'
p1333
aS'My farts are loud and violent.. the worst combination. '
p1334
aS'do you wanna be a baby killer? XD'
p1335
aS'NO WAY!!!...ur name is Jessica and ur a GIRL???...'
p1336
aS'dear ryan can you do how people talk to people they dont like '
p1337
aS'HE IS A DUDE!!!!!!!!!! '
p1338
aS'I farted while watching this.'
p1339
aS'He said queef funny.'
p1340
aS'Girl farts totally I am a girl too that is weird though the 4 farts loud \nand proud !!!!!!!!!'
p1341
aS'but... 1:06'
p1342
aS'You can all was pote'
p1343
aS'This video was AWESOME. Ryan please do more like this!!!'
p1344
aS'Ehtuhcuh'
p1345
aS'i farted like 5 times when i watched this....'
p1346
aS'Anyone notice how his eyes have a red "sparkle" or "shine"?'
p1347
aS"Dear Ryan : Can u PLEASE make a video about you're"
p1348
aS'OMG XD AOW MAH BELLEH LOL!!! *farts* oops IT WAS YOU!'
p1349
aS"HE'S SO FUNNY"
p1350
aS"Well that escalated quickly! :D p.s. you're hot! :D"
p1351
aS'best ending :D'
p1352
aS"I understand what you're saying but you talk too fast :))"
p1353
aS'yes! '
p1354
aS'I fartted watching this video'
p1355
aS"wait,wait,wait... if you hold in your fart and end up exploding then body \nchunks fly everywhere then all the animals start eating your body chunks \nand all your body chunks are eaten and they go for your babies doesn't that \nmean its good for you to explode so by holding in your farts your saving \nbabies"
p1356
aS'I fart & I am proud of it...My parents get disgusted w/ it and how loud I \ncan (FYI'
p1357
aS'etc. LOL xD'
p1358
aS'i farted while wacthing this '
p1359
aS'Times when Ryan talks fast.'
p1360
aS"U r so wrong. I'm a girl and we SO fart. ;)"
p1361
aS'this dudes obviously a an under aged lamp'
p1362
aS'this was disgustingly hilarious.. <3 '
p1363
aS'Like if you farted while watching this '
p1364
aS'2:36 made me stop because I started to laugh so much xDDDD'
p1365
aS'u r such a classic'
p1366
aS'hate it when the top comment is a repeat of a video -__-'
p1367
aS'i just died of laughter. '
p1368
aS'dear ryan, can you cartoon yourself?'
p1369
aS'HAHAHAHAHAHAHAHAHAHAHHAHAHAAHHA'
p1370
aS'*fart*'
p1371
aS"What's the Background Music @ the beginning.???"
p1372
aS'I just lmfao at this'
p1373
aS'Holy Shit Curtain moves in the background 2:44 '
p1374
aS'2:31 LOL :)'
p1375
aS'JUST STOP F'
p1376
aS'f to the a to the r to the t FART '
p1377
aS"everyone farts 1 pint a day so it doesn't matter. Some people do while \nthere sleeping and there muscles are more relaxed others during the day. I \nfart a lot in school and a kid said why do u fart so much? I replied \neveryone farts 1 pint a day so get over it prick. Yea if we fart a pint you \nmust fart a gallon, \nLOLOLOLOLOLOLOLOLOLOLOLOLOLOLOLOLLOLOLOLOLOLOLOLLOLOLOLLOLOLOLOLOLOLOLOLOLOOLLOLOLOOOLLOLOLOLOLOLOLOLOLOLOLOLOLOLOLOLOLOLOLOLOLOLOLOLOLOLOLOLOLOLOLOLOLOLOLOLOLOLOLOLOLOLOLOLOLOLOLOLOLOLOLOL"
p1378
aS'DEAR RYAN, I THINK YOU SHOULD GET IT BY NOW BE A UNICORN PLEASEEEEEEEEEEEE'
p1379
aS'Hilarious.... laughed the farts out ! lol jk. But seriously I laughed so \nhard... TEEHEE!'
p1380
aS'I fart :)'
p1381
aS'dear ryan can you be a fashion modle'
p1382
aS'YOUR VIDEO TRAUMATIZED MY CAT. -_-'
p1383
aS'Dear Ryan, Can you do a video about your worst fears? :D'
p1384
aS'I love how he goes "girls never fart, Just kidding, but seriously'
p1385
aS'Srry I mean to say JUST STOP BREATHING'
p1386
aS"UMMMM ACTUALLY girls do fart. I'm one, but once my dad farted and i was \nliterally knocked out for 10 minutes..... AWKWARD!"
p1387
aS'Hey. In 1st grade I farted and it was so loud. then I just looked at my \nneighbor. Soon everyone started looking at my neighbor. It was hilarious. \nAnd i am a girl.'
p1388
aS'love the intro!'
p1389
aS'dear ryan, can you metion these two names in one of your \nvideos.....kylie,claire? were super big fans! <3'
p1390
aS'which means girls kill babies. lmao'
p1391
aS'F to the A to the R to the T... to the S..'
p1392
aS'Good idea about talking louder while efing...;D'
p1393
aS'Why dont youuuuuuuu figure it out :D '
p1394
aS'Enjoy the music dodododoodododododododod lol'
p1395
aS"Why don't YOOOOOOOOOOUUUUUUUUU find out?"
p1396
aS'wow.., dude.... its like.... its like we watched the same video or \nsomething!'
p1397
aS"If you never hear a girl fart.... it's cause they are wearing a thong.... \nthankies from telling us that JennaMarbles xD"
p1398
aS'Does everybody know that ryan was on the show supah ninjas on nick'
p1399
aS'etica xD (etc.) '
p1400
aS'so f(teehee)ing awesome '
p1401
aS'that makes literally no anatomical sense dude '
p1402
aS"WHY DONT YOUUUUUUUUUUUU that's genius! LOL"
p1403
aS'hhahahahaa'
p1404
aS'dude your so funny today idk how many funny vids i stummbled across. \nanyway. your so freakin adorably cute! lol and a great personality.'
p1405
aS'As I watch this I fart!'
p1406
aS'the minute the intro ended, i farted'
p1407
aS'Dear Ryan, can you marry Regina?'
p1408
aS'2:57 do you wanna be a baby killer!?!'
p1409
aS"Okay, I love this video but that's not true! Girls release gas, but we just \ngo to the bathroom to do it. WE'RE polite, haha!"
p1410
aS'he trying to say he wants Ryan to act like understand a baby.'
p1411
aS'Friday'
p1412
aS'Me: *farts* Hehe Other person: EWWWW! - 20 minutes later - Other person: \n*farts* Hehe Me: EWWWWWWW!'
p1413
aS'hahahahahahaha'
p1414
aS'"The following video may not be appropriate for LAMPS under the age of 3.If \nyou would like to speak to an operator, please hold. Remember, your call is \nvery important to us. So please enjoy the music while your party is \nreached. *DO DO DO, DO DO DO DO DO, DO DO DO, DO.* Viewer discretion is \nadvised." Epic warning xD'
p1415
aS'Dear Ryan, can you host a slumber party? :)'
p1416
aS'Yep. They\'re called "varts" lol'
p1417
aS'Actually, YOU should learn proper grammar, moron. '
p1418
aS'HAahaha why dont yooouuu figure it out.'
p1419
aS'Dear Ryan, can you speak Singlish? '
p1420
aS'My sister has the quins the ones where it comes out her vigania'
p1421
aS'stop killing babies -_-'
p1422
aS'John Beny just shut up. Because over 6 million people disagree with you.'
p1423
aS'0:58, sometimes i meet people whos fart smell like breath'
p1424
aS'2:26 i have that fart sound on my fart machine toy thing'
p1425
aS'Then just fart it out loud!'
p1426
aS'i beg to differ that girls never fart......... '
p1427
aS'I wanna learn to talk as fast as he can '
p1428
aS'awesum intro'
p1429
aS'And this is how people win arguments and make you feel like a bad person. '
p1430
aS"I I.Q. lowering feel didn't like my read to it"
p1431
aS'haha :)) '
p1432
aS'XD i live this guy hey ryan can u take a trip to fort worth texas'
p1433
aS'I have no idea what you just said.'
p1434
aS'Ryan, what about burping?!'
p1435
aS'Cool story bro.'
p1436
aS"Mine are silent but deadly like a ninja maybe it has to do with the fact \ni'm Asian :P"
p1437
aS'farts! f to the a to the r to the to to the s '
p1438
aS'"etc."'
p1439
aS'do do do do do do doo dooo!! '
p1440
aS'I dont wanna kill babies D:'
p1441
aS'what do u mean..?'
p1442
aS'3:10 '
p1443
aS"THINK ABOUT THE BABY'S"
p1444
aS'lol its silent but deadly not sbv'
p1445
aS'Off the pill-ranting TEEHEE'
p1446
aS"While he's talking about the numerous types of farts. So charming."
p1447
aS'What is a prick'
p1448
aS'These farts are freaking ninjas'
p1449
aS'I JUST FARTS'
p1450
aS'I was eating in front of this...I almost choked to death from laughter.'
p1451
aS'Lol'
p1452
aS'Cows dont fart .....'
p1453
aS"he's got to change it up somehow"
p1454
aS"I stared at this comment for a whole ten minutes and read it over and over \nagain, but I still can't decipher what the fuck you just said."
p1455
aS'YES IT CAN'
p1456
aS'whats with you and lamps?'
p1457
aS'if whut he sed was true im extremely close to killing a freakin lot o \nbabies '
p1458
aS'posers...'
p1459
aS'Wait, so you mean that you had...'
p1460
aS'well...thx xD'
p1461
aS'The opening message killed meXD'
p1462
aS'PLATYPIES, I love them...! :D '
p1463
aS'Eteca'
p1464
aS'Yesh they do!!!Trust me O.o'
p1465
aS'That will happen'
p1466
aS'Ryan please stop talking so fast =='
p1467
aS'true but different episodes had different clips'
p1468
aS'Ryan is totaly hot and amazing!!!!!3;)'
p1469
aS"You'll figure it out once you lose your virginity, son. It was not such a \ngood experience for me though....."
p1470
aS'WHERES THE OLD INTRO'
p1471
aS'I just farted watching this'
p1472
aS"can't be the same all the time!!!"
p1473
aS'I just farted'
p1474
aS'I hate quifs'
p1475
aS'whats the old intro??'
p1476
aS'Hey guys if you could come check out my video that would be great. Thx! :)'
p1477
aS'i remember this'
p1478
aS"Or, if you're a girl, just wear a thong all the time!!!"
p1479
aS'NO'
p1480
aS'"Every time you hold in a fart, you\'re that much closer to killing a baby!" '
p1481
aS'Why does the music at 24 seconds sound SO familiar?!'
p1482
aS'not kangurus (Y) '
p1483
aS':P'
p1484
aS'lol me and my sister laughed so hard during this video.'
p1485
aS'more air out than in !!!!!!!!!!!!!!!!!!!!'
p1486
aS'WARNING the following video may not be appropriate for lamps under age of \n3.If you wud like to talk to an operater , pls hold. Remember your call is \nvery imp to us. So pls enjoy the music while your party is reached. DO DO \nDO, DO DO DO DO DO,DO DO DO , DO viewer discretion is advised xD \n!!!!!!!!!!!!!! '
p1487
aS"it's your silent but violent fart (so we didn't notic), it just went \nwooeesshhhh, like a ninja through your curtains"
p1488
aS'Like shrek said: "Better out than in" :D'
p1489
aS'O my god best video ever!!! Luv you nigahiga!!! <3'
p1490
aS'Etica!!!!!'
p1491
aS'Omg I know right! My sister says that farts are gross, and I\'m all like \n"would you rather kill a baby?" TeeHee!'
p1492
aS'A way to hold I. Your farts us to squeeze your butt cheeks as hard as you \ncan so it will come out slower and no one will know:)'
p1493
aS'This was a weird video'
p1494
aS'luv the blame one when ryan made that face.Ryan you are SOO FUNNY'
p1495
aS'Once a got a shark'
p1496
aS'do not turn on your captions during one of his videos. Totally wrong. He \ntalks way too fast and randomly. :)))))))'
p1497
aS'HAHAHAHA lol the Curtains Farted at 2:44 XDDD'
p1498
aS'my computer froze at 0:11'
p1499
aS'I laught so hard at 3:00 that i have to stop the video and laugh it \nout...and type it in here XP'
p1500
aS'thumbs up if you farted during this'
p1501
aS"coz ur eng ain't good"
p1502
aS'Your eyes look purple'
p1503
aS'I just watched you on kids react like a few minutes ago, and I was like Ive \nknown him before you did.(poker face) P.S. Your really cute and hot! ;)'
p1504
aS'Your Such A Freakin Cute Asian Heehee'
p1505
aS"Actually, when you hold in a fart, it goes back to your lungs and you \nexhale it. I know it's just a joke (and a funny one), but I'm just saying :)"
p1506
aS'raising the volume is such a SSSTTTUUUPPPIIIDDD!!!!!!!!!!!! idea'
p1507
aS'You seem like a genius.'
p1508
aS"Like this comment if you're still watching this in 2012. :D"
p1509
aS'Umm MY FARTS ARE FREAKIN DEADLY'
p1510
aS'i love this intro it makes me laugh all the time'
p1511
aS'1:20 etc. '
p1512
aS'Ehtakuh'
p1513
aS'silent but violent lolololol'
p1514
aS'Thumbs up if you farted during this video! *FART* TEEHEE'
p1515
aS'raising the volume OMG xDD so bloody true XD'
p1516
aS"Is it just me, or does Ryan's eyes look slightly purple in the beginning?"
p1517
aS'2:00 xD ME SO LAME! '
p1518
aS'Hey i just uploaded a new vid so check it out its called Stars Then and Now'
p1519
aS'2:42 the curtain farted '
p1520
aS'you remind me of my friend chae '
p1521
aS'watch the curtain at 2:41'
p1522
aS'LMAO!!!! he farts at 2:41 the silent but deadly type xD (watch the curtain)'
p1523
aS'I lauphed so hard i farted'
p1524
aS'fart, fart, fart, fart, fart, fart, fart, fart, fart, fart, fart'
p1525
aS'I fart'
p1526
aS'platyhorses...'
p1527
aS'ADHD. PERIOD.'
p1528
aS'watch?v=20SC1_qOn_M <----watch this video then you can comment!'
p1529
aS'Dear Ryan, Can you be a woman?'
p1530
aS'Cool'
p1531
aS'Awsome video'
p1532
aS'This and skitzo... why? Ryan, why did u stop??'
p1533
aS'KSI had a story and a girl queafed'
p1534
aS"Ryan. You're a genius. I'mma say that don't breath thing to someone I \nreally hate now."
p1535
aS'He he :-)'
p1536
aS'I farted while watching this...'
p1537
aS'Jenna Marbles also said that.'
p1538
aS'I frated Yolo'
p1539
aS'well....i juz farted o_o '
p1540
aS'Hahah i like this vid! Funny! It it true that he say the different kind of \nfarts!'
p1541
aS'i like how his eyes are shining :D'
p1542
aS'Hahahahahahah XD'
p1543
aS'Tehe'
p1544
aS'I used to not know why these videos were called "Off The Pills"... now I \ndo... hahahaha :)'
p1545
aS"No no! Girls don't fart!! They toot"
p1546
aS'funny'
p1547
aS'My friends aunt died when she held in a fart'
p1548
aS"stop trying to hold in your farts, its easier if you just let it out. \nbecause if you don't let our your farts, all the gases in your body is \ngonna start to build up, and then you're gonna expand. if you expand too \nmuch your gonna explode. when you explode your body parts are gonna go \nflying everywhere dogs, cats, dragons, sheep; they're all gonna be eating \nall your remains. but what happens when they run out of your remains to \neat? that's right, they're gonna go for your babies. da faq?"
p1549
aS'no I farted after the video'
p1550
aS'what the intro called you did in this video'
p1551
aS'I love the way he explains things jaja :]'
p1552
aS'This is what I was talking about on one of your other videos! Your random \ntrains of thoughts somehow make sense!'
p1553
aS"don't kill babies!! "
p1554
aS'hey i get the title "off the pill" it\'s because he has ADHD and he\'s \nranting without thaking that adhd pill'
p1555
aS'Haha!! I learned a life lesson, farting kills babys xD'
p1556
aS'The deaf people appreciate your work.'
p1557
aS'LMAO'
p1558
aS'Every time you hold in a fart, you\'re that much closer to killing a baby!" \nwell that escalated quickly'
p1559
aS'horses cows ecktuckuh'
p1560
aS"You forgot the machine gun farts! My dad does them ALL THE TIME! AND THEY \nSTINK LIKE S-, well you know the rest. (I don't curse in rl or online.)"
p1561
aS'haha i died of laughter when you said the second fart is like a ninja!! \nomg!!'
p1562
aS'LOL'
p1563
aS'i used to sit next to a kid who farted in class'
p1564
aS'This video just never gets old!'
p1565
aS"That's genius! "
p1566
aS'Hahahhahaahhahahaahah'
p1567
aS"I was about to stewed my cheese beacause it's to funny"
p1568
aS'I feel bad for the babies. It madonna stopped holding in her farts shed \nhave better songs and less dead babies'
p1569
aS'That was gross..but strangly funny. Wait- RABBITS CANT FART!!!! xD'
p1570
aS"So if we don't fart, we are killing babies? LOOOOOOOL"
p1571
aS'Dear Ryan,Can you grow wings and fly to heaven and smack hitler?'
p1572
aS'i dint know etc. can fart to '
p1573
aS"They're coming for your baby"
p1574
aS'Funny'
p1575
aS"When you hold in a fart, it starts travelling up to your brain, and that's \nwhen you start talking shit! So be smart about it and let it out! TEEHEE \n!!! Just kidding... But seriously... PS: Love the way you say ETC, that's \nhow we say it..."
p1576
aS'Rayns eyes are sparkly'
p1577
aS'prrrrrrrrrrrrpt'
p1578
aS'Hahha'
p1579
aS'every single word you said is correct. '
p1580
aS'Fuck D@'
p1581
aS'O mah guresh'
p1582
aS'I never knew etc farted and good advice when i see a pregnant woman always \nfart or you will not have the baby you were waiting for all your life'
p1583
aS'Useful tip for a silent but deadly after the fart move away to somewhere \nelse and blame it on someone near to where you farted'
p1584
aS'Well thank you all for coming here and listening to me, that was my PROJECT \nON PHOTOSYNTHESIS hope you enjoyed it :)'
p1585
aS'Who else tried a Loud and Proud at a b-day party?'
p1586
aS"good thing i fart..... i'd never want to be known as baby killer"
p1587
aS"different types of poop. King Kong or Commode Choker Poop ~~ This poop is \nso big that you know it won't go down the toilet unless you break it into \nsmaller chunks. A coat hanger works well. This kind of poop usually happens \nat someone else's house. The Never Ending Poop ~~ It's the poop that keeps \nrunning out of your butt like pee, and just when you start wiping your butt \nyour stomach gargles and splash, more poop runs out. This always happens \nafter eating at K.F.C. "
p1588
aS'lol my fav <3'
p1589
aS"THAT'S IT YOU GET ZE DECK!!!!!!!!"
p1590
aS'If you hold in your fart you get diarriah, so thats why girls take long in \nthe bathroom i think, other guys lets test this.'
p1591
aS'I AGREE'
p1592
aS'The Crippler ~~ The kind of poop where you have to sit on the toilet so \nlong your legs go numb from the waist down.'
p1593
aS'why dont YOUUUUUU 2:36 figure it out.'
p1594
aS"Ghost Poop ~~ You know you've pooped. There's poop on the toilet paper, but \nno poop in the bowl."
p1595
aS'...'
p1596
aS"This video made me cry :'( 2 funnyyyy"
p1597
aS'Oh Poop! Poop ~~ You poop so much and wipe your butt so furiously you run \nout of toilet paper and you say OH ****!'
p1598
aS'stinkest where do you get these words'
p1599
aS'I always make an attention please style before I fart.. so people will \nprepare their self.. because I know my fart is also smells bad.. TEEHEE'
p1600
aS'anyone notice the raise of volume? ;) 2:04'
p1601
aS'Just stop breathing Lololol'
p1602
aS'You are mouthing the whole thing'
p1603
aS'What is the falshing purple light that is in his eyes?'
p1604
aS'this is a funny video'
p1605
aS'hahaha soldier boy that was funny tha one where he said youuuuuuuuuuuuuuuuu'
p1606
aS'farts, derp I have had many silent but violents'
p1607
aS"Don't kill a baby"
p1608
aS'(gasp) BABY KILLER!!!!!!!!'
p1609
aS'PLATYHORSES lmao'
p1610
aS'Not to be racist but u dont have any eye lashes'
p1611
aS'Pls enjoy the music while your party is being reached Do do do do do do do \ndo do do do do viewer discretion is advised'
p1612
aS'ive saved so many babies ($**$**#*#'
p1613
aS'0:15, His Eyes! What is that?'
p1614
aS'2:05-2:11 lol'
p1615
aS'The Ring of Fire Poop ~~ The kind of poop where you eat really spicy food \nand your butthole feels like the inside of a cigarette lighter.'
p1616
aS'Lol'
p1617
aS'Wet Cheeks Poop ~~ This poop hits the water sideways and makes a BIG splash \nthat gets your butt wet.'
p1618
aS"HOLY SHIT! Just realised Ryan is one of the most popular Youtubers, AND HE \nDOESN'T HAVE A YOUTUBE PARTNERSHIP! Lol wat?"
p1619
aS'this reminds me of the book Everybody Poops XD'
p1620
aS"@rocky balboa that's genius"
p1621
aS'1:14 LOL lamps and pillows and platypies ha ha (p.s. platy pies is platypus'
p1622
aS'breth is stink'
p1623
aS"I love u ur so funny and y can't u marry me tomaro!!!!"
p1624
aS"I'm pretty sure off the pill means that Ryan has HDHD he tells us that I \nthink it's he takes medicine for it and sometimes it runs out so like he's \nranting about something correct me if I'm wrong"
p1625
aS'The intro was so funny to me I was laughing my ass off'
p1626
aS"Are you crazy that's not funny video"
p1627
aS'Gross yet surprisingly educating'
p1628
aS'there are the silent but deadly farts they just come out like fricken \nninjas. x) ha luv off the pill vids'
p1629
aS"'Queefs, these are the wannabe farts that comes from the vagina.... \nposers!' xDD"
p1630
aS'excedera like so on...'
p1631
aS'i love this video im obsessed with Ryan Higa now'
p1632
aS'Dear Ryan, can you put up more off the pill videos?'
p1633
aS'lol the silent but deadly one'
p1634
aS'lmao xD'
p1635
aS'"Sharts" ROFL!'
p1636
aS"this whole time I've been killing babies?! I had no idea :O"
p1637
aS'horses dont exist '
p1638
aS'Farting both good and bad Good for babies Bad for Global Warming '
p1639
aS'do do do do do do do do lol'
p1640
aS'Yea... gurls never fart.'
p1641
aS'Omg i couldnt stop laughing XD YOU ARE FUNNY!!!!'
p1642
aS"come on its all part of being human you can't deny it"
p1643
aS'It was funny heheheheheh'
p1644
aS"its 'etcetera' to be precise. i know my grammar and spellings thank you."
p1645
aS'The reason you should never force a fart cause you will shi anyway'
p1646
aS'This is the funniest Ryan video ever!!'
p1647
aS'my friend is at my house right know and she defenitley KILLED A BABY \n!!!!!!!!!!!!!!! shes all like "OMG Tabi i have to fart but ur sister is \nright infron of us and thats discusting" she hasent farted yet and after a \nwhile every1 is quiet like total silence when my sis and my best friend \nFART AT THE SAME TIME !!!!!!!!!!!!!!!!!!!!!!!!!!! it was soooooo discusting \nbut i dint say a word i went 2 my room CRAKING UP !!!!!!!!!!!!!! of laughter'
p1648
aS'look at the English transcript for more entertainment : )'
p1649
aS'me'
p1650
aS"I've done raising the volume b4 lol"
p1651
aS'I saved 1 baby today. :)'
p1652
aS"At the end of vid, TEEHEE farts too???... Well, he should fart more. It's \ngood for his health, so that he could live longer. I want TEEHEE stays with \nus forever :<"
p1653
aS'What an intro. LOL!?'
p1654
aS'i just saved baby triplets.'
p1655
aS'silent but violent'
p1656
aS'*farts* Ahh, I just saved a baby!'
p1657
aS"I'm not kidding bro "
p1658
aS'i saved 1000000 babies XD :)'
p1659
aS"Really farts that's the best you can think of"
p1660
aS'are you kidding me its all being human'
p1661
aS"Conclusion : don't hold your fart, or the animals will eat your meat. :P"
p1662
aS'Dear Ryan, can you make a Documentary about braces?'
p1663
aS'"I don\'t know, what about YOOOOOOOOOOOUUUUUUUUUUUU come up with \nsomething..." "That\'s GENIUS!!!"'
p1664
aS'i cant stop laughing '
p1665
aS'Makes me laugh EVERYTIME XDDDDD AHAHA'
p1666
aS'this vid brings back memories'
p1667
aS'Ahahahhhahahahha! Quiefs'
p1668
aS'Everything you said was true! especially with the freaken ninja farts, they \nare the smelliest! HAHAHA'
p1669
aS'is it wrong that I think he is always right?'
p1670
aS'any1 who where tht music is from tht hes used @ 0:24?'
p1671
aS'if you would like to speak to an operator, please hold. -3 hours \nlater-...do do do do do do do do...'
p1672
aS'Oh girls fart colledge*(I think spelled that wrong) humor showed me'
p1673
aS'I died laughing lol this is really funny'
p1674
aS'lol!!!!'
p1675
aS"i have adhd too it's apparently funny for people when u skip out on the \npill "
p1676
aS'Lol slender an is in his curtains.'
p1677
aS'ha! then you would love me, i neva leave it in! Muahaa!'
p1678
aS'hahahahahaha i love this guy he should make more vids hahaha '
p1679
aS'lol i see it '
p1680
aS'omg, he talks soo fast :p lool, sooo funny!!'
p1681
aS"i've just farted :)"
p1682
aS'I like this video. You are so funny. Make more '
p1683
aS'I pissed my myself when he said, they are going to kill my babys! :)'
p1684
aS'did anyone else notice how the curtain opened by it self at 2:44 o-o'
p1685
aS'Hahahahahahahaha!!'
p1686
aS"lmfao, i couldnt stop laughing all through that video x'D"
p1687
aS'i like the accent. :)'
p1688
aS'Young marley. :)'
p1689
aS"oh man I was in a bad mood. Then I watched this and I can't stop smiling \nnow :P "
p1690
aS'I farted just after this video ended. Curse you Ryan! :('
p1691
aS'LOLL = Logs Only Love Laughs '
p1692
aS'The advert I saw before this video talked about air quality. It ended with \n"Improve your air. Improve your life."'
p1693
aS'Brrrt'
p1694
aS'but... im a lamp and im under age of 3!'
p1695
aS'No farts= Baby killer Mind blow !'
p1696
aS'@MrJacgg Lol Venus is further away from the Sun than Earth so that would be \nimpossible.'
p1697
aS'i love you'
p1698
aS'Thumbs up if you farted right after watching this! (^.^)'
p1699
aS'Lol'
p1700
aS'"These are bunch of wannabee farts that comes out in the vaginas ... psshh \nPosers ..!! " LOLL '
p1701
aS'etaka! lol! (etc.)'
p1702
aS'I mastered the silent fart and now i am a fart ninja of the highest level i \nam like the ninja fart lord '
p1703
aS'No one needs to know that -.-'
p1704
aS" i haven't watched this video but i'm so glad i did"
p1705
aS'The picture of their faces at the end with 1 Direction bodies is so funny. '
p1706
aS'i hate farts '
p1707
aS'Lol "Horses, Cows, eteca." Made my day xD'
p1708
aS'I had to pause the video after every punch'
p1709
aS'haha.. i couldnt stop laughing. love off the pill rants'
p1710
aS'Fart. F to the a to the r to the t Teehee :P'
p1711
aS'awesome!!!!'
p1712
aS'etika for etc. haha!'
p1713
aS"You're so cute \xe2\x99\xa1\xe2\x99\xa5 I love you \xe2\x99\xa5\xe2\x99\xa5\xe2\x99\xa5"
p1714
aS'do do do do do do do do do do do do'
p1715
aS'I love you my step sister Skylar thinks your hott'
p1716
aS'etaca. LOLOL'
p1717
aS"Can't believe this was made in 2009. "
p1718
aS'You forgot the loud, proud and violent'
p1719
aS'STOP!!!!!!!!!!!!!'
p1720
aS'lol '
p1721
aS'haha!!!!!!! :)'
p1722
aS'blah i dont like u'
p1723
aS'I love how his eyes sparkle. :))'
p1724
aS'correction 11,435,224'
p1725
aS'do do do, do do do do, do do do XD I LOST IT!!!!'
p1726
aS'I farted during the vid lol'
p1727
aS'when the video was over. i farted '
p1728
aS'Platepi'
p1729
aS'That doll in the intro is my pet now.'
p1730
aS"I farted in a elevated and I'm 8 and a girl hahhaha"
p1731
aS'my dad says that saying etc eh-- teh-- cuh isnt right but i just like to \nfollow the fad bcuz its going around my school (im not telling which grade \nim in cuz i dont like nosy stalkers)'
p1732
aS'Why does Obamas speech come up in the suggested videos..'
p1733
aS"Ohhhhhhhh. My mom doesn't fart. She doesn't even queffe. She doesn't even \nhave the silent killer. But my dad does.........."
p1734
aS'TeeHee'
p1735
aS'Farts save babies -Ryan Higa'
p1736
aS'XD'
p1737
aS'4 types of farts 1.loud and proud 2.silent but violent(like ninjas swoosh!) \n3.quifs 4.sharts'
p1738
aS"Girls fart...they're just ninja-ey"
p1739
aS"I have Crohn's disease (IBD) and this made my life so much \nbrighter!!!!!!!!!!!!"
p1740
aS"how do you know that your mom doesn't queffe? were you inspecting her \nvagina? lol :P"
p1741
aS'I remember that I was in the knee sock world and it was an Irish man in the \nplace like a fault. The Irish man brought out public schools and they \nlooked like beads to me and robins everywhere. It was a baby fart and I \ncorresponded the flaught guy with the lots of public schools to the people \nwho wear knee socks. It was a sock as a public school was close to my foot \nfor a Doctor Fay on it and it was juicy grackles for a CD flaught of the \npublic school mess with robins and babies. '
p1742
aS'I almost shit my pants '
p1743
aS'yu funny :D ,ade my day'
p1744
aS'no '
p1745
aS'ninja fart'
p1746
aS'Platypus. Plah-tee-puss. They are really cool.'
p1747
aS'stink-est!?!?! HAHAHAHAHHAAHAHAHAHA!!!! I like how he never says stink-y, \nbut just stink.'
p1748
aS'"Never hold your farts in. They travel up your spine, into your brain, and \nthat\'s where sh*tty ideas come from" - some random ecard I found'
p1749
aS'You look and act so much like my brother:/ but hes a grumpy assgit:)'
p1750
aS'Haha. But seriously. Like one in a century will she fart'
p1751
aS"I just threw up water because I was drinking while watching it's TOO funny"
p1752
aS"Why don't YOUUUUUUUUUUUUUUUUU! Figure it out xD"
p1753
aS'platy...horses,cows,eteca. '
p1754
aS'HOLDING IN FARTS AND CALLING PEOPLE GROSS AND IMMATURE FOR FARTING IS JUST \nWRONG! '
p1755
aS"98% of the gasses in farts is actually absorbed back into the body. The \nstinky gases (2%) stays. So basically...if you hold your farts, it's gonna \nbe even worse when you let it out."
p1756
aS"What's up with you and lamps Ryan? xD Awesome video as always!"
p1757
aS"I don't now ARod y don't UUUU figure it out That's ginuse"
p1758
aS'You pronounce etc. the same as me!! <3'
p1759
aS'You sound like a direct tv commercial when you talk about how holding in \ngas leads to killing babies lol'
p1760
aS'lol f a r t'
p1761
aS'"etc" lol'
p1762
aS'I just saved 200 babies'
p1763
aS'i queef all the time'
p1764
aS'this has the same intro as off the pill dancing'
p1765
aS'i had to fart while watching this video.....'
p1766
aS'GIRLS NEVER FART we never do \xe1\x95\xa6(\xc3\xb2_\xc3\xb3\xcb\x87)\xe1\x95\xa4'
p1767
aS'0:21 anyone notice the purple eyes?'
p1768
aS'Amazing'
p1769
aS'Hahahahahah I love the rising the volume and the rest u made me lol'
p1770
aS"If you hold in your farts It'll go to your brain, and you'll get shitty \nideas."
p1771
aS"fart = saving babies. that's some logic right there. "
p1772
aS'oh my god, this video made me laugh so fucking hard xD one of your best \nones, Ryan<3'
p1773
aS'if you think grls dont fart... you should see our sleepovers...'
p1774
aS'Mhm most definitely (:'
p1775
aS'lol i hav adhd!!!!! :D:D:D:D lol this is sooooo me when im off my \npill!!!!!!! lol'
p1776
aS'If you died then...your a ghost :O'
p1777
aS'Etacha LMAO'
p1778
aS'I laughed so hard when he said: "I like to answer my own questions! isn\'t \nthat right? YES'
p1779
aS"I can't stop laughing hahahah"
p1780
aS"Hahaha! It's true girls don't dart because they toot"
p1781
aS'lol i laughed so much'
p1782
aS'i got lost in the TEEHEE'
p1783
aS'his eyes look purple'
p1784
aS'1:07 GIRLS NEVER FART lyer thats not true i hear girls fart in the locker \nroom all day dont ask me if im a girl '
p1785
aS"I'm a girl and always admit it when I fart, who cares??? XD"
p1786
aS'Im a girl and I fart AAAAAALL THE TIME!!'
p1787
aS'WATCH ALLTIME10S'
p1788
aS'OMG I have just saved a life by letting it out!!!!'
p1789
aS'Haha'
p1790
aS'thumbs up if you farted while watching this video'
p1791
aS'Lol i read your comment and died with laughter xD'
p1792
aS'He said JK'
p1793
aS'The silent but violent, THEY ARE FREAKIN NINJAS MAN!!! '
p1794
aS'Dear Ryan, can you do more off the pill videos? I really like them!'
p1795
aS"Okay, seriously, Girls don't fart"
p1796
aS'1. put it on captions 2. watch video 3. LAUGH YOUR BUTT OFF! '
p1797
aS'so in soulja boy when thet said youuuuuuuuuuuuuuuuuuuu they farted LOL '
p1798
aS"I......can't .......stop.......laughing!!! :)"
p1799
aS'how come ur eyes are sparkly? lol'
p1800
aS'and people say that drugs are bad for you^^!'
p1801
aS'there are four types of farts.. lol quiffes.XD'
p1802
aS'Best. Intro. Ever.'
p1803
aS'Dear,ryan can you be princess?'
p1804
aS'Shii anyways "............hahahahaha'
p1805
aS'this video is awesome sooooooo funny '
p1806
aS"why is it called 'Of the pill'?"
p1807
aS'Wow, OMG you look really amazing in this video <3'
p1808
aS'mine says 43..@stalkinurmom10'
p1809
aS'i could just record this -'
p1810
aS'2758 babies have been eaten'
p1811
aS'did anybody fart while watching this?'
p1812
aS"That's right the go for your babies XDDD"
p1813
aS'this is the funniest nigahiga vidio ever!!!!!!!!!lol'
p1814
aS'>.< lolzz'
p1815
aS'Farts are funny.'
p1816
aS'Teehee!!!!!!!'
p1817
aS'am i the only one that farted while watching this...?'
p1818
aS'I see you watched the video too'
p1819
aS'2:44 dafuq did I just watch'
p1820
aS'HAHA'
p1821
aS'do do do, do do do do do, do do do, do BEST MUSIC EVER'
p1822
aS"they do but it's the wind that blows it away"
p1823
aS'How about pussy-farts? :D'
p1824
aS'im a girl i fart (alot)'
p1825
aS'Do u do pills?'
p1826
aS'In his first one he explained he normally takes a pill to aid him with his \nADHD, but his "Off the pill" videos are ones which he makes and edits \nwhile, as the name implies, off the pill.'
p1827
aS'A booty sitting down screwing real hard'
p1828
aS'lolz'
p1829
aS'Do do'
p1830
aS'Thumbs up if u farted while watching this'
p1831
aS'FUNNIEST NIGAHIGA VIDEO EVER! !!!!!!!!! lol'
p1832
aS'platyhorses! :D'
p1833
aS'Lol someone in music class farted very loud. The room was silent. Haha.'
p1834
aS"i am trying to save lives and what are you doing, you're killing babies \nbaby killers JK lol"
p1835
aS'Um, When I was in high school a lot of the guys liked to fart...a lot!!! I \nsuffered through many classes with those clowns. I come from a home that \ncan appreciate a good fart but it got so bad in one class that the girl \nsitting behind me left the class to go puke. '
p1836
aS'any 1 else think of platapussies?'
p1837
aS'same here'
p1838
aS'This is the all time best video EVVVAAARRR'
p1839
aS'Are you on high?'
p1840
aS'I like balla'
p1841
aS'Hahahahahahaha silent and violent'
p1842
aS'ehticuh xD'
p1843
aS"I cant believe I actually farted while watching this vid...and I'm a GIRL-_-"
p1844
aS'dear ryan, can ou do ganag'
p1845
aS'When somebody farts, say that when you fart your ears are hot. If someone \ntouches his ears, well you know! :D '
p1846
aS'funny moment when your trying to holding your fart in and watching this \nvideo with roommates in the room :D'
p1847
aS"I don't want my nonexistent child to be eaten TT^TT"
p1848
aS'Same here @jayjayfres'
p1849
aS'thank you '
p1850
aS'U r my favorite youtuber eeeeeevvvvvvvvvvvvrrrrrrrrrr:-):-):-):-):-):-)x'
p1851
aS'Going all the way back xD so funny'
p1852
aS'MUSO GIALLOOOOOOO.. un consiglio... STAI SEDUTO E ASPETTA CHE TI PASSI... \nDIIIIISTRUTTOOOOOOO'
p1853
aS'Haha'
p1854
aS'did i just read lamps? LOL now i know that lamps fart!'
p1855
aS'yes, yes they can. if you watch a tree closely it will fart and get nervous \nand starts waveing its leaves to keep away the fart. that where the babys \ncome car+ chocolate-.-'
p1856
aS'LMFAO!!!!!!'
p1857
aS'EWK~ the smell of your farts got here... '
p1858
aS'I KNOW U MAMA DOES LOL '
p1859
aS'LOL LMFAO'
p1860
aS'I farted during this video'
p1861
aS'When i was in music class this guy farted and we thought it was a kid \nplaying the tuba!! : D'
p1862
aS'lol this happens durning test'
p1863
aS"I can't breath, heart attack!!!!! Ryan!!!! My farts usually are in the \nsecond category.... You talk SOOOOOO fast I wonder how you still breath... \nOh yes I do. Rant too!!!"
p1864
aS'this is the most ive ever laughed at a video!!!!!!! '
p1865
aS'Etekeh. BTW, girls do fart.. Heaps ;D'
p1866
aS'haha ec ta hehe F to the A to the R to the T tee hee F.A.R.T. '
p1867
aS"Farting isn't that bad. Back in six grade, it wasn't disgusting. It was \nhilarious. A kid farted in music class and my friends and I started to roll \non the floor, laughing. The teacher didn't even really care!"
p1868
aS'I burst out laughing at the rant part of the video and farted :D '
p1869
aS"Best.Vid.EVER! I want to fart loud and proud now, but its almost one in the \nmorning and I don't wanna get heard :3"
p1870
aS"GIRLS NEVER FART!!!!!!!!!!!!!! ya like that's right this video is one of my \ntop favorites!! i kept laughing at the the part when it did the raising the \nvolume i always do that part but sometimes i gotta deny deny deny deny last \nyear at 2011 this boy named Philip farted in my class"
p1871
aS'My mom'
p1872
aS'LMAO XD'
p1873
aS'Dear ryan can you bake a cake'
p1874
aS"If you don't let out your farts you're gonna expand if you expand so much \nyou're gonna explode if you explode your body parts are gonna be flying \neverywhere dogs, cats, dragons, sheep they're all gonna be eating your \nremains but what happens when they run out of remains to eat? That's right \nthey're gonna go for your babies. So don't hold in a fart."
p1875
aS"I can't stop watching these"
p1876
aS'omg i have got to show this video to my girlfriend '
p1877
aS'He said lamp can fart so i guess trees can fart too :D'
p1878
aS"Omg this was hilarious! I'm subscribed!"
p1879
aS'but im in middle school and i always fail to make it silent but deadly and \nif i do make it silent but deadly i can easly blame it on someone else '
p1880
aS'My favorite book when I was young and very immature was: The Gas We Pass: \nThe Story of Farts. Genius book'
p1881
aS'Yes, I know farts are a natural source of....whatever but...it\'s kinda hard \nto not say things like "Stop farting!" Or anything like that.. because my \nsister...her farts come outta nowhere o.o Seriously, she\'ll randomly fart \nfirst thing when she wakes up.. =.='
p1882
aS'No the question is if you fart!'
p1883
aS'I love the Off The Pill rants xD'
p1884
aS'just kidding but seriously!'
p1885
aS'gaahd that last fart got me good.'
p1886
aS'after the you spelled farts I farted :3'
p1887
aS"Yes. It's called oxygen :D"
p1888
aS'Something my sister once said after trapping me in a car: "I just farted. \nUnless you don\'t smell anything. Then, I didn\'t." Just kidding....girls \ndon\'t fart. (I almost died) :/'
p1889
aS'I nearly died laughing from this video'
p1890
aS'i only saved OVER 9000 babies :('
p1891
aS'Its pidgin thats what we say in hawaii'
p1892
aS'Actually,girls do fart.like Mai sis.'
p1893
aS'Next we have the silent but violent. These farts are friken ninjas they \njust whoop out without anybody knowing and yet those are the stinkest ones. \nHaha so friken funny'
p1894
aS'Stop that awkward thinggy!'
p1895
aS"Why don't yooooou! (Not to anyone in the comments)"
p1896
aS'this----> youtube.com/watch?v=DxHXbp3gBvs'
p1897
aS'etc... lol Hahaha'
p1898
aS'i farted at the same time as the teehee farts'
p1899
aS'"if you dont let out your farts all the gas inside your body will start to \nbuild up if it builds up it will make you expand and if you expand to much \nYOU\'RE GONNA EXPLODE!!!" TEEHEE'
p1900
aS'OH NOEZ IM A BABY KILLER?! lol'
p1901
aS'Platyhorses xD'
p1902
aS'how do you do your hair like that my bros a wanna be'
p1903
aS'heh funny '
p1904
aS'good im not a baby killer because i fart a lot'
p1905
aS"That wasn't me. What wasn't you? *Fart* That.... Lol"
p1906
aS'Hahaha so funny!!!l'
p1907
aS'haha dogs,cats,dragons haha'
p1908
aS'God he talks so fast wish i could talk that fast.....'
p1909
aS'Dude geezers STOP cussing in the comments.By the way i love your videos. ;)'
p1910
aS'0:28...kinda like the grudge! '
p1911
aS'hahahahahh a wannbe fart '
p1912
aS'Sometimes, i meet people whos breath smell like fart, and other times ITS \nWORSE! Like if you have.'
p1913
aS'Just farted 0.0'
p1914
aS"I'm trying to save lives. What are you doing? You're killing babies."
p1915
aS"Why don't YYYOOOOUUU figure it out? That's genius!"
p1916
aS'oh my gosh, i laughed so fucking hard at this xD thank you, you made my day \nbetter-3'
p1917
aS'i got explod'
p1918
aS'i farted while typing thi thumbs 1 fart for one thumb up'
p1919
aS'LMAOxD\xe2\x99\xa5'
p1920
aS'I love this video '
p1921
aS'can trees fart ?'
p1922
aS'Killing babies!!! Rofl lol'
p1923
aS"He like me I talk fast when I'm excited"
p1924
aS'thats weird'
p1925
aS"i don't know a rab why don't yoooooooooooou figure it out "
p1926
aS'Hey Ryan, can you do "Off The Pill-Oppa Gangnam Style" thumb ups so he \ncould see it.'
p1927
aS"Loud and Proud are loud but not stinky so they're good for birthday \nparties. get the logic?"
p1928
aS'at 2:43 the curtain moved. Ryan had a ninja fart. -_____- GOOD FOR YOU \nRYAN! SAVE LIVES!!! :D'
p1929
aS'guess his fart did a somersault :D '
p1930
aS'That just might have been his Fart :) '
p1931
aS"Ok people!! It's OPPAN gangnam style, not oppa!!"
p1932
aS'Seems Legit'
p1933
aS'Why dont YOOUUUUUUUUUUUUUUU start using space bar.'
p1934
aS'My mum farts all the time.. But she never farts in front of mah dad.. haha'
p1935
aS'lol the way he said etc.'
p1936
aS'if you hold up farts you are killing babies, boy that escelated quickly...'
p1937
aS'of the pill....ows'
p1938
aS'My Girl friend farted in our first kiss in an elevator '
p1939
aS"Pigeons don't"
p1940
aS'Lol hahahahahahahaha'
p1941
aS'Lol'
p1942
aS'2931 people killed a baby'
p1943
aS'Omg omg im about do pee cuz im laughing too hard'
p1944
aS'etc: eh ti ka this was hilarious omfg. '
p1945
aS'GIRLS. NEVER. FART. Just kidding! BUT SERIOUSLY.'
p1946
aS"HOly crap this is funny. I couldn't quit laughing . :D"
p1947
aS'Hi'
p1948
aS'I litteraly randomly burst out laughing when he said "etc."'
p1949
aS"hahahaha he's cwazy!!! xD but it's all true!"
p1950
aS'why are you so obsessed w/ lamps?'
p1951
aS'It was because Ryan actually farted.'
p1952
aS'One time I farted so loud I fell down and blamed it on my teacher and she \nwas like"...No? I fart silently"I\'m like"SEE,her fart was had huge wind but \nit was S.I.L.E.N.T Something I like enough not truestory.'
p1953
aS'at least someone else thinks this way about farts besides me'
p1954
aS'Lol xD'
p1955
aS"My mom told me that everyone will eventually explode if you don't burp or \nfart lol"
p1956
aS'Omg too funny'
p1957
aS'75 percent of this video is true.'
p1958
aS'you are fucked up my friend'
p1959
aS'why u are so cute!! XD'
p1960
aS"Oh thank god I've been holding it in forever. pff"
p1961
aS'Dear Ryan, can you wrap?'
p1962
aS'BAAAHAABAHAHAAHAHAHAHAHAH XD Ahaha ah ah ah ah A eh eh AHHehhhhHHHHHHHhhhhh \nanother entertaining video :) '
p1963
aS"If you hold in farts, the gases aren't going to have anywhere else to exit, \nso they go back into your respiratory system, and eventually out your mouth \n(not like an actual mouth fart or some odd thing like that, your breath ill \njust smell bad.)"
p1964
aS"i hang around guys and they burp. and occassionally fart. it's normal. i \nhang around girls and guys. the other girls get grossed out. i don't. why? \nbecause it's normal. that and the fact my whole family farts (i'm ashamed \nto know them)"
p1965
aS'that wasnt me'
p1966
aS'Oh my glob thats so funny i cant stop laughing!'
p1967
aS'i saw it but didnt say anything'
p1968
aS'people who are insane dont know they are insane so if you ever worry that \nyour crazy then your not because you are aware of it so you are not crazy'
p1969
aS'I cracked up laughing ... Crying of laughter ... ROFL'
p1970
aS'Oh my glob? You watch AT? O MAH GLOB.'
p1971
aS'no'
p1972
aS'"Every time you hold in a fart, you\'re that much closer to killing a baby!" \nLOL '
p1973
aS'u mean 2:44....'
p1974
aS'Hahaha'
p1975
aS'its called wind through the window einstien'
p1976
aS'Even my girlfriend NEVER FARTS?! Mhmmmmmmmmmmmmmmmmmm.*Looks at camera*Why \nis there a camera here? o.O'
p1977
aS"I heard once that if you think out loud, it's okay, but if you answer your \nown questions, you're a bit...you know, mental/crazy/insane."
p1978
aS'that wasnt me wat wasnt u ......... THAT '
p1979
aS'What are you doing? Killing babies...'
p1980
aS'.,,'
p1981
aS'well that escalated quickly....'
p1982
aS'That akward moment when everyone in the room synchronized farts while \nwatching this video'
p1983
aS'I sharted'
p1984
aS'your cool'
p1985
aS'brb dying'
p1986
asS'time'
p1987
ctime
struct_time
p1988
((I2009
I10
I1
I4
I48
I11
I3
I274
I-1
t(dtRp1989
sS'id'
p1990
V5pZbpUy7i_s
p1991
s.