(dp1
S'title'
p2
VOff The Pill - Stink People
p3
sS'url'
p4
Vhttp://www.youtube.com/watch?v=96c--mQ_rP4&feature=youtube_gdata_player
p5
sS'image'
p6
Vhttp://i.ytimg.com/vi/96c--mQ_rP4/0.jpg
p7
sS'comments'
p8
(lp9
S'it is really cool to know that i could have walked right by higa and not \nknow who he is because i also live on the big island of hawaii\xef\xbb\xbf'
p10
aS"You can make cookies without cow's milk.\xef\xbb\xbf"
p11
aS'the beginning is funny\xef\xbb\xbf'
p12
aNaS"Miracle's have hapend.\xef\xbb\xbf"
p13
aS'Never realized how high his voice was then\xef\xbb\xbf'
p14
aS'1:38 part of you probably did\xef\xbb\xbf'
p15
aS'his accent is so different in this video!\xef\xbb\xbf'
p16
aS'Ryan speaking is so different ... he improved :) .... cute ^-^ .... 2014 :D\xef\xbb\xbf'
p17
aS'watched \xef\xbb\xbf'
p18
aS"I don't know why people tell him to open his eyes his eyes are perfectly \nopen so you guys need to open your eyes. -.-\xef\xbb\xbf"
p19
aS"Lol it's ironic because there was perfume ad before this video lol XD\xef\xbb\xbf"
p20
aS'The fastest and easiest way to destroy the world, exterminate the cookie \nrace.\xef\xbb\xbf'
p21
aS"Lol he had this accent back in 2009, it's really cute though :)\xef\xbb\xbf"
p22
aS'who watch this video\xef\xbb\xbf'
p23
aS'"what is that delightful delicious aroma i smell that smells smelly?" XD \nomg\xef\xbb\xbf'
p24
aS'The start of his famous videos\xef\xbb\xbf'
p25
aS'I remember when I watch this video back in 2009. Still funny Ryan! \n#montrealfan\xef\xbb\xbf'
p26
aS'This girl\xef\xbb\xbf'
p27
aS'what is the intro song/beat \xf0\x9f\x98\x94 ? \xef\xbb\xbf'
p28
aS'I know right, sometimes a smell comes expected on wierd people... lol...\xef\xbb\xbf'
p29
aS'i like cookies\xef\xbb\xbf'
p30
aS'there is 2K stupid people\xef\xbb\xbf'
p31
aS'dude your crazy as hell but your cool\xef\xbb\xbf'
p32
aS'Ugh i know this got a cocaroach in her hair and took it out and put it back \nin grooooooooooooooooooss\xef\xbb\xbf'
p33
aS'Was it just me or did anyone else notice the purple in his eyes? \xef\xbb\xbf'
p34
aS'yo\xef\xbb\xbf'
p35
aS'*Abuses like button*\xef\xbb\xbf'
p36
aS'Common sense and deodorant are rarely used by those who need them the most.\xef\xbb\xbf'
p37
aS"Well, there is a person that kind of smell bad in the cafeteria in my \nschool and the person is sitting right next to me while I eat my lunch. \nIt's not a good experience. It's a good thing that tomorrow is my last day \nof school. :)\xef\xbb\xbf"
p38
aS'I still have ADHD\nBut I basically smell everything\xef\xbb\xbf'
p39
aS'I loved his old camera. His eyes shine purple.\xef\xbb\xbf'
p40
aS'I dont drink milk with cookies............\xef\xbb\xbf'
p41
aS'CABIN AIR PRESSURE DROP... WERES MY MASK!!!!!!!!?!?!??!!?\xef\xbb\xbf'
p42
aS'i smell old books\xef\xbb\xbf'
p43
aS'hillarious\xef\xbb\xbf'
p44
aS'his voice is different\xef\xbb\xbf'
p45
aS'cookies XD\xef\xbb\xbf'
p46
aS"I don't want to know why you have doodoo on your banana\xef\xbb\xbf"
p47
aS'2:33 man... \xef\xbb\xbf'
p48
aS'Ryan still has his mid-puberty voice in this video\xef\xbb\xbf'
p49
aS'"HOW ARE YOU SUPOSSED TO EAT COOKIES"\n**dramatic gasp**\xef\xbb\xbf'
p50
aS'he had a heavy accent back then\xef\xbb\xbf'
p51
aS'But as the smell grew stronger, I realized it was not a lamp. Also, c did \nnot stand for apple. It stands for dog.\nRyan Higa :Off the Pill Stink People\xef\xbb\xbf'
p52
aS'Whenever i sweat my armpits smell like dorritos for some odd reason\n#WEIRD\xef\xbb\xbf'
p53
aS'I have ADHD too! ;) \xef\xbb\xbf'
p54
aS'Weeeeeeee yaaaaaaay nooooooo\n\xef\xbb\xbf'
p55
aS'subscribe to my video please i really want people to watch it its a fantage \ngiveaway\xef\xbb\xbf'
p56
aS'"Because your life is more important". \xef\xbb\xbf'
p57
aS'The reason you taste it because you smell because of molecules so when you \nbreath through your mouth you are tasting the source of the smell. So when \nyou smell poop.....you get the point\xef\xbb\xbf'
p58
aS"Do you Have Purple Eyes ?? It Looks Like you do in this video (no Offense \nand I know that your eyes aren't purple, it Just Looks Like They Are) :P\xef\xbb\xbf"
p59
aS'A world without cookies = APOCALYPSE!!!!! So stink people PLEASE \nBATHE!!!!!!!!! not that i smell the best\xef\xbb\xbf'
p60
aS'XD\xef\xbb\xbf'
p61
aS'Who wants to live in a world without cookies? STINK PEOPLE.\xef\xbb\xbf'
p62
aS"Oh right I have watched like 12 of this videos and I didn't no why it was \ncalled of the pill\xef\xbb\xbf"
p63
aS'I have ADHD I think\xef\xbb\xbf'
p64
aS'You talk so fast \xef\xbb\xbf'
p65
aS'Geralyn hinton why do I always see your comments on the top\xef\xbb\xbf'
p66
aS"I so agree and I've been in so many similar situations\xef\xbb\xbf"
p67
aS'All stink people out there .. just use ShamWOOOHOOO!\xef\xbb\xbf'
p68
aS'Yes Ryan, you do have ADHD.......\n\n   Awesome\n   Dude\n wHo\n   Does off the pill rants\n#TEEHEE  \xef\xbb\xbf'
p69
aS'This is inappropriate for anyone under the age of 1\xef\xbb\xbf'
p70
aS"OMGWTHITSP! lmao this video doesn't compare to the first one\xef\xbb\xbf"
p71
aS"Omg you're off the pill rants are the FUNNIEST!\xef\xbb\xbf"
p72
aS'C is for Apple!\xef\xbb\xbf'
p73
aS'I love cookies too!!!\xef\xbb\xbf'
p74
aS'wow\xef\xbb\xbf'
p75
aS'I have ADD and Idgaf!!! X3\xef\xbb\xbf'
p76
aS'Teehee\n\xef\xbb\xbf'
p77
aS'And how are we supposed to eat cookies then D:\nThat look in his eyes killed me\xef\xbb\xbf'
p78
aS'make another rant pls\xef\xbb\xbf'
p79
aS'There is a guy at my university who smells HORRIBLE!!!! like dead bunnies \nand cows and... where was i going with this? oh yeah, i have ADHD too\xef\xbb\xbf'
p80
aS'This is inappropriate for anyone under the age of 1\xef\xbb\xbf'
p81
aS'your so funny\xef\xbb\xbf'
p82
aS"You have ADHD, like me, and the rest of the world-the part that's \ncommenting anyway. We are DEMIGODS!!!!!!!!!!!!!!!!!!!\xef\xbb\xbf"
p83
aS'Ugh this one guy at my school smells SOOO BAD!!!!!! I cant even be around \nhim he smells so bad!! And he knows it but he doesnt fix it!!!! Ugh its so \nhorrible!!!\xef\xbb\xbf'
p84
aS'LOL XD that intro.\xef\xbb\xbf'
p85
aS'so true :D\xef\xbb\xbf'
p86
aS'How bad is your A.D.H.D?\xef\xbb\xbf'
p87
aS"I have ADHD and I'm off the pill right now\xef\xbb\xbf"
p88
aS'i have A,D,H,D\xef\xbb\xbf'
p89
aS'I remember in 5th grade there were THREE people who smelled HORRIBLE!! It \njust made me want to throw up!!!\xef\xbb\xbf'
p90
aS'Isnt this my choonie/your choonie\xef\xbb\xbf'
p91
aS'Abuses Like Button\xef\xbb\xbf'
p92
aS"I didn't understand anything\xef\xbb\xbf"
p93
aS'I have adhd\xef\xbb\xbf'
p94
aS"OMG! I have ADHD too u have to take a pill also. In fact I didn't take mine \ntoday, because I ran out, but without I go crazy\xef\xbb\xbf"
p95
aS"OMG! I have ADHD too u have to take a pill also. In fact I didn't take mine \ntoday, because I ran out, but without I go crazy\xef\xbb\xbf"
p96
aS'The old video was so racist\xef\xbb\xbf'
p97
aS'Rotten sour ass \xef\xbb\xbf'
p98
aS'Lol when he smells the lamp\xef\xbb\xbf'
p99
aS'1:33 - 1:35 LOL DAT FACE\xef\xbb\xbf'
p100
aS"+1 if you're watching this in 2014.\xef\xbb\xbf"
p101
aS'Check out this video on YouTube:\xef\xbb\xbf'
p102
aNaS'\xe2\x96\x91\xe2\x96\x91\xe2\x96\x91\xe2\x96\x84\xe2\x96\x84\xe2\x96\x84\xe2\x96\x84\xe2\x96\x80\xe2\x96\x80\xe2\x96\x80\xe2\x96\x80\xe2\x96\x80\xe2\x96\x80\xe2\x96\x80\xe2\x96\x80\xe2\x96\x84\xe2\x96\x84\xe2\x96\x84\xe2\x96\x84\xe2\x96\x84\xe2\x96\x84 \n\xe2\x96\x91\xe2\x96\x91\xe2\x96\x91\xe2\x96\x91\xe2\x96\x88\xe2\x96\x91\xe2\x96\x91\xe2\x96\x91\xe2\x96\x91\xe2\x96\x92\xe2\x96\x92\xe2\x96\x92\xe2\x96\x92\xe2\x96\x92\xe2\x96\x92\xe2\x96\x92\xe2\x96\x92\xe2\x96\x92\xe2\x96\x92\xe2\x96\x92\xe2\x96\x92\xe2\x96\x91\xe2\x96\x91\xe2\x96\x80\xe2\x96\x80\xe2\x96\x84 \n\xe2\x96\x91\xe2\x96\x91\xe2\x96\x91\xe2\x96\x88\xe2\x96\x91\xe2\x96\x91\xe2\x96\x91\xe2\x96\x92\xe2\x96\x92\xe2\x96\x92\xe2\x96\x92\xe2\x96\x92\xe2\x96\x92\xe2\x96\x91\xe2\x96\x91\xe2\x96\x91\xe2\x96\x91\xe2\x96\x91\xe2\x96\x91\xe2\x96\x91\xe2\x96\x91\xe2\x96\x92\xe2\x96\x92\xe2\x96\x92\xe2\x96\x91\xe2\x96\x91\xe2\x96\x88 \n\xe2\x96\x91\xe2\x96\x91\xe2\x96\x88\xe2\x96\x91\xe2\x96\x91\xe2\x96\x91\xe2\x96\x91\xe2\x96\x91\xe2\x96\x91\xe2\x96\x84\xe2\x96\x88\xe2\x96\x88\xe2\x96\x80\xe2\x96\x84\xe2\x96\x84\xe2\x96\x91\xe2\x96\x91\xe2\x96\x91\xe2\x96\x91\xe2\x96\x91\xe2\x96\x84\xe2\x96\x84\xe2\x96\x84\xe2\x96\x91\xe2\x96\x91\xe2\x96\x91\xe2\x96\x88 \n\xe2\x96\x91\xe2\x96\x80\xe2\x96\x92\xe2\x96\x84\xe2\x96\x84\xe2\x96\x84\xe2\x96\x92\xe2\x96\x91\xe2\x96\x88\xe2\x96\x80\xe2\x96\x80\xe2\x96\x80\xe2\x96\x80\xe2\x96\x84\xe2\x96\x84\xe2\x96\x88\xe2\x96\x91\xe2\x96\x91\xe2\x96\x91\xe2\x96\x88\xe2\x96\x88\xe2\x96\x84\xe2\x96\x84\xe2\x96\x88\xe2\x96\x91\xe2\x96\x91\xe2\x96\x91\xe2\x96\x88 \n\xe2\x96\x88\xe2\x96\x92\xe2\x96\x88\xe2\x96\x92\xe2\x96\x84\xe2\x96\x91\xe2\x96\x80\xe2\x96\x84\xe2\x96\x84\xe2\x96\x84\xe2\x96\x80\xe2\x96\x91\xe2\x96\x91\xe2\x96\x91\xe2\x96\x91\xe2\x96\x91\xe2\x96\x91\xe2\x96\x91\xe2\x96\x91\xe2\x96\x88\xe2\x96\x91\xe2\x96\x91\xe2\x96\x91\xe2\x96\x92\xe2\x96\x92\xe2\x96\x92\xe2\x96\x92\xe2\x96\x92\xe2\x96\x88 \n\xe2\x96\x88\xe2\x96\x92\xe2\x96\x88\xe2\x96\x91\xe2\x96\x88\xe2\x96\x80\xe2\x96\x84\xe2\x96\x84\xe2\x96\x91\xe2\x96\x91\xe2\x96\x91\xe2\x96\x91\xe2\x96\x91\xe2\x96\x88\xe2\x96\x80\xe2\x96\x91\xe2\x96\x91\xe2\x96\x91\xe2\x96\x91\xe2\x96\x80\xe2\x96\x84\xe2\x96\x91\xe2\x96\x91\xe2\x96\x84\xe2\x96\x80\xe2\x96\x80\xe2\x96\x80\xe2\x96\x84\xe2\x96\x92\xe2\x96\x88 \n\xe2\x96\x91\xe2\x96\x88\xe2\x96\x80\xe2\x96\x84\xe2\x96\x91\xe2\x96\x88\xe2\x96\x84\xe2\x96\x91\xe2\x96\x88\xe2\x96\x80\xe2\x96\x84\xe2\x96\x84\xe2\x96\x91\xe2\x96\x80\xe2\x96\x91\xe2\x96\x80\xe2\x96\x80\xe2\x96\x91\xe2\x96\x84\xe2\x96\x84\xe2\x96\x80\xe2\x96\x91\xe2\x96\x91\xe2\x96\x91\xe2\x96\x91\xe2\x96\x88\xe2\x96\x91\xe2\x96\x91\xe2\x96\x88 \n\xe2\x96\x91\xe2\x96\x91\xe2\x96\x88\xe2\x96\x91\xe2\x96\x91\xe2\x96\x80\xe2\x96\x84\xe2\x96\x80\xe2\x96\x88\xe2\x96\x84\xe2\x96\x84\xe2\x96\x91\xe2\x96\x88\xe2\x96\x80\xe2\x96\x80\xe2\x96\x80\xe2\x96\x84\xe2\x96\x84\xe2\x96\x84\xe2\x96\x84\xe2\x96\x80\xe2\x96\x80\xe2\x96\x88\xe2\x96\x80\xe2\x96\x88\xe2\x96\x88\xe2\x96\x91\xe2\x96\x88 \n\xe2\x96\x91\xe2\x96\x91\xe2\x96\x91\xe2\x96\x88\xe2\x96\x91\xe2\x96\x91\xe2\x96\x88\xe2\x96\x88\xe2\x96\x91\xe2\x96\x91\xe2\x96\x80\xe2\x96\x88\xe2\x96\x84\xe2\x96\x84\xe2\x96\x84\xe2\x96\x88\xe2\x96\x84\xe2\x96\x84\xe2\x96\x88\xe2\x96\x84\xe2\x96\x88\xe2\x96\x88\xe2\x96\x88\xe2\x96\x88\xe2\x96\x91\xe2\x96\x88 \n\xe2\x96\x91\xe2\x96\x91\xe2\x96\x91\xe2\x96\x91\xe2\x96\x88\xe2\x96\x91\xe2\x96\x91\xe2\x96\x91\xe2\x96\x80\xe2\x96\x80\xe2\x96\x84\xe2\x96\x91\xe2\x96\x88\xe2\x96\x91\xe2\x96\x91\xe2\x96\x91\xe2\x96\x88\xe2\x96\x91\xe2\x96\x88\xe2\x96\x88\xe2\x96\x88\xe2\x96\x88\xe2\x96\x88\xe2\x96\x88\xe2\x96\x88\xe2\x96\x91\xe2\x96\x88 \n\xe2\x96\x91\xe2\x96\x91\xe2\x96\x91\xe2\x96\x91\xe2\x96\x91\xe2\x96\x80\xe2\x96\x84\xe2\x96\x91\xe2\x96\x91\xe2\x96\x91\xe2\x96\x80\xe2\x96\x80\xe2\x96\x84\xe2\x96\x84\xe2\x96\x84\xe2\x96\x88\xe2\x96\x84\xe2\x96\x88\xe2\x96\x84\xe2\x96\x88\xe2\x96\x84\xe2\x96\x88\xe2\x96\x84\xe2\x96\x80\xe2\x96\x91\xe2\x96\x91\xe2\x96\x88 \n\xe2\x96\x91\xe2\x96\x91\xe2\x96\x91\xe2\x96\x91\xe2\x96\x91\xe2\x96\x91\xe2\x96\x91\xe2\x96\x80\xe2\x96\x84\xe2\x96\x84\xe2\x96\x91\xe2\x96\x92\xe2\x96\x92\xe2\x96\x92\xe2\x96\x92\xe2\x96\x91\xe2\x96\x91\xe2\x96\x91\xe2\x96\x91\xe2\x96\x91\xe2\x96\x91\xe2\x96\x91\xe2\x96\x91\xe2\x96\x91\xe2\x96\x91\xe2\x96\x88 \n\xe2\x96\x91\xe2\x96\x91\xe2\x96\x91\xe2\x96\x91\xe2\x96\x91\xe2\x96\x91\xe2\x96\x91\xe2\x96\x91\xe2\x96\x91\xe2\x96\x91\xe2\x96\x80\xe2\x96\x80\xe2\x96\x84\xe2\x96\x84\xe2\x96\x91\xe2\x96\x92\xe2\x96\x92\xe2\x96\x92\xe2\x96\x92\xe2\x96\x92\xe2\x96\x92\xe2\x96\x92\xe2\x96\x92\xe2\x96\x92\xe2\x96\x92\xe2\x96\x91\xe2\x96\x88 \n\xe2\x96\x91\xe2\x96\x91\xe2\x96\x91\xe2\x96\x91\xe2\x96\x91\xe2\x96\x91\xe2\x96\x91\xe2\x96\x91\xe2\x96\x91\xe2\x96\x91\xe2\x96\x91\xe2\x96\x91\xe2\x96\x91\xe2\x96\x91\xe2\x96\x80\xe2\x96\x84\xe2\x96\x84\xe2\x96\x84\xe2\x96\x84\xe2\x96\x84\xe2\x96\x91\xe2\x96\x91\xe2\x96\x91\xe2\x96\x91\xe2\x96\x91\xe2\x96\x88\n17 Comment\xef\xbb\xbf'
p103
aS'Yes we are awsome!!! We just ALL need to be randomn... COOKIEZ!!!'
p104
aS'taste the smell !!!!!! lol :P'
p105
aS'Oh, it is fine xD '
p106
aS'WOW,she sucked eggs majorly!!!! Did you guys go to like the head of the \ndistrict???'
p107
aS'you remind me of friend colleen'
p108
aS'It would be a shame if you did not bulk up when other people are able to \nget ripped easily with H6x Muscle Monster (check it out on Google).'
p109
aS'liked all his vids'
p110
aS"Hay what's the ring for?"
p111
aS'I sent this to quite a few people'
p112
aS'i may or may not of sniffed my lamp at some point throughout this video'
p113
aS"are you kidding, he's super hot now"
p114
aS'I have ADHD LONG TIME \xf0\x9f\x98\x9c\xf0\x9f\x98\x8b\xf0\x9f\x98\xbc'
p115
aS'I like ur dimple^^'
p116
aS'Stuff the oxygen, I WANT COOKIES!!'
p117
aS'i had teacher like that... '
p118
aS'Aww your voice was so different then XDD'
p119
aS'Ryan you are amazing never stop makeing videos please'
p120
aS"My favourite people are ADHD and sometimes, I think I'm ADHD too! :D Monkey \npants. "
p121
aS'Did anyone notice a lag in the sound?'
p122
aS'You spelt Stinke wrong. Troll.'
p123
aS'Rotten sour ass...'
p124
aS'Ryan rocks'
p125
aS' i also have adhd, and i have to take a medicine called concerta.'
p126
aS'2013 oops'
p127
aS'i acedently hit the mute button when i was watching and i was like man his \nADHD messed up the sound '
p128
aS'Does he REALLY have ADHD ?'
p129
aS'did his eyes just sparkle at 2:34......'
p130
aS"I've been a fan of you since before you were famous. I love going back and \nrewatching these"
p131
aS'sour rotten ass lmfao im dead xD'
p132
aS"YAY THIS VIDEO WAS POSTED ON MY 10th BIRTHDAY! Yeah I'm too old to be \nwatching this. Damn. But he's three months older than me okey??!!!!!!! \n*sobs hysterically*"
p133
aS'Make sure you secure your own mask before assisting your children because \nyour life is more important. LOL'
p134
aS'PURPLE EYES!!!!'
p135
aS'U SMELL LIKE DAT!!!!! :O'
p136
aS'dear ryan can u teach us Japanese '
p137
aS'He does have ADHD, yes. '
p138
aS'Does he have... Purple eyes?'
p139
aS'wwwwoooowwwwww....... COOL!!!! (not trying to offend you)'
p140
aS'No shit braedy'
p141
aS'You really need your pill lol'
p142
aS'When I told my gf I had ADHD she broke up with me......FML'
p143
aS'Oh my gersh i have to go through that everyday with my little brother...'
p144
aS'you sound omg '
p145
aS"when I was watching this video I was eating a cookie I \xe2\x99\xa1cookies and I \nwouldn't be able to live without them . STOP SMELLING BAD STINK PEOPLE OR \nELSE WE WON'T HAVE COOKIES :("
p146
aS'LOL'
p147
aS'Why milk? why not beef? '
p148
aS'And I take pills too. And my twin and my brother has ADHD everyone in my \nfamily accept my mom,dad,and my dog has ADHD'
p149
aS'I HAVE ADHD TOO '
p150
aS"Oh,okay. Thanks for conversating with me!!!!! I'd hate to end it this way."
p151
aS'i breath through my nose instead cuz im afraid that if u breath through ur \nmouth u start inhaling the germs xD '
p152
aS"How did cookies get into Ryan's rant xD?"
p153
aS'Do u seriously have ADHD'
p154
aS'I know what you mean :( everytime I go out, I have to smell... you know, \npeople u_U they smell like rotten fish'
p155
aS"I'm so wierd i actually smelled my lamp.. (It wasn't bad)"
p156
aS'Do you want to live in a world without cookies?lololol'
p157
aS'2,056 smelly people'
p158
aS'Hey ryan i noticed that u have a nice silver ring on ur left ring finger. \n:) If u dont mind me asking, what does it stand for?'
p159
aS'I want a cookie now...'
p160
aS"I have ADHD too -.- it's awful"
p161
aS'hahahahah this made me laugh so bad'
p162
aS'You have ADHD'
p163
aS"He's still super adorable :)"
p164
aS'?? what the *** you talking about?'
p165
aS"I have ADHD but I don't like taking medicine"
p166
aS'OMYGOD SO MUCHH INFO AT ONCEE MY BRAAAAIINNN'
p167
aS'I fu****g love you . Not seriously'
p168
aS'I have ADHD also'
p169
aS"Yeah he does :D It doesn't seem as bad as mine lol but he totally has ADHD."
p170
aS'My lamp smells like... Lamp..'
p171
aS"I remember the old rant on Stink People. Both versions r so funny! if u \nhavent seen it it is saved under JonSuperWii's account"
p172
aS'@bblast526 thanks I love it 2'
p173
aS"Our geyser just broke. >.< So we have no hot water and I'm forced to stay \nout of the bath until it gets fixed. I hope it gets fixed soon!"
p174
aS'Yeah! I agree _______ Your questions, answered. Check my channel out'
p175
aS'Dear Ryan, can you be a Woman?'
p176
aS'I want cookies I will die without cookies'
p177
aS"im pretty sure he doesnt have adhd and he's just faking to be funny"
p178
aS'When Ryan is pff the pill his eyes shine. X3'
p179
aS'He used to have an accent? :O'
p180
aS'My old rotten sour ass preschool teacher kissed my forehead'
p181
aS'How did you keep to doing videos all these years? What was your inspiration \nother than just your subscribers? I am gonna start making videos and I \nwould like to know how from my favorite youtuber'
p182
aS"Hey please don't trust people online if you don't know them..... just \nbecause they're nice to you doesn't mean they are realy good people so \nplease just be careful."
p183
aS'me too'
p184
aS'I have ADHD. But I\'m "on the pill". Actually, I\'m on 4 1/2 pills. So yeah. \n!!!! WAIT, NO COOKIES?!? Don\'t even joke about that. God! The universe is \nyoung, and so am I, so make this universal, PEACE OUT!'
p185
aS'Yeah, i know few kids in my school. some do have medical condition to \nsmell.... its againat their will. No matter how hard they try. Have some \nsympathy. Its pitiful..'
p186
aS'bannans are high in radiation'
p187
aS'Does he really have ADHD?'
p188
aS'Lol 19th'
p189
aS'a bike?!?!?!'
p190
aS"Comment about what. I was just trying to say that ADHD is not a cool thing. \nI'm talking from experience. Having ur attention taken away every few \nminutes is not fun mostly during tests. Just sayin."
p191
aS'Cookies.. And oxygen! Lol!!:D'
p192
aS'Np! It has been hard, but it is over now.'
p193
aS'No. He said he was straight on a interview.'
p194
aS'I have ADH wait what am I doing'
p195
aS'@bblast525'
p196
aS"I am the same but not so hyper I'm emotional"
p197
aS'yes i want to eat cookies to and i agree people stink like Ella my sister'
p198
aS'i cant talk. also, i ment type. what was i talking aboOh. my back hurts. oh \nyeah. umm. i just yawneddd. its like 1am.so'
p199
aS'I Have ADHD too.....Nice Idea With Off The Pill :)'
p200
aS'Ryan is always hot...'
p201
aS'Do u really have ADHD'
p202
aS'I laughed so freaking hard.'
p203
aS'I have adhd too but i dont take medication'
p204
aS'No cookies?! D:'
p205
aS'My parents and I tried to get her fired, but the principle was her husband \nso I was required to to an in school suspension all day...'
p206
aS'Dear Ryan, can you pimp my ride?'
p207
aS'your mean '
p208
aS'Rotten souer A55'
p209
aS'No dumb ass stop smelling like shiteehee.'
p210
aS'?m'
p211
aS'Do you want to make the world bulimic? XD'
p212
aS'2,047 people is a stink people'
p213
aS'Wow just found out that u had ADHD'
p214
aS'He was so adorable wen he was young '
p215
aS'This boy in my class stinks so bad, when I sat with him at lucnh, I nearly \nthrew up. I was gagging.'
p216
aS'I think I have ADHD.'
p217
aS'Wow I have ADHD too'
p218
aS'I agree with everything he says'
p219
aS'A world without cookies!??!? He took it too far xD lolz jk'
p220
aS'Lol rotten sour ass'
p221
aS"I have ADHD too don't worry ur not alone"
p222
aS'What I got from this video: stink = no more cookies'
p223
aS'Wait that sickness or something that ryan mentioned in the begining it real?'
p224
aS'It tasted like rotten sour ass XD'
p225
aS" I'm so fancy...But Ryan is just...Ryan..."
p226
aS"The same goes for me really, I've never been very social in real life or \ntrusting for that matter, I find it easier to trust other's I don't know in \nreal life. So as to avoid anything personal about me escaping and making me \nan easy target, sort of been like that my whole life though. No matter just \nrambling."
p227
aS'YA ITS BACK'
p228
aS'his. eyes get all shiny when he opens them real wide lol xD'
p229
aS'i have HDHD'
p230
aS'Like if You are watching this in 20013'
p231
aS'boo!'
p232
aS"no one in the world has ADHD. it's something doctors and parents invented \nto make excuses for kids that underarchieve in school. I also was \n'diagnosed' with ADHD but I don't have any problem. I just hate sitting in \nrooms listening to stuff I'm not interested in. And strangely I have ZERO \nproblem sitting down and focusing on stuff i really love (programming for \nme, and i think i can speak for ryan by saying HIS passion is making \nvideos). So yea... ADHD doesn't exist."
p233
aS'2,406 people stink'
p234
aS'I like cookies'
p235
aS'Lol'
p236
aS'I have adhd too'
p237
aS'Do you wanna live in a world without cookies...? Or oxygen? LOL'
p238
aS'stop smelling like teehee?'
p239
aS'i also have adhd'
p240
aS'"stink people" what'
p241
aS'30 secs*'
p242
aS'did u ever hear the qwote kill a fly in the past and it may drasticly \nchange the future ....... i like tg,'
p243
aS"i knew someone who stank and got mad when it was pointed out to him but \ndidn't look like he did anything about it as we always saw him in the same \nclothes"
p244
aS'Funny keep doing it'
p245
aS'i went to my great grandmas funeral today... so sad... and i watch this.... \nI LAUGHING TO HARD IT HURTS! rip granny'
p246
aS'I think the original rants to these were funnier, idk'
p247
aS'That is hilarious I was doing my makeup for Dance and watching this and I \nlaughed my head off! XoXo I <3 Ryan!'
p248
aS"1:33 but that's not awkward"
p249
aS'you really spoke to me... im adhd.also, h a ve you ever noticed doors look \nsuoer long if you rd tired?cause im super tired. while!'
p250
aS"Ryan Higa, do you really have ADHD? Wow it's so surprising if its true"
p251
aS'on my birthday!!! '
p252
aS'i just realized h'
p253
aS'Stop smelling like sh- teehee'
p254
aS'I have a guy in my class that smells really bad haha, I just breathe out \nand lean back to breath in, :( . I get really sad if he is here because I \njust feel like fainting everytime I breathe.'
p255
aS'Adhd i hate haveing it butterflys'
p256
aS'HAHAHAHAAHAHAHAHHAHAHAHAHAHAHAHAHHAHAHHAHAHAHAHAHAHAHAAA'
p257
aS'I love cookies!!!!!'
p258
aS'yes it is... in his left hand'
p259
aS'i like that quote lol'
p260
aS"Ryan you are not exaggerating.. I'm Indian (well not the Indian Indian, the \nsoutheast asian type Indian who doesn't look like an INDIAN.. okay -_-) and \nyou can imagine what I have to go through every single day.. esp. public \ntransport where these bloody people HAVE to raise their arms (ugghh) and \nyes Breathing through ur mouth might cause cancer because it stays in your \nlungs FOREVER!! ughhhh!!"
p261
aS"ur so right there is a kid in my class who I believe doesn't take showers \newwwww"
p262
aS'A bike haha'
p263
aS'can u do how to get taller'
p264
aS'I have ADHD'
p265
aS"I DON'T WANT TO LIVE IN A WORLD WITHOUT COKIES! and oxygen... but mostly \ncookies!!!"
p266
aS"I have ADD when I'm off the pill I just sound like um uh so uh um uh like \num uh"
p267
aS'ERMAGERD'
p268
aS'C is for Capple :) '
p269
aS'uploaded on my bday:)'
p270
aS'Lmao, I sincerely doubt anyone is taking Ryan seriously on this (who, \nhonestly, is not just "some random youtuber" - his number of subscribers \nspeaks for itself). The whole point of Off The Pill videos are to talk \nabout real issues in exaggerated, funny, witty, and slightly offensive \nways. It\'s comedy and entertainment :)'
p271
aS'Shampoo, cologne, a bike?'
p272
aS'2,046 dislikes from the stink people'
p273
aS'I have ADHD too'
p274
aS'My bro has ADHD and sometimes I feel like I have it too. I wonder... \nanyways hahaha there are too many people like that!!'
p275
aS'why is some of hes videos called "Of The Pill"? is he on pills normaly? xD'
p276
aS'COOKIE'
p277
aS"Smell is the most adaptive sense. Breathe through your nose and in minutes \nthe smell will be unnoticeable. It's why we can't smell our own scents. \nBreathing through your mouth makes this process take longer. Seriously, \nlook it up. Don't trust some random youtuber."
p278
aS"i have ADHD too, Ryan. i like food and wa- water tastes like a pipe, no a \nrusty pipe and i like kfjngsrkgno4ewigj45owtrgj9-34jgroengerhj didn't want \nto type stuff for a second TEEHEE"
p279
aS'No Im not Watching this in 20013 im watching it in 2013 '
p280
aS'I lost it at 1:33'
p281
aS"because you can't make cookies out of beef, silly."
p282
aS'Stinky people make me want to punch them....soley for the reason that their \nstintch is offensive.....stank ass people act like they can\'t smell their \nown BO....its like "hey i smell like shit but i don\'t give a \nfuck"......when they go out in public its like......."hey....you smell that \nshit......yeah......just take that shit in deep......and let it engulf you"'
p283
aS'any one in this vidio look at a lamp a wonder what it smelt like'
p284
aS"I'm also ADHD! It's horrible...and C doesn't stand for apple?! "
p285
aS'I have ADHD too.'
p286
aS'"stop smiling like shi-" haha okay I will xD'
p287
aS'okay this is random but i was looking at the comments and i saw your \nprofile pic i love it !!!!!!!!!!!!!!!!!!!!! rosario + vampire is awesome!'
p288
aS"Smelly ppl take a bath!! I CAN'T LIVE WITHOUT COOKIES!!"
p289
aS'Can you do another movie/show/film/motion picture or a song I like songs. \nOh and I like smiley faces with mustaches like this one :})'
p290
aS'Him being off the pill is like smoking a bag of weed'
p291
aS'I soooooooo agree on that! Lol'
p292
aS'MAPOTI'
p293
aS'anyone noticed when he takes his meds he doesnt cuss?'
p294
aS'you dont leave !'
p295
aS'I read through most of the responses however I think this is a excellent \nyoutube video. My bro would like to become staggering with women of all \nages. He picked up a lot from Master Attraction. (Google it.) The help and \nadvice about picking up women from nightclubs in those emails from that \nsite gave got him his 1st sex in around 4 long yrs. I got pissed though as \nI heard them all. Grrrr.'
p296
aS'His eyes are always sparkling!!!! Nice... But HOW?????'
p297
aS'cookies~ lol'
p298
aS'ewe'
p299
aS'hey wt you said about ADHD is well... its not a condition really... all \ndudes have it to an extent..... like srsly ppl get labeled ADHD in schools \nall the frikin time and most of them are dudes... its just our manly....... \nnature.......... oh cool a lamp.....'
p300
aS'I have a HD TV.'
p301
aS'SO TRUE!!'
p302
aS'no milk no cereal :('
p303
aS'He is actually pretty hot now... '
p304
aS'your eyes <3 glowing'
p305
aS"He is completely amazing when he's off the pill"
p306
aS'I take ADHD pills too!'
p307
aS'he needs to stop talking fast'
p308
aS'I have it too'
p309
aS'No cookies... WHY? *Note the sarcasm'
p310
aS'Blogs in my grog'
p311
aS'my lamp smells like dust lol'
p312
aS'sometimes ryan can go crazy like a maniac and starts to be weird do go \ncrazy on us ryan just dont do it do it for ur fans '
p313
aS'I looked for it and I got ROLLED IN 2013'
p314
aS'Thanks to you , Ryan i finally figured out why i am wierd, i just got to \nknow that its actually a disorder and you have pills for it'
p315
aS'Nigger'
p316
aS'does yan actually have ADHD?!?'
p317
aS'Dear ryan u r much funnier when u r off ur meds. U should start doin more \nvideos that way so I can get on here an lmao more.'
p318
aS'can i haz virus aswell?'
p319
aS'You have what now'
p320
aS'Lol'
p321
aS'dont we miss Off The Pill and Skitzo.'
p322
aS"Hey u like me I have adahd I have to take a pill blah but with out it I'm \nCRAZY ahhaha"
p323
aS"Omg ahaha someone I started starting dated didn't wear deodorant. .. I \nnoticed when he joined me on my walk. So one day I snuck in a convo on \ncologne and deodorants ahaha. I asked him which one he used. He didn't know \noff the bat the name (shocker!) So I offered for him to start using the \nblue axe because it smelt sooooooo good ahaha the next day we went walking \nI smelt the axe and I was so happy ahaha"
p324
aS"Omg....im crying :'D"
p325
aS'he is so obsessed with lamps!'
p326
aS"i'm confuzzled... how did cookies come into the conversation? "
p327
aS'I LIKE COOKIES.'
p328
aS'i have ADHD too :p'
p329
aS'My brother... haha no im joking! Actually no im serious... :\\'
p330
aS"I KNOW EXACTLY WHAT YOU MEAN!!!!!! I'M EXTTRREEMMEELLYY RANDOM!!!!! HAHA! \n:D Never eat hot chips back to back and then drink a soda.... it hurts"
p331
aS'ADHD bruuh me 2'
p332
aS'lol'
p333
aS' WE NEED MORE OFF THE PILL RANTS FROM YOU RYAN!'
p334
aS"Did he say bike? I'm gonna have to ask my sister 4 her bike."
p335
aS'Hilarious! :D'
p336
aS'"I like that quote" 0.o'
p337
aS"a world without cookies... what a horrible place.. :'("
p338
aS'STOP SMELLING LIKE TEEHEE'
p339
aS'do you want to live in a word without cookie. no'
p340
aS'He already did a haters video. Why would he do more?'
p341
aS'Ur hadd or how ever u said it'
p342
aS'My dad has ADHD'
p343
aS"i can't but stare on your shining eyes *^* w...w..wait ! am i flirting you \n? O.o"
p344
aS"You don't say?"
p345
aS'smelling like teehee lol'
p346
aS'I have two people in my class who stink! Y is it so hard to wash every \nmorning!'
p347
aS'cant believe im watching this'
p348
aS'You guys are weird'
p349
aS'I Was eating a cookie when he Said it'
p350
aS'\xe2\x9d\xa4\xe2\x9d\xa4\xe2\x9d\xa4\xe2\x9d\xa4\xe2\x9d\xa4\xe2\x9d\xa4\xe2\x9d\xa4\xe2\x9d\xa4\xe2\x9d\xa4\xe2\x9d\xa4\xe2\x9d\xa4\xe2\x9d\xa4\xe2\x9d\xa4\xe2\x9d\xa4\xe2\x9d\xa4\xe2\x9d\xa4\xe2\x9d\xa4\xe2\x9d\xa4\xe2\x9d\xa4\xe2\x9d\xa4\xe2\x9d\xa4\xe2\x9d\xa4\xe2\x9d\xa4\xe2\x9d\xa4\xe2\x9d\xa4\xe2\x9d\xa4\xe2\x9d\xa4\xe2\x9d\xa4\xe2\x9d\xa4\xe2\x9d\xa4\xe2\x9d\xa4\xe2\x9d\xa4\xe2\x9d\xa4\xe2\x9d\xa4\xe2\x9d\xa4\xe2\x9d\xa4\xe2\x9d\xa4\xe2\x9d\xa4\xe2\x9d\xa4\xe2\x9d\xa4\xe2\x9d\xa4\xe2\x9d\xa4\xe2\x9d\xa4\xe2\x9d\xa4\xe2\x9d\xa4\xe2\x9d\xa4\xe2\x9d\xa4\xe2\x9d\xa4\xe2\x9d\xa4\xe2\x9d\xa4\xe2\x9d\xa4\xe2\x9d\xa4\xe2\x9d\xa4\xe2\x9d\xa4\xe2\x9d\xa4\xe2\x9d\xa4\xe2\x9d\xa4\xe2\x9d\xa4\xe2\x9d\xa4\xe2\x9d\xa4\xe2\x9d\xa4\xe2\x9d\xa4\xe2\x9d\xa4\xe2\x9d\xa4\xe2\x9d\xa4\xe2\x9d\xa4\xe2\x9d\xa4\xe2\x9d\xa4\xe2\x9d\xa4\xe2\x9d\xa4\xe2\x9d\xa4\xe2\x9d\xa4\xe2\x9d\xa4\xe2\x9d\xa4\xe2\x9d\xa4\xe2\x9d\xa4\xe2\x9d\xa4\xe2\x9d\xa4\xe2\x9d\xa4\xe2\x9d\xa4\xe2\x9d\xa4\xe2\x9d\xa4\xe2\x9d\xa4\xe2\x9d\xa4\xe2\x9d\xa4\xe2\x9d\xa4\xe2\x9d\xa4\xe2\x9d\xa4\xe2\x9d\xa4\xe2\x9d\xa4\xe2\x9d\xa4\xe2\x9d\xa4\xe2\x9d\xa4\xe2\x9d\xa4\xe2\x9d\xa4\xe2\x9d\xa4\xe2\x9d\xa4\xe2\x9d\xa4\xe2\x9d\xa4\xe2\x9d\xa4\xe2\x9d\xa4\xe2\x9d\xa4\xe2\x9d\xa4\xe2\x9d\xa4\xe2\x9d\xa4\xe2\x9d\xa4\xe2\x9d\xa4\xe2\x9d\xa4\xe2\x9d\xa4\xe2\x9d\xa4\xe2\x9d\xa4\xe2\x9d\xa4\xe2\x9d\xa4\xe2\x9d\xa4\xe2\x9d\xa4\xe2\x9d\xa4\xe2\x9d\xa4\xe2\x9d\xa4\xe2\x9d\xa4\xe2\x9d\xa4\xe2\x9d\xa4\xe2\x9d\xa4\xe2\x9d\xa4\xe2\x9d\xa4\xe2\x9d\xa4\xe2\x9d\xa4\xe2\x9d\xa4\xe2\x9d\xa4\xe2\x9d\xa4\xe2\x9d\xa4\xe2\x9d\xa4\xe2\x9d\xa4\xe2\x9d\xa4\xe2\x9d\xa4\xe2\x9d\xa4\xe2\x9d\xa4\xe2\x9d\xa4\xe2\x9d\xa4\xe2\x9d\xa4\xe2\x9d\xa4\xe2\x9d\xa4\xe2\x9d\xa4\xe2\x9d\xa4\xe2\x9d\xa4\xe2\x9d\xa4\xe2\x9d\xa4\xe2\x9d\xa4\xe2\x9d\xa4\xe2\x9d\xa4\xe2\x9d\xa4\xe2\x9d\xa4\xe2\x9d\xa4\xe2\x9d\xa4\xe2\x9d\xa4\xe2\x9d\xa4\xe2\x9d\xa4\xe2\x9d\xa4\xe2\x9d\xa4\xe2\x9d\xa4\xe2\x9d\xa4\xe2\x9d\xa4\xe2\x9d\xa4\xe2\x9d\xa4\xe2\x9d\xa4\xe2\x9d\xa4\xe2\x9d\xa4\xe2\x9d\xa4\xe2\x9d\xa4\xe2\x9d\xa4\xe2\x9d\xa4\xe2\x9d\xa4\xe2\x9d\xa4\xe2\x9d\xa4\xe2\x9d\xa4\xe2\x9d\xa4\xe2\x9d\xa4\xe2\x9d\xa4\xe2\x9d\xa4\xe2\x9d\xa4\xe2\x9d\xa4\xe2\x9d\xa4\xe2\x9d\xa4\xe2\x9d\xa4\xe2\x9d\xa4\xe2\x9d\xa4\xe2\x9d\xa4\xe2\x9d\xa4\xe2\x9d\xa4\xe2\x9d\xa4\xe2\x9d\xa4\xe2\x9d\xa4\xe2\x9d\xa4\xe2\x9d\xa4\xe2\x9d\xa4\xe2\x9d\xa4\xe2\x9d\xa4\xe2\x9d\xa4\xe2\x9d\xa4\xe2\x9d\xa4\xe2\x9d\xa4\xe2\x9d\xa4\xe2\x9d\xa4\xe2\x9d\xa4\xe2\x9d\xa4\xe2\x9d\xa4\xe2\x9d\xa4\xe2\x9d\xa4\xe2\x9d\xa4\xe2\x9d\xa4\xe2\x9d\xa4\xe2\x9d\xa4\xe2\x9d\xa4\xe2\x9d\xa4\xe2\x9d\xa4\xe2\x9d\xa4\xe2\x9d\xa4\xe2\x9d\xa4\xe2\x9d\xa4\xe2\x9d\xa4\xe2\x9d\xa4\xe2\x9d\xa4\xe2\x9d\xa4\xe2\x9d\xa4\xe2\x9d\xa4\xe2\x9d\xa4\xe2\x9d\xa4\xe2\x9d\xa4\xe2\x9d\xa4\xe2\x9d\xa4\xe2\x9d\xa4\xe2\x9d\xa4\xe2\x9d\xa4\xe2\x9d\xa4\xe2\x9d\xa4\xe2\x9d\xa4\xe2\x9d\xa4\xe2\x9d\xa4\xe2\x9d\xa4\xe2\x9d\xa4\xe2\x9d\xa4\xe2\x9d\xa4\xe2\x9d\xa4\xe2\x9d\xa4\xe2\x9d\xa4\xe2\x9d\xa4\xe2\x9d\xa4\xe2\x9d\xa4\xe2\x9d\xa4\xe2\x9d\xa4\xe2\x9d\xa4\xe2\x9d\xa4\xe2\x9d\xa4\xe2\x9d\xa4\xe2\x9d\xa4\xe2\x9d\xa4\xe2\x9d\xa4\xe2\x9d\xa4\xe2\x9d\xa4\xe2\x9d\xa4\xe2\x9d\xa4\xe2\x9d\xa4\xe2\x9d\xa4\xe2\x9d\xa4\xe2\x9d\xa4\xe2\x9d\xa4\xe2\x9d\xa4\xe2\x9d\xa4\xe2\x9d\xa4\xe2\x9d\xa4\xe2\x9d\xa4\xe2\x9d\xa4\xe2\x9d\xa4\xe2\x9d\xa4\xe2\x9d\xa4\xe2\x9d\xa4\xe2\x9d\xa4\xe2\x9d\xa4\xe2\x9d\xa4\xe2\x9d\xa4\xe2\x9d\xa4\xe2\x9d\xa4\xe2\x9d\xa4\xe2\x9d\xa4\xe2\x9d\xa4\xe2\x9d\xa4\xe2\x9d\xa4\xe2\x9d\xa4\xe2\x9d\xa4\xe2\x9d\xa4\xe2\x9d\xa4\xe2\x9d\xa4\xe2\x9d\xa4\xe2\x9d\xa4\xe2\x9d\xa4\xe2\x9d\xa4\xe2\x9d\xa4\xe2\x9d\xa4\xe2\x9d\xa4\xe2\x9d\xa4\xe2\x9d\xa4\xe2\x9d\xa4\xe2\x9d\xa4\xe2\x9d\xa4\xe2\x9d\xa4\xe2\x9d\xa4\xe2\x9d\xa4\xe2\x9d\xa4\xe2\x9d\xa4\xe2\x9d\xa4\xe2\x9d\xa4\xe2\x9d\xa4\xe2\x9d\xa4\xe2\x9d\xa4\xe2\x9d\xa4\xe2\x9d\xa4\xe2\x9d\xa4\xe2\x9d\xa4\xe2\x9d\xa4\xe2\x9d\xa4\xe2\x9d\xa4\xe2\x9d\xa4\xe2\x9d\xa4\xe2\x9d\xa4\xe2\x9d\xa4\xe2\x9d\xa4\xe2\x9d\xa4\xe2\x9d\xa4\xe2\x9d\xa4\xe2\x9d\xa4\xe2\x9d\xa4\xe2\x9d\xa4\xe2\x9d\xa4\xe2\x9d\xa4\xe2\x9d\xa4\xe2\x9d\xa4\xe2\x9d\xa4\xe2\x9d\xa4\xe2\x9d\xa4\xe2\x9d\xa4\xe2\x9d\xa4\xe2\x9d\xa4\xe2\x9d\xa4\xe2\x9d\xa4\xe2\x9d\xa4\xe2\x9d\xa4\xe2\x9d\xa4\xe2\x9d\xa4\xe2\x9d\xa4\xe2\x9d\xa4\xe2\x9d\xa4\xe2\x9d\xa4\xe2\x9d\xa4\xe2\x9d\xa4\xe2\x9d\xa4\xe2\x9d\xa4\xe2\x9d\xa4\xe2\x9d\xa4\xe2\x9d\xa4\xe2\x9d\xa4\xe2\x9d\xa4\xe2\x9d\xa4\xe2\x9d\xa4\xe2\x9d\xa4\xe2\x9d\xa4\xe2\x9d\xa4\xe2\x9d\xa4\xe2\x9d\xa4\xe2\x9d\xa4\xe2\x9d\xa4\xe2\x9d\xa4\xe2\x9d\xa4\xe2\x9d\xa4\xe2\x9d\xa4\xe2\x9d\xa4\xe2\x9d\xa4\xe2\x9d\xa4\xe2\x9d\xa4\xe2\x9d\xa4\xe2\x9d\xa4\xe2\x9d\xa4\xe2\x9d\xa4\xe2\x9d\xa4\xe2\x9d\xa4\xe2\x9d\xa4\xe2\x9d\xa4\xe2\x9d\xa4\xe2\x9d\xa4\xe2\x9d\xa4\xe2\x9d\xa4\xe2\x9d\xa4\xe2\x9d\xa4\xe2\x9d\xa4\xe2\x9d\xa4\xe2\x9d\xa4\xe2\x9d\xa4\xe2\x9d\xa4\xe2\x9d\xa4\xe2\x9d\xa4\xe2\x9d\xa4\xe2\x9d\xa4\xe2\x9d\xa4\xe2\x9d\xa4\xe2\x9d\xa4\xe2\x9d\xa4\xe2\x9d\xa4\xe2\x9d\xa4\xe2\x9d\xa4\xe2\x9d\xa4\xe2\x9d\xa4\xe2\x9d\xa4\xe2\x9d\xa4\xe2\x9d\xa4\xe2\x9d\xa4\xe2\x9d\xa4\xe2\x9d\xa4\xe2\x9d\xa4\xe2\x9d\xa4\xe2\x9d\xa4\xe2\x9d\xa4\xe2\x9d\xa4\xe2\x9d\xa4\xe2\x9d\xa4\xe2\x9d\xa4\xe2\x9d\xa4\xe2\x9d\xa4\xe2\x9d\xa4\xe2\x9d\xa4\xe2\x9d\xa4\xe2\x9d\xa4\xe2\x9d\xa4\xe2\x9d\xa4\xe2\x9d\xa4\xe2\x9d\xa4\xe2\x9d\xa4\xe2\x9d\xa4\xe2\x9d\xa4\xe2\x9d\xa4\xe2\x9d\xa4\xe2\x9d\xa4\xe2\x9d\xa4\xe2\x9d\xa4\xe2\x9d\xa4\xe2\x9d\xa4\xe2\x9d\xa4\xe2\x9d\xa4\xe2\x9d\xa4\xe2\x9d\xa4\xe2\x9d\xa4\xe2\x9d\xa4\xe2\x9d\xa4\xe2\x9d\xa4\xe2\x9d\xa4\xe2\x9d\xa4\xe2\x9d\xa4\xe2\x9d\xa4\xe2\x9d\xa4\xe2\x9d\xa4\xe2\x9d\xa4\xe2\x9d\xa4\xe2\x9d\xa4\xe2\x9d\xa4\xe2\x9d\xa4\xe2\x9d\xa4\xe2\x9d\xa4\xe2\x9d\xa4\xe2\x9d\xa4\xe2\x9d\xa4\xe2\x9d\xa4\xe2\x9d\xa4\xe2\x9d\xa4\xe2\x9d\xa4\xe2\x9d\xa4\xe2\x9d\xa4\xe2\x9d\xa4\xe2\x9d\xa4\xe2\x9d\xa4\xe2\x9d\xa4\xe2\x9d\xa4\xe2\x9d\xa4\xe2\x9d\xa4\xe2\x9d\xa4\xe2\x9d\xa4\xe2\x9d\xa4\xe2\x9d\xa4\xe2\x9d\xa4\xe2\x9d\xa4\xe2\x9d\xa4\xe2\x9d\xa4\xe2\x9d\xa4\xe2\x9d\xa4\xe2\x9d\xa4\xe2\x9d\xa4\xe2\x9d\xa4\xe2\x9d\xa4\xe2\x9d\xa4\xe2\x9d\xa4\xe2\x9d\xa4\xe2\x9d\xa4\xe2\x9d\xa4\xe2\x9d\xa4'
p351
aS'do thrift shop >:l'
p352
aS'Percy Johnson had ADPQ'
p353
aS'Omg no -_-'
p354
aS"I'M AD HD sorry my caps lock lock is brokeN"
p355
aS"I drink chocolate milk and all the chocolate cows will still be alive,so \nI'm good*rolls eyes*"
p356
aS'His original rant on stink people was pretty racist'
p357
aS'LOL'
p358
aS'Dear Ryan, can u bake pie?'
p359
aS'o_o its still adorable'
p360
aS'theres a reply button BTW'
p361
aS"@CookiePlay64 Wait your calling me a troll? :'("
p362
aS'@rebelscum830 What are you talking about?'
p363
aS'omg! crapping up when he smelled the lamp!!!!!!!!! '
p364
aS"A guy had a locker next to me in Grade 12 and I don't know why I didn't ask \nfor another locker. He smelled like rotting onions and mustard. I don't \nthink he ever showered."
p365
aS'THIS IS NOT TWITTER!!!'
p366
aS"I was in the same situation once....I didn't even sit next to him but I \ncould still smelled rotten sour ass, I almost threw up as well"
p367
aS'Haha xD'
p368
aS'@Sprinkles3049 What are you talking about?!? what is up with people in this \ncomment section?!? why are you talking about a reply button????'
p369
aS'lol did he really talk like that in 2009?'
p370
aS'LOL XD'
p371
aS'He reminds me of my guyfriend Richard'
p372
aS"he's soo funny when he's off the pill"
p373
aS"Fuck Jannie, I'm sorry I smell so bad. You didn't have to tell the whole of \nYouTube about it though bitch. Everyone at school thinks you're a lesbian \nanyway, so I don't even give a fuck. Why don't you just fucking move."
p374
aS"just hope he doesn't read this comment. lol"
p375
aS'Dear Ryan, can you improv a rap?'
p376
aS'"if we have no milk then how are we going to to eat cookies?" hahahahaha'
p377
aS'You wearing lipstick you funny whore'
p378
aS"@Oreo Cookie Oh sorry i'm on my Samsung Galaxy Player and when I reply on \nyoutube it does that...sorryI can't choose what it does it just does \nthat...sorry?"
p379
aS'stinks lol XD'
p380
aS'Luv him!!!!!! :) 3'
p381
aS'i live with a guy like that wich is worse '
p382
aS"I don't take an ADHD pill so i'm like this ALL the time sometimes my \nfriends get annoyed :D"
p383
aS'Cookies! <3 '
p384
aS'how do you know what rotten smelly ass tastes like!? O_O'
p385
aS'His eyes are so shiny!!! With blinking purple lights. ooooh :D'
p386
aS'I feel sorry for all the guys he sat next to around the time he did this \nvideo xD. If they watched this video they where probably afraid it was them \nxD'
p387
aS'hes right... lamps do smell good...'
p388
aS'You really have ADHD?'
p389
aS"Some guy smells badly in my class I hate it when he's near me and sitting \nnext to me >_<"
p390
aS'Hilarious! All lamps smell good. Bahaha'
p391
aS"@ParisianWeetabix .....WTF then why would you comment I fon't take in ADHD \npill if you don't have ADHD?"
p392
aS'Rotten sour ass ps why dose he like lamps'
p393
aS"Your background soundtrack sounds a little bit like Justin T's Mirror O.O"
p394
aS'That sucks, my dad is a pretty bad man that I know will burn in hell. But I \nknow that he would not get so bad as hitting my mom, I am grateful for that \n:)'
p395
aS'lmao'
p396
aS'Do of the pill dogs'
p397
aS'You smell like an unripened blue colored banana, Ryan? Tropically amazing. \n:D'
p398
aS"u are a dumb-ass aren't you? whatever world u live in that ADHD is cool is \na sad world and u are a sad stupid bastard"
p399
aS'Hey i once tasted a fart that was so bad i was on a bus i ran up to the \nfront and puked in the trash can'
p400
aS'Your life is more important than children XD'
p401
aS'ya!!!!!'
p402
aS"Hold on I have SEVERE adhd and I don't need to take pills."
p403
aS'milk without cookies .... sad story (: '
p404
aS'is that a ring on his ring finger at 2:49?? '
p405
aS"YESSS!! I COMPLETELY AGREE WITH YOU! I'M SUPER RANDOM IN REAL LIFE WITH ALL \nOF MY FRIENDS!! THEY LOVE IT!!!!!! .....cheerios :D "
p406
aS'Cookies'
p407
aS'And stop smelling like shh.....TEEHEE !!! :D '
p408
aS'But i like cookies...'
p409
aS'Cookies?'
p410
aS'Stop smelling like shteehee'
p411
aS"I had the same experience with a particular smelly person in class. I \nreally had a strong urge to suggest a shower, a bath or a deodorant to that \nperson. >.< It's a good thing you get to rant it out here.. I'm sure an \nargument about a world without cookie would have made people like that \nrealize the consequences for giving out a stench! ;D"
p412
aS'him and his strange fascination with lamps:)<3'
p413
aS'c is for what?'
p414
aS"Ryan's voice got deeper. x3"
p415
aS'Aw, his voice was so adorable and high back then!'
p416
aS'Who wants to live in a world w/o cookies'
p417
aS'COOKIES'
p418
aS'Lol i have A. D. D. Hehe'
p419
aS'lol that was funny '
p420
aS'yes idiot'
p421
aS'CHECK OUT OUR VIDEO HONORING RYAN HIGA'
p422
aS"this video was made 4 years ago.....we're so old!"
p423
aS"Nah, he's not COMPLETELY obsessed with them. He's just ALMOST completely \nobsessed with them X3"
p424
aS'Really? Cookies. ???'
p425
aS'But, I love my cookies. *hugs cookies and does cute Japanese Chibi-eyed \npouty face* THEY MY COOKIES BETCHES! *GWEE*'
p426
aS'u remind me of my bff '
p427
aS'"a part of me just dies" I\'m with you brothah '
p428
aS'lol me 2 '
p429
aS"Do you really haw this medical problem? I like bananas Yes its so bad when \nit smells bad Women's ass tastes better dud try it"
p430
aS'Damn it.. i need a lamp...'
p431
aS'This was my wake up call'
p432
aS'i like that quote...'
p433
aS'i could smell him through the computer.'
p434
aS'He was DEFINITELY off the pill in this video...'
p435
aS"Is it still possible to see ryan higa's older videos?"
p436
aS'I like cookies 0_0 and cows.'
p437
aS"Do you seriously have ADHD? I'm so serious about this question... @nigahiga"
p438
aS'yeah my lamp smells good, caramel'
p439
aS"Anime fan~ I'm one too"
p440
aS'every lamp in my room actually. i have 6'
p441
aS'So...what was the disorder again? He was talking so fast! @_@'
p442
aS'yeah you know all lamps smell good , and how are we supposed to eat cookies \nxD'
p443
aS'So 2,068 people are stinky...'
p444
aS'I have ADHD'
p445
aS'Sucks how the original was removed :)'
p446
aS"Who thinks he's hot beside me?"
p447
aS"Ohh, so THAT'S what the title means!! The first one of these I saw was on \nfeminism, so, before watching it, I thought it had something to do with \nbirth control xD;"
p448
aS'There are no dislikes on this video. :)'
p449
aS"omg. There are kids like that at my old high school. Fucking gross. They \nbelieve that if they can't smell themselves, you can't smell them. .-. \n-Trauma Tize"
p450
aS"I'm one of those people who forgets to take showers and put on deodorant. \nI'm guilty. And stinky."
p451
aS'Dear Ryan, can you make a freaking Dear Ryan episode!?'
p452
aS"because he don't have many frnds! lamps r his best buddies (i guess). :P"
p453
aS'I cut class becuase every time i enter the room it stinks so bad i throw up.'
p454
aS'I have ADHD '
p455
aS'Anime rules'
p456
aS'Me too i have it and hate in school'
p457
aS'dear ryan can you be a wizard '
p458
aS'MAKE MORE SKITZ'
p459
aS'if you look at his eyes in this they are sparkling/purple. #Ryan is the \nbomb :) '
p460
aS'uhh.....UNRIPE CUCUMBER BANANA'
p461
aS"epic that's all I can say"
p462
aS'@Leesneijder Now I have two choices: 1. Say, "Cool, free virus too?" or 2. \nTell you to shut up. So shut up.'
p463
aS'I have ADHD too'
p464
aS'In my class there was a pinker girl ( I have nothing against punks) and she \nsmelled so bad that ... there is no expression for that. Let me explain: \nwhen she sat in our classroom you could smell it because the whole room \njust stinker ;0 she probably took one shower in a month and she had about \n30 rats in her flat (she told me) :oo !! And she smoked and drunk a lot ;o \nit was so bad !! I had to sit next to her and everyday I almost threw up \n:// !!'
p465
aS'2:08 The Doctor agrees.'
p466
aS" RYAN, PLEASE READ THIS!~ Do you really have ADHD? Please respond! I'm not \nsure if you're just joking or you're serious.. Thanks!"
p467
aS"hahahaha.... i love you ryan!!!! u've got some real talent!!!! best of luck \nin anything you do!"
p468
aS'C is for Capple'
p469
aS"Ryan's videos have changed now... They're not like this anymore..."
p470
aS'Simply awesome, hot n best!'
p471
aS'Dear Ryan, why do you like lamps?'
p472
aS'aah right '
p473
aS'yes i cant live a world without cookies :O cuz if there were no cookies i \nwould die too :('
p474
aS'i luv him off the pill !!!! :)) o.o '
p475
aS'he is totally hilariously right and he is awesome!'
p476
aS'Im 12'
p477
aS'TEEHEE'
p478
aS'2:07 W-Where did that ring come from??'
p479
aS'Damm, so hot:3'
p480
aS'Thumbs up if you have ADHD. I edited this without a pill.'
p481
aS'...'
p482
aS'I experienced this today... HORRIBLE'
p483
aS'OOOH DENT!'
p484
aS'No'
p485
aS'My bro has adhd and he is very violent'
p486
aS'a feel like i can taste it 3ugh!'
p487
aS'Me too! AWESOME!!!'
p488
aS'no problemo!!!!!!!!!!!'
p489
aS'I also have ADHD'
p490
aS'Is it wrong that I keep replaying 1:29-1:34 HAHAHAH XD'
p491
aS'Lml Ryan was, is, and will always be hilarious!'
p492
aS'You should do a rap with you off the pills'
p493
aS'im eating a cookie . . . . o_o"'
p494
aS"I had this french teacher who's breath smelled like salmon, and where does \na Dynamic bucket almost puke from... Salmon..."
p495
aS'Cookies'
p496
aS'lol'
p497
aS'I Hav ADHD but I can control it without pills'
p498
aS"My lamp actually smells kind of bad... And if you're vegan, just edit what \nhe said because the soy will die from all the acid in the vomit and you \nwill no longer have soy milk for your vegan cookies... The tragedy... NO \nONE is immune! Showering saves lives..."
p499
aS'I have ADHD!! And I agree, stink people are annoying. XDDDDD'
p500
aS'I love him'
p501
aS'C is for Apple... Lmao Hahaha...love u Ryan'
p502
aS"cookies need milk but when there are no cows, there is no milk, but if \nthere's no grass and plants, then the cows will die, and if the throw up is \neverywhere, then the grass and plants will die."
p503
aS' like that quote too and cookies rock'
p504
aS'y does he mention lamp in nearlly every video? :P '
p505
aS'Jerk'
p506
aS"He probably takes Ritalin for it, that's what I do"
p507
aS'i feel hes tryin to hard to prove he has ADHD'
p508
aS'follow me on instagram! <3 @amyyngoo'
p509
aS"no it's for dog XD"
p510
aS'what he ment to say was....STOP SMELLING LIKE SHOES!! '
p511
aS'I have ADHD too I workout it keeps me focused '
p512
aS'no, c stands for dog'
p513
aS'when he smelt the lamp I almost died :D'
p514
aS"In my Science class, I had to sit beside this guy who smelled like crap \n24/7 for about three months before the teacher changed our seats. I felt \nlike puking everyday in that one hour class for three months. I even once \nattempted to breath out of my mouth, which was a mistake. I felt like I \ncould taste the smell and plus my classmates wouldn't stop staring. But \njust to sum it up, those were the worst three months in my life. .-."
p515
aS'Oh ghod -.-'
p516
aS'Under the ago fo 1 xDD'
p517
aS'lmfao'
p518
aS'I like how he says rotten.'
p519
aS'I got adhd too'
p520
aS'Gotta take 20mg aderal xr'
p521
aS'I LOVE COOKIES!!!!!!!'
p522
aS'Ryan is right... Cookies are more needed than oxygen'
p523
aS'Is it me or Ryan is completely obsessed with lamps.'
p524
aS'Twofer'
p525
aS'Cookies!!'
p526
aS'do u serious have adhd or was it a joke'
p527
aS'*now understands the name off the pill....* Ryan...is just...best youtube \nfilmer ever *nods* yup.'
p528
aS'thumbs up if you went and sniffed your lamp'
p529
aS'Purple eyes *_*'
p530
aS'no, it stands for dog c:'
p531
aS'Looool'
p532
aS'Lol this is just like me.'
p533
aS'hahaha me when im doing home work'
p534
aS'What........?'
p535
aS'Butterfly effect higa, butterfly effect.'
p536
aS"dammmmnn you're hot"
p537
aS'me to i have adhd to hi five thru the computer'
p538
aS'ur awesome'
p539
aS'I agree because there is this kid in my class who I swear has never nor \nheard of a shower!!( p.s he smells like but!)'
p540
aS'The same thing happens to me!!! The teacher almost sent me to the nurse \ncause the smell was so bad.'
p541
aS'I love you'
p542
aS'This is the funniest thing I have ever seen. '
p543
aS'Lol'
p544
aS'HAHAHAHAHAHAHAHA......... XD'
p545
aS'i have adhd'
p546
aS'No, we just left it at that. Literately. (Homeschooling)'
p547
aS'I have ADHD to'
p548
aS'Dear Ryan can u txt 100 words in 1 minute'
p549
aS'OMG ryan I love you! Bring Off The Pill Back! :('
p550
aS'Do you really ADHD?'
p551
aS'i catch bus everywhere i go. choke stink people. in fact get so many stink \npeople dat sometimes da whole bus smell like B.O.'
p552
aS'I take pills for my ADHD....'
p553
aS'I love his logic: stink people equals no cookies :3'
p554
aS'Let me guess, it comes with a free virus too.'
p555
aS'FUUUUUUUUUUUUUUUUUUUUUUUUUUUUUUUUUUUUUUUUUUUUUUUUCK A ERROR OCCURRED, \nPLEASE TRY AGAIN LATER FUUUUUUUUUUUUUUUUUUUUUUUUUUUUUUUUCK '
p556
aS'He actually made a rant about people thinking he had adhd or add way back \nin 2007(?) So, no. But he can act pretty convincing :P '
p557
aS'does he really have ADHD???'
p558
aS"My neighbor has ADHD...I wonder what it's like. He's also in my class :3 \nhe's so cuuuuuuuuuuute"
p559
aS'top comments,,not that much of likes :P'
p560
aS'c is for apple xD'
p561
aS'Ryan can you break dance'
p562
aS"I just noticed that if u google Ryan Higa, there comes absolutely no normal \npictures of him. And that's pretty much the same thing with Kevjumba :D"
p563
aS"There's a song called ADHD. Lol anyways I like the smell of lamps too."
p564
aS'Are you married? '
p565
aS'could you speak slower?'
p566
aS'hmm.. .80hd. ..everyone else in the comments got it right. 80HD just sounds \nlike a new picture quality. '
p567
aS'I have ADHD and i know how you feel'
p568
aS'" i can now say i tasted rotten sour ass, and trust me it tasted... not \nthat bad" haha made me laugh soo hard \xe2\x99\xa5'
p569
aS'I have ADHD too, what strength is your medication? Mine is 36mg.'
p570
aS'i was eating a chocolate bar while watching this video!'
p571
aS"Now I'm not trying to be racist or anything...but um am I the only one who \nthinks its ironic that hes Asian and had ADHD. I'm just saying. I love you \nRyan!marry me!"
p572
aS"I have ADHD.. And you can NOT FOCUS AT ALL with it.. It's annoying >:| When \nhaving it you can not focus on things you hate, For example: Math. I'm \nreally good with it when i'm using it when it's fun, But math books? >:| No \nthank you e_o"
p573
aS'my nickname is din din '
p574
aS'Stop smelling like TEEHEE LOL'
p575
aS'damn i chose the wrong video to eat and watch at the same time..'
p576
aS'.. Oo U O \xee\x81\x96\xee\x90\x8d'
p577
aS'Can yo make a paranormal actibity or how to be stalker'
p578
aS'Unriped doodoo covers bannana'
p579
aS'I guess so, I know this is "wrong", but I\'ve wanted to have ADHD before so \npeople wouldn\'t expect so much of me/so people wouldn\'t judge me if I just \nspaz out. (spazzing out is fun)'
p580
aS"lol, i hate it when people do that. Not because they can't afford to \nshower, just because they are too lazy."
p581
aS'wats it like to hav ADHD??'
p582
aS'The little crinkle above his nose and between his eyebrows is so cute!'
p583
aS'20012 people stink like sh!'
p584
aS'*SNIFFS LAMPS* huhauhhahuuu'
p585
aS"Aww no cookies :( But I'm Asian and Mexican so to a degree I got skills"
p586
aS"I didn't understand half of what he was saying"
p587
aS'It looks like that he is just moving is mouth and not talking :/ but I \nreally like nigahiga'
p588
aS"A world without cookies isn't a world worth living in. TAKE A SHOWER, \nPEOPLE!"
p589
aS"Ryan, I'm just wondering, but do you actually have ADHD? Sincerely, Curious \n^_^"
p590
aS'One time a guy took of his shoes in class and everyone yelled at him to put \nhis shoes back on and the teacher opened the windows.'
p591
aS"LOL. It's ADHD, bro. Check the other comments for correct spelling next \ntime, eh?"
p592
aS'Oh and my sister has ADHD not me....she borrowed my YouTube account :))'
p593
aS'rotten sower ass lol '
p594
aS'lol if you look closely you see someon playing one of the cod"s '
p595
aS'Never new u had ADHD'
p596
aS'Wow under the age of 1 lol'
p597
aS'Is that how you talk so fast'
p598
aS'when he was younger he was on medication for add.'
p599
aS'Those guys who smell gicarets they smell like death'
p600
aS'i want cookies!!!'
p601
aS'his eyes are purple '
p602
aS'hey I have ADHD to!! '
p603
aS'2012 people'
p604
aS'Off the pill - directioners'
p605
aS'"What is that delightful delicious aroma I smell that smells smelly?" Best \nline ever!!!'
p606
aS'no one wants a world without cookies.......and oxygen.....did i say \ncookies!?'
p607
aS'Lol. A bike'
p608
aS'1:30 LOL'
p609
aS'I HAVE ADHD AHAHAHA! OOH, LOOK! ITS A STRAY DOGGY!'
p610
aS'i have ADHD i dont need pills'
p611
aS'Do u really have 80hd or how ever the hell u say it'
p612
aS"...I'm bulimic..."
p613
aS'Taste the smell... XD'
p614
aS'does he actuallyhave ADHD?'
p615
aS'I once had a friend that smelled horrible! '
p616
aS'"A world without oxygen" - meh. "A world without cookies" - \nNNNOOOOOOOOOOOOOO'
p617
aS'"and stop smelling like sh...."'
p618
aS'omg the pills i took when i was younger they never worked! lol'
p619
aS'does Ryan have adhd?'
p620
aS'Ryan: C is for APPLE!! Someone: What a stupid kid'
p621
aS'Omg im rofling this is my fav off the pill rant'
p622
aS'I have ADD. And I think I take the same medicine as you'
p623
aS'Out of all things, Cookies lol'
p624
aS'OMFG I HAZ ADHD! XD lol im seriouse. but i dont do that. i am so freakin \nhyper you wouldnt be able to keepo up probably! but i dont get that out of \nhand.'
p625
aS'C is for C...Apple'
p626
aS'1:32-1:33 lampgasm'
p627
aS'and your so freakin cute.... lol'
p628
aS'i have OCD'
p629
aS'OHHH NO a wold without cookeis!! thates unthinkable! '
p630
aS'HAHAHAHAHAHHAA!!!!!!!!! DO YOURSELF A FAVOUR AND STOP SMELLING LIKE \nSH*T!!!! xD '
p631
aS'Holy crap I have ADHD 2 and I sorta hate it'
p632
aS'noooooo! think about the cookiessss!'
p633
aS'my bro said that he was smart asa box of rocks he was bitched-matched and \nothers and hes 9'
p634
aS'NOO! , A WORLD WITHOUT COOKIES ?? :O'
p635
aS'I take the pills to'
p636
aS'Bullimic LOL'
p637
aS'C IS FOR CAPPLE! lol'
p638
aS'Nom Nom Ryan'
p639
aS'I also have adhd'
p640
aS'Take a shower/bath all of you stink people! Listen to this video! Think of \nthe cookies!! :D'
p641
aS'Tell me about it! i finally convinced my parents to take me off the pill, \nbut they always try to convince me to try again. It does nothing!'
p642
aS'omfg hi5 same!!!!!!'
p643
aS'he said in the beginning of the video that he has adhd...'
p644
aS'Wait, no im anorexic.'
p645
aS'Lol this reminds me of a disturbing thing my brother did to me.it reminds \nme cuz when he said i could taste the smell.......that happened to me to.'
p646
aS'funny video but the real question is......HOW IN THE WORLD DID YOU KNOW \nWHAT ROTTEN SOUR ASS TASTE LIKE IN THE FIRST PLACE 0.o'
p647
aS'You speak so fast!!!!!!!!!!'
p648
aS'Me too i hate it so much because school gets harder AND im in advanced \nclasses'
p649
aS'these rants make the most sense to me'
p650
aS"I've read through all the posts on here however I feel that it's a \nexcellent vid. My older brother simply wishes to get powerful with gals. He \nwas taught a fuck load from Master Attraction. (Google it if you want \npretty good emails on picking up girls.) The strategies on the subject of \ngetting chicks from nightclubs in those emails from that site gave got him \nhis 1st sex in more than 2 years. I became bothered though because I heard \nthem all. Terrible."
p651
aS'cool'
p652
aS'WooHoo! Go ADD/ADHD people! \\(^o^)/'
p653
aS'i always like the warnings'
p654
aS"Somehow the whole world dies because of whatever he's ranting about"
p655
aS'".......and if we have no milk then HOW ARE WE SUPPOSED TO EAT COOKIES!!" \nxD i luv that part!'
p656
aS'I don\xc2\xb4t wanna live in a world without cookies :O'
p657
aS'1:32 lol'
p658
aS'Dear ryan, does it make you upset when people dislike your videos?'
p659
aS'I just smelled a lamp \nxDDDDDXDDDXDXDXDXDXDXDXDXDXDXDXDDDDDDDDDDDDDDDDDDDDDDDDDDDDDDDDDDDDDDDDDDDDDDDDDDDDDDDDDDDDDDDDDDDDDDDDDDDDDDDDDDDDDDDDDDDDDDDDDDDDDDDDDDDDDDDDDDDDDDDDDDDDDDDDDDDDDDDDDDDDDDDDDDDDDDDDDDDDDDDDDDDDDDDDDDDDDDDDDDDDDDDDDDDDDDDDDDDDDDDDDDDDDDDDDDDDDDDDDDDDDDDDDDDDDDDDDDDDDDDDDDDDDDDDDDDDDDDDDDDDDDDDDDDDDDDDDDDDDDDDDDDDDDDDDDDDDDDDDDDDDDDDDDDDDDDDDDDDDDDDDDDDDDDDDDDDDDDDDDDDDDDDDDDDDDDDDDDDDDDDDDDDDDDDDDDDDDDDDDDDDDDDDDDDDDDDDDDDDDDDDDDDDDDDDDDDDDDDDDDDDDDDDDDDDDDDDDDDDDDDDDDDDDD'
p660
aS'@VirgoFire733 your right,a world without bacon would be worse.'
p661
aS'TEAM ADHD!!!!!! WHOOHOO!!! Dear ryan what kind of pills do u take??'
p662
aS'no...i love cookies... i have ADHD... o and oxygen i need that 2!!!!! LOL '
p663
aS'OO a butterfly....'
p664
aS'but hotter'
p665
aS'LAWL RYAN, YOU JUST UPLOADED THIS ON MY BIRTHDAY DUDE!!!!'
p666
aS'You have adhd?!'
p667
aS':O a world without COOKIES!!!!!!!! 2:49'
p668
aS'I HAVE ADHD and im proud even tho alot of people do!'
p669
aS'NIGAHIGA IS THE BEST YOUTUBE STAR :) '
p670
aS'Dear Ryan, can you be a villain?'
p671
aS'Dear Ryan, can you be my husband?'
p672
aS'my brother said "i dont like oxygyn in my head!"'
p673
aS'if we have no milk how can we eat cookies?'
p674
aS"There are SOME people that - even with deodorant and antiperspirant - still \ncan't manage to stop the stink even if they shower daily. They're cursed \nwith mega sweat or something. I feel sorry for their unfortunate situation."
p675
aS'i totally understood your whole video'
p676
aS'i love cookies :3 '
p677
aS'What is teehee ?'
p678
aS'the expressionssssssssss >.<'
p679
aS'Do a rant on how we need money to survive.We have to pay for food, water, \nshelter,etc.'
p680
aS"There's a girl in my class who always smells EXTREMELY strongly of cats. At \nleast I think it's cats. I don't have a cat. Whatever it is, it's \nabsolutely disgusting and I can always smell her from about 5 feet away..."
p681
aS'huh? '
p682
aS"I Died When He Said He Doesn't Smell Like Rotten Sour Ass "
p683
aS"Omg ! he's like Peter from Family Guy! :0"
p684
aS'i agree!!! '
p685
aS'my brother sais i have a hollow head idk y but its just him'
p686
aS'A bike?'
p687
aS'UR eyes look shiny o.o'
p688
aS'ur eyes are VERY shiny :)'
p689
aS'No, you leave the comment alone.'
p690
aS'ADHD brought me here...'
p691
aS'i have AD... OO A CAT '
p692
aS"A WORLD WITHOUT COOKIES!!?? D':"
p693
aS'c is for cappl '
p694
aS'Dear ryan, can you be a princess'
p695
aS'I have ADHD to'
p696
aS'hahaha use a bike ... :-D okej ryan, just becoz of u I will try to shower \nmore then once in week .... (maybe)...'
p697
aS"you actually have ADHD !?!?!? cause I'm confuse"
p698
aS'"Toitals" !!'
p699
aS'Deodorant, shampoo ,Cologne, a bike what ever it is just do it!'
p700
aS'no, c is for dog.'
p701
aS'If you watch this backward, he actually calm down =))'
p702
aS"I don't take an ADHD pill either. I don't have ADHD though. Also I don't \nhave friends."
p703
aS'Thank you. I finally have a reason to not be embarrassed about having ADHD, \nand having to take a pill everyday. :) thank you'
p704
aS"WOW. That actually sounds like Mirrors from Justin Timberlake, doesn't it \nat 30:00 ?"
p705
aS'Rrekjefnnfndfviubdnveruidfvuirnvuivfiubikv'
p706
aS'and now, hes so fucking hot!'
p707
aS'i dont have it but in pretty sure adhd people are awesome'
p708
aS'You know....you could always check out his channel.....'
p709
aS'How ON EARTH did we get on the topic of a world without cookies? LOL. '
p710
aS'... Does anyone else always think of that one person who smells like dog \nsh*t that was thrown on a mud covered road, run over by a dirt bike, eaten \nthen puked, and sprinkled with grass seed?'
p711
aS'Oh trust me, we are..'
p712
aS'i have adhd '
p713
aS'hey are you serious about that? shouldnt u take your pills?? lol i am \nconfused now. HULK DONT LIKE BEING CONFUSED so yeah '
p714
aS'ya hahaha'
p715
aS'YEAH NO ONE WANTS TO LIVE IN A WORLD WITHOUT COOKIES. NEVER!!!!!!!'
p716
aS'do you want to make the world bulimic?! hahahahaaaaaaaaaa'
p717
aS'nice intro '
p718
aS'The original was fucked up'
p719
aS'Lmaoo 1:32-1:34'
p720
aS'I have ADHD too, this video was so nice, my grandma was nice too. She used \nto bake these wonderful cookies with chocolate chips. i like chocolate, \nreminds me of oreos dipped in milk that came from a cow, that i ate at a \nsteakhouse. Hmm, they killed that cow so i could eat it, kinda like killing \npeople to earn points... '
p721
aS'Hey I have ADHD to- oh look! A butterfly!'
p722
aS'COOKIES!'
p723
aS"whats the ryans lattest video out there i'm sick of watching these old \nvideos or did he stopped making videos please give me the title of his new \nvideo "
p724
aS'I smelled a lamp after this video! :D'
p725
aS"Why would you be proud? ADHD is nothing to be proud of. You can say that \nyou have ADHD and you don't care but why be proud?"
p726
aS'Breath! :-\xc3\x97'
p727
aS'Do you really have ADHD or is it just a joke?'
p728
aS'AND STOP SMELLING LIKE TEEHEE! XD'
p729
aS"Ahh, I knew some guy with ADHD too! It's not very noticeable! "
p730
aS"I have ADD. If I don't take my meds, its WW3... and I get a huge anger prob."
p731
aS'i also have ADHD'
p732
aS'LALALALALALALALALALALALALALHAHAHAHAHAHAHAHA.....I HAVE ADD :('
p733
aS':) i got u ryan! i got adhd too!'
p734
aS"1:06- he can say an entire sentence correctly, but still doesn't know that \nC does not stand for apple or dog? XD"
p735
aS"This girl smells like sooooo bad and doesn't shower for days"
p736
aS'lmao lamp-gasm!'
p737
aS"-The Paranormal Writers -Operation : Scare Kevjumba ... you know what? Why \ndon't you just subscribe to him?"
p738
aS'A unripe dodo banana sounds awful'
p739
aS'Bloodclaaat! Is a Jamaican riddim inna the start eno! Bere fahwud! '
p740
aS'Does anxiety disorder cou-- Is that person over there talking about me?'
p741
aS'I have ADHD and Bipolar! :O'
p742
aS'I have ADHD too!! :D'
p743
aS'this is the only vid that the comments r not so recent sorry ADHD also im \nnot alone!!!! :)'
p744
aS'my brother has adhd'
p745
aS'No, he should do one about people who cannot spell words correctly like you!'
p746
aS'cookies> oxygen'
p747
aS'thanks :) '
p748
aS"Ryan! That is so true! I have a neighbor that picks me up and she smells \nlike Sh- Tee Hee! Seriously though! My brain hurts whenever I get out of \nthe car because I'm trying to breathe in my jacket."
p749
aS"0:00-3:02 I'm pretty sure that answers ur question :) lol"
p750
aS"That's what my mom says ALL the time >:(, she says I need to take more \nshowers. I try my best to smell like ****."
p751
aS'What is that delightful delicious aroma I smell that smells smelly?'
p752
aS'I think I might have ADHD...'
p753
aS'its adhd(attention deficit hyperactive disorder) and no i dont think so'
p754
aS'NICE warning message ever!!!!!! :D'
p755
aS'stop being all like @whatever the name is . JUST CLICK REPLY AND WRITE IT . \nfreaking annoyinnng .,'
p756
aS'Deodorant shampoo cologne a bike... Lol'
p757
aS'OMG I HAVE ADHD TOO my life just got like 80 times better now i have this \nflse sense of accomplishment '
p758
aS'Can I have my oxygen mask early?'
p759
aS'1:33-1:34 me, my life, everyday.'
p760
aS'The people who disliked this video is stinky. :))'
p761
aS'"If we have no milk, than how are we supposed to eat cookies?"'
p762
aS'Who cares about oxygen! Cookies are WAYYY more important!!!'
p763
aS'I have ADHD too.'
p764
aS"Hi, I understand where you're coming from but clearly this video was not in \nany way aimed at people who can't control their body odor so I don't think \nhe was being cruel when he made this video. PS I pray your brother gets \nbetter :)"
p765
aS'Thank u adhd for giving us ryan'
p766
aS'LAMP-GASM '
p767
aS'Lol Ryan'
p768
aS'do u really have adhd???'
p769
aS'my ADHD just makes me forget stuff a lot. seriously, i barely remember my \nown name.'
p770
aS'Stop smelling like shit-lol'
p771
aS'C is for CAPPLE HAHAHAHAHAHAHAHAHAHAHAHAHAHAHAHAHA LOL'
p772
aS'Lol if you guys have watched his old vid, he said that he doesnt have \nadd......... ugh'
p773
aS'Its a lamp'
p774
aS'Rolling in da floor'
p775
aS'GRAMMAR FAIL'
p776
aS'Stop smelling like sh TEEHEE'
p777
aS'he should take his pills ,... xd'
p778
aS'i think the adhd thing was a joke, but if he does have it, then there is \nproof that just because you have a disorder does not mean in any way you \ncant be intelligent or in this case funny. '
p779
aS'what if he was just letting some farts loose? lesser of two evils, dude'
p780
aS'this video is funny as hell ryan '
p781
aS"you're amaizing"
p782
aS'0:20 dear Ryan, your not alone ADHD SUPREMACY '
p783
aS'Blah I once puked from my locker neibor being smelly haha :#'
p784
aS'yes ADHD im not alone but it is a gift insted one thing going on in ur head \nu can hav many things can go in ur mind '
p785
aS'C is not for apple, its for dog, lolol'
p786
aS'A world without cookies! And oxygen :)'
p787
aS'0.41 is so funny'
p788
aS'Whats up with your pamp fetish my man'
p789
aS'I come here to see his reaction when he smells the lamp :)'
p790
aS'yup im focused on it alright'
p791
aS'no.'
p792
aS'3 mins. of writing that comment v v v v v v v v v v v v v v v v v v'
p793
aS'yeah Ryan! get high on that lamp!!!! LOL XD'
p794
aS"He doens't have ADCD, does he? "
p795
aS"Dude...ADHD isn't a big deal...I have it and about half of the people in \nthe world do too!"
p796
aS'Ryan is hilarious'
p797
aS':('
p798
aS'i would have if i had a lamp :/ '
p799
aS'LOLOLOLOLOLOLOLOLOLOLOLOLOLOLOLOLOLOLOLOL!!!!!!!!!!! HOW ARE WE SUPPOSED TO \nLIVE IN A WORLD WITHOUT COOKIES?????????'
p800
aS'I know how you feel, except I sat beside a guy like that for 3-4 \nmonths..... it was NOT fun.'
p801
aS'YOU HAVE SUCH AN ACCENT. AWESOME. OFF THE PILL RANT. I GET IT NOW! '
p802
aS'I have it to ADHD'
p803
aS'Wen u were younger u sounded more asian. No offense'
p804
aS'he has ADHD !?'
p805
aS'U should do one about ur naborhood'
p806
aS'troll '
p807
aS'i was watching but then i saw a butterfly outside....'
p808
aS'I have adhd to- oh look a butterfly'
p809
aS'i was eating lunch while i watched this... -.-'
p810
aS'Wait he has ADHD..... No wonder why his videos are so good.'
p811
aS'For off the pill stupid people'
p812
aS'Anyone else focused on the purple flicker in his eyes?'
p813
aS'This, Is mind blow #nigahiga'
p814
aS'I have ADHD I act JUST like that! Lol'
p815
aS'"Don\'t drop the banana!" "Why?" "Good source of potassium!" Thanks Ryan, \nyou\'ve made my day because I\'m also ADHD and I connect things that are \ntotally unconnected. BTW that was from Doctor Who.'
p816
aS'One day a long time ago back in not a long time ago cameras used to have \nproblems with "red eye" and I\'m pretty sure they do now... but more mild... \nbecause technology is better'
p817
aS"What's up with you and lamps?? xD Awesome videos Ryan!"
p818
aS'A life wit out cookies XD'
p819
aS'cool my doctor said i may have a.d.h.d but my friends think i have a.d.d \ncuz im really hyper.'
p820
aS'her? o_O'
p821
aS'ha ha funny '
p822
aS'i think i have adhd too'
p823
aS'ok i feel like a pig '
p824
aS'65% of oxygen comes from algae.... BUT I TOTALLY AGREE WITH YOU WITH THE \nCOOKIES! CHEESE ISLAND WAS RASIED BY THE MAGICAL PUDDING CUPS OF HAPINESS!!'
p825
aS"He's a girl now? The world is going to end D:"
p826
aS'i have adhd too. as well as add'
p827
aS'i feel sorry for you'
p828
aS"Ryan my sister says she or could be your girlfriend even though you are a \nhorrible boyfriend or she don't care. loves you eew!"
p829
aS'yup'
p830
aS'thats not funny we need cookies to survive!!!!!!'
p831
aS'yeah '
p832
aS'Haha I have ADHD too and I never take my pills =P..only..sometimes..'
p833
aS'mind blown... lmfao'
p834
aS"I have ADHD too I just always take my pill ........ Cuz if I don't my mom \nwill tickle me :/ heheheheheheh neeeeheheheheh"
p835
aS'does he actually legit have adhd ?'
p836
aS'"Make sure to secure your own mask before assisting your children because \nyour life is more important. Viewer discretion is advised." '
p837
aS'I have ADHD too... just a bit :)'
p838
aS'ooooohhh.shiny lamp XD'
p839
aS'How was it diagnosed? People say I have it but the doctor doesn\'t know how \nto "prove" it.'
p840
aS"so that's why it's off the pill."
p841
aS'Off the pill marathon!'
p842
aS'unripe dodo covered banana'
p843
aS'im off the pill to im off the rails cunts'
p844
aS'Hahahahah in a world without cookies ... and oxygen lol'
p845
aS"@TheDylanJaustin Well for me my therapist had my teacher fill out some \nsurvey asking questions about me related to it and the answer choices are \ngraded by a 1,2 or 3.If u get a 2 or 3 on every question then ur diagnosed \nwith ADHD that's how it worked for me and some other people in my school"
p846
aS'i have adhd too :D '
p847
aS'Smelly people = no cookies Mind = blown'
p848
aS"I'm just really glad Ryan took the time for us to remake his Off the Pill \nrants. DEDICATION."
p849
aS'Does Ryan really have ADHD?'
p850
aS"I have a friend who's a stink person but I don't wanna tell her because I \ndon't know how without bring mean. Now I do..."
p851
aS'I have to take pills for my ADHD as well'
p852
aS'BANANAS!!!!!!!!!!!!!!!!!!!'
p853
aS'Oxigen is more portamt than cookies'
p854
aS'Off the pill- haters'
p855
aS'I miss old nigahiga'
p856
aS'people say its a gift '
p857
aS'people who have ADHD it sticks with them forever becuase i have friend that \nway and and my aunt that way c: theres YOUR ANSAERRRR! lol'
p858
aS'1:32 LampGasm.....'
p859
aS'dear ryan can you be a singing candy corn'
p860
aS'haha i love him hes the best and i have ADHD and ADD'
p861
aS"Ya that's for you phenomenalHD"
p862
aS'you. are soooo. hot.'
p863
aS'IM NOT THE ONLY 1 WHO SMELT SOMETHING DURING THIS RIGHT?'
p864
aS'1:32 is epic! hahahaha'
p865
aS'ohhh.. how do people get ADHD, do you have a answer for this? :) =))'
p866
aS'Nigahiga thx for posting u make me laugh every video! thx.'
p867
aS'Wow i have add to i would have never thought'
p868
aS'yeah his videos are pretty--OH look a butterfly'
p869
aS"Oxygen is okay... But I'm worried about the cookies"
p870
aS'Well sir you can quit cussing cuz Jesus knew he was going to make that \nvideo and it kinda has a good message so the only problem we have with this \nvideo is you and ur stupid comments'
p871
aS'omg i laughed soo hardxD'
p872
aS'Has it really been three years? Where has the time gone? And this video is \nSOOOO relatable!!!'
p873
aS'Dear Ryan, could you perform a magic show???'
p874
aS'Wheres Skido!?'
p875
aS'@UploadSociety'
p876
aS'Nobody gives a shit.'
p877
aS'But as the smell grew stronger, I realised it was not a lamp. Also C did \nnot stand for Apple, it stood for dog. :P'
p878
aS"You're born with it. It's not something you just get over time."
p879
aS'hey, bananas are proven to help fight off depresion. ;)'
p880
aS'i watched a lot of ur videos and ur cute <3 '
p881
aS'Wat music. Is playing on da background'
p882
aS'a bike? who would use a bike to smell good?'
p883
aS'lol it so reminds me of one of my friends and he admits that he smells gross'
p884
aS'hahaha! do yourself and everyone else a favor and stop smelling like \nSH--!!!!!!!!!!!'
p885
aS'i have adhd schools hard man thumps up if you dont like school but you know \nit helps alot . '
p886
aS"You might want to stop saying that... For your sake more than anyone \nelse's. A.D.D. is inclusive in A.D.H.D... Do you know the meaning of the \nacronyms? It seems not, so let me help. Attention Deficit Disorder = \nA.D.D., Attention Deficit Hyperactivity Disorder = A.D.H.D. So the \nredundancy only makes it seem like you are trying to gain sympathy or gain \nattention in the wrong way. Pick one or the other, preferably the later as \nit's the updated term for A.D.D. "
p887
aS'Rewatching all these videos again... I forgot about the cookies thing. <3'
p888
aS'Well I checked out your videos. I literally lot brain cells from watching \nwhy you hate math. Holy shit, do you know how many times to say "like"... \nIt\'s fucking obnoxious. I can\'t even begin to describe how awful and boring \nyou are. If you\'re trying to be like any person on YouTube with a lot of \nlikes, there is no way in shit you will be. Just face it.'
p889
aS'rotten sour ass lol '
p890
aS'Dear Ryan, Can you kidnap One Direction?'
p891
aS'experience something like this i was seated next to this dude while playing \na game at a local game center and fuck he smelled so bad i felt like puking \n-.- he smelled like rotten sausage and i dont know what but damn i was \nstuck with him for like 30 damn minutes i couldnt leave cuz i was trying to \nfinish a game ... but god the moment i finished it i got up and walk away \nas fast as possible cuz damn if i stayed any longer i would have puked ... \ndamn stink people making us all bulimic '
p892
aS'he sounds kind of like Derek Zoolander :D'
p893
aS'i totally knw how u feel ryan u should visit my school most ppl in my class \nkinda have bo but im not tryin 2 be mean or any thing but yeah'
p894
aS'You saw the video too?'
p895
aS"@Jacob Rhee he doesn't seem like he doesn't have ADHD"
p896
aS'1:32 lmfao lol rofl'
p897
aS'His eyes r purple'
p898
aS'That lamp sniff... Haha'
p899
aS'You have ADHD? No wonder your so funny.'
p900
aS'I have adhd but that doesnt mean im freakin mental'
p901
aS'a world without YouTube is a world without laughs'
p902
aS'I bite my boyfriend on the shoulder'
p903
aS'Dear Ryan can you make another video of man vs wild '
p904
aS'I have ADHD it is so hard having ADHD because I have to take a tests and \nlike you keep getting distracted with your other classmates when they tap \ntheir pencil on their desk. Oh yes NOT THE COOKIES and I love your videos'
p905
aS'Do you really have ADHD ??'
p906
aS'All I did was pause te video who I saw the perfect spot......'
p907
aS'i only have mild A.D.D its not that.... hey whats that thing outside my \nwindow?'
p908
aS'she might have tmau look it up actually the smell might not be her fault at \nall'
p909
aS'yum cookies i also have ADHD!:)'
p910
aS'u r soo right lamps do smell nice i soooo agree with this rant it is sooo \nfunny '
p911
aS'Does he seriously have ADHD?'
p912
aS'FUCKKK U :( i have adhd.. i have a game programming assignment due tomorrow \n>_< and im addicted to your vids '
p913
aS"@Zombietoots Maybe she's on her period?, has a vaginal infection because of \nwater inside the vagina?, you don't know!, don't judge before not knowing \nher case!"
p914
aS'Yes, ADHD makes you more creative since it makes your brain go on \n"hyperdrive" so you think random things, which is why he\'s so funny ! :D My \nbrother has ADHD and he cracks me up like crazy lol.'
p915
aS'He didnt laugh at the end,as he said at 2:07 :D '
p916
aS'Cookiess'
p917
aS'i have adhd. you make me proud of it. :)'
p918
aS'is that a cheeseburger or a hot dog?... nononono its a lamp lol'
p919
aS'my sister farted at the exact moment...'
p920
aS'NO ONE WANTS TO LIVE IN A WORLD WITHOUT COOKIES '
p921
aS'warning blablalblalblalblbllbalalb blbalbblalbblbalabablb \nlbalbblblblbalbalbalbalba blbalblblabl xDDD'
p922
aS'skitzo too :D'
p923
aS"The quote is Butterfly not fly... it's called the Butterfly Effect... they \nmade a movie slightly based on it... called the Butterfly effect..."
p924
aS'Do you really have ADHD or is it just a character for youtube?'
p925
aS"These videos become even better when I'm off the Pill myself!"
p926
aS'i have bad ADHD'
p927
aS"we talked to her with our biologie teacher, who actually asked her and she \nsaid it's not and admitted she simply does not wash enough. and also she \nwore the same clothes too often. her nails are long, rogh and so so dirty. \nso it's her fault. i could have understand it if it were like you said \nthought. we were not bullying her or anything. simply told her that she \nsmells,,, just becoz she really does"
p928
aS"im not trying to be an annoying jerk, but maybe they're being abused. there \nwas this girl in my elementary school who always was extremely dirty and \nstinky. we just assumed she never took a bath and people would make fun of \nher. im sad to say i was one of those people. then in 6th grade she came to \nschool with a black eye and bruises in the shape of fingers up and down her \narms. she was taken to the nurse and the next day the teacher told us she \nhad been extremely abused her whole life."
p929
aS'Did you know that there is 3 types of ADD 1)ADD attention Deficet Disorder \n2)HAD Hyperactivity Activity Disorder 3) ADHD Attention Deficet \nHyperactivity Disorder. I have number three... It sucks'
p930
aS'the end was so funny posting this on facebook'
p931
aS'I dont want a world without cookies:('
p932
aS'im asking my self the same question for 5years.. =="'
p933
aS'I love you Ryan, but its STINKY! not stink. STIIINKKYYYY'
p934
aS'@wavyk2khris I think that you may have a mild to moderate case. I have ADHD \nas well.'
p935
aS'so, i eat cookies without milk.'
p936
aS'If u do explain it me'
p937
aS'ADD is slightly different. My brother was actually "diagnosed" with a mix \nof ADHD and ADD. Its confusing which is why sometimes his medication \ndoesn\'t work. But I don\'t know anybody with it.:)'
p938
aS'omg i used to sit next to this kid that smelled HORRIBLE!!!!!!!!! he \nliterally made the whole class smell bad. But i felt bad because everyone \nmade fun of him. :(('
p939
aS'Did he said "Mother F*" 0:34? =))'
p940
aS'I love ur ADHD tho :D'
p941
aS"To atGod90, I got ADHD and I'm all As student"
p942
aS'I LOVE YOU'
p943
aS'shut up ryan'
p944
aS"I really get the 'off the pill' thing now. What pills do you take usually ? \nbecause I have ADD (same thing but without the hyper part) and I was \nwondering if we take the same pills :)"
p945
aS'i like cookies.........'
p946
aS'C is for CaTpple!'
p947
aS'I love cookies'
p948
aS'1:32'
p949
aS'We are brothers and sisters belonging to one faith and one story. I appeal \nto lovers of folk music of Kazakhstan. Come to my channel to find out more \nabout the brotherly people and their culture. Or just listen to music. Hav\xd0\xb5 \nnice day Citizens of the land )))'
p950
aS'I smell like an unripe cucumber banana too'
p951
aS'Can u make a video of the pill a world without cookies'
p952
aS'ADHD!!! i have thhttt'
p953
aS'Do you want to live in a world without cookies?!...and oxygen?'
p954
aS'He is hilarious..... his best videos are the off the pill ones. Thumbs up \nif u agree'
p955
aS'C is for capple xD'
p956
aS'Kevjumba intro? music/dance'
p957
aS"I think he uses them when he's filming alone. =D"
p958
aS'His warning are freaking hilarious !!!'
p959
aS'This is not a fucking old video '
p960
aS'warnings are amazing!'
p961
aS'Try going to the last page of the comments (impossible )'
p962
aS'you dont say?'
p963
aS'I can live without oxygen... BUT WE SHALL NEVER LOSE COOKIES!!! >:D'
p964
aS'Goat milk.'
p965
aS'i have adhd too'
p966
aS'The intro was powered by auto dance 3'
p967
aS'i\'ve been wondering the name "of the pill" for a long time and finally i \nfound out:D'
p968
aS'XD but true'
p969
aS'Shapiro Shauna Byrds pool unearth pitfalls Izzy'
p970
aS'Pause at 0:57 lol'
p971
aS'Do you REALLY have adhd?'
p972
aS'Check out my video called delusional girl part 1 technically part 2 is \nstill in the making ;)'
p973
aS'I was gonna say the same thing! LOL and fans?! '
p974
aS'My friend was all stink and I was talkin to her and was like 0.o 0-0 0\xe2\x80\xa2o \nthen was u smell like onions died tKe abath and ran away :3'
p975
aS'Haha so do a favor and stop smelling like sh teehee ;)!'
p976
aS'japanese are from japan.. chinese are from china. iight?'
p977
aS'Flashlight and lamp!!!!!!!!!!!!!!!!'
p978
aS"What's up with his obsession with lamps? haha I love his slight accent."
p979
aS'well dont have to be a rude dick about it'
p980
aS'he does'
p981
aS'thats really random.......'
p982
aS'I like that quote.'
p983
aS'hes asian'
p984
aS'Lol XD Obsessed with lamps much?'
p985
aS'no hate but the old stink people rant was waaay funnier!!'
p986
aS'do you mean.LikethiscommentifyouhaveADHDandareproud!!. :D'
p987
aS'Anyone else smell there lamp...?'
p988
aS'do you really have adhd '
p989
aS'lol one time this dude in my class smelled like piss '
p990
aS'i think he actually talked a bit slower in this video after not taking the \nadhd meds, haha as always, awesome funny & true video ryan! :D x'
p991
aS'I bet he jizzed in his pants when he sniffed the lamp'
p992
aS'Stop Drop And Clean Ur-selves '
p993
aS'I have ADHD'
p994
aS'i thought ryan didnt have adhd,ryt??'
p995
aS'When I first saw an, "Off the pill", video, I swear I thought he was \ntalking about birth control, lmao. '
p996
aS'I have a minor case of adhd but I can focus on somethings '
p997
aS"DON'T DO IT! DON'T!"
p998
aS'Do off the pill - directioners please !!'
p999
aS'uh'
p1000
aS'Coooookies'
p1001
aS'OMG!! Lol'
p1002
aS'woa... different TEEHEE font'
p1003
aS'Fukin hell he got so hype about it'
p1004
aS'no because nobody wants to live in a world without cookies~'
p1005
aS'well its a real quote but he got it wrong, its actually a butterfly not a \nfly :) but if i was talking that fast i think i would miss butter as well. '
p1006
aS'dear ryan, what is with you and lamps?'
p1007
aS'Cookiez >:D<33333333333333'
p1008
aS'Ryan, do u really have adhd??'
p1009
aS'yes :) '
p1010
aS"it's already proven that he can"
p1011
aS"ryan is an idiot....c doesn't stand for dog or apple... it stands for lamp"
p1012
aS'He sure like lamps ! Lol like most of his vids mention lamp in it ! I think \nthats his fav. thing in duh house'
p1013
aS"when you don't eat your pills your eyes go purple..."
p1014
aS'look at ryans left eye at 1:49... ITS RED!!!!!! '
p1015
aS'I want to live in a world with cookies!! \xf0\x9f\x98\x9d'
p1016
aS'I actually wanna take a shower now... '
p1017
aS'1:32 "I came"'
p1018
aS'I dare you to look up the blue waffle disease on google images....'
p1019
aS'One of my favorite things to do is watch old videos :D'
p1020
aS'big difference japanse and chinese is totaly diffrent'
p1021
aS'oooohhhh I see. thanks :P cheers! lol'
p1022
aS'dear ryen, Can you speak japanese :)'
p1023
aS'hahahaha luv your videos again '
p1024
aS'mt brother got adhd im used to it.. i love it cuz people w adhd got ALOT \nmore personality'
p1025
aS"Damnit guys. I can't live without cookies. Change your ways."
p1026
aS'if u stink go and buy colone, beckham awaits'
p1027
aS'PU\xef\xbc\x81'
p1028
aS'0:25 are you married?'
p1029
aS'shut the fuck up, its just a joke! '
p1030
aS'u are one nice guy '
p1031
aS"Okay seriously JOEZAAAM why the heck do you advertise yourself on his \nvideos? It's really annoying."
p1032
aS'I love off the pill..lol'
p1033
aS'wow ur a racist'
p1034
aS'does he really have adhd?'
p1035
aS'i thought hes chinese'
p1036
aS't\xe3\x82\x84n c\xe3\x83\x83 k\xe3\x82\xa5 (^O^)\xef\xbc\x8f \xe6\xaf\x8e\xe6\x97\xa5!'
p1037
aS'cheers just means like have fun, bye, etc.. add is attention deficit \ndisorder, adhd is attenthing deficit hyperactive disorder, it makes us much \nmore active and hyper :P'
p1038
aS'I could teach u ryan!'
p1039
aS"But... how would you eat cookies if you're bulimic? xD Wouldn't you just \nthrow them back up anyway?"
p1040
aS"oh thats cool. but isn't that the same as add? cheers to what? lol"
p1041
aS'No one corrects the lamp master...'
p1042
aS"I don't what to live in a word without cookies NOOOOO"
p1043
aS'wenever he srunches his eyebrows, he has this little triangle box on \nbetween his eyes '
p1044
aS'i got adhd 2 brah lol'
p1045
aS'Ahaha, I know how you feel. I take them, too, just to concentrate at \nschool... Hey, that rhymed. :D Kinda.'
p1046
aS'1996 people from the dislike bar smell like ROTTEN SOUR ASS !'
p1047
aS'Does Ryan really have ADHD? I luv Ryan!'
p1048
aS'Yo I have adh oh look a butterfly'
p1049
aS'lookat the description agree'
p1050
aS'What is up with you and lamps?! lolz '
p1051
aS'dafuq'
p1052
aS'I have ADHD 2 :P'
p1053
aS'Didnt you just hate it when your sixth grade/year six teacher made you sit \nnext to people that smelt like they didnt wipe properly. God, i hate my \nsixth grade teacher.\xef\xbb\xbf'
p1054
aS'my is on the 25th hahah'
p1055
aS'So do yourself and EVERYONE else a favor, and stop smelling so Shi- TEEHEE'
p1056
aS'*Gasp* wheres the oxygen mask? *Gasp*'
p1057
aS'it stands for lamp....dumbass >.<'
p1058
aS'You made this on my birthday!! '
p1059
aS'alright class now say it with me, "c" is for ca..APPLE! what a stupid kid. \n(\';'
p1060
aS'hi'
p1061
aS'1,948 people stink'
p1062
aS'i have adhd but dont need a pill becuase i can control it'
p1063
aS'Thumbs up if you have ADHD too.'
p1064
aS'the fact that you have ADHD just makes you perfect'
p1065
aS'stop smelling like sh....teehee! lol'
p1066
aS'i laughed so hard when he smelled the lamp and he was like "ahhohohoho"'
p1067
aS'lol the video froze at 2:43'
p1068
aS'his voice and accent is different in 2012'
p1069
aS'HEY GUESS WHA/........... he used what Kevjumba does in the beg. entrance :D'
p1070
aS'are you... being serious?'
p1071
aS'Make an off the pill rant in one take'
p1072
aS'@Angel Royal OMG I LOVE ANIME!!!!!! My favorite show is fruits basket and \nmy favorite vocaloid is either luka or miku'
p1073
aS'I love this guy!!'
p1074
aS'I have adhd aswell wait wat am i writing again'
p1075
aS'yes i usually sit in band class and get stuck by people that have bad BO \nand this is after band camp!!!!!!'
p1076
aS"What's the ring for??!!"
p1077
aS"BANANAS ARE AWESOME!!! LEN KAGAMINE LIKE BANANAS!!! Oh dear, I'm obsessed \nT^T... Sorry for my okatu-ness (for those still-somewhat-sane people, an \notaku is someone who is obsessed with Japanese anime and/or manga, now \nbecause I suck at giving descriptions LOOK IT UP)"
p1078
aS'Attention Disorder Hey Donuts'
p1079
aS'are u really adhd? '
p1080
aS"Well, I'm not a piece of shit, but lamps smell much more sexy."
p1081
aS'What a stupid kid.xD'
p1082
aS"I'm on nigahiga video marathon... again. "
p1083
aS'You have purple eyes :)'
p1084
aS'1:33 Orgasm face. ;)'
p1085
aS'Do you want to live in a world without cookies?! Lol.'
p1086
aS'thumbs up if you smelled your lamp'
p1087
aS'Absolutely! the world cannot live without cookies haha:D'
p1088
aS'And stop smelling like teehee'
p1089
aS"I have ADHD as we'll"
p1090
aS'I dont know if Ryan knows the effect he has on the world... '
p1091
aS'does ryan really have hdsomething?'
p1092
aS'u have shiny eyes :) :TEEHEE'
p1093
aS'COOKIES NOOOOOOOOOOOOOOOOOOOOOOOOOOOOOOO!!!!!!!!!!!!!'
p1094
aS'When are you gonna make more of these?!?!'
p1095
aS'Oh, now I see. Good one.'
p1096
aS"It's all fun and games until someone mentions a world without cookies.... \nand oxygen."
p1097
aS'loool ur so funny'
p1098
aS'I take pills for ADHD too'
p1099
aS'Lol I love you Ryan'
p1100
aS'Your so hott!'
p1101
aS'0:30 to 0:44 awesome background music...'
p1102
aS'Your accent was so strong back then. You changed! Well at least not as much \nas other youtubers :)'
p1103
aS'Dear Ryan, can you be in a circus?'
p1104
aS'A bike'
p1105
aS'no its just more scientific term for hyper and many thoughts racing to your \nmind kind of cool ...michael phelps has it jim carrey has it albert \neinstein has it...dont believ me look it up'
p1106
aS'Not the cookies!!!! DX Who cares if you take our oxtygen we want cookies \nD...X '
p1107
aS"1948 people assisted the children first because the child's life is more \nimportant"
p1108
aS'asians Huh.'
p1109
aS'are you an idiot?'
p1110
aS'im about to'
p1111
aS'how wud u like to live in a world without cookies! lol'
p1112
aS'nope, just kidding'
p1113
aS'i has ADHD too '
p1114
aS'1,948 people smell like rotten sour ass '
p1115
aS'I expected "C is for cookie, and cookie is for me!"'
p1116
aS'No...Ryan is wrong too...C is for lamp...'
p1117
aS"at first he said C for capple =)) then the teacher said C is not for apple \nI know it's just his joke LOL TEEHEE"
p1118
aS'nope, it\xc2\xb4s called hope for the future.'
p1119
aS'Forgot how much I loved your videos...'
p1120
aS'Wait he has Adhd?! I thought it was a joke :( '
p1121
aS'me too.....or do I'
p1122
aS'How we suppoed to eat our cookies!'
p1123
aS'rotten sour ass!! lol '
p1124
aS'No he definitely said Capple....'
p1125
aS'1:34 why does that make me want to smell my lamp? '
p1126
aS'C is for 7...sheesh.'
p1127
aS'Is it just me or does he talk like this even when on the pill? '
p1128
aS'I have ADD'
p1129
aS'I thought of the pill had something to do with birth control. -.- I had \nADHD too I never take the medicine. NEVER!!!'
p1130
aS'it tasted quite good actually lol '
p1131
aS'cookies!!!'
p1132
aS'I also have ADHD!'
p1133
aS'STOP SMELLING LIKE SH** FOR THE COOKIES!'
p1134
aS'Somebody give him that damn pill'
p1135
aS'um...he said C is for apple....'
p1136
aS'OMG I LOVE YOU PLEASE STAY OFF THE PILL '
p1137
aS"Don't do it! it burns your nose.........and u can't smell"
p1138
aS"Okay...I can't stand it..Shut the fuck up everybody! No one cares what C is \nfor! As we all do know, C is for cookie! That should be good enough for \nyou! God damn!"
p1139
aS"...Where's my oxygen mask? "
p1140
aS'Ryan:Did you know that they made drastic changes in the future? I like the \nquote'
p1141
aS'Its worse when that stink person hugs you x_x'
p1142
aS'A WEALTH OF USELESS INFORMATION?!?!?!?! What do you mean by that??? I have \nan idea but I wanna hear what the teacher really meant.'
p1143
aS'Lol,Ryan, I have ADHD :)!!'
p1144
aS'3 years ago? Yeah it kind of is gosh '
p1145
aS'umm, actualy it isnt! i have it and it is an everyday struggle to stay on \ntask and pay attention, i also get made fun of at school because of it. \nbefore you post another stupid comment about it think it over, and think \nabout who it will affend! thnx'
p1146
aS'I have been reading it like off the phill all this time ._.'
p1147
aS"I don't eat cookies"
p1148
aS'I gotta have my cookies.'
p1149
aS"Yeah there was a friend of my friends of my friends who stunk like... Well \nlet's not go there let's just say YUCK"
p1150
aS"ohhh... I'm learning.. lol"
p1151
aS'1944 who dislie this are stinky for sure ! '
p1152
aS'Do you actually have ADHD?'
p1153
aS'hey i got adhd too! what do you take for it? *probably wont get answered'
p1154
aS'oranges are actually purple donkeys'
p1155
aS"hey, ryan, people with adhd are more creative than the non adhd people. i \nthink that's why yu have such good ideas for making videos. lucky.."
p1156
aS'No cookies with milk nooooooooooooooooooooooooo eait I cant have dairy :( \nno cookies or milk for me y me y me y not my brother wait he is to omg \nrealy wow me and my brother cant have cookies or milk noooooooo'
p1157
aS'no they are not dumb a.. '
p1158
aS'How come so many youtubers have ADD ADHD or a bad attention span? This is \nlike the third or fourth youtuber I know of!!!'
p1159
aS'i was eating chips ahoy with no milk when he said a world without milk \nmeans how are we gonna eat cookies?'
p1160
aS'I has ADHD'
p1161
aS'SO DO YOU REALLY WANT TO LEAVE IN A WORLD WITHOUT \nCOOKIES?!..................and oxygen?'
p1162
aS"When he says cookies he sounds like he's deeply hurting over a world with \nno cookies. lol and he sounds cute saying it "
p1163
aS'this is my first nigahiga video LOL ahhh it feel so nostalgic :) when i \nwatched this i LAUGHED SOOOOO HARDDD :DDD i love u ryan <3 '
p1164
aS'yea go away stink people'
p1165
aS'probably...'
p1166
aS'0:33 To 0:41.. 0:33 Ah Where Are The Batteries! 0:37 Lights! 0:41 Wait! \nWhere Did I Put Batteries? Oh Hey Liqht!'
p1167
aS"A world without cookies...... That's just...... So wrong...."
p1168
aS'yes the light and darkness makes it look yellow'
p1169
aS'LOL I laughed so hard when he said "C Is for capple!" \xee\x90\x95\xee\x90\x95\xee\x90\x95'
p1170
aS'Really?'
p1171
aS'OMG the part at 1:32 - 1:35 got me crying nearly, like if you agree. '
p1172
aS'If the world had no cookies OR oxegen, which would you die from first? \nanswer: "cook-egen....um....oxe-kies? AAH!!! WHERE ARE MY COOKIES?!?! YOU \nPROMISED ME COOKIES AFTER YOU SAID THERE WAS NO COOKIES!!!" *dies* \nnarrator: that guy was so stupid. everyone knows you\'d die from cookies \nfirst! also, why would he believe id give him cookies if there was no \ncookies? wait, no cookies?!? NO COOKIES?!?!?!?? *dies*'
p1173
aS"did anybody notice that Ryan's eyes kept changing color"
p1174
aS'My lamp smells bad.. Uh.. probably because moths are attracted to it.'
p1175
aS'Please stinky people...please...take a bath or shower...to save the COOKIES!'
p1176
aS'Nah, but he acts like it. LOL'
p1177
aS'the stoner lamp!'
p1178
aS'ADHD isnt bad, i have it and its not like it hurts me, so im pretty sure he \ndont need sympathy'
p1179
aS'C for APPLE LOL!'
p1180
aS'COOKIES!!! I want some cookies... '
p1181
aS'Aw I feel bad he has ADHD. ;( Im sorry Ryan!'
p1182
aS'The part 0:58 - 01:03 is so funny!'
p1183
aS'I thought c stood for zebra'
p1184
aS'yes i got a top comment thank u guys'
p1185
aS'Ryan what video editing program software do you use? '
p1186
aS'I have adhd to'
p1187
aS'omg his voice is so different!'
p1188
aS'Your voice has deepened so much Ryan!:D'
p1189
aS"It looks like he's wearing lipstick"
p1190
aS'Woow seems like the apocalypse is near because a classmate of mine...'
p1191
aS'COOL WARNING BRO :)'
p1192
aS'I thought he said C stands for tadpole'
p1193
aS'BEST VIDEO EVER!'
p1194
aS'*Orgasam* with the lamp'
p1195
aS'Idk if he does, but i do'
p1196
aS"I'm not stupid I know all lamps smell good :D Bahahahaha best part"
p1197
aS'where is the 1st one??'
p1198
aS'ADHD!!!!!!!'
p1199
aS"on his left hand that ring? '3'"
p1200
aS"Shouldn't it be Stinky People, not stink people??"
p1201
aS"I gots some mess for my ADHD too! But I don't take it because I hate \npills... MESS SUCK! *mess means meds because of stupid autocorrect... \nGrr... Love, Sleep Deprived Kate!"
p1202
aS'is there a name for the intro song '
p1203
aS'i actually started crying as i was laughing'
p1204
aS'69th like haha on your comment'
p1205
aS'I do like cookies'
p1206
aS'COOKIES!! '
p1207
aS'What are we talki- oh look a worm.'
p1208
aS'How Are We Suppose To Eat Cookies !?! -3!!'
p1209
aS'Why would he lie about that??'
p1210
aS'I Love Cookies!!!!!!!!!!!'
p1211
aS'Ahhh his voice is different!! Yay!!! 2012 REPRESENT!!'
p1212
aS'"Without no milk how we suppost to eat cookies!?" Me: No... cookies?... \nFFFFFUUUUUUU-'
p1213
aS'The goats would be dead too!!!! DUH!!!!'
p1214
aS'same'
p1215
aS'does Niga Higa actually have ADHD???'
p1216
aS'I love how he ends it.lmaooooooooooooo.!!!<3'
p1217
aS'"because you life is more important!" lol '
p1218
aS'bananas are actually blue'
p1219
aS"that all makes sense but im lactose n tolerant meaning i can't drink milk"
p1220
aS'do yourself and everybody else a favor and stop smelling like... TEEHEE!'
p1221
aS'Do you really have ADHD?'
p1222
aS'SAME BRO :D '
p1223
aS'Dindo'
p1224
aS'Niga higas so funny my sister peed her pants laughing at him. -__-'
p1225
aS'Does he really have add?'
p1226
aS'2:30 im the only one noticeing that the color of his eyes is chaging ? :O'
p1227
aS'I have ADHD too and when I was little they put me on speed, but if you have \nADHD it calms you down'
p1228
aS'i can see why you had to take pills ryan XD '
p1229
aS'I wanna buy this guy a lava lamp O_O'
p1230
aS'some kids in my school use that as an excuse to act like a dumbass. '
p1231
aS'C is for Apple!(:'
p1232
aS'i think i have it not sure though example you ask? okay! i was watching \nthis out side then a bird flew by and i had to restart the video because i \nmissed half of it... :('
p1233
aS'I would honestly hate a world without cookies'
p1234
aS"2:45 not to be a smart ass cause i love niga higa but there's also goat milk"
p1235
aS"i think that the pharmaceutical companies are just saying that some people \nhave adhd so that they can diagnose people with it so they can get more \nmoney because if he really had it and wasn't taking his medicine he \nwouldn't have made this video"
p1236
aS"He'll yeah I also have ADHD"
p1237
aS'AGAIN!? Serousily what is with the freaking ring? Last time I checked, you \nwere not married'
p1238
aS'I sat next to a guy like that for 6 weeks in class...SIX WEEKS'
p1239
aS'i dont wanna die '
p1240
aS'Omg shi- TEEHEE that still said shi- Bye.'
p1241
aS'cookies \xe2\x99\xa5'
p1242
aS'cookies hahah i lost it'
p1243
aS'do a rant on wierd food or something'
p1244
aS'i haz ADHD!!!!'
p1245
aS'whopie '
p1246
aS'Was... Was that a Doctor Who reference?'
p1247
aS'Finally found the remade! Yey!'
p1248
aS'Dear Ryan, Can u draw ur life?'
p1249
aS"oohhh. i did not know that. not that adhd is bad or anything...unless it is \n:P aaah he's so funny!"
p1250
aS'You should do an off the pill rant about how we need money to survive. We \nhave to pay for food, water, shelter, etc.'
p1251
aS'theres a kid named brandon west at my school who smells like a pile of shit \ncrawled down his throat and he ate a skunk while eating shit he says he \nsmeels becuase "he doesnt have a shower at his house" but thats a load of \nBS his sister doesnt smell like shitty skunks'
p1252
aS'???? (O.O). '
p1253
aS'check out my channel'
p1254
aS'Yea he does'
p1255
aS'C IS FOR CAPPLE!!!!'
p1256
aS'The orange pill is what I mean by,"I take the orange one"'
p1257
aS"PLEASE DON'T LOOK AWAY. I am making a new series called popular where \nbasically you guys give me something that is really popular and I make fun \nof it. So watch the introduction and subscribe!!"
p1258
aS'I love how he went from throw up to cookies ^_^'
p1259
aS'@Superstarcupcake11 at midnight'
p1260
aS'His eyes... less than three...'
p1261
aS'"C IS FOR CAaT"pple'
p1262
aS'...best nigahiga video ever..... omg Do u want the whole world to become \nbulimic???'
p1263
aS"He. Is Chinese just like me except I'm 10"
p1264
aS'That smell. A kind of smelly smell. The smelly smell that smells... Smelly.'
p1265
aS"dude DUDE!! I've been watching Ryan for almost TWO YEARS and I didn't know \nhe had adhd! I JUST literally today learned that he had adhd! WHUUUT? RLY \nDUDE!!! I wouldn't have guessed honestly"
p1266
aS'Oh god yes. There was a person like that in my class last year, unluckily \nfor my best friend she had to sit next to him for a whole (West Australian) \nterm (10 weeks)'
p1267
aS"i have adhd too ryan.....you're not alone"
p1268
aS'Very funny hahahaaaa'
p1269
aS'Ask me about my attention deficit hyperactive disorder or my cat. A dog. Do \nyou watch tv? I saw a rock. Hi.'
p1270
aS'i have been in the same situation when my best freinds breath smelt like \nsomeone died in there '
p1271
aS'Is he high'
p1272
aS'lol so funny'
p1273
aS'omg u had such a strong accent back then XD and no, hes hawaiin'
p1274
aS'I have ADHD also but I take the orange one and it think it is 40MLG O3O'
p1275
aS'I heard it, but I think it was just the music. Haha'
p1276
aS'watching him film through the window would be HILARIOUS!'
p1277
aS'duz he really have ADHD? '
p1278
aS'yes'
p1279
aS'When does the narwhal bacon my good sir?'
p1280
aS'0:59 - 1:04 :LOLOL...I LIKE JIZZED LAUGHING'
p1281
aS'lol'
p1282
aS'I have ADHD also but not the (...problem In life) one. I am always like \nthat xc'
p1283
aS'Lol I like that quote too'
p1284
aS"Aww :'("
p1285
aS'who else heard ryan fart at 1:50'
p1286
aS'@luvscheerdance21 yeah, he actually is.'
p1287
aS'PATRICK HAVE NOSE !'
p1288
aS'i also got ADHD.. and it is kind of hard to concentrate on one thing at one \ntime.. T.T it is kinda sad'
p1289
aS'and shower everyday'
p1290
aS'OMG this has happened to me. i was like wearing my most expensive perfume \nchanel 5,and there was this grotesque old hag woman right next to me who \nhad sniffing issues,coughed on my face,AND was stinking! My perfume bottle \nalmost emptied that day! Ryan,you just reminded me how i wasted my \nfavourite perfume! arrrrghhhhh!!!'
p1291
aS'I got it to'
p1292
aS'I know that these videos are funny and are jokes... But do u really have \nADHD?'
p1293
aS'C is for apple!...what a stupid kid!'
p1294
aS"There's this girl who smells really bad. Everytime I get near her I feel \nlike puking"
p1295
aS'People need to stop smelling like TeeHee? Why? TeeHee smells good!'
p1296
aS'Nobody wants to live in a land without cookies and oxygen!'
p1297
aS'I like how the suggested videos have more Asians in lol'
p1298
aS'same here :P'
p1299
aS'NO COOKIES!!!nnnnooooooooo'
p1300
aS'what do you call it when justin bieber starts throwing up after every \nmeal?? Beliebia'
p1301
aS'It\'s the date of when "How to be ninja" came out. That was when the legend \nwas born XD'
p1302
aS'\xe2\x94\x8f\xe2\x94\x81\xe2\x94\x81\xe2\x94\x81\xe2\x94\x81\xe2\x94\x93\xe2\x95\x8b\xe2\x95\x8b\xe2\x95\x8b\xe2\x95\x8b\xe2\x94\x8f\xe2\x94\x93\xe2\x95\x8b\xe2\x94\x8f\xe2\x94\x93 \xe2\x94\x83\xe2\x94\x8f\xe2\x94\x93\xe2\x94\x8f\xe2\x94\x93\xe2\x94\x83\xe2\x95\x8b\xe2\x95\x8b\xe2\x95\x8b\xe2\x95\x8b\xe2\x94\x83\xe2\x94\x83\xe2\x95\x8b\xe2\x94\x83\xe2\x94\x83 \xe2\x94\x97\xe2\x94\x9b\xe2\x94\x83\xe2\x94\x83\xe2\x94\xa3\xe2\x94\xbb\xe2\x94\x81\xe2\x94\xb3\xe2\x94\x81\xe2\x94\x81\xe2\x94\xab\xe2\x94\x97\xe2\x94\x81\xe2\x94\x9b\xe2\x94\xa3\xe2\x94\x81\xe2\x94\x81\xe2\x94\xb3\xe2\x94\x81\xe2\x94\x81\xe2\x94\x93 \xe2\x95\x8b\xe2\x95\x8b\xe2\x94\x83\xe2\x94\x83\xe2\x94\x83\xe2\x94\x83\xe2\x94\x81\xe2\x94\xab\xe2\x94\x83\xe2\x94\x81\xe2\x94\xab\xe2\x94\x8f\xe2\x94\x81\xe2\x94\x93\xe2\x94\x83\xe2\x94\x83\xe2\x94\x81\xe2\x94\xab\xe2\x94\x83\xe2\x94\x81\xe2\x94\xab \n\xe2\x95\x8b\xe2\x95\x8b\xe2\x94\x83\xe2\x94\x83\xe2\x94\x83\xe2\x94\x83\xe2\x94\x81\xe2\x94\xab\xe2\x94\x83\xe2\x94\x81\xe2\x94\xab\xe2\x94\x83\xe2\x95\x8b\xe2\x94\x83\xe2\x94\x83\xe2\x94\x83\xe2\x94\x81\xe2\x94\xab\xe2\x94\x83\xe2\x94\x81\xe2\x94\xab \xe2\x95\x8b\xe2\x95\x8b\xe2\x94\x97\xe2\x94\x9b\xe2\x94\x97\xe2\x94\x81\xe2\x94\x81\xe2\x94\xbb\xe2\x94\x81\xe2\x94\x81\xe2\x94\xbb\xe2\x94\x9b\xe2\x95\x8b\xe2\x94\x97\xe2\x94\xbb\xe2\x94\x81\xe2\x94\x81\xe2\x94\xbb\xe2\x94\x81\xe2\x94\x81'
p1303
aS'Hahaha off the pills rocks'
p1304
aS'rotten sour ass hahahahahahahaha '
p1305
aS'@nigahiga do you reaally have adhd?'
p1306
aS'omg IM dying of laughter omgggg hahahahah '
p1307
aS'I Followed Your Advice And Bought A Bike.'
p1308
aS'1,944 people are stink people.'
p1309
aS'It\'s ok, don\'t be ashamed. I guess you could say that this was the day "off \nthe pill" was born lol'
p1310
aS'This happened to me just yesterday in art class'
p1311
aS'u haz adhd ??mah bro !!!'
p1312
aS'ya for ADHD!! '
p1313
aS"For fear of looking stupid, I'm not going to respond to this. XD"
p1314
aS'COOKIES!!! I love cookies. The favorite things r ninjas and cookies!!!! And \na lot of my friends and teachers think that i hav adhd.'
p1315
aS'Wait, you actually have ADHD? I thought it was a joke...'
p1316
aS'Oh. Umm...Itotallyknowwhatthatis.........*is ashamed of non-awesomeness* \n*searches*'
p1317
aS'I have ADHD :D and wow cool thing below my comment lol \xc2\xa5\xc2\xbbTF\xe2\x82\xa9\xc2\xa3'
p1318
aS'a bicycle?'
p1319
aS'Does he really have ADHD?'
p1320
aS'1:32= LAMPGASM XD '
p1321
aS'on my gosh a world without cookies...THE HORROR'
p1322
aS'hahaha this is like one of my favorites'
p1323
aS'Was this before u hit puberty'
p1324
aS'Wait you actually have ADHD?!? I thought it was a joke...'
p1325
aS'If we have no cookies how am i supose to come to the dark side '
p1326
aS'OMG I JUST NOTICED THAT THERE IS NOT MUCH COOKIES!! XO so i decided to take \na shower 3 times a day so we can get MORE cookies!!'
p1327
aS'no cookies!!! im gonna die'
p1328
aS'C, is for caPPLE lmao'
p1329
aS'also if all the plants die where will we get our oxygen?'
p1330
aS'Your face looks like rotten sour ass'
p1331
aS'Oh no! no cookies! lol '
p1332
aS'Is it just me or do A LOT of people on YouTube have A.D.D or A.D.H.D!?'
p1333
aS'Yes. Yes it was. BTW, looked up How to be Ninja - EPIC. SAUCE. Also watched \nThe Ninja Glare. Am now trying to imitate awesome hand moves.'
p1334
aS"Doesn't Jealousy Suck.? @Bob Slinker"
p1335
aS'i also have adhd'
p1336
aS'The face wen he smelled the lamb..lmao!!!'
p1337
aS"I love your eyes..... 3 Oh, and I lol'd everytime w"
p1338
aS'Dear Ryan, Could you do an all night video ,?'
p1339
aS'HAGGAHA YOUR THE FUNNIEST YOUTUBER EVER!!!'
p1340
aS':why: no cookies!!! '
p1341
aS'I laughed so hard when he said "rotten, sour, ASS" xDD'
p1342
aS'Shoutout to Lamps everywhere'
p1343
aS'he makes a good point'
p1344
aS'True no one wants to live in a world without cookies'
p1345
aS'TEEHEE IS AT THE END OF EVERY VIDEO.'
p1346
aS'Yea happened to me some dude all like wats up and put his arm around and. - \n- ( ). ( )'
p1347
aS'u are just like my brother! see what i have to deal with! haha jk he is \ncool! sometimes.... >.<'
p1348
aS'NOOOOOOO!!!!!!!!!!!!! NOT THE COOKIES!!!!!!!!!'
p1349
aS"during music classes I sit beneath a girl...well..she reminded me of a dead \nrotten rat. But we told her already and there is no change after all. \nHorrible. her breath smells, her body smells, her clothes are dirty. I'm \nterribly sorry, but I just cannot stand beeing near her. with one \nlyricsbook each table I can imagin what death might feels like. no way i \ncan sing like that..."
p1350
aS'i smell good (: so would you marry me ? <3'
p1351
aS'@JOEZAAAM Can you stop spamming people\'s channel? I want to get myself \nnoticed, but I don\'t go around, speak good english and do shitty stuff like \nthat just to get noticed. And j very seriously doubt nigahiga even started \nlike that"oh can you come to my channel it\'s l337" it\'s stupid. Stop \nspamming.'
p1352
aS'I have ADHD and I take my pills once a week.'
p1353
aS'*sniff**sniff*what is that delightful,delishes aroma i smell that smells \nsmelly?.........*sniff*.....is that a cheese burger or a hot \ndog............no,no ...its a lamp '
p1354
aS'When I first heard of ADHD I thought it was pronounced 80HD.'
p1355
aS'lol all you stink people '
p1356
aS'This video is me on a sugar high.'
p1357
aS'Oh my God, this is the FIRST one?! Yay! A LEGEND WAS BORN ON THIS DATE IN \nYOUTUBE HISTORY.'
p1358
aS'I love cookies! Especially the soft kinds. Heehee lamps smell good'
p1359
aS'What is up with this guy and lamps?'
p1360
aS'funny '
p1361
aS'Why r u so hot?'
p1362
aS'Thumbs up if you have A.D.H.D too'
p1363
aS'1:33'
p1364
aS'hes not cute he is HOT!!!!'
p1365
aS'I luv how they add TEEHEE at the end. WHY DUZ OBSESS OVA LAMPZ?'
p1366
aS'noooooooooooooooo more coockies ah the horror'
p1367
aS'does anyone else look into his eyes and see his t.v?'
p1368
aS'NO MILK!? HOW ARE WE SUPPOSED TO EAT COOKIES?! '
p1369
aS'What is her name?'
p1370
aS'My bro has adhd but he refuses to take pills cuz he scared of choking on it'
p1371
aS"I have ADD, ADHD, ODD, a mood disorder expressed as bipolar, I was adopted, \nand I'm a potbaby ^^ When I don't take my pills my mom yells at me :( The \nproblem is, I rant like this even if i DO take my meds :/ ........... :3"
p1372
aS'y are u upsessed w/ lamps '
p1373
aS'Lol.. if we have no milk how r we soppused to eat cokies.....'
p1374
aS'Does he have a ring on his wedding finger?? He does!! '
p1375
aS'yes'
p1376
aS'I know all lamps smell good.'
p1377
aS'i hav adhd but not like this '
p1378
aS'How are we suppose to live without cookies'
p1379
aS'he does do you think he would lie about something that serious?'
p1380
aS'Does he really have ADHD?'
p1381
aS'ADHD is funn. Funn? Fun.....ner than your cow could ever hope to be moo! I \nhaz ADHD. ._.'
p1382
aS'1:34 he gets an orgasm from the lamps scent'
p1383
aS'OMG SO RANDM'
p1384
aS'i have add too!'
p1385
aS'Do you have to have ADHD to be popular on YouTube?'
p1386
aS'i would like to talk to him in real life like this :DDDD'
p1387
aS'Nigahiga likes lamps'
p1388
aS'pause at 1:52 real funny face teehee '
p1389
aS"Would've been way better if it went right to the teehee at the end instead \nof a 2 second break"
p1390
aS'LOL my favorite part- Ryan:See is that the world you want to live, a world \nwithout cookies.........and oxygen!'
p1391
aS'nooooo, not the cookies!!!!... or the oxygen'
p1392
aS'Does he really have ADHD'
p1393
aS'ahahaha so who is gonna laugh at the end *point at himself* so fucking \nfunny!'
p1394
aS'2:33 cuteee eyes'
p1395
aS'I love the warnings~!\xe2\x84\xa2'
p1396
aS'NOT COOKIES!!'
p1397
aS'i like that quote... ok moving on'
p1398
aS'What does teehee smell like? Is it something u taste? Like a fart lol'
p1399
aS"Well,I'm glad everything's better for you!!! You're an awesome person!!! I \ndon't know why anyone would want to bully you!!"
p1400
aS'lol this reminds me of a girl at my school... she never takez s'
p1401
aS'This so funny I almost die '
p1402
aS'Wait... Did you say all the cows are gana die :('
p1403
aS'Thumbs up if you secure your own mask.'
p1404
aS'1939 people smell like rotten sour ass'
p1405
aS'Ur doctor tells u'
p1406
aS'uh 1 of the things i hate most ryan,'
p1407
aS'Yes, my aunt came over and i almost barfed. She smelled like fish'
p1408
aS'My cousin has your lamp...... Hi!!!'
p1409
aS'FOREVER AD..OHH LOOK A BUTTERFLY '
p1410
aS"Dude. My mom and her brother (my uncle, obvi) have ADHD. And family \nfunctions are freakin' hilarious w/ those 2 together b/c my mom usually \nforgets to take her pill and my uncle doesn't take any medication. But I \nfeel bad for people with ADD/ADHD, my mom and my sister (who has ADD) get \nreally frustrated when they can't focus."
p1411
aS'if we have no milk how are we gunna eat cookies :o '
p1412
aS'I have ADHD so I knew what "off the pill" meant right away. when I don\'t \ntake my pills my ADHD becomes ADOS: attention deficit ooh shiny. lol a \nfriend of mine taught me that and I was like \xe2\x98\x86*:.\xef\xbd\xa1. o(\xe2\x89\xa7\xe2\x96\xbd\xe2\x89\xa6)o .\xef\xbd\xa1.:*\xe2\x98\x86 so true!'
p1413
aS'do u wana mak da wrld bulimc? :P'
p1414
aS'I never knew he was ADHD :o'
p1415
aS"Hahaha Ryan I totally agree... Screw the pills xD I've had enough of them xD"
p1416
aS'"if we have no milk, then HOW ARE WE SUPPOSED TO EAT COOKIES!!!!" I prefer \nmine dipped in juice :)'
p1417
aS"I'm glad he started off the pill! They're really funny and entertaining I \nhope he has more off the pill videos coming soon!"
p1418
aS"My best friend has ADHD and she never takes her pills. She's also naturally \nhyper"
p1419
aS'what is that delight delish aroma i smell that smells smelly ,is that a \ncheese burger or a hot dog?'
p1420
aS'lol Love the videos but he has ADHD and was going into nuclear medicine? Im \nglad he ended up here.'
p1421
aS"oh! i'm ADHD TOOO!!!! anyways, i can't stand in too small place, can't \nwait, can't look at shiny stuff, can't eat sweets and etc. i love ADHD! no \none'll blame you on everything! cuz they'll just say, she's got ADHD. its \nokay. YAY!!"
p1422
aS'So THAT\'s why he calls them"off the pill"'
p1423
aS"I dought he'd joke about something like ADHD"
p1424
aS'Ryan: I like that quote. * Innocent*'
p1425
aS'I hate when I take the bus OMG a lot of smelly ppl '
p1426
aS'i have it too =('
p1427
aS"Lmao! You're great!"
p1428
aS'Do u really have ADHD?'
p1429
aS'See, is that the world you want to live in??? A world without cookies? And \noxygen?'
p1430
aS"XD srry this was too funny to me. Glad I'm not the only one who thought \npeople might do that, lol."
p1431
aS'At my school there is like 10 people in mu grad that smell like pee'
p1432
aS'one day son... one day '
p1433
aS'No top comment...THIS IS MY CHANCE >:)'
p1434
aS'i like this video '
p1435
aS'lol'
p1436
aS'1:04-1:34 best part of the video'
p1437
aS'I think of ADD and ADHD as a gift!!'
p1438
aS'1:33 made me laugh so hard XD Ryan <3'
p1439
aS"There's a stink kid in my School and I have 2 periods with him. He hasn't \ntaken a shower in like a year."
p1440
aS'Im too busy fangirling over you to shower'
p1441
aS'2:33 - 2:35 :D '
p1442
aS'if u died while spelling youtube that means u cant have done that end'
p1443
aS'will there still be bacon? and ham?'
p1444
aS'Get on a bus full of homeless people...you have not experienced stench \nuntil you have done this.'
p1445
aS'ADH-BUTTERFLY!'
p1446
aS'cool i ha e ADHD to!! :D'
p1447
aS'1994 stinks!'
p1448
aS'I LIKE YOUR ELBOW.'
p1449
aS'i luv how he relate things !!! '
p1450
aS'ADHD and Proud!!!'
p1451
aS'What a stupid kid...'
p1452
aS"Omg I have ADHD too! When I don't take my 6 pills I am annoying... Or at \nleast that's what my friends say... :D"
p1453
aS'NICE i have ADHD too!!!!'
p1454
aS'lamps + Ryan = tobaco'
p1455
aS'I Have ADHD 2 i love you ryan higa (no homo) and u wanna be my friend 2?'
p1456
aS"Holy shit that's funny!!!"
p1457
aS'its also crazy fun and entertaining :) I happen to be a victim. the way he \ntalks&acts in these videos is how our minds are inside ..and sometimes out '
p1458
aS'every off the pill vid i watch i just cant stop laughing '
p1459
aS'I go hyper when my pill goes COMMENT MY VIDS AND IM ON TWITTER \nnatesonicboom is my twitter'
p1460
aS'I want to live in a world without cookies.'
p1461
aS'haha'
p1462
aS"Ryan...i know how you feel, for god's sake thank you for making this video! \nLOVE YA!"
p1463
aS'ryan! can u plz make new videos?? im looking forward to them. tanks<3 love \nu.'
p1464
aS'also people that through up to much can get heart attacks so we can die but \nwe will still have COOKIES!!!!!'
p1465
aS'Lol COOKIES!'
p1466
aS'What type of cookies if its oatmeal then who cares but if it is chocolate \nchip GET SOME DEODORANT, SHAMPOO, COLOGNE, A BIKE WHATEVER IT IS JUST DO \nIT!!!!!!!!!!!!!!!!'
p1467
aS"@1braker I'll be anyone's friend as long as they don't abduct or stalk me. \n^_^"
p1468
aS'LOVE THIS. if u love YTF as much as me; follow me on twitter @YTFfan_teehee'
p1469
aS'I have adhd off the wall tehe'
p1470
aS"i have ADHD to! i'm always hyper activeeeeeeeeeeeeeeeeeee!!!! :D <3"
p1471
aS'MrJacgg, when I saw your comment the first thing I saw was the 2:50'
p1472
aS'so he really does have adhd? '
p1473
aS'I have ADHD and I have same pill container'
p1474
aS'he likes lamps ......more...more than stinky people... and not only \nthat....he is obsessed with lambs ..... i mean lamps.. '
p1475
aS'yes.. yes he does..'
p1476
aS'what?????'
p1477
aS'ITS AWESOME WEN HE TALKS THIS FAST'
p1478
aS'whatta stupid kid. lolol'
p1479
aS'he has ADHD? Since when?!'
p1480
aS'People with ADHD will rule the world!'
p1481
aS'There are 4 things for stink people: Deodorant Body Wash \nShampoo/Conditioner A nose so they can smell themselves stink. HA! :D'
p1482
aS'fart is good for the plants my teacher told me'
p1483
aS'stop frowning ryan!'
p1484
aS'What do you mean "since when" you don\'t acquire ADHD you are born with it. \nSmarty :P'
p1485
aS'what is that background song? pretty cool'
p1486
aS'1937 people smell like rotten sour ass'
p1487
aS"your ADHD. THATS WHY YOU'RE SOO COOL!! my little bro is adhd and it was a \nblast groing up with him, lol. "
p1488
aS'I love cookies. '
p1489
aS"There's a kid named Jay and I have to sit near him at school and he smells \nTERRIBLE!"
p1490
aS'Is It real that he Has ADHD?'
p1491
aS"Oh gawd I'm ADHD and half the shit he did in the beginning I did as a child \n:P"
p1492
aS'i also have ADHD! :DDD same hereeee! ADHD PPLZ UNITED :D <3'
p1493
aS'Is there a real difference between ADHD and add?Any way nice video.'
p1494
aS'1:34 orgasm'
p1495
aS"Thanks! I didn't know why either :I even the teacher gave me a reward for \nbeing a wealth of useless information. I was so happy I was not there that \nday! She said it in-front of the whole school. But this is all in the past \nso I am over it. "
p1496
aS"Well...how do u think ta camera felt with ur breath all over it? Ha but \nya...I'm pretty sure my breath smells worse than yours and stuff...probably \nsmells like a butt....-_-"
p1497
aS'HAHAHA!'
p1498
aS'I JUST HAD A COOKIE, WHAT IF IT WAS THE LAST COOKIE ILL EVEN EAT!!... o_o'
p1499
aS'...Fail...?'
p1500
aS'Ur accent iz cute'
p1501
aS'the captions are hilariously wrong... :D'
p1502
aS'day 3 at an anime convention----everyone smells like rotten, sour, ass. \nsoap and deodorant people, just sayin. '
p1503
aS'He likes lamps a lot'
p1504
aS'WHO WOULD WANT 2 LIVE IN A WORLD WITHOUT COOKIES!THT WOULD BE TERIFIYING! \n=OOO'
p1505
aS'"do you really want to live in a world without cookies................and \noxygen!\' LOL LOL LOL LOL LOL'
p1506
aS'CAN YOU DO AN OFF THE PILL ON ONE DIRECTION?!?!'
p1507
aS'how are we supposed to eat cookies! '
p1508
aS'I would... >.>'
p1509
aS'i acctuly have a lamp tht smells like frsh baked cookies =D'
p1510
aS"Why would anyone observe a person's LIPS!!! "
p1511
aS'thumbs up if you noticed a mcdonalds ad next to the video when he was \ntalkin about cheeseburgers and hotdogs :D'
p1512
aS'I like his lips when he talks they are very pink3'
p1513
aS'i dont take a pill... and LOOK HOW I AM :D '
p1514
aS'Me tooooo'
p1515
aS'ok ill stop smelling like shteehee '
p1516
aS'Sparkly eyes is cute'
p1517
aS"Dude..I live, and share a room with my sister. Sure, that may not seem like \na big deal. But when she doesn't EVER brush her teeth, wash her face, brush \nher hair, or shower correctly. Yes....imagine how I feel...."
p1518
aS'LMFAO! he smelled a lamb..'
p1519
aS'Yummy, fresh lamp smell :)'
p1520
aS"oh no, I underastand all his videos perfectly. I do not have ADHD though. i \njust talk really fast, and when you talk fast, I guess you can understand \npeople who talk fast, too. all my friends are like, what the hell are you \nsaying? and i have to repeat the whole thing sometimes. i'm also asian. is \nthis something all asians can do? i'm not sure. i don't think so"
p1521
aS'U love lamps'
p1522
aS'haha im so smelling the next lamp i see '
p1523
aS"Cookies~! We can't live in the world without cookies~!"
p1524
aS'ADHD its sad'
p1525
aS'I have ADHD! and *looking around* what am i doin?'
p1526
aS'GOOOOO people with ADHD, we get street stimulents...'
p1527
aS'And stop smelling like.... TEHEE! Lol'
p1528
aS'hey guys please dont flag this as spam but if any of you like stickman \nfights copy: adventures of stick ninja episode 1-ninja assassin: into the \nyoutube box and watch the first result thank you kind people very much '
p1529
aS'i have ADHD also its like when he talks fast i feel like im the only one \nwho can understand him'
p1530
aS'When my armpits get sweaty, they smell like vegetarian fish fingers.'
p1531
aS'1:32 #FTW'
p1532
aS'What is with him and lamps? Haha awesome video'
p1533
aS'lol, my class. always. ESPECIALLY after gym classes. always made me wonder \nif they ever take a shower during mornings, or at least deodorant. Orz'
p1534
aS'I would '
p1535
aS'I agree with this 100%'
p1536
aS'I have ADHD to'
p1537
aS'No cookies? But... but i like cookies :('
p1538
aS'AWW HIS VOICE IS SO HIGH HERE.'
p1539
aS"OMG Still amazing! xD wahaha.. I'm not stupid, I know every lamp smells \ngood! xD"
p1540
aS'Literally I could not breath from laughing so hard through out this whole \nvideo!!! No freaking cookies!!'
p1541
aS'my mum randomly walked in and didn\'t get the part where the age requirement \nwas *one*. she went on and on about how i shouldn\'t watch videos that \n"aren\'t for my age". :P '
p1542
aS'Love the video could totally watch again!'
p1543
aS'SAVE THE CCOOOOKKIIEESS'
p1544
aS'he also has adhd '
p1545
aS'OMG REALLY? Idc...'
p1546
aS'I have ADD so i have no idea how it works'
p1547
aS"It's okay I have ADHD too"
p1548
aS"I'm not stupid.i know all LAMB smell good...HUuggrrhh (smelling the lamp! )"
p1549
aS'xD this is hilarious'
p1550
aS"lol was watching this video with my 6month's sister, is it offensive for \nher? :("
p1551
aS'My neighbor smells like pizza barf!!!! '
p1552
aS'NO!!! MAH COOOOOOOKKKIEEEEES!!!'
p1553
aS'Look! You can see the stink waves just above his right shoulder if you look \nvery closely!'
p1554
aS'what a stupid kid'
p1555
aS'Ur forehead makes a wierd circle when ur squinting not to be rude or \nanything also ur youtube name is pretty racist so ya u no now'
p1556
aS'Why do you like lamps so much? TEEHEE ;)'
p1557
aS'do you want the world without... cookies?'
p1558
aS"COOKIE EMERGENCY if I didn't want my face on YouTube I would totally do \nrants. I might start doing them: I rant all the time. Thank you for \ninspiration!"
p1559
aS'Lololol funny'
p1560
aS"okay, I'm also ADHD and ALL I was thinking about was that little shine \nthing in Ryan's eyes =w=;"
p1561
aS'omg!! Ryan ur wearing a promise ring i have one on as well'
p1562
aS'thats an umbrella'
p1563
aS'and stop smelling like... TEEHEE.. me: so... i guess.. i got to stop \nwatching your videos?.. -tear-'
p1564
aS'My little brother should watch this :P'
p1565
aS'i was literally eating milk and cookies when he said that. no, i do not \nwant to live in a world without cookies'
p1566
aS'dude was so ashamed he removed is comment..LOL'
p1567
aS'i have ADHD :) '
p1568
aS'u talk fast :O '
p1569
aS'all Lamps smell good!! '
p1570
aS'in the warning section : "make sure you secure your own mask before \nassisting your children BECAUSE your life is more important." LOL !!! '
p1571
aS'about the cookies. Come to the dark side... WE HAVE COOKIES!!!!!!!!'
p1572
aS'Do ur self a favor and stop smelling like shi-teehee'
p1573
aS'does he really have adhd'
p1574
aS'I have ADHD too'
p1575
aS'ur eyes look funny...'
p1576
aS'actually. Its Higa (his last name, Ryan Higa) And Niga (as in N-ee-ga). \nWhich is the Japanese word for rant. So Ranting Ryan Higa. Please explain \nhow that is racist. Or at least learn how to spell.'
p1577
aS'Teacher: Alright class, now say it with me. Ryan: "C" is for APPLE. \nTeacher: What a stupid kid! Hahahaha'
p1578
aS'The first thing that caught my attention is the ring'
p1579
aS"There's this guy who sits behind me in band class who is a stink person, \nand I keep telling him that he smells like crap, go get a shower... but \nthen he got really pissed off. And reported me to the principal. Its been \nseveral weeks now since he reported me--- and I haven't gotten into \ntrouble. My guess is the principal smelled him and decided I was right."
p1580
aS'who wants 2 liv in a world without cookies??'
p1581
aS'I has ADHD'
p1582
aS'me 2'
p1583
aS'true i sat by a kid and he smelt lik pig shi beeeeeeeeeeeeeeep '
p1584
aS"The oxygen mask didn't come down, so now i'm typing my last dying words on \nyoutubbbbbbbbbbbbbbbbbbbbbbbbbbbbbbbbbbbbbbbbbbbbbbbbbbbbbbbbbbbbbbbbbbbbbbbbbbbbbbbbbbbbbbb(i \ndied typing the word youtube)"
p1585
aS"Why wouldn't he have made this video? Just because he didn't take his pills \ndoes not mean he isn't capable of making a video, duhh!"
p1586
aS'make an off the pill crushes'
p1587
aS"No I think a legend was born on July 25, 2007. I'm sure you know what that \ndate is..."
p1588
aS'Somehow stinky people became cookies... And oxygen...'
p1589
aS'does he actually have adhd?'
p1590
aS'Chicken nugget time'
p1591
aS'LAMP!!!'
p1592
aS'Potassium is radioactive :P'
p1593
aS'Lol'
p1594
aS'OMG everyone stop smelling like sh-TEEHEE and take a bath!!!! xDD'
p1595
aS'i know someone that stinks like tehehe'
p1596
aS'LOL'
p1597
aS'hahahahahahahahahahahahahaha IT is funny'
p1598
aS'and stop smelling like teehee, whats teehee smell like? please answer i \nneed help!'
p1599
aS'You use a lot of edit points \xf0\x9f\x98\x83\xf0\x9f\x98\x83\xf0\x9f\x98\x83'
p1600
aS'i allways pause the warnings i cant listen'
p1601
aS'Yo u Tamil ?'
p1602
aS'Save the cookies '
p1603
aS"I got in trouble for that because I told my teacher he smelled bad and to \nmove my seat. I didn't even say it in front of the class I pulled her out. \nThen somehow I bullied him. But after he left I could still smell him. Like \nsweaty white ass"
p1604
aS'I love cookies!!!!! \xee\x90\x95'
p1605
aS'Fn hilarious'
p1606
aS'hahahahahahaha I LOVE THIS VIDEO.'
p1607
aS"Everything Ryan says is True... Don't get all Pissy.."
p1608
aS'I used to have to take pills for ADHD. One time I screwed up and took two \nand I stayed up all night rearanging my room.'
p1609
aS'no hes not'
p1610
aS'wat is it with Ryan and lamps '
p1611
aS'Stop smelling like shTEEHEE'
p1612
aS'Smells like a lamp. Lol'
p1613
aS'stop smelling like- TEEHEE! WHAT DOES TEEHEE EVEN SMELL LIKE?!?!?! lol XD '
p1614
aS'A world wiithout cookies??? No.... NOOOOOOO!!!'
p1615
aS'why did i feel that the cookie in my mouth just vanished? is it \nhappening?!?!?!?! JK'
p1616
aS"I'm EATING COOKIES!"
p1617
aS'how are we supposed to eat without cookies !??!???! FML'
p1618
aS'I have ADHD but I got over it at 15 -___-'
p1619
aS'rotten sour ass '
p1620
aS'Ryan,I saw a ring too. Around your ring finger.are you engaged?'
p1621
aS'me too!!!!!!!!!!'
p1622
aS"No top comment? Now it's a contradiction."
p1623
aS'Hahahahaha I have ADHD also!!!!'
p1624
aS'*SNIFF* AHHAAH'
p1625
aS'Your Right!'
p1626
aS'haha same!'
p1627
aS"OMG it's a joke!! and actually the conditions in Iraq and Afghanistan are \nreally not that bad unless your are outside of the base. my sister is in \nthe army and has been to Iraq twice and Afghan 3 times. why are you moaning \nabout someone else moaning??? soldiers dont get youtube because they dont \nhave the time, they are working . ryan does youtube because its his job, he \nis working. calm down dont be so uptight. these vids are supposed to \nentertain. if they dont do it for you. dont watch. k. BYE "
p1628
aS'I HAVE ADHD IT ROCKS'
p1629
aS"I laugh like a mofo every time I watch your videos, like this bahahah \nlululululul x'D .Yes. Lululululul"
p1630
aS"XD dude I've been in a situation like that at work and I have ADHD too... \nit sounds like 80 inch D..... but yeah I almost puked and I had to leave \nwork cuz of it"
p1631
aS'i feel the same their was this dude in4th grade that smelled like he washed \nhis self with a bar of crap '
p1632
aS"i love his accent. if i ever meet a guy like him, i know i've met my \nperfect match <3 "
p1633
aS'bananas are radioactive :)'
p1634
aS'Ha ha ha ha ha aaahhhh funny.........'
p1635
aS'U really have ADHD ?'
p1636
aS'I have seen al of his videos up to date it I love all of them :D'
p1637
aS'6th grade stinky girls X('
p1638
aS'2:41 HE FARTED!'
p1639
aS'Its pronounced, STANK.'
p1640
aS'I have ADH- oh hey, look a bunny:)'
p1641
aS"This boy in our class he never washes his face,or his hands,or his nails \nand especially he doesn't shower or brush his teeth. This is his excuses \nDirty nails: I fell over Yellow teeth: I had to much candy in the space of \n4 minuets No shower: I didn't have time to shower Oh and I've checked on \nFacebook he goes to no clubs like scouts or goes any were do he does have \ntime he just doesn't like being clean He smells like pee that has been left \nin a bottle for 4 months \xf0\x9f\x98\xb2 When I smell him I what"
p1642
aS'ADHD has created the funniest person on the planet :3'
p1643
aS"my first ever video I've ever watched by nigahiga was this one. & I must \nsay,ni laughed alot(;"
p1644
aS'i died when he said "Well who wants to live in a world without cookies, \nhuh?!" '
p1645
aS'i have adhd too '
p1646
aS'i know this guy who never took a shower in his live or bath maybe once or \ntwice but please SAVE THE COOKIES'
p1647
aS'LOL'
p1648
aS'Take ur med.'
p1649
aS'so stop smelling like Shi- TEEHEE'
p1650
aS'M A D ppl in my family has ADHD'
p1651
aS'What\'s the name of one of his videos , the one where he said ," If you\'re \nanything like me, that sucks "'
p1652
aS"Actually 80-something percent of the world's oxygen comes from the ocean, \nmeaning that we could cut down every tree on earth and still breath fine. \nI'm not saying that cutting down every tree on earth is a good idea though."
p1653
aS'@upstateNYcuties But you need milk to MAKE cookies'
p1654
aS'i have a few questions: 1: do u even go to school without people attacking \nu and wanting ur autograph? 2: how do u even come up with such funny \nthings? oh and i dont have ADHD i have ADD (attintion defesit disorder) \nwhere i cant focus with music on or alot of distractions and my teachers \nhave to send my out to the hall whenever i take tests because they think im \nstupid. BUT I SWEAR IM NOT!!!! ur awesome!'
p1655
aS'Lol I can totally relate to this everytime I breath I feel food coming up \nmy throat and like about to throw up not trying to be rude or anything but \nIf LIAM THOMPSON IS READING THIS I WOULD LIKE TO SAY THAT U SMELL LIKE SHI*'
p1656
aS'*in'
p1657
aS'I have adh- my dog tripped into a wall, what was I talkin bout.'
p1658
aS'I WANT TO EAT COOKIES SO PLEASE PEOPLE STOP SMELLING'
p1659
aS'Rotten sour ass!'
p1660
aS'"And bananas are a good source of potassium, so who\'s going to be laughing \nin the end? ME."'
p1661
aS'you need to tell that to my sieter she takes a shower every week i take 2 \nshowers a day im a clean peep ok'
p1662
aS"Everything is better I'm HD"
p1663
aS'N0T TH3 C00K13Z!!!!!!!!!!!!!!!!!'
p1664
aS'1:33 is that your sex orgasum sound? :3'
p1665
aS'TEEEEEEEEEE HHEEEEEEE'
p1666
aS'COOL!! HE POSTED THIS VID ON MY B-DAY!!'
p1667
aS'Do yourself and all of us a favor and stop smelling like shi.... LOL XD'
p1668
aS'At 2:33 his eyes are twinkling...'
p1669
aS'no more cookies!?!?!? NOOOOOOOOOOOOOOOOO '
p1670
aS'I have ADHD too'
p1671
aS'Its really bugging me, but does he ACTUALLY have ADHD or was he joking?'
p1672
aS'TEEHEE'
p1673
aS'Go adhd'
p1674
aS'No wonder you talk so fast....'
p1675
aS' that lamp must fell violated 1:33'
p1676
aS'o no!!!! not the COOKIES!!!! O.e '
p1677
aS'D0N7 74K3 0UR C00K132 wot did I say?'
p1678
aS'lol I never saw this video b4 and my username is SmellyLamp. 1:29'
p1679
aS"Do your self and all others a favor and don't smell like TEEHEE"
p1680
aS'me too i have a ADHD LOL'
p1681
aS"i've been in that situation b4. . .*shudder* i don't really wanna talk \nabout it "
p1682
aS'aww I wish I had ADHD. All the cool people have ADHD. =('
p1683
aS'\xf0\x9f\x91\xbf'
p1684
aS'Sorry to hear that ryan'
p1685
aS'funniest part: 0:57- 1:05'
p1686
aS'No one wants to live in a world without cookies,so do yourself and everyone \nelse a favor and stop smelling like s**t'
p1687
aS'do you have ADHD?just curious because i have it too. :)'
p1688
aS"stop smelling like TEEHEE! but i luv tht smell :'("
p1689
aS'Youre the sexiest asian Ive seen... and trust me, theyre everywhere. Ive \nseen many.<3'
p1690
aS'hy friends cusin has ADHD'
p1691
aS'Ryan...ur awesome!! lol XD'
p1692
aS'You take pills!? I thought you were crazy in your other videos'
p1693
aS'I love this :D '
p1694
aS'I also has ADHD! ^_^'
p1695
aS'1. Download free app App Trailers 2. Enter bonus code gorrilas 3. Enjoy $10 \nitunes gift card'
p1696
aS'i have ADHD 2!!!! '
p1697
aS"OMG! I LOVE U! I have ADHD too and I watched this video on a day I forgot \nto take my pill ( I forget stuff a lot) ( and when i don't take my pill I \nget really giggly and laugh at almost anything) and I was so close to \nlaughing to death that I started to calf!"
p1698
aS"I have A.D.D (attention deficit disorder) and i'm easily \ndescraaaaaaaacte..... Hehe... Look at the bunny... IT'S SOO FLUFFY!!!"
p1699
aS"@brittnay hues Of course. He's not gonna kid about that. I have it as well, \nbut my doctor says i don't need pills. :]"
p1700
aS'WARNING The following video may contain offensive material that may or may \nnot be appropriate for children under the age of 1. Should the cabin \npressure change throughout this flight, oxygen mask will dispense above \nyour seat. Make sure you secure your own mask before assisting your \nchildren because your life is more important. Viewer discretion is advised.'
p1701
aS'LOL '
p1702
aS'So stop smelling like shi..TEEHEE!'
p1703
aS'Dragon hdjfufu'
p1704
aS'A bike make you smell better.'
p1705
aS'Love you Ryan'
p1706
aS"NOT DEODERANT. Some dicks in my class bring in aerosols every day to spray \nEVERYWHERE where there's no teachers. Now aerosols are drugs. Roll-on \nlotions don't work. Perfume slipps off. Gay"
p1707
aS"i know this guy in my class he's smell like a moldy towel and his hair look \ngreasy all day no EVERYDAY......and i have to be his lab partner all year \nD'X"
p1708
aS'Haha I know one kid who smells like that'
p1709
aS'I have adhd too but when i dont take my pill my whole day is a impossible \nto remember Teehee'
p1710
aS'I laughed so hard!'
p1711
aS'ryandeer who smells like bananas-pills=win'
p1712
aS'if u just stare at the middle of his eyes, there is purple light flashing \n:D pretty pretty shiny shiny'
p1713
aS'Does he actually have ADHD'
p1714
aS'Dear Ryan, please, just keep calm for one minu.... ooh something shiny!'
p1715
aS'ADHD is NOT real!'
p1716
aS'Chuckle'
p1717
aS'Teehee'
p1718
aS'im sure taking ur pills wont really make that much of a difference'
p1719
aS'i like cookies '
p1720
aS'I want to marry this dude......may i marry you ? <3'
p1721
aS'amen man cause I NEED DEM COOKIES!!! :D'
p1722
aS"There was this gorgeous young blond boy on the bus one afternoon. As soon \nas he stepped onto the bus, you could almost see the stench of his b.o. It \nactually got into your eyes. He wasn't on the bus too long. I sure hope \nsomeone loves him enough to let him know. gag."
p1723
aS'i did not know that ryan had ADHD '
p1724
aS"OMG samee! that's why i always bring gas mask (JKS) whenever i sit with \nher.. and i have to sit with her for 50 minutes each class... GOD! she \nsmells so bad i nearly got breathing cancer? "
p1725
aS"I have ADHD too. And I can't open my pill bottle. Sad face"
p1726
aS'Hey, Ryan, how do you know how rotten sour ass smells like?'
p1727
aS'Like whAt? Shoes?!?!???????!??????!!!!!!'
p1728
aS'0.o'
p1729
aS'lol i do agree '
p1730
aS'wait...doe he really have adhd??'
p1731
aS'You know I\'m ADH so I usually try to contr-"oh hey a butterfly"'
p1732
aS"well they are born with it. you cant juss get it randomly because i knoq \nthis cuz i have a friend that has ADHD c: there's your answer!"
p1733
aS"I always love your videos, and this is really funny! I like how he doesn't \nhave to try to be funny because it comes natural to him."
p1734
aS'OMG a world with...........noCOOKIES I would DIE the end of the end of the \nshow was funny (before the teehee'
p1735
aS"this was done on iMovie, but I'm pretty sure he uses final cut pro X now."
p1736
aS'do u want to live in a world without cookies................and oxegen'
p1737
aS'Meh'
p1738
aS'2:33-2:35 His eyes r so big hahahaha!'
p1739
aS'Still so funny'
p1740
aS'o rly?'
p1741
aS'I have ADHD too'
p1742
aS'Forget oxygen, not the cookies!!!'
p1743
aS'wow......................................TEEHEE'
p1744
aS'after watching this i almost empyed my deodorant.'
p1745
aS"OH MY GOODNESS. Whenever I ask someone if they can taste some things they \nsmell, they always look at me like i'm a freak. Finally someone knows the \nfeel. You are amazing! xD "
p1746
aS'We would have to be to read this. -___-'
p1747
aS'after watching this i almost empyed my deodorant'
p1748
aS'I also take a pill for adhd, but i ussually only have add without the pill. \nBye the way @nigahiga you and me and all the other people in the world with \nadhd or add are specail and not retardedley normal like the other dumbass \nnormal people, so people without adhd and add shouldnt be allowed to eat \ncookies for the rest of their life............. (and breath oxygen)(:'
p1749
aS'omg a freakin lamp'
p1750
aS'i ahve adhd to but when i dont take my pill i have to viset the uhh... oh \npie'
p1751
aS'He makes me laugh when he smells the lamp at 1:32 xD'
p1752
aS'HOW ARE WE SUPPOSED TO EAT COOKIES?????'
p1753
aS'Fuck no kookeis'
p1754
aS'oh come on!! I know all lamps smells good!!:D'
p1755
aS'Oxygen? Pfft.... Wait no cookies??!!?? \xf0\x9f\x98\xad\xf0\x9f\x94\xab'
p1756
aS'"Stop smelling like cheese" ? O:)'
p1757
aS'lol i neber thoughg of it that way wow... a woels without cookies.... lmfsao'
p1758
aS'I understand ryan'
p1759
aS'I luv cookies so all u stink ppl stop smelling like ****!!!!!!!! xD'
p1760
aS'do u really have adhd?'
p1761
aS'Ewwww stink peoples :pp'
p1762
aS"My teacher say that we shower cause we don't want to smell like human, at \nfirst I thought he was a bit..."
p1763
aS'this is one of my favorite videos :D'
p1764
aS'I bet the people who dislike this are stink people. '
p1765
aS'I Can.'
p1766
aS'I too have ADHD'
p1767
aS'Cukkkkkieeees :)'
p1768
aS'do you want to make the world bulimic?! '
p1769
aS'you like lamps too much ...'
p1770
aS'Eats a bullumic? :('
p1771
aS'with milk lol '
p1772
aS'I have that same lamp in the beginning:):)'
p1773
aS'hey whats up lamp?'
p1774
aS'o thats what off the pill means haha'
p1775
aS'I love you <3'
p1776
aS'I know like all the words to this vid!!! XD less than three to this \nvideo..(:'
p1777
aS'i knew a kid who smelled like dead cats and wet dog. i had to sit with him \nfor 25 minutes i almost threw up'
p1778
aS'wait c doesnt stand for apple? WHAT!'
p1779
aS'MAH COOKIIIEEEEEESSSSSS!!!!!!!'
p1780
aS'We must have cookies!!!!!'
p1781
aS'This works for me because theres too many Stink People in my class....'
p1782
aS'I hate when I Taste the smell'
p1783
aS'LOL'
p1784
aS'OMG I have ADHD too and I take a pill s oil I can relate'
p1785
aS'so asian '
p1786
aS'I HAVE ADHD! I DONT TAKE PILLLLSS! omfg. Butterfly x)'
p1787
aS'ADHD pills? at 2:35 His pupils look dilated and tingly lol '
p1788
aS'dont you mean stinky people?'
p1789
aS'Ha i has adhd to, thumbs up if you hav- oh, a butterfly........'
p1790
aS'ShTEEHEE'
p1791
aS"I have ADHD to :-D it's when you gave problems with LOOK A SQUIRREL!!!!!!!"
p1792
aS'LMAO'
p1793
aS'now i finally know what off the pill means...'
p1794
aS'left and right up and down how does that work?!?'
p1795
aS'I DONT WANT 2 LIVE IN A WORLD WITHOUT COOKIES.'
p1796
aS'i meant helping after the u r sorry but thumps up'
p1797
aS'stop smelling like tee hee?'
p1798
aS'same here '
p1799
aS'I know what u mean ADHD is fun'
p1800
aS'I agree i dont wanna live in a world without cookies XD'
p1801
aS'hahaha yeahhhh i love nigahiga its so funny hahaha pieceeeee'
p1802
aS"You have ADHD? Maybe you're a demigod? :O loljk."
p1803
aS'thumbs up if this is funny: is that the kind of world you wanna live in \nwithout cookies..... and oxygen. do the yourself and everyone else a favoR: \nSTOP SMELLING LIKE SHIT!'
p1804
aS'Rotten sour ass'
p1805
aS'Thumbs up if your still watching this in 2012!'
p1806
aS"Yup, he's got ADHD"
p1807
aS'i know a guy who smells not that good'
p1808
aS'I telll this to my math teacher everyday but she DOESNT LISTEN And cookies \nare her fave food Im about to smash this video in her face -___________-'
p1809
aS"ryan,please acknowledge there are other disorders which lead to over \nsweating and stinking like BO its called hyper hydrosis, n people dntt hve \ncontrol over it n whn ever they go near a new friend or a group possibly \nbigger then 3 they sweat :/ therefore yu should've included tht if you do \nhave a bath and it still happens you should see a doctor dont be \nashamed(often with teenagers) like this so others with this disorder can \nreact quick and infrom others they know that might have this disorder"
p1810
aS'I am watching this in 2012. and this is my first time watching this.......'
p1811
aS'Does Ryan actually have ADHD ?'
p1812
aS'There is this kid at school who always smells like sh*t! :('
p1813
aS'The funniest part: WHAT A STUPID KID! Looool thumbs up if u agree'
p1814
aS'dear ryan can you..............KILL GLaDos!!!'
p1815
aS'Still watching'
p1816
aS'thumbs* XD '
p1817
aS'Who saw the 20 nugget commercial before you watched this'
p1818
aS'I love u nigahiga because on all ur off the pill vids u r actually ppl all \nover the world right now and ur really helping me too :3 Thank u and thumps \nup to all the ppl who r thinking this :3'
p1819
aS'I had a locker in-between a boy who always smelled like a cats litter box \nand never showered and on the other side a boy who blocked my locker to \nmake me mad so I had to stand and take the smell and a few times I started \ngagging X('
p1820
aS'@raspberrybliss234 yup. :)'
p1821
aS'Tee hee! :D :D :D'
p1822
aS"NO COOKIES?!! :O that's horrible !"
p1823
aS'You really have ADHD?!'
p1824
aS'Cookies'
p1825
aS'Lol'
p1826
aS'rofl same'
p1827
aS'U seriously have ADHD? Me 2! Off the pill, lol. I gotta try to edit a vid \nlook that'
p1828
aS'Stop smelling like... TEEHEE lol'
p1829
aS'COOKIES! ;D'
p1830
aS'Dear Ryan, would you marry me?'
p1831
aS'my mom mont give me pills for my adhd 0_0 .... I HATE PILLS!!! '
p1832
aS'......or oxygen'
p1833
aS'Ll*'
p1834
aS'I could use one of those...'
p1835
aS'Make more of off the pi'
p1836
aS'I luv ur off the pill videos u should make one about patents : )'
p1837
aS'I have ADHD too!'
p1838
aS'1,925 dont know what humor is.'
p1839
aS"I have ADHD!...It's awesome and it sucks."
p1840
aS'Cookies yummy'
p1841
aS'"I like that quote." XD he looked like a little kid. ;D S:'
p1842
aS'I HAVE ADHD and ADD '
p1843
aS"Honestly i cant get enuff of this dude!! he's so funny, crazy...n cute btw \nlike if u agree!! TEEHEE!"
p1844
aS'Can u make a video about people being too mature? '
p1845
aS'its ADHD '
p1846
aS'I have A.D.D and this is offe...omg! :D a buttlerfly! :D'
p1847
aS'i have ADHD! and there are times when i... oh look, a butterfly!'
p1848
aS'i allergic to bananas!! haha and whats with you and lamps lol'
p1849
aS'I sit next to this guy in one of classes and damn his breath smells like \nsomething crawled in there and died o.O !!!! :O its gross i almost \nliterally threw up o_o!!!!!!!!'
p1850
aS'its ADHD and u probably dont have it just trying to get likes -_-'
p1851
aS'i think i have add.... maby thats y im always so hyper,and random.. im \nhungry, do u have any cookies?'
p1852
aS'OMG- you are so HOT<3'
p1853
aS'Why did this say uploaded 1 day ago? Da Fuqq'
p1854
aS'I have adhd'
p1855
aS'ADHD is the best/worst thing ever...'
p1856
aS'I looked for my mask... grreat '
p1857
aS'Loll;)'
p1858
aS'Dear Ryan can u climb a tree??:)'
p1859
aS'Dear Ryan, can you do a off the pill video about parents?'
p1860
aS'I like cookies!'
p1861
aS'i hate people who says "thumbs up if ur watching this in 2012"... na iam \nwatching in 1500bc with my istone.'
p1862
aS'Ppl its not A.D.D its A.D.H.D theres a difference between those disorders \n-_-'
p1863
aS'......holy crap I furgot to take my (ADD)pill today.'
p1864
aS"Screw oxygen! The cookies are what I'm concerned with!"
p1865
aS'Lampgasm XD'
p1866
aS'OMG!!! A WORLD WITHOUT COOKIES \nAHHHHHHHHHHHHHHHHHHHHHHHHHHHHHHHHHHHHHHHHHHHHHHHHH!!!!!!!!!!!!!!!!!!!!!!!!!!!!!!'
p1867
aS'it happens all the time in my class!have a bath classmates!!poof!but i am \nnot a freak!'
p1868
aS'So stop smelling like sh*t'
p1869
aS'Awh, yay, ADHD like my brother and I :3'
p1870
aS'I have ADHD...'
p1871
aS'Ryan logic = The source of awesomeness in the world'
p1872
aS'my cookie i was eating a cookie whaen you said that'
p1873
aS"I'm ADHD but also BAD"
p1874
aS'Thumbs up if you smelled your lamp after 1:32'
p1875
aS'is the ADH(?) something for real?'
p1876
aS'I HAVE ADHD TOO AND ITS AMAZING!!!'
p1877
aS'That he had adhd'
p1878
aS'Does he actually have ADHD'
p1879
aS'@dpeterson ur right'
p1880
aS'Ha 2.28'
p1881
aS'Dear Ryan Can you be a gay doctor.'
p1882
aS'O.o my headhurts so much now i could understand very much of that but still \nfunny as hell'
p1883
aS'NO COOKIES! thats just messed up stink people trying to rob our world of \ncookies...'
p1884
aS'Lol ADHD YEA!!!!'
p1885
aS'While I was watching this vid I was eating cookies.'
p1886
aS"You shouldn't take that pill more often! I love your rants, Ryan! Hey, that \nsounded cool! Rant, Ryan, Rant, Ryan! TEEHEE!! X3"
p1887
aS'Peinis '
p1888
aS'Banana=Asian American.Aka-Me'
p1889
aS'omg i laughing so hard im crying I CANT BREAAAATTTTHHHHHH!!!!!!!!!!!!!'
p1890
aS'and i tasted rotten sour ass and it tasted......not so bad LOL'
p1891
aS'He definitely has ADHD... god im guessing that his mom or dad just cant get \nhim to shut up but still, his shows are HILARIOUS... I <3 NIGAHIGA: Off the \nPill'
p1892
aS'I DO NOT WANNA LIVE IN A WORLD WITH NO COOKIES!!'
p1893
aS'Okay... I watched all the other videos and never saw this one. Now I get \nwhat, "Off the pill" means. MORE SENSE.'
p1894
aS'1:31 XD'
p1895
aS'Funny as hell'
p1896
aS'Dear Ryan, can you be a zombie superhero?'
p1897
aS'1921 people stink and they dont get it'
p1898
aS"God I love Ryan's logic"
p1899
aS"Lol Its 2:02 Where I'm at right now and I just snuck out of my room went \ninto the kitchen opened the fridge witch is loud got a caprisun closed it \neven louder then got a bannana pellets it and my trash can sqweks loudly! \nThrew the peel away went BACK to my room layed in bed started eating my \nbannana watched this Video and wrote this comment lol XD All on my IPod lol \nXD"
p1900
aS"I agree with u Ryan, I'd HATE to live in a world without cookies. lol :D"
p1901
aS'ryan had ADHD? seriously?'
p1902
aS"@tylermystery13 I'm on my iPod to but it's 7:11 here xD"
p1903
aS'My sister has A.D.D'
p1904
aS'does he mean anorexic'
p1905
aS'I have ADHD too!! Things are more fun without the pills. Lol'
p1906
aS'we cant stop smelling like teehee ?? lol'
p1907
aS"GOD! I'm watching this in my iLamp in 3340!"
p1908
aS'of course my mom walked in at 1:33'
p1909
aS'dear ryan can you be a bully'
p1910
aS'Omg i watched this and when i got on the bus on the first day of middle \nschool, nd when a ghetto kid got on knew exactly wht he means'
p1911
aS'@NinaVernan'
p1912
aS'Thumbs up if your watching this in 2247!!!'
p1913
aS'Srry im on my phone'
p1914
aS'Lol haha, peopel didnt shower in 1100 peopel got used to it lol..'
p1915
aS'ewwww sometimes my friend can be a stink people. but then i am to on hot \ndays which SUCCCCKS even though i took a shower the night before'
p1916
aS'Dear Ryan can you be a skater? '
p1917
aS"wait wait wait... so if people stink we lose cookies and if we lose cookies \nno more cookie monster and if no more cookie monster we won't have seasmea \nstreet which will make the babys of the world mad which then it would cause \nanother war, so people stop smelling bad, we don't want a baby war!"
p1918
aS'NOT THE COOKIES!!! NOOOOOOOOOOOOOOOOOOOOOOOOOOOO...and the air...'
p1919
aS'We need to save cookies because who cares about cancer. JK cancer is a \nlittle more important. Save them both'
p1920
aS'Teehee'
p1921
aS"@xXPecoSnipeXx I agree. My best friend has add. So I should feel bad for \nmyself. People without ADD, ADHD, OCD can all be cool too. So go get a life \ncause you're a racist little asswhole."
p1922
aS'your eyes look purple '
p1923
aS'Specially chocolate cookies.. '
p1924
aS'alright class now say it with me c is for apple what a stupid kid'
p1925
aS'I WANT COOKIES! Ryan you make me hungry.'
p1926
aS'Dear ryan, can you be a hot mess? '
p1927
aS'1,920 people are stink people....'
p1928
aS'Does anyone notice he has a ring on his left hand ( ring finger )'
p1929
aS'We have a really stinking boy in our class. Once my friend bumped into him, \nand went home to change his clothes.'
p1930
aS'Thumbs up for ADHD!!!!! I have it :('
p1931
aS'he really has ADHD?'
p1932
aS"I have ADHD too. It makes me feel good to know that there's a youtuber who \nhas it and can stay focused eno-.. Oh look there's a fly!"
p1933
aS'your so sexy'
p1934
aS'A world without cookies is like a world without....cookies'
p1935
aS'@SuperSims3Expert roit..'
p1936
aS'1:34 *smells lamp* huhuhuhuhuuuuuuuuuuu..... hahahahahahahahahahaha'
p1937
aS"1,920 people don't like cookies XD"
p1938
aS"Lmfao! Everyone who disliked this was actually offended because they're \nstink people. :D"
p1939
aS'Could u make a video saying Diana C is my number one fan?'
p1940
aS'Idk if I have ADHD or not but I think I do because I have a Lot of the \nsymptoms so yeah ph and TEEHEE :P'
p1941
aS'i have ADHD too. (We are the awesome people!)'
p1942
aS'is that the kind of world you want to live in? a world without cookies?... \nand oxigen. LOLOLOLOL XD'
p1943
aS'i think he did his hair 2:53'
p1944
aS'O.O... NO COOKIES!?!?!?!'
p1945
aS'I have ADHD xD The beginning reminds me of my daily life'
p1946
aS'when you said that all lamps smell good, i literally leaned over and \nsmelled my lamp xD'
p1947
aS'No if you take you take away the cookies i kill you like this poem i DIDnt \nwrite: roses are red violets are blue you steel my sugar i break you'
p1948
aS'i have a packet of cookies beside me =D'
p1949
aS'@jennlim: obviously he does. why would he just say that he has ADHD?'
p1950
aS'i love how u can talk so much hihi'
p1951
aS'u hav adhd? '
p1952
aS'I have AD- ooh! A butterfly! But seriously I have ADHD'
p1953
aS'I am off the pill rightttt nowww tooooo!!!@I am ninjia'
p1954
aS'I have a kid in my band class like that'
p1955
aS'save the cookies !!!!! not the oxygen cookies are nice oxygen is ........ i \nwas in a similer situtation but i was in a small room with no windows and a \ndoor it was horrible!!!! hahhahhahhahhaahhh how do you come up with this \nstuff '
p1956
aS'well of course they would be'
p1957
aS'awwwww i still remember the video with the omfgwtfistp :P'
p1958
aS'i like that quote 2'
p1959
aS"I have ADHD I don't take pills anymore"
p1960
aS"ha ha lol that's hilarious "
p1961
aS'@smoshfan439 He said acidity...'
p1962
aS'Wow you talk really fast j had to replay it many times to understand but \nyour cute^.^'
p1963
aS"Because of you stink people, people are gonna be vomiting up down left and \nright on the grass and the trees and all the vicinity in the vomit will \nkill he grass. If we have no grass he cows won't have any milk and will die \nthen we'll have no milk,THEN HOW ARE WE SUPPOSED TO EAT COOKIES!!!!!!!!!.I \nmean what would a world be without cookies!!!!!!!!"
p1964
aS'THUMBS UP IF UR WATCHING THIS IN 2012!!'
p1965
aS'I do that with the flashlight.'
p1966
aS'hey guy at 2:08 is tht a puroity ring or wat '
p1967
aS'I have ADHD Plus i thought youvmeamt prego pill'
p1968
aS'\'nobody wants to live in a world without cookies" lolololol '
p1969
aS'quick get back on the pill :p '
p1970
asS'time'
p1971
ctime
struct_time
p1972
((I2009
I9
I24
I18
I36
I4
I3
I267
I-1
t(dtRp1973
sS'id'
p1974
V96c--mQ_rP4
p1975
s.