(dp1
S'title'
p2
VPowerpuff Girls Parody (Dear Ryan)
p3
sS'url'
p4
Vhttp://www.youtube.com/watch?v=_vycUIW_tsA&feature=youtube_gdata_player
p5
sS'image'
p6
Vhttp://i.ytimg.com/vi/_vycUIW_tsA/0.jpg
p7
sS'comments'
p8
(lp9
S'gonna try to write powepuff girls with my elbow\npowerpufgf girl;ds\xef\xbb\xbf'
p10
aS"i get the impression that HIM was supposed to make children aware that \nhomosexuality is wrong. he's an evil crossdressing demon with a neutral \ngender voice am i looking at this wrong did anyone else see this?\xef\xbb\xbf"
p11
aS"Fun fact:\nPeople are OK with people liking Powerpuff Girls.\nBut People have a problem with people liking My Little Pony.\nWhich are made by roughly the same people, same style, same age group and \nsame fanbase.\nIs it just because we're popular and the people who hate us are Hipsters?\xef\xbb\xbf"
p12
aS'The funny thing is, this looks a million times better than that short \nlittle bullshit remake cartoon network made...\xef\xbb\xbf'
p13
aS'Type Powerpuff girls with my elbow WITHOUT erasing ;o\np0owerpuff ngtiurlsd\xef\xbb\xbf'
p14
aS'dear ryuZsxan":  cxaann yuou bevcollmebnn an n alkilen? (i wrote with my \nelbow)\ntranslation:dear ryan: can you become an ailen?\xef\xbb\xbf'
p15
aS"1:43\nWho's on first?\nIs that an Abbott and Costello reference?\xef\xbb\xbf"
p16
aS'Guess what?\n\n\n \n\nRead more (14 lines)\xef\xbb\xbf'
p17
aS"I'm going to write powerpuff girls with my elbows\n\nPowerpuff girls with my elbows\xef\xbb\xbf"
p18
aS'Gonna Type PowerPuff Girls With My Elbow \n\n\np-[o90esw33ew ghkjuioyt65p;lokdresw4\n\n\n\n\nNAILED IT!!!!!!!!!!!!!!!!!!!!!!!!!!!\xef\xbb\xbf'
p19
aS'Power puff girl has no fingers and nose how should they breathe lol\xef\xbb\xbf'
p20
aS"XD\nWho's on first XD\xef\xbb\xbf"
p21
aS'Uh... I got the Abbott & Costello reference the first time I heard it.\nDo I get a prize?\xef\xbb\xbf'
p22
aS"I am gonna try to type powerpuff girls with my elbows, here I go.\n\n';[pofrgftrlou8f7yugftrfvgftr ghki45trodeewsswqqwxsse\xef\xbb\xbf"
p23
aS'This is better animated than the actual show!\xef\xbb\xbf'
p24
aS'"Who\'s on first?" IM THIRTEEN AND I GOT THAT GIMMIE A MEDAL.\xef\xbb\xbf'
p25
aS"Gonna try typing with my elbows...here we go:\n\nLife's but a walking shadow, a poor player. That struts and frets his hour \nupon the stage. And then is heard no more~\xef\xbb\xbf"
p26
aS'+The. Tardis +The Warrior Bug +Midas no Magika  0:11 look at this funny \nshtick XP \xef\xbb\xbf'
p27
aS'gunna type Powerpuff Girls with my eyes not open\n\npowerpugg girls\n\nALMOST NAILED IT!\xef\xbb\xbf'
p28
aS'powsdpufcvgu,k, [with my elbows]\xef\xbb\xbf'
p29
aS'Umm we were just wondering ....*WHY THE FUCK U GIVE US NO FINGERS,LIKE I \nMEAN HOW THE FUCK ARE WE GOING TO TPYE WITH ARE EBLOWS* XD\xef\xbb\xbf'
p30
aS'i got that refrence at 1:42 and im only 12\xef\xbb\xbf'
p31
aS'Trying to write powerpuff girls with my dick\n\nPiinlewwre pufg gulrs\n\n\nHmmmmmm... Good enough\xef\xbb\xbf'
p32
aS"Dear Ryan (i don't know what to type so your probally not gonna reply \nso...) TEEHEE!! \xf0\x9f\x98\x8a\xef\xbb\xbf"
p33
aS'Powerpuffs gifls \n(I typed that with my elbow on my phone. Took around 20 seconds without \nautocorrect)\xef\xbb\xbf'
p34
aS'aqo-oe4\xef\xbb\xbf'
p35
aS';ll;pppppppppppppppppppppowwereerpuffr bgtiurklsw\ntyped it with my elbow\xef\xbb\xbf'
p36
aS"I have severe ADD :(\nI've never managed to use it to my advantage :p I'm in pain. A slave of my \nmind :(\nI just want to meditate. I want to travel the astral world.\nOhh damn, it's late, need to go..... somewhere.\xef\xbb\xbf"
p37
aS'Dear Ryan can you Courage the Cowardly Dog?\xef\xbb\xbf'
p38
aS'p;olwer p;uff girtl.sdx  Nailed it!\xef\xbb\xbf'
p39
aNaS'Dear ryan, you are so funny\xf0\x9f\x98\x82. \xef\xbb\xbf'
p40
aS"What's the guys name on first base?\xef\xbb\xbf"
p41
aS'tgujujhjuh,kjhyujiuy76t5rytkjuyhtgthbnb     vbgn   \n gffvffgvgfggtgttwvbrewYT!> WUT!!?\xef\xbb\xbf'
p42
aS'i wish i could watch this, as a serie on the TV\xef\xbb\xbf'
p43
aS'I used to live in Townsvill! Its here in QLD, AU, powerpuff girls were so \nfunny to me, powerpuff girls Z came out and my life flipped like "OMG they \nturned it into anime!"\xef\xbb\xbf'
p44
aS'edxjtghfkdjgj\n\n\n\nRead more (40 lines)\xef\xbb\xbf'
p45
aS'this was a very well done animation. Funny too\xef\xbb\xbf'
p46
aS'......yeah! what the hell is HIM supposed to be?\xef\xbb\xbf'
p47
aS'Dear Ryan can you do frozen\n\xef\xbb\xbf'
p48
aS'Typing PowerPuffGirls With ma elbow\xef\xbb\xbf'
p49
aS'This is how I write ppg with my elbow.\n\nPdfplolr3er.puggtgvvvbjbf, c\xef\xbb\xbf'
p50
aS"Im pretty sure literally everyone got the reference. Also didn't \nspeedosausage do this joke already?\xef\xbb\xbf"
p51
aS"Let's try to type Apple with our elbow Aplldd\xef\xbb\xbf"
p52
aS'They dont have noses either\xef\xbb\xbf'
p53
aS'powerp8uff g9rls wrote it with my elbow like the rest of ya :)\xef\xbb\xbf'
p54
aS'Do they have fingers in the cartoon?\xef\xbb\xbf'
p55
aS'1:07 All those Pony Art styles doe\xef\xbb\xbf'
p56
aS'Dear Ryan can u play minecraft\xef\xbb\xbf'
p57
aS'im an waffle\xef\xbb\xbf'
p58
aS"This is actually touching to me :'D\xef\xbb\xbf"
p59
aS'That ending xD\xef\xbb\xbf'
p60
aS'Do Pok\xc3\xa9mon pls\xef\xbb\xbf'
p61
aS'I got the refrance\xef\xbb\xbf'
p62
aS'AYYYYEEE....got that whos on 1st reference!!!!\xef\xbb\xbf'
p63
aS'I actually got that reference (Saw it during pre-algebra in 7th grade).\xef\xbb\xbf'
p64
aS'Dear Ryan can you play msp\xef\xbb\xbf'
p65
aS'Bronies are infecting everything. Autism. \xef\xbb\xbf'
p66
aS"I TOTALLY GOT THE WHO'S ON FIRST JOKE!!!\xef\xbb\xbf"
p67
aS'I bet "him" got his name because he\'s red an black with is more a boys \ncolor as most people think but I think that\'s kinda sexist i mean I like \nred and black but him I her and her is him but maybe him is a her who\'s \nalso a transgender but him is also a crab but him also looks like he\'s \nwearing a tutu \xef\xbb\xbf'
p68
aS'OMG WHOS ON FIRST I LOVE THAT COMEDY SKETCH!!!!\xef\xbb\xbf'
p69
aS'Check out this video on YouTube:\xef\xbb\xbf'
p70
aS'I so got the Abbott and Costello reference.\xef\xbb\xbf'
p71
aNaS'Power piff hjilal\xef\xbb\xbf'
p72
aS'Dear Ryan\nCan you make a movie about my little pony friendship is magis?\xef\xbb\xbf'
p73
aS'I got that reference......\xef\xbb\xbf'
p74
aS'Dear Ryan \nCan you eat a fat banana \xef\xbb\xbf'
p75
aS'Have you ever tried typing with your fingers classic music plays fart noise \n\xef\xbb\xbf'
p76
aS'Omg Mr.Ryan can u make more PPG plz\xef\xbb\xbf'
p77
aS'Powerpuff girls did it with my elbow\xef\xbb\xbf'
p78
aS'I Think I Like My Little pony the same as Powerpuff girls\xef\xbb\xbf'
p79
aS'Dear Ryan,\n         . Can you do a Dubstep Cover of Skrillex ? ^_^\xef\xbb\xbf'
p80
aS'me typing with my elbows I typed I like pizza\n\n\n\n\niku liukde p;kzzaz                                            wow I fail\xef\xbb\xbf'
p81
aS'TEEHEE\xef\xbb\xbf'
p82
aS'AWSOME\xef\xbb\xbf'
p83
aS"Whos on first. What's on second. I don't knows on third.\xef\xbb\xbf"
p84
aNaS'"Third base"!!!!!!\xef\xbb\xbf'
p85
aS'How did you make that?\xef\xbb\xbf'
p86
aS'Powerpuff Girls Parody (Dear Ryan): http://youtu.be/_vycUIW_tsA\xef\xbb\xbf'
p87
aS"I'm barely a nineties kid, and I still got the catdog reference...that \nliterally made the video. Keep up the awesome work!\xef\xbb\xbf"
p88
aS'\xe2\x80\xa6 \xef\xbb\xbf'
p89
aS'I got the reference!\xef\xbb\xbf'
p90
aS'Whos on  first lol\xef\xbb\xbf'
p91
aS'This is all we have intill 2016.\xef\xbb\xbf'
p92
aS'powerpuff girls... well that was easy (typed with my elbow)\xef\xbb\xbf'
p93
aS'Dear Ryan : Can you do Pokemon\xef\xbb\xbf'
p94
aS'Ryan did all the voices!? If that was true, then he got quite a talent \nright there...\xef\xbb\xbf'
p95
aS'I know how it feels it hikes forecast yp.upr. I dont have Ingres, \nifmsfyapa,said with lmy nickel em \xef\xbb\xbf'
p96
aNaS'I mean mlp\xef\xbb\xbf'
p97
aS'U!, what!\xef\xbb\xbf'
p98
aS'Dear Ryan, can you dance?\xef\xbb\xbf'
p99
aS'powsg ljcc bkz \xef\xbb\xbf'
p100
aNaS'He should do rowdy ruff boyz\xef\xbb\xbf'
p101
aS'wkswgtyhide  mzskrdds nsz ghoioifdb ploikn ytg niomn zsnfguunny6bewasty XDDF\n(i wrote with my elbows)\ntranslation:\nwow this makes a good point in a funny way XD\xef\xbb\xbf'
p102
aS'Dear ryan, can you do super Mario bros.?\xef\xbb\xbf'
p103
aS'AM WELL TYPE EBOW\n\nppppppoew2er4girls opuuytrt5ikkjht\xef\xbb\xbf'
p104
aS'Powerfull girls with my knee on a apple smart watch \n\nWdttygooi87765rdfchjn\n\nI give up\xef\xbb\xbf'
p105
aS'Powerpuff Girls  with my elbows : [popssderr  ;;[;p=kigvg I tryed.\xef\xbb\xbf'
p106
aS'I got the Abbott and Costello reference.\n\nSpecial Snowflake mode activated.\xef\xbb\xbf'
p107
aS'I wou;d love to see the Rowdy Rough Boys in this style of animation. :)\xef\xbb\xbf'
p108
aS'Ek kw me trying to right elbow with my elbow\xef\xbb\xbf'
p109
aS'Try typing with your elbows on a tablet!\nUgufhiuol JH chu Jo p of fun mall kind I bug styling by no pop FD dtnvf\nI tried to write power puff girls...\xef\xbb\xbf'
p110
aS'Make part 2!! XD\xef\xbb\xbf'
p111
aS'How did you animate this, Ryan?\xef\xbb\xbf'
p112
aS':) XDXDXDXDXDXDXD LOLOLOLO\xef\xbb\xbf'
p113
aS'Power puff girls \nThanks auto correct.. \xef\xbb\xbf'
p114
aS'poertpuhh hitld\xef\xbb\xbf'
p115
aS'dear Ryan, \ncan u do regular show\xef\xbb\xbf'
p116
aS'But wait, how did she throw the keyboard put the window if she has no \nfingers!\xef\xbb\xbf'
p117
aS'OMG HAHAHAHA XD\xef\xbb\xbf'
p118
aS'gofddfsamm tyhis is hard\xef\xbb\xbf'
p119
aS':/\xef\xbb\xbf'
p120
aS'Abbot and Costello reference! \xf0\x9f\x98\x83\xef\xbb\xbf'
p121
aS'" I tried to cut mine" XD\xef\xbb\xbf'
p122
aS'yea they have hands but brings memories\xef\xbb\xbf'
p123
aS'WTF!!!!\xef\xbb\xbf'
p124
aS'trying to write powerpuff girls with elbows..\n..\nDarude -sandtorm\nOMFG I cant believe it!!!\xef\xbb\xbf'
p125
aS'powerpuff girls  ( i wrote that with my elbow HAHAHAHAH\xef\xbb\xbf'
p126
aS'make more\xef\xbb\xbf'
p127
aS'Powerpuffgirls\xef\xbb\xbf'
p128
aS'Writing apple with elbow- \nApple. \nWriting Powerpuff Girls- \nPoser\nUFC gjirls\xef\xbb\xbf'
p129
aS'Powfder 9\nPiggggfhbh \xef\xbb\xbf'
p130
aS'Dear Ryan: Can you prove or disprove "rape culture" in the U.S.?\n\n(Maybe too serious of a question, but still curious.)\xef\xbb\xbf'
p131
aS'What the fuck is that all about\xef\xbb\xbf'
p132
aS'dear ryan can you smash a chicken nuggets\xef\xbb\xbf'
p133
aS'Him talks like Paris Hilton\xef\xbb\xbf'
p134
aS'The "who\'s on first" reference was the best thing ever \xef\xbb\xbf'
p135
aS'Abott and Costello referance perhaps? ;33\xef\xbb\xbf'
p136
aS'Lol\xef\xbb\xbf'
p137
aS'HIM LOOKS LIKE A CLOWN...\xef\xbb\xbf'
p138
aS'Dear Ryan,\nCan you Beyblade?\xef\xbb\xbf'
p139
aS'Him was lol\xef\xbb\xbf'
p140
aS'Power puff girls\xef\xbb\xbf'
p141
aS'O_o what did I watch!!!! lol good job though :)\xef\xbb\xbf'
p142
aS'dear ryan, can you do spongebob?\xef\xbb\xbf'
p143
aS'Lol\n\xef\xbb\xbf'
p144
aS"Omg! I think this is a great episode! Make more!!!! It's the best! Should \nbe in television \xef\xbb\xbf"
p145
aS'So creative i love it \xef\xbb\xbf'
p146
aS'Shout out to abbot and Costello\xef\xbb\xbf'
p147
aS'I\'m going to type Powerpuff girls with my Elbow\n\n;powqrrer[p-;i98gfvtvgftr bgit?";.l\xef\xbb\xbf'
p148
aS'Uhhhh\xef\xbb\xbf'
p149
aS"I got the who's on first reference \xef\xbb\xbf"
p150
aS'Hahahaha Rush hour ftw. I would seriously watch this if this came on adult \nswim \xef\xbb\xbf'
p151
aS'Dear Ryan, can you reinact ANDACONDA!!!!!\xef\xbb\xbf'
p152
aS'ppppooo-aswsdedr\xc3\xb6pjugfvfvg bgkjfgrt.lsay\n[Powerpuff Girls]\xef\xbb\xbf'
p153
aS'0:51 yeah that joke seems about right for the powerpuff girls. That would \ngo right over our heads as kids somehow..\n\nEdit: rewatched. Mr sachs went over my head. Funny though because in school \nwe had a art teacher nameeed Ms Sachs and we called her ms Ball \nsachs...haha\xef\xbb\xbf'
p154
aS'I noticed a lot of people trying to spell "Power Puff Girls" with their \nelbows, so I\'m gonna try something a bit different and try to type "Rowdy \nRuff Boys":\nr4ow3deyt bruifgf n blkoyuhds\nPERFECT.\xef\xbb\xbf'
p155
aS'po0we3rpuff hgitrls damn thought i could get it\xef\xbb\xbf'
p156
aS"That was so awesome! Wow, new subscriber of +nigahiga Okay, it's time to \nget back to the books now...\xef\xbb\xbf"
p157
aS'I was gonna write something but i changed my mind and for some reason the \nonly way out of this is posting\xef\xbb\xbf'
p158
aS"who's on first? what's on second? I dont know. THIRD BASE\xef\xbb\xbf"
p159
aS"Let's try to type Powerpuff Girls with my elbows pppoer\xef\xbb\xbf"
p160
aS'This animation is actually better than most on YouTube. \n\nNeat. \xef\xbb\xbf'
p161
aS'"We aint got fingernails i mean how do you expect us to scratch the dirt \noff our balls? Uhhh what?" XD CANT STOP LAUGHING\xef\xbb\xbf'
p162
aS'Childhood.......ruined\xef\xbb\xbf'
p163
aS'Halv,ht\xef\xbb\xbf'
p164
aS'poowerpojucddf bgiurolsz wit5hy jkmy el boew\xef\xbb\xbf'
p165
aS'#groundponies\xef\xbb\xbf'
p166
aS'hahaha\xef\xbb\xbf'
p167
aS'why does this look better than the cartoon network re-make tho\xef\xbb\xbf'
p168
aS'why is a man making girls in his basement?\xef\xbb\xbf'
p169
aS'powqewerpouyycdcf fgiels <--- with my elbow xD\xef\xbb\xbf'
p170
aS'Dear Ryan, Are you otaku?\xef\xbb\xbf'
p171
aS'Tryna write powderpuff girls with my fist:\n\nplowerrtrgpufffdf gfbgfikklos\xef\xbb\xbf'
p172
aS'I got the Abbott and Costello reference! And it made me very happy :D\xef\xbb\xbf'
p173
aS'That demon fucking scary\n\n\xef\xbb\xbf'
p174
aS'2:31 I found the booty\xef\xbb\xbf'
p175
aS"that's actually true, if you are just slightly different people will make \nfun of you because of that.\xef\xbb\xbf"
p176
aS'Powerpuffgirls written with my elbow\xef\xbb\xbf'
p177
aS'p-0o092w33ew44rep-0yu7dfdffgfikrdefllsd \n Well thats my attempt you know its pretty good\xef\xbb\xbf'
p178
aS'Plowderpuffh girlsmgcjg;@\xf0\x9f\x91\x8c\xf0\x9f\x91\x86\xef\xbb\xbf'
p179
aS'I got the reference\xef\xbb\xbf'
p180
aS'Turtle\xef\xbb\xbf'
p181
aS'Ghufgygghgh did it with dick\xef\xbb\xbf'
p182
aS'the ending creeped me out....\xef\xbb\xbf'
p183
aS'Do naruto or bleach\xef\xbb\xbf'
p184
aS'I got that abbott and Costello reference\xef\xbb\xbf'
p185
aS'Posrr pppoff gitker perfect \xf0\x9f\x91\x8c\xef\xbb\xbf'
p186
aS'Best one ever\n\xef\xbb\xbf'
p187
aS'Dear ryan do all about that bass parody\xef\xbb\xbf'
p188
aS'Powerpuffgirls I just typed that with my nose lol\xef\xbb\xbf'
p189
aS'App.le. :3 iim &! Wind\xef\xbb\xbf'
p190
aS"What's with bubbles when she dropped her pony? :/\n\xef\xbb\xbf"
p191
aS'::) jk j huhhggttfdrrfg I TYPE WITH MAH ELBEWWS\xef\xbb\xbf'
p192
aS"Hi it's easy to type with your elbows (typed with elbows)\n\xef\xbb\xbf"
p193
aS'dear Ryan what does the scouter say about his power level\xef\xbb\xbf'
p194
aS'Powerpuff girls no. Bad. Girls. :-) \xef\xbb\xbf'
p195
aS'ReallyGet creative!!!!!!!!!!!!!!!!!!!!!\xef\xbb\xbf'
p196
aS'I wrote yhis with my elbow\xef\xbb\xbf'
p197
aS'lol\xef\xbb\xbf'
p198
aS'(dear Ryan) can you do bleach\xef\xbb\xbf'
p199
aS'Ua super cute\xef\xbb\xbf'
p200
aS'Actually love this makes me laugh every time.. Have literally watched it \nlike 20 billion times xx u da best!!\xef\xbb\xbf'
p201
aS'... Townsville.. Really!? THATS WHERE I LIVE!! \xef\xbb\xbf'
p202
aS'I fell off the shelf again\xef\xbb\xbf'
p203
aS'pertrf putf hgitld\nomg its more difficult than it looks, writing with the elbow. yes i typed \npower puff girls why:P\xef\xbb\xbf'
p204
aS'greatest show ever\xef\xbb\xbf'
p205
aS'Ppppppowe\xef\xbb\xbf'
p206
aS'ok, lol?! XD\xef\xbb\xbf'
p207
aS'"We outta blast your finger-having ass right now!" I cannot stop laughing\xef\xbb\xbf'
p208
aS'P0eddewwrerlpugggggffgooitrlds fail attempt to write with elbow\xef\xbb\xbf'
p209
aS'This is what happens when I typed "Powerpuff Girls"\nlplowerpuffcgirl,s\xef\xbb\xbf'
p210
aS'powerpujujff girls\n\nlol\xef\xbb\xbf'
p211
aS'Better than the actual show... which is still pretty good tho\xef\xbb\xbf'
p212
aS'Powerpuffgirls +elbows =I n FCC VB GH trcdwg\xef\xbb\xbf'
p213
aS'Sooo, Bubbles basically has one finger on each hand? B-but.. The ground \nponies.. ;-;\xef\xbb\xbf'
p214
aS'PiabdkZb vyrld\n\nElbow work\xef\xbb\xbf'
p215
aS'Dear Ryan, \nCan you play a popular game, like Minecraft, on your computer or handheld \ndevice?\n\n\nMuch appreciated!! \xf0\x9f\x98\xba\xef\xbb\xbf'
p216
aS'i got the abbott and costello reference \xef\xbb\xbf'
p217
aS'But he had eight fingers and then they have 10 total...\xef\xbb\xbf'
p218
aS'Ima try to write " Power puff girls wit mah elbows \n\n\n\n( I\'m on an iPad) ow\xc3\xaarbuff turds\xef\xbb\xbf'
p219
aS'Power\nPjffgjrls \xef\xbb\xbf'
p220
aS'This is really really funny\xef\xbb\xbf'
p221
aS'ME TO POWEERUFDFD\n DONE\xef\xbb\xbf'
p222
aS'I got the the reference in a leadership training session \xef\xbb\xbf'
p223
aS'I will always love powerpuff girls<3\xef\xbb\xbf'
p224
aS'XD Dead\xef\xbb\xbf'
p225
aS'Lowdf puff gjfkd\xef\xbb\xbf'
p226
aS'Lol wow so creative this is funny\xef\xbb\xbf'
p227
aS"If the dont have fingers and can't pick up anything, how did she pick up \nthe phone?\xf0\x9f\x98\x8f\xef\xbb\xbf"
p228
aS'Yo lo\xef\xbb\xbf'
p229
aS'Po zzz fx huh t n bbc.co yt? Ufk min bbc.co c NAILED IT\xef\xbb\xbf'
p230
aS'\nSss zzz u Vvbbb non-commercial\xef\xbb\xbf'
p231
aS'GROUND PONIES!!!\xef\xbb\xbf'
p232
aS'Typing Elbow With my Elbow\nelbow\xef\xbb\xbf'
p233
aS'Amazing\xef\xbb\xbf'
p234
aS'writing powerpuffgirls with only my elbows \n:pp0-[3r5trpigtgftvryt5r4tde -Perfect!\xef\xbb\xbf'
p235
aS'his name is not "him" his name is actually quote "To dastardly to be said \nso he can only be called "him."\xef\xbb\xbf'
p236
aNaS'Dear Ryan: Can you remake your old videos? ( ex:how to be......series\xef\xbb\xbf'
p237
aS'this is haram\xef\xbb\xbf'
p238
aS"Ha, I got the who's on first reference :D\xef\xbb\xbf"
p239
aS'p[olweserrtp;ujfvgfvg ghikrtfl,de\n\nPowerpuff Girls with my elbows **NAILED IT**\xef\xbb\xbf'
p240
aS'lol\xef\xbb\xbf'
p241
aS'OMG\nCool, its that your voice?!\xef\xbb\xbf'
p242
aNaS'AHHAHahahaha THIS WAS GREATT! I think you should make more xD \xef\xbb\xbf'
p243
aS"Lol @ Him's voice.\xef\xbb\xbf"
p244
aS'p-op0qewsdfdrtoljkuhfgrf hgkjigldfxs And thats hows you spell powepuff \ngirls wow wait he did that oh well ok\xef\xbb\xbf'
p245
aS'Trying power puff girls with my elbows\n\n\nPoqwr buy gate\xef\xbb\xbf'
p246
aS'That backround music soundes like 2 girls 1 cup\xef\xbb\xbf'
p247
aS'Dear Ryan can you do ben 10 please :)\xef\xbb\xbf'
p248
aS'fdfghjyty6tgrfrfdezapledrrtd....... zzzzzzzzzzzzzzzzzzzzzzzzzzzzzzzmy \nponies are still on the ground.\xef\xbb\xbf'
p249
aS'.... O_O\xef\xbb\xbf'
p250
aS'Childhood ruined\xef\xbb\xbf'
p251
aS'"My ponies are still on the ground." *frownie face*\xef\xbb\xbf'
p252
aS'hkello\n\ntried typing hello as carefully as i could with my elbow\n\nnow ill type goodbye\n\ngoodbye\n\noh wow its not that hard :D\xef\xbb\xbf'
p253
aS'Typing with my elbow: p;opledsr;lp.hjyufgtvjnhm\nDamn it...\xef\xbb\xbf'
p254
aS'Poweescvnjngggnbmnj go. Nbv?\xef\xbb\xbf'
p255
aS'that red thing scared me when i was a child xD\xef\xbb\xbf'
p256
aS'Powerpuff girls boom I wrote this with my elbows!\xef\xbb\xbf'
p257
aS'The best part is I actually get the "who\'s on first" reference \xef\xbb\xbf'
p258
aS'P\xc3\xb2werpuff girols \n\nI tried typing it with my elbow (powerpuff girls) :/\xef\xbb\xbf'
p259
aS'OMFG this video is freaking funny\xef\xbb\xbf'
p260
aS'him is scary o.o\xef\xbb\xbf'
p261
aS'Julian I just did that with my elbows\n\n\xef\xbb\xbf'
p262
aS'This makes me wish the powerpuff girls series was rebooted \xef\xbb\xbf'
p263
aS'why are people trying to compare power puff girls with my little pony. sure \nthe animation s may be the same. but PPG is way more graphic.. Blood, guts, \nspit, and ass... its like a girly playful version of Dragon Ball Z\xef\xbb\xbf'
p264
aS'Gonna type powerpuff girls with my elbow \n\n\n\n\nPoeqnfhgjghhhuyfnyggytgvtcfcfvgnubhvtcfgbytxcrghfcddtxcyvgnmvgc nailed it\xef\xbb\xbf'
p265
aS'Easy\xef\xbb\xbf'
p266
aS'Hat was so funny and dude you make really good videos\xef\xbb\xbf'
p267
aS'podedrfr pugffv giurlds\xef\xbb\xbf'
p268
aS'Dear ryan how to be funny\xef\xbb\xbf'
p269
aS'WHAT IN ZEE WURLD\xef\xbb\xbf'
p270
aS'That is kinda creepy\n\xef\xbb\xbf'
p271
aS'I GOT THE ABBOT AND CASTELLO REFERENCE!\xef\xbb\xbf'
p272
aS'ok lets try this Gonna Type PowerPuff Girls With My Elbow :\npowe4Ofrdd girlsse\xef\xbb\xbf'
p273
aS'im blossom on 0:44\xef\xbb\xbf'
p274
aS'Did you do this yourself? wow.\n\nDear ryan, can you do Teen Titan!\xef\xbb\xbf'
p275
aS"I'm gonna type power puff girl with my elbow:\n\nPoewrpiuffguthtrkl\xef\xbb\xbf"
p276
aS'Dear Ryan, Can you do something awesome with a plate of rice\xef\xbb\xbf'
p277
aS'I get the reference\xef\xbb\xbf'
p278
aS'Good\n\nNot\n\nThat good \nBut a little good\xef\xbb\xbf'
p279
aS'I got the reference\xef\xbb\xbf'
p280
aS'Could you do yugioh?\xef\xbb\xbf'
p281
aS'The only issue tigger\xef\xbb\xbf'
p282
aS'My god I loves me some bud abott and Lou castello!!!\xef\xbb\xbf'
p283
aS'Far too many people writing powerpuff girls with their elbows.\xef\xbb\xbf'
p284
aS'Dear Ryan, can you let it go?\xef\xbb\xbf'
p285
aS'Hahaha this is great! Should do more of this!\xef\xbb\xbf'
p286
aS'dear Ryan can you do sponge bob\xef\xbb\xbf'
p287
aS'BETTER THAN THE ORIGINAL\xef\xbb\xbf'
p288
aS';lowwwwwwwwer  ourffr gfvbureks\n\nTranslation By Bing:\nPower Puff Girls\xef\xbb\xbf'
p289
aS'I got the abbot and Costello reference\xef\xbb\xbf'
p290
aS'Dear Ryan can you make map\xef\xbb\xbf'
p291
aS'very creative ryan!! so related!\xef\xbb\xbf'
p292
aS'"Because we don\'t have fingers, we don\'t have fingernails. I mean like how \ndo you expect us to scratch our balls?"\n\n*Shows what they meant*\n\nLoL XD\xef\xbb\xbf'
p293
aS'Jus\xef\xbb\xbf'
p294
aS'ii tyyp0-edc bwujhyhn nj n  m 6y7  ewopo9o 78cds i typed with my elbow\xef\xbb\xbf'
p295
aS'I knew they were gonna say, "cause we\'re taking yours" I FREAKING KNEW \nIT!!!!!!!\xef\xbb\xbf'
p296
aS"Haha cause We're taking yours\xef\xbb\xbf"
p297
aNaS'>no hooves\xef\xbb\xbf'
p298
aS'LOVED THAT\xef\xbb\xbf'
p299
aS'Nice!!! XD \xef\xbb\xbf'
p300
aS'How hard it is to scratch the dirt off our balls...\xef\xbb\xbf'
p301
aS'Dear Ryan,\n\nCan you do Batman\xef\xbb\xbf'
p302
aS'Ooo ooo let me type powerpuff girls!!\n\n\n\n\n\n\n\n\nBbhhfbk hfxzz 6rh\n\n\n\n\n\n\n\nNAILED IT!!!!\xef\xbb\xbf'
p303
aS'ppowerpuff  giurtlsw my attempt u all suck\xef\xbb\xbf'
p304
aS'pppowesedsrf  p;ujff i got a little closer LIKE A BOSS IN SUPERVISER STREET \nWICH IS DOWN MANAGER LANE\xef\xbb\xbf'
p305
aS'HIM was actually really frickin creepy and still kinda is.\xef\xbb\xbf'
p306
aS'i love violent endings\xef\xbb\xbf'
p307
aS'powerpuff gir\xc5\x82s\xef\xbb\xbf'
p308
aS'HA\xef\xbb\xbf'
p309
aS'And them Goku destroys everything \xef\xbb\xbf'
p310
aS'imma type powerpuff girls with my elbows. 0-p092w34rp-0[u7rrtfgviurrr4lksa\xef\xbb\xbf'
p311
aS'typimnghg w3itghj elb olwsw is nbsfrd\nI typed it with my own elbow. \xef\xbb\xbf'
p312
aS'Thats so bloody\xef\xbb\xbf'
p313
aS"Some dude: Who is on first? other dude: yeah your right. who's on first. \nsome dude: I just asked you that! WHO'S ON FIRST? other dude: WHO.  some \ndude: I. JUST ASKED YOU THAT. (the person is called who)\xef\xbb\xbf"
p314
aS'How have I only just wound your channel! \xef\xbb\xbf'
p315
aS'powerpuff girls c: YAYYY NAILED IT\xef\xbb\xbf'
p316
aS'this was far more interesting than the actual show\xef\xbb\xbf'
p317
aS'i have adhd rohan do like magents or nah\xef\xbb\xbf'
p318
aS"Who's on first\nWhat's on second\nI Don't know's on third\xef\xbb\xbf"
p319
aS'What Is him????\xef\xbb\xbf'
p320
aS'Those kids have no fingers either in 0:55\xef\xbb\xbf'
p321
aS'Dear Ryan, can you do the gwiyomi? <:\xef\xbb\xbf'
p322
aS'\nppowwroophucffvjdlkz\xef\xbb\xbf'
p323
aS'Lol wtf \xef\xbb\xbf'
p324
aS'Sad\n\xef\xbb\xbf'
p325
aS'bad i don`t like it much sow you need too make it cuter\xef\xbb\xbf'
p326
aS'Power puff gin girth\nI tried to write power puff girls with my elbows\xef\xbb\xbf'
p327
aS'Him kinda reminded me of Greg\xef\xbb\xbf'
p328
aS"p0[po43rew4re5  p[;-'0i8uo9kgftgf hgy9io05rt4;p'[redsw\xef\xbb\xbf"
p329
aS"I'm going to Try typing powerpuffgirl with my elbow powerpiuttgolitr,l damn \ni suck\xef\xbb\xbf"
p330
aS'Lol\n\xef\xbb\xbf'
p331
aS'XD\xef\xbb\xbf'
p332
aS'Animation- Cute.\nVideo-Awful(Bad words,killing,silly voices)\xef\xbb\xbf'
p333
aS'I totally got the Abbet and Costello reference!!\xef\xbb\xbf'
p334
aS"I caught that who's on first reference. \xef\xbb\xbf"
p335
aS'pi9owsewfdrlkjnhmub gv \n yay i spelt it :D\xef\xbb\xbf'
p336
aS'Dear Ryan can u be Spider-Man or deadpool or both\xef\xbb\xbf'
p337
aS'"I try to cut mine."-buttercup  LOL I love this so funny!!!\xef\xbb\xbf'
p338
aS"Ponies can still have manual dexterity, even though they have hooves, cause \npony magic.\n...\nThey still use a lot of tools though with holding it between their teeth, \nbut that's just the way it is, so I guess it's no different with the PPG. \n... except with the mouth thing.\xef\xbb\xbf"
p339
aS'I am the same with my phonhfisj\xef\xbb\xbf'
p340
aS'Yo dude ur so uncool when u use bad words ur losing subscribers bcuz of \nthis so stop it please\xef\xbb\xbf'
p341
aS"I'm gonna write power puff girls with my elbow:\n\nPowerpigyhir.\n\nI thought I could do it....\xf0\x9f\x98\xb1\xef\xbb\xbf"
p342
aS"i'm gonna write '' powerpuff girls '' with my elbow, here go nothing!\n\nkojdfcvopikkkjuhygfcdxzp0-po09ioerqw2w3er4p67ugtfrffgiuwt6loo\xef\xbb\xbf"
p343
aS'Power\nPpkuffgirles\xef\xbb\xbf'
p344
aS'"sometimes i play with my ponies but they just fall to the ground."\nawww so sweet\xef\xbb\xbf'
p345
aS'Poerpifgirrds\n\nFuck you elbows XD\xef\xbb\xbf'
p346
aS'I love the animation you did! :D\xef\xbb\xbf'
p347
aS'He.l.loo NAILED IT!\xef\xbb\xbf'
p348
aS'Typing with elbows.....GO.....hi guy eill u lend some money \xf0\x9f\x98\xa4\n\n\n\n\n\nWrong emoji \xf0\x9f\x98\x86\xef\xbb\xbf'
p349
aS"That was dark... I LOVE IT X'D\xef\xbb\xbf"
p350
aS'POWERPUFF GIRLS WITH ELBOW:\n0p9o234pui8ff ghioklrfs\nMy best attempt.\xef\xbb\xbf'
p351
aS'Can you animate samus Aran??\xef\xbb\xbf'
p352
aS"Love it!!!!! I'd like to use your comedy for a commercial do you except?\xef\xbb\xbf"
p353
aS'dear ryan, do sponge bob!\xef\xbb\xbf'
p354
aS'Try typing Apple on phone with elbows. Woolrr\xef\xbb\xbf'
p355
aS"I wonder who's on first?\xef\xbb\xbf"
p356
aS'popssde;pjuff girls \n\nI tried. But I got girls :) i just used the corner of my elbow.\xef\xbb\xbf'
p357
aS'im gyupinbg ewityh  myh n erlkb owss\xef\xbb\xbf'
p358
aS"What's Wrong With The Powerpuff Girls\xef\xbb\xbf"
p359
aS'lol it looks like they have beards\xef\xbb\xbf'
p360
aS'"Him" scared the shit out of me when i was younger lol\nAnd the naughty guy from courage the cowardly dog o.o\xef\xbb\xbf'
p361
aS'I GOT THE REFERENCE RYAN\xef\xbb\xbf'
p362
aS'oh come on. Abbot and Costello are kings of comedy.\xef\xbb\xbf'
p363
aS' #DearRyan  can you a. be a duck b.love a duck and c. kill a duck cyborg \nwith a lamp\xef\xbb\xbf'
p364
aS"Who's on first\nWhat's on second \nI don't know is on third.\xef\xbb\xbf"
p365
aS'Dashie can give me a better lol but you one\xef\xbb\xbf'
p366
aNaS";opl;;lkolol;xsddfgfl;,['pppppppoipl;olwerpuffgirls (my elbow has a spike \nlike thing that i realised i had after half way through it and typed with \nmy arm facing away from the keybord)\xef\xbb\xbf"
p367
aS'Dear Ryan, can you make a lamp superhero?\xef\xbb\xbf'
p368
aS"Necrotik+ that's not even a fact /:\xef\xbb\xbf"
p369
aS'who is a great band if u got the reference like\xef\xbb\xbf'
p370
aS'Do bleach or naruto next\xef\xbb\xbf'
p371
aS'Dear Ryan: Please make an occur happen. \xef\xbb\xbf'
p372
aS'Dear Ryan Higa, can you talk about HOROSCOPE??\xef\xbb\xbf'
p373
aS'this should replace regular power puff girls on tv\xef\xbb\xbf'
p374
aS'poswedl;yhujfvdgfvuirel.s . psshh easy\xef\xbb\xbf'
p375
aS'"sometimes I play with my ponies and they just fall to the ground.*eyes go \nin different directions*XD\xef\xbb\xbf'
p376
aS'you are good\xef\xbb\xbf'
p377
aS"Dear ryan,\nDo you make song parodies \xf0\x9f\x98\x90\nIf you do cool\xf0\x9f\x98\x8e\nFrom,Adriana gina's daughter \xef\xbb\xbf"
p378
aS'I\'m going to type with my elbows:\n"with my elbows"\nNAILED IT\xef\xbb\xbf'
p379
aS'LOL "I tried to cut mine"\xef\xbb\xbf'
p380
aS'Dear Ryan, can you make a k-pop hit by the name of teehee?\xef\xbb\xbf'
p381
aS"I'm gonna go dick myself..l\xef\xbb\xbf"
p382
aS'Does him got da booty? HIM DOOOO. [pp[owe4 bp[uffr byi9r54loss\xef\xbb\xbf'
p383
aS'thats sooooo true\xef\xbb\xbf'
p384
aS'poeweerpuff girl;s\xef\xbb\xbf'
p385
aS'POWERPUFF FINGERS\xef\xbb\xbf'
p386
aS'like if that lobster thing gives you nightmares.\xef\xbb\xbf'
p387
aS'He fycityvfv \xef\xbb\xbf'
p388
aS'Typing Hello with my elbow\n\nHhsrrlkkklopk. \n\n\n\nLike a bawse\xef\xbb\xbf'
p389
aS'Dear Ryan can you do spongebob?\xef\xbb\xbf'
p390
aS'4:06-4:12 o-o\n\n\n\n....no coment\xef\xbb\xbf'
p391
aS"Don't know \xef\xbb\xbf"
p392
aS'i wrote this with my elbhows ;) \xef\xbb\xbf'
p393
aS'I fucking hate this \xef\xbb\xbf'
p394
aS'Um typong with nn el oars \nThat was me typing with my elbows \xef\xbb\xbf'
p395
aS'Imma try to write powerpuff girls with my elbow too\n\nPowerpuff girls!! XD I did it... I actually wrote it with my elbow!!!!!!\xef\xbb\xbf'
p396
aS'p0ow23err0puuff giorls\n\ndamn its hard typing with ur elbox\xef\xbb\xbf'
p397
aS'Wtf\xef\xbb\xbf'
p398
aS"I'm gonna type hot with my elbows\n\n\n\nGggvgnfjrbjjgfdn\xc3\xb1nnbhll\n\n\n\nNAILD IT\xef\xbb\xbf"
p399
aS'Ground Ponies!!!\xef\xbb\xbf'
p400
aS'The dirt off our balls XD\xef\xbb\xbf'
p401
aS'wso fun bnb yt im wryt6i9ng elbow tranlsatoin so funny im writing elbow\xef\xbb\xbf'
p402
aS'I LOVE THE POWER PUFF GIRLS\xef\xbb\xbf'
p403
aS"Ok I'm typing with my elbow\n\n\n\nJk gjhs .ll hi fid brfh bac \n\n\nXD that's sucks\xef\xbb\xbf"
p404
aS'Dear Ryan,\nCan u do my little pony?\xef\xbb\xbf'
p405
aS"Yes I can type with my elbow. Thank yuh autocorrect.\nI had to backspace like 20 times to get this message correct. Don't hate \nappreciate.\xef\xbb\xbf"
p406
aS'applrerererererererererererererererereret65r4etfg54rft\xef\xbb\xbf'
p407
aS'abbot and Costello lol I get it whos on first\xef\xbb\xbf'
p408
aS"I actually did understood that Abbot and Castello reference, I'm a fan of \nold radio shows =D\xef\xbb\xbf"
p409
aS'Little do they know... My parents raised me on Abbot and Costello!!! \nMwahahaha! I won! I won the money!!!\xef\xbb\xbf'
p410
aS'It\'s a pain in the stubs"  Haha XD\xef\xbb\xbf'
p411
aS'That Abbott & Costello reference tho...\xef\xbb\xbf'
p412
aS'LOL\xef\xbb\xbf'
p413
aS'Dear Ryan can you be cooking Ryan (its cooking mama)\xef\xbb\xbf'
p414
aS"You HAD to mention #MLP  ain't you?\xef\xbb\xbf"
p415
aNaS'Dear Ryan can you do a remake of how to be emo , gangster and ninja\xef\xbb\xbf'
p416
aS'Wow all things u say are so true\xef\xbb\xbf'
p417
aS"I don't get the reference\xef\xbb\xbf"
p418
aS'dear ryan can you do spongebob\xef\xbb\xbf'
p419
aS"I got the abbot and custello reference! its the who's in first base!\xef\xbb\xbf"
p420
aS"np this is the scariest thing I've seen and I love the power puff girls \nwe'll my life's ruined \xf0\x9f\x98\x91 teehe jk\xf0\x9f\x98\x9c\xf0\x9f\x98\x9d\xf0\x9f\x98\x9b \xef\xbb\xbf"
p421
aS'Im gonna try writing with my elbows powsdpuff gidmls\xef\xbb\xbf'
p422
aS'Him = satan. Not to mention he was a combo of random things. And they could \nhave just had him find a way to genetically engineer fingers lol. \xef\xbb\xbf'
p423
aS'that ending!!!\xef\xbb\xbf'
p424
aS'Dear Ryan, \nCan you do spongebob?\xef\xbb\xbf'
p425
aS'gonna try to type cats are cool (with elbow)\nlol\n\n\ncaTRZS V aAe3edb  c ool\xef\xbb\xbf'
p426
aS'm ,yu at65t654er mp-0t ast tyyuperionmjgh weeity6hy kjm76yu elbows.\n\nMy attempt at typing with my elbows* (I started to get the hang of it with \nelbows....)\xef\xbb\xbf'
p427
aS'Dear Ryan I really liked this video and also make an a invader zim parody \nvideo too please!?\xef\xbb\xbf'
p428
aS'\xe2\x80\x9cthe city of townsville is under attack!\xe2\x80\x9d\n\xe2\x80\x9cby who?\xe2\x80\x9d\n\xe2\x80\x9cby Him.\xe2\x80\x9d\n\xe2\x80\x9cwho is Him?\xe2\x80\x9d\n\xe2\x80\x9cno, Him is Him. i don\xe2\x80\x99t know who this Who is.\xe2\x80\x9d\n\xe2\x80\x9cso who do you want us to stop first, Him or Who?\xe2\x80\x9d\n\xe2\x80\x9cwho are you talking about? just stop Him.\xe2\x80\x9d\n\xe2\x80\x9cso we stop Who first, then Him?\xe2\x80\x9d\n\xe2\x80\x9cno, just Him.\xe2\x80\x9d\n\xe2\x80\x9cWho is Him, and Him is first?\xe2\x80\x9d\n\xe2\x80\x9cforget about Who, and just get Him first.\xe2\x80\x9d\n\xe2\x80\x9cwait, so who\xe2\x80\x99s on first?\xe2\x80\x9d\n\xe2\x80\x9cjust go!\xe2\x80\x9d\xef\xbb\xbf'
p429
aS'\xc3\x8ciiiiiiiiiiiiii\xc3\xaciiiiiiiiiiiiiii love it when you make the videos\xef\xbb\xbf'
p430
aS"I'm gonna write cupcake with my elbow...here we go.....\nCyo zjd ...\xef\xbb\xbf"
p431
aS'Tehiis is not ads hard on a taabb\nLet sskoo ttheiittr wong wth teh elblow thhiinngh\xef\xbb\xbf'
p432
aS'Dear Ryan: can you go to the moon?\xef\xbb\xbf'
p433
aS'The ending was so obvious, you need to renew yourself niga \xef\xbb\xbf'
p434
aS'Dear Ryan. What if Naruto was realistic?\xef\xbb\xbf'
p435
aS'This short should be in Adult Swim haha!\xef\xbb\xbf'
p436
aS'Dear Ryan can you be My Little Pony?\xef\xbb\xbf'
p437
aS'I used to watch this show! I always wondered about their hands\xe2\x80\xa6\xef\xbb\xbf'
p438
aS'Only us 90s kids know this show! Also, wheres mojo jojo?\xef\xbb\xbf'
p439
aS'Can you do My little pony?\xef\xbb\xbf'
p440
aS'are you mr.krab\xef\xbb\xbf'
p441
aS'#elbowchallenge type fingers are cool\n\nFibbets ste voil\xef\xbb\xbf'
p442
aS'power4p;ugtfvfv gtik9rf5tl.swx\n\nElbow writing ftw?\n(The ending cracks me up every time XD)\xef\xbb\xbf'
p443
aS'powerpuff girls with elbow\n[-0e4e5rm[igtg hod\xef\xbb\xbf'
p444
aS'Tried doing it with my elbows.\xef\xbb\xbf'
p445
aS"I'm going to try typing apple with my elbow\n\naOPOPKS\xef\xbb\xbf"
p446
aS'holy crap that ending though!\xef\xbb\xbf'
p447
aS'lol\xef\xbb\xbf'
p448
aS'Thumbs up if you got the reference and are under 25.\xef\xbb\xbf'
p449
aS'Dear Ryan, please do an Adventure Time parody next.\xef\xbb\xbf'
p450
aS'Awaeey\n\n\n-tried to spell awesome with my elbow on this iPad.. TnT\xef\xbb\xbf'
p451
aS"I'm gonna try type power puff girls backward with my elbow  =-= ( slrig \nffup rewop)\n\nsltr54i8gh ffu;[p trferweop\xef\xbb\xbf"
p452
aS'OMG RAISEST\xef\xbb\xbf'
p453
aS'Mine turtle .\xef\xbb\xbf'
p454
aS"Dear ryan: can you do smosh's supermarket challenge?\xef\xbb\xbf"
p455
aS'LOL\xef\xbb\xbf'
p456
aS'When their eyes glow they look epic\xef\xbb\xbf'
p457
aS'0:40 XDDDDDDDDDDDD\xef\xbb\xbf'
p458
aS'Can you do a sonic parody?\xef\xbb\xbf'
p459
aS'Hi this is written wit my \xc3\xa9lnplooblllo i mvean elbow\xef\xbb\xbf'
p460
aS'Are you related to Mr. Krabs?\xef\xbb\xbf'
p461
aS'this look way better than the original powerpuff girls\xef\xbb\xbf'
p462
aS'Powerpuff girls , yes did it! \xef\xbb\xbf'
p463
aS'I got the reference\xef\xbb\xbf'
p464
aS'Im gonna type powerpuff with my elbows powerpuff\xef\xbb\xbf'
p465
aS'I fricken tripped off my treadmill cuz of laughing \xef\xbb\xbf'
p466
aS"Abbott & Costello Who's On First i got it ;)\xef\xbb\xbf"
p467
aS'0:51 i cried so hard !!!\xef\xbb\xbf'
p468
aS'I got\xef\xbb\xbf'
p469
aS'Powerpuff Girls Parody (Dear Ryan): http://youtu.be/_vycUIW_tsA\xef\xbb\xbf'
p470
aS"Who's on 1st what's on 2nd and i don't knows on 3rd\xef\xbb\xbf"
p471
aS'Powerpuff girls [typed with elbows on an iPhone]\xef\xbb\xbf'
p472
aS"BASEBALL COACH. IVE SEEN THE VID. WHO'S ON FIRST.\xef\xbb\xbf"
p473
aS'p-0qwewerpohyuffgf54rkl I tried to write powerpuffgirls :(\xef\xbb\xbf'
p474
aS'Dear Ryan can you have a music video\xef\xbb\xbf'
p475
aS'Can you do some more like pokemon or something? XD\xef\xbb\xbf'
p476
aS'Dear Ryan Can you do heroes and generals.\xef\xbb\xbf'
p477
aS'Powerpuff girls\xef\xbb\xbf'
p478
aS'gonna type power puff girls with my elbow\npowerpuff girls\nlol that was ez\xef\xbb\xbf'
p479
aS'I get the reference\xef\xbb\xbf'
p480
aNaS'I thought he was satan when i was a kid\n\xef\xbb\xbf'
p481
aS'onlhy rreply with your elbows ;D\xef\xbb\xbf'
p482
aS'Considering I performed a play using that same reference at the start I \nthink I get it at this point\xef\xbb\xbf'
p483
aS'0:38 Appljack\xef\xbb\xbf'
p484
aS'Just gulfs smhgf sm d alpple did it loll\xef\xbb\xbf'
p485
aS'My replay button broke \xf0\x9f\x98\x82\xf0\x9f\x98\x82\xf0\x9f\x98\x82\xf0\x9f\x98\x82\xf0\x9f\x98\x82\xf0\x9f\x98\x82 I LOVE THIS \xef\xbb\xbf'
p486
aS'power -puff  tirtrpolgv LOl i wrote that with my elbow\xef\xbb\xbf'
p487
aS"Is it bad that I actually like this video eventhough it's meant to be bad? \nIt's really well animated somehow...\xef\xbb\xbf"
p488
aS'i will also try with my elbows [plowerp;uffr giorls\xef\xbb\xbf'
p489
aS'This should be the  original power puff girls XD\xef\xbb\xbf'
p490
aS'oh no, the ending was too creepy 0_0 this may be not for kids. haha\xef\xbb\xbf'
p491
aS'F\nAnis\n\xef\xbb\xbf'
p492
aS'Omg this is awesome <3\xef\xbb\xbf'
p493
aS'The Professor only had 8 fingers but in the end the Power Puff Girls had \n10...\xef\xbb\xbf'
p494
aS'WHOS ON FIRST REFERENCE!!!\xef\xbb\xbf'
p495
aS'Dear Ryan: Can you be a GTO.\xef\xbb\xbf'
p496
aS'?\xef\xbb\xbf'
p497
aS'powerpuff ggirls\xef\xbb\xbf'
p498
aS'Power girls h\nYay I typed it with my elbows\xef\xbb\xbf'
p499
aS'"by who?"\n"by him?"\n"who is him?"\n"no, him is him. I don\'t know who is who is."\n\'would u wanna stop first, him or who?"\n"who are u talking about, just stop him."\n"stop who first then him?"\n"no, just him."\n"who is him and him is first?"\n"forget about who and just get him first."\n"wait so, who\'s on first?"\n\nHAHA\xef\xbb\xbf'
p500
aS'That ending tho.  XD\xef\xbb\xbf'
p501
aS'Dear Ryan can you do a Ben 10 version? \xef\xbb\xbf'
p502
aS'Whaaaaaaaaaaaaaaaaaaaaaaaaaaa? Btw HIM=LOBSTER MAN/WOMAN\xef\xbb\xbf'
p503
aS'tryin to tipe powerpuff girls with mah elbows\n\n\npowerpuff girls\n\nNAULED IFT\xef\xbb\xbf'
p504
aS'dera ryan,\ncan u do like theres a store named puberty and u go in it and theres like a \nbunch of people waiting and u get called by a docter and then when you go \nin the room you give birth and then u leave and you say god bless ya \nplzzzzzzzzzzzzzzzzzzzzzzzzzzzzzzzzzzzzz\xef\xbb\xbf'
p505
aS'lol that was soooooo funny :)\xef\xbb\xbf'
p506
aS'THIS IS THE BEST PARODY I NEVER SEE I LOVEDDDDDD XD\xef\xbb\xbf'
p507
aS'i actually did get the reference with the "who, him, and her". im only 17 \ntoo....\xef\xbb\xbf'
p508
aS"I'm gonna try\n\n\n\nPowrrpuff girls\n\n\nDang\xef\xbb\xbf"
p509
aS'ok elbows type powerpuff girls! ppower[p-u8rrn ti95;l;ew\xef\xbb\xbf'
p510
aS'-0-0-0-0-0-p0\xef\xbb\xbf'
p511
aS'Dear Ryan can u do Power Rangers\xef\xbb\xbf'
p512
aS'Dear Ryan, Can you do Chowder?\xef\xbb\xbf'
p513
aS'typing powerpuff girls with my elbow:pwer4opu7yfdfd ggggggtiii8r5kl;sw\xef\xbb\xbf'
p514
aS'People are trying to type PowerPuff Girls with their elbows...I wanna try.\n;powerpuff girtls\nNailed the first bit #Swag\xef\xbb\xbf'
p515
aS'why do they look like they have beards :v\xef\xbb\xbf'
p516
aS'Ppowedttr pigfish\nRigors\xef\xbb\xbf'
p517
aS'powerpuff girls, its not that hard typing with your elbow one you have the \nright position \xef\xbb\xbf'
p518
aS'I got it\xef\xbb\xbf'
p519
aS'Dear Ryan, Can you be a Babysitter?\xef\xbb\xbf'
p520
aS';poweerp0oregffgghbiur45l;.sa\xef\xbb\xbf'
p521
aS'#Dear Ryan , how many birth dates do you remember ?\xef\xbb\xbf'
p522
aS'tryin to type powerpuff girls with my elbow;powerlpuivvcfcvff gjuirlds \n wtf?\xef\xbb\xbf'
p523
aS'Wwtf i just see \xef\xbb\xbf'
p524
aS'powerpufgfggirl   Did it with elbos\xef\xbb\xbf'
p525
aS'im so proud of myself for getting the abbot and costelo "who\'s on first" \nreference :P wooohooo go me\xef\xbb\xbf'
p526
aS'This is the most legit episode ever \xf0\x9f\x98\x82\xf0\x9f\x98\x82\xf0\x9f\x98\x82\xef\xbb\xbf'
p527
aNaS'Dear Ryan, Can you do "Guess the body part" ? ^_^\xef\xbb\xbf'
p528
aS'power puffgirls see I just typed it eith my elbows and It was pretty easy.\xef\xbb\xbf'
p529
aS'I LAUGHED WAY HARDER AT BUBBLES THEN I SHOULD HAVE\xef\xbb\xbf'
p530
aS'gunna try typing powerpuff girls with my chin\n\n\n\nl;loswdefrlujvfcv  bvjkfr,zx\xef\xbb\xbf'
p531
aS'you are crazy you bad man i dont like you\xef\xbb\xbf'
p532
aS'the animation is better then the recent remake!!!! O.O\xef\xbb\xbf'
p533
aS"Yeah, these vids are a bit gross for me so I think I'll keep channel \nshopping. Good luck though Ryan!\xef\xbb\xbf"
p534
aS'typ9ing t6hi9es w2it6h my elbow.\n\nIdk how i got the last two words perfectly :/\xef\xbb\xbf'
p535
aS'dear ryan , 1 on 1 with Jeremy lin?\xef\xbb\xbf'
p536
aS'AWSOME <3 this is what it would look like if they redid the powerpuff girls \nwith new animation tech.\xef\xbb\xbf'
p537
aS'im gonna type "how are you" with my elbow\n\nhuyo093w bbqwr5eb y7o0u8\xef\xbb\xbf'
p538
aS'i AM typing wqith m y elbowss\ntakes a while, but i typed that sentence with my elbows\xef\xbb\xbf'
p539
aS"Did they name him Him so we wouldn't be confused and call Him Her?\n\nWho is They and who is Her?\n\nwhat is this \xef\xbb\xbf"
p540
aS"I'm gonna try to right powderpuff girls with my elbows\n\n\nPoerpuffdgisorlas\xef\xbb\xbf"
p541
aS'Powerpuff girls (done with elbows)\xef\xbb\xbf'
p542
aS'Gonna type Powerpuff Girls with my elbow!\n\nppoowsewewrep;ujff gikrlds\xef\xbb\xbf'
p543
aS'plower puuuff bgoitr5l;sw NAILED IT!\xef\xbb\xbf'
p544
aS'pow34e5puff gbikrls... done with my elbow. Thrashed it :D \xef\xbb\xbf'
p545
aS'#youkindalooklikethedemonfrominsidiousandthatscaresme\xef\xbb\xbf'
p546
aS'Dear Ryan do you even lift bro ?\xef\xbb\xbf'
p547
aS'1:43 Lol, I get that reference.\xef\xbb\xbf'
p548
aS'this is what it would be like if craig mccraken smoked weed\xef\xbb\xbf'
p549
aS'And this politicians, and people and whoever is how easy to make peace. \nLEARN FROM IT!\xef\xbb\xbf'
p550
aS'owerpiugfhirld\xef\xbb\xbf'
p551
aS'Ending aside I could totally watch a PPG show in this style.\xef\xbb\xbf'
p552
aS'I saw a powerpuff girls threesome somewhere lol. Dfaq xD\xef\xbb\xbf'
p553
aS'poewdderp[u8ttryhgi95;lpe\n\ndafuq?\xef\xbb\xbf'
p554
aS'H: his \nI: infernal \nM: majesty\n... H.I.M.\xef\xbb\xbf'
p555
aS'Oh god my childhood fave show!\xef\xbb\xbf'
p556
aS'Powefugv giiyrlds \n\n\n\nNAILED IT\xef\xbb\xbf'
p557
aS'Powerpuff Girls Parody (Dear Ryan): http://youtu.be/_vycUIW_tsA\xef\xbb\xbf'
p558
aS'can you do gravity falls maybe adventure time ?\xef\xbb\xbf'
p559
aS"[p-op0qwaswesderdfp[;'opliucfdxvcfdvxfgvcoierdw;l./asz\n\nHow to write powerpuff girls with your elbows\xef\xbb\xbf"
p560
aS'elbow writing :D\n\npolswerpuff girlos\n\nappledd\xef\xbb\xbf'
p561
aS'#dear ryan cant you do regular show\xef\xbb\xbf'
p562
aS'imma write powerpuff girls with my elbow on my phone\nok here we go\npkoawdderlpjuvffv vgjirls\nI feel her pain now\xef\xbb\xbf'
p563
aS'Dear Ryan can you do my little pony (friend ship is magic)\xef\xbb\xbf'
p564
aS'i did get the refrence\xef\xbb\xbf'
p565
aS'Dear Ryan,\nBro\n>>>>>>>>..\nCan you be  the DEADPOOL\nPLZ.PLZ.PLZ.PLZ.PLZ\xef\xbb\xbf'
p566
aS'Great video! Good first attempt at trying to an actual animation!\xef\xbb\xbf'
p567
aS'Dear ryan\nCan you do pokemon? :P \xef\xbb\xbf'
p568
aS"I'll try to write with my elbow jet\nLolwrtpifg\xef\xbb\xbf"
p569
aS'Dear Ryan,\nCan you make a video on girls with a lot of attitude?\xef\xbb\xbf'
p570
aS'apple\n......i did it o-o .......\xef\xbb\xbf'
p571
aS"hahahahaahaahha now i have to watch who's the tank :D:D:D\xef\xbb\xbf"
p572
aS"Who's on first? Who. who's on first? Blah blah blah\xef\xbb\xbf"
p573
aS'Dear Ryan can u invite carly rose sonenclar and ask her a bunch of weird \nrandom questions?\xef\xbb\xbf'
p574
aS'i reeal;y lliki4ed thisd vid @:-0o\n\n(i write that this my elbows)\xef\xbb\xbf'
p575
aS'Ima type APPLE with my elbows try it! \n\n\nAslplerd NAILED IT!\xef\xbb\xbf'
p576
aS"I'm gonna try to write Powerpuff Girls with my elbow. \n\n-p00o3we4er4-p8utfgtff     gikfrt..lcfs\xef\xbb\xbf"
p577
aS"I wanna type with my elbow too!\n\nRyan you're awesome! (That's right, I typed it with my elbows! #2pro4u )\xef\xbb\xbf"
p578
aS'haha!!!\xef\xbb\xbf'
p579
aS'this is amazing\xef\xbb\xbf'
p580
aS'Ok im gonna type powerpuff girls with my elbow:\npowrerpufggf girls \nAlmost nailed it XD\xef\xbb\xbf'
p581
aS'\xf0\x9f\x98\x82 I love this\xef\xbb\xbf'
p582
aS'Ryan please do Arthur\xef\xbb\xbf'
p583
aS'power puff girls with elb ow lol\xef\xbb\xbf'
p584
aS'Dear ryan, can u do BEN 10\xef\xbb\xbf'
p585
aS'I got the reference... "Who\'s on first"\xef\xbb\xbf'
p586
aS'powqerpuff girls. DANG, so close\xef\xbb\xbf'
p587
aS'-p[o0wee3rpufgfg ghiortl;sd        i dried to write powerpuff girls with my \nelbows     man i suck  :P\xef\xbb\xbf'
p588
aS'YOLO!!!!!!!\nLOL!!!!!!!!!!!!\xef\xbb\xbf'
p589
aS'Powerpuff girls\xef\xbb\xbf'
p590
aS'can you make my little pony\xef\xbb\xbf'
p591
aS'Jesus Vector Sigma Source of all Life on the Planet Cybertron Christ XD\xef\xbb\xbf'
p592
aS'Omg this parody is amazing do another parody!\xef\xbb\xbf'
p593
aS'O.o it funny\xef\xbb\xbf'
p594
aS'p0owewepoiffgo9irfikos\n\\\xef\xbb\xbf'
p595
aS'Dear Ryan,can you do the lego movie?\xef\xbb\xbf'
p596
aS'I got that reference lol\xf0\x9f\x98\x82\xef\xbb\xbf'
p597
aS'funny\xef\xbb\xbf'
p598
aS"I got the who's on first reference \xef\xbb\xbf"
p599
aS'Lol buttercups hair looks like devil horns but really you should make this \na series on your channel \xef\xbb\xbf'
p600
aS'Dear ryan can you do big bang theory\xef\xbb\xbf'
p601
aS'Good bye childhood \xf0\x9f\x98\x93\xf0\x9f\x98\xb0\xf0\x9f\x98\xa5\xf0\x9f\x98\xa2\xef\xbb\xbf'
p602
aS'lol\xef\xbb\xbf'
p603
aS'Lol\xef\xbb\xbf'
p604
aS'I would watch more of this if he made his own series. For real. Do this \nRyan, pleaaaaaase.\xef\xbb\xbf'
p605
aS'LMFAO I GOT THE ABBOTT AND COSTELLO REFERENCE!!! i\xef\xbb\xbf'
p606
aS'Pkddtpufg gotld (with elbow)\nPowerpuff girls(finger)\xef\xbb\xbf'
p607
aS'Finger=Powerpuff Girls\nElbow=poweepyyyuudfguirls\xef\xbb\xbf'
p608
aS'This video ruined my childhood and also made me thankful to have fingers \nbecause I can pick up my ponies...\xef\xbb\xbf'
p609
aS'the professor only have 4 fingers :v\xef\xbb\xbf'
p610
aS'oppooiw3e3rpoyuff gvuiloas      nailed it\xef\xbb\xbf'
p611
aS'I lov powerpuff girls when i was younger\xef\xbb\xbf'
p612
aS'Gonna write apple with my elbows\nAppl527-8-!n)$hzhagagzh26hshshaieeeee\xef\xbb\xbf'
p613
aS'Powerpuff girls \xef\xbb\xbf'
p614
aS'I still don\'t know who this "you" is :(\xef\xbb\xbf'
p615
aS"I'll give you a doozy! \xef\xbb\xbf"
p616
aS'Wtf! Jajajaja\xef\xbb\xbf'
p617
aS"I'm egging ehn my lnow\n\nAutocorrect \xe2\x9d\xa4\xef\xb8\x8f\xf0\x9f\x92\x95\xef\xbb\xbf"
p618
aS'yoo  this is radd\xef\xbb\xbf'
p619
aS'ryan please do more cartoon parody :D\ni hope u read this :)\xef\xbb\xbf'
p620
aS'THE EYES!!!!\xef\xbb\xbf'
p621
aS'Dear god\xef\xbb\xbf'
p622
aS'p\xc5\xa1\xc4\x8dowsedrrtfp\xc4\x8dujfvgf gb8i9k4r5olswde\xef\xbb\xbf'
p623
aS'Power\nPuff girls\nWith my elbows\xef\xbb\xbf'
p624
aS'THIS REMINDS ME OF SPONGEBOB IN THE HOOD HAHAHA\xef\xbb\xbf'
p625
aS'Dear them can you do spongebob?\n\xef\xbb\xbf'
p626
aS'ok elbows ready.. AND!\np0o0000op9owe3rt5poujifgvcfgvcd gjkuifdreck,m,kszxda\nOMG ITS PERFECT!\xef\xbb\xbf'
p627
aS'That was hilarious! !\xef\xbb\xbf'
p628
aS'Typed\xef\xbb\xbf'
p629
aS'I get it, Mr. "Sachs" //sacks// And balls- oh, i think im being an idiot \noops\xef\xbb\xbf'
p630
aS'My attempted at typing hi with my elbow-jo\xef\xbb\xbf'
p631
aS'gonna try typing powerpuff girls with my elbow\n\n;p;plpswded vbgikgvffv vbgkic,lz\xef\xbb\xbf'
p632
aS'pooooowwedrf;p;ujff gtyi9tt4rsw\nwoah.\xef\xbb\xbf'
p633
aS'powerpuff girls . writing this with ny elbows.\xef\xbb\xbf'
p634
aS'I gtyhp;edd this wkyhhjn  m h ed,lbows\xef\xbb\xbf'
p635
aS'Whos on first. Whats on second. Idontknows on third.\xef\xbb\xbf'
p636
aS'i admire your creativity\xef\xbb\xbf'
p637
aS'[polesdertp;ufgfg \xef\xbb\xbf'
p638
aS' Oopkomswefflhff\nPowerpuff girls spelled with my elbow\xef\xbb\xbf'
p639
aS'In the beginning, I thought they were going to ask where normal babies come \nfrom O.o\xef\xbb\xbf'
p640
aS'I just noticed that now XD\xef\xbb\xbf'
p641
aS'Power Puff Girls with my index fingers. Power Puff Girls. HOLY SHIIIIT\xef\xbb\xbf'
p642
aS'im gonna get them anyhow! muhahaha\xef\xbb\xbf'
p643
aS'Uploaded on my birthday, :D\xef\xbb\xbf'
p644
aS'That was sad.  Very very sad.  Sad.  (So why am I laughing so hard???)  So \nso sad.\xef\xbb\xbf'
p645
aS'Power pouff girls \xef\xbb\xbf'
p646
aS'powerppudffgilla\xef\xbb\xbf'
p647
aS"polw34rpu7tfrfrb gti8trlp;sw\nMe trying to write 'powerpuff girls' with my elbow. It was awful.\xef\xbb\xbf"
p648
aS'Powerpuff Girls. OH YEAH\xef\xbb\xbf'
p649
aS'Typing power puff girls with me elbows \n;plloswadswedewpyjuvffghgirtlos :D yay I did it\xef\xbb\xbf'
p650
aS"my dad said if i don't get off the laptop he'll smash my head on \ntheoahso4gh4p9gweguwepugwpgwhwepuug5hgrpjgsruigtvu\xef\xbb\xbf"
p651
aS'I get it\xef\xbb\xbf'
p652
aS'Hilariously enough, their lack of hands and fingers has been referenced and \npoked fun at even in the original show. Heh, go figure.\xef\xbb\xbf'
p653
aS'I got your reference, Ryan :)\n"Who is on first?"\xef\xbb\xbf'
p654
aS'have*\xef\xbb\xbf'
p655
aS'poweerpuff girls\xef\xbb\xbf'
p656
aS"Whats on second. I don't know's on 3rd. Tomorrow's pitcher.  Today's \ncatcher. Why is left field. Because is center field. I don't give a darn in \nshort stop.\xef\xbb\xbf"
p657
aS'"Well, that was easy"\xef\xbb\xbf'
p658
aS'1:18 awesome picture\xef\xbb\xbf'
p659
aS'great video :)\xef\xbb\xbf'
p660
aS'Has anyone else noticed that they have to scratch their balls for mr sacks \nu get it ball sacks\xef\xbb\xbf'
p661
aS'Dear Ryan can u do 100 push ups with out using technology if u do i know \nwhere u live\xef\xbb\xbf'
p662
aS'ik sdfr  sc cdcdgttgfrhywhywsa  yeah I tried typing with  elbows \xef\xbb\xbf'
p663
aS'Powerpuff girls with elbow:\n\nPoweepugf girls\n\nNailed it halfway XD\xef\xbb\xbf'
p664
aS'forever my favorite nigahiga video\xef\xbb\xbf'
p665
aS"For a game almost at it's 15th anniversary,\n\nDear Ryan, can you do Shenmue?\xef\xbb\xbf"
p666
aS'p-ower puhyff gijrlksw I suck at elbow typing XD\xef\xbb\xbf'
p667
aS'Dear Ryan. Can you do DWTS? \xef\xbb\xbf'
p668
aS'powerpuff girls I DID IT AND NO CHEATING\xef\xbb\xbf'
p669
aS"Love that 5 o'clock shadow on their faces. \xef\xbb\xbf"
p670
aS'Too freaking funny!\xef\xbb\xbf'
p671
aS'Dear Ryan, do you have 3 nipples? if you dont, WHY DONT YOU HAVE 3 \nNIPPLES!?!?!\xef\xbb\xbf'
p672
aS'I totes got that Abbott and Costello reference :D\xef\xbb\xbf'
p673
aS'Powderpuff Girls with my elbows on my iPad:\nPowderpuff giir,s\xef\xbb\xbf'
p674
aS'po0;oilpewderfrtg;pljuhkigfgbirl;zsd\n\npretty accurate!\xef\xbb\xbf'
p675
aS";plosdd gf'[;pjk  gv  gfv l   girks\xef\xbb\xbf"
p676
aS'Powerpugfvitls !!\xef\xbb\xbf'
p677
aS'That was brilliant haha\xef\xbb\xbf'
p678
aS'ppoertr6uikmnbvcfrt67890\nu THATS HOW I FUCKING SPELL POWWER PUFFE GIRLSE\xef\xbb\xbf'
p679
aS'1:46\n\n*Captain America Voice*\n\n"I do! I......I understood that reference......"\xef\xbb\xbf'
p680
aS'XD my childhood right there\xef\xbb\xbf'
p681
aS'So nerd typpping woth ellbows on ipad\xef\xbb\xbf'
p682
aS'MY PONIS ARE AWN TEH FLOOR. WELL MY TOYS ARE ON THE Wall.\xef\xbb\xbf'
p683
aS'powedr ppufgfsd ghirs\xef\xbb\xbf'
p684
aS'typed this with my elbow.\xef\xbb\xbf'
p685
aS'WHOOP WHOOP!!\xef\xbb\xbf'
p686
aS"But who's on first?!\xef\xbb\xbf"
p687
aS'Best parody ever.\n\n11/10\xef\xbb\xbf'
p688
aS'Gonna try typing with elbows ,\npowerpuff girl\nI am very surprised on how easy that was .\xef\xbb\xbf'
p689
aS'powerpuff girls was on the tv when i was watching your vid\xef\xbb\xbf'
p690
aS'Abbot and Costello are freaking hilarious.\xef\xbb\xbf'
p691
aS'this look way better than the original powerpuff girls\xef\xbb\xbf'
p692
aS'98 j8us5t y[p-4 2w9iot6ygt jmntgy edwkjcwsaaz I typed "Im typing with my \nelbows"\xef\xbb\xbf'
p693
aS'I was cracking up the whole time and even after the end I still cracked up!\xef\xbb\xbf'
p694
aS'1:30 - 1:50 just watch it\xef\xbb\xbf'
p695
aS'That photo of Mr. Krabs from SpongeBob SquarePants\xef\xbb\xbf'
p696
aS'azswo byhqaar4s 2io5thj w3el;gbvpo0q2as (so hard with elbows)\xef\xbb\xbf'
p697
aS'It is sl hadr to type witg elbows\xef\xbb\xbf'
p698
aS'Do Him got the booty? Him dooo\xef\xbb\xbf'
p699
aS'Who Googled Abbott and Costello? :D\xef\xbb\xbf'
p700
aS'Lol\xef\xbb\xbf'
p701
aS"its too f***ing hard to type with elbows I've spent 3 mins trying to type \nhid but f*** it\xef\xbb\xbf"
p702
aS';ploassssddrpufddf giufdrlsw\nI got fat elbows \\(>o<)/\xef\xbb\xbf'
p703
aS"BASEBALL COACH. IVE SEEN THE VID. WHO'S ON FIRST.\xef\xbb\xbf"
p704
aS'here is my typing without my fingers i am going to type i am cool\n\n\n\n\niuo7qsnmdviooikjl\xef\xbb\xbf'
p705
aS'I love this\xef\xbb\xbf'
p706
aS'i got the reference and laughed so hard xD\xef\xbb\xbf'
p707
aS'omg xD that was pretty good\xef\xbb\xbf'
p708
aS'I got that reference.\xef\xbb\xbf'
p709
aS'LOL\xef\xbb\xbf'
p710
aS'Gonna write power puff girls with my elbows \n\nPoet pug hotld\n\nMmmmm.. Good \xef\xbb\xbf'
p711
aS'Im going to write with my head\xef\xbb\xbf'
p712
aS'Dear Ryan, can you do GGO parody? LOL\xef\xbb\xbf'
p713
aS'[0o3w4er54[p;i8fgfgr nghitrl\nthat was me typing powerpuff girls with my elbow...ha.\xef\xbb\xbf'
p714
aS'Dear Ryan do power ranger\xef\xbb\xbf'
p715
aS'I typing Power Puff Girls with my elbows. >~<\npowefr ;pujff girlf  b niortl;sx \n\nFAIL\xef\xbb\xbf'
p716
aS'dear ryan can you be a yam?\xef\xbb\xbf'
p717
aS'Lol\xef\xbb\xbf'
p718
aS'Dear Ryan can you do angry birds\n\xef\xbb\xbf'
p719
aS'i cant stop watching this super funny!\xef\xbb\xbf'
p720
aS'lol tried to write powerpuff girls this happened poiksswer0uycdcd \nvfujdecki<\xef\xbb\xbf'
p721
aS';;plosdefrt ;puff girlp\n\ni tried with elbow\xef\xbb\xbf'
p722
aS'Okay going to try and write "this is funny as fuck" with my elbow, okay \nhere we go:\n\ntghiks iksx fvujnn byh asd fvjc k,\xef\xbb\xbf'
p723
aS'I WQHROTE3 THKIS WHIOTY ,MYU E4LNBOPPW3 = i WHROTE THIS WITH MY ELBOW\xef\xbb\xbf'
p724
aS'Typeee this suth my elbows lolswagj\nPowerpuff girls \nHoly crap that was difficult\xef\xbb\xbf'
p725
aS'He\'s called Him because.. you couldn\'t have the devil on a kids show in the \n90\'s (?)\n\nand Him "looking like a girl" is just Him being "coded gay" implicating \n(intentional or not) that being a gay, crossdressing or just generally \nflamboyant male (hello disney) is evil. so, yay casual homophobia! * \nnervous giggling *\xef\xbb\xbf'
p726
aS'Powerlpuff girtls NAIDLED IF wifb elbow\xef\xbb\xbf'
p727
aS'We actually have a mr. Sacks in my school \xf0\x9f\x98\x82\xf0\x9f\x98\x82\xef\xbb\xbf'
p728
aS'I did, ryan.\xef\xbb\xbf'
p729
aS'Wow...this is definitely hilarious, Ryan! Thanks for making this video! :D\xef\xbb\xbf'
p730
aS'I love this so much XD\xef\xbb\xbf'
p731
aS'lol!! finger!!! cant scratch ma balls lol!!!\xef\xbb\xbf'
p732
aS'Powerpiff. Hirls elbow \xef\xbb\xbf'
p733
aS"I GOT REFERENCE ALSO I'M SCARED. GOODBYE GIRLS\xef\xbb\xbf"
p734
aS'LOL LOL LOL\xef\xbb\xbf'
p735
aS'Dear Ryan can you turn a banana into a orange\xef\xbb\xbf'
p736
aS'Dear Ryan, how much wood would a woodchuck chuck if a woodchuck could \nchuck?\xef\xbb\xbf'
p737
aS'Dear Ryan, can you scare Sean and include peanut butter into it?\xef\xbb\xbf'
p738
aS'So awesome... loving the references.\xef\xbb\xbf'
p739
aS'omg that was so clever\xef\xbb\xbf'
p740
aS'gonna try to write writing with my elbows -0owe44r5p0-u7yfrrf ntgirt.;fd\xef\xbb\xbf'
p741
aS'can you do slender or you did it all ready\xef\xbb\xbf'
p742
aS'Abbott and Costello are brilliant. :)\xef\xbb\xbf'
p743
aS'I got it sketch about creating a baseball team\xef\xbb\xbf'
p744
aS'I got the reference!!!!\xef\xbb\xbf'
p745
aS'That was cool Ryan!\xef\xbb\xbf'
p746
aS'That was the best episode of Powerpuff Girls EVER!\xef\xbb\xbf'
p747
aS'remember watching this as a kid and Him always scared the living crap out \nof me.\xef\xbb\xbf'
p748
aS'"My ponies are still on the ground"\nPoor Bubbles\xef\xbb\xbf'
p749
aS'Him looks like a transvestite hooker\xef\xbb\xbf'
p750
aS'This is so good youre amazing :)\xef\xbb\xbf'
p751
aS'Puahaha i will never get tired of this video \xef\xbb\xbf'
p752
aS'omg y did you do that omg that fucking scared me at the end holey crap :D\xef\xbb\xbf'
p753
aS'Opossedrdefrwefrpufvf girls...\xef\xbb\xbf'
p754
aS'i shall now attempt to write powerpuff girls with my elbows\np;olweedrpuff gikrls\xef\xbb\xbf'
p755
aS'"Even though we don\'t have fingers, it isn\'t the end of the world." "See \ngirls-" "Because we\'re taking your\'s." "Wait Wha-" "BOOM" the powerpuff \ngirls! "TEEHEE!"\xef\xbb\xbf'
p756
aS'Power puff grills\xef\xbb\xbf'
p757
aS'Dear Ryan,can you do South Park\n\xef\xbb\xbf'
p758
aS'Mjhthryytynhryr (I did it on my I pod so that says mother f*cker\xef\xbb\xbf'
p759
aS'Dear Ryan can you do sponge bob \xef\xbb\xbf'
p760
aS'Dear Ryan can you make Minecraft in real life\xef\xbb\xbf'
p761
aS'That is weird\xef\xbb\xbf'
p762
aS'Whos on first...\xef\xbb\xbf'
p763
aS'hahaha\xef\xbb\xbf'
p764
aS"I'm gonna type *powerpuff girls love apples* with my elbow.\npowerpuff girls love apples\nI did it! Can you?\xef\xbb\xbf"
p765
aS"Po2wse pjvv fueka \n\nWell that's my attempt. O.o\xef\xbb\xbf"
p766
aS'Do gravity falls\xef\xbb\xbf'
p767
aS"what's what they actually say?\xef\xbb\xbf"
p768
aNaS'ppowweerpuiff fgirl!  \n\nCLOSE ENOUGH!\xef\xbb\xbf'
p769
aS"I'm gonna try to write power puff girls with my elbow and i little extra if \nI did it or didn't \nPower Puff Girls yay i did it! <--------wrote all that with my elbow \xef\xbb\xbf"
p770
aS'Me too\xef\xbb\xbf'
p771
aS'Dear Ryan, can you actually make your Candy Crush movie trailer into a real \nforty to fifty minute long movie? :D\xef\xbb\xbf'
p772
aS'Hmm lemme try type with my elbows \n\n\n;.p[-lo.sw2ews3dxrf4ecd;.p/[-jm vg ngbykijmtgrvk,locd e \xef\xbb\xbf'
p773
aS'HAHAHAHAHAH XD \n"I tried to draw mine"\n" Well I tried ti cut mine!"\xef\xbb\xbf'
p774
aS'powerpuffgirls! (written with my elbows!!!!)\xef\xbb\xbf'
p775
aS'Bronies ruined tf2\xef\xbb\xbf'
p776
aS'Liked this with my elbow (on my phone)\xef\xbb\xbf'
p777
aS'This was better then that awful ddr rip-off episode\xef\xbb\xbf'
p778
aS'Him looks fabulous.\xef\xbb\xbf'
p779
aS'how about a parody of adventure time?\xef\xbb\xbf'
p780
aS"Aren't the PPGs  respected heros?\xef\xbb\xbf"
p781
aS"It's kinda gross when buttercup shows her fingers \xf0\x9f\x98\xb3\xef\xbb\xbf"
p782
aS'apple, powerpuuffgirls tgyped with e.l.bow :D\xef\xbb\xbf'
p783
aS'I got the reference XD\xef\xbb\xbf'
p784
aS'Power\xef\xbb\xbf'
p785
aS'DEAR RIAN\n\n\nCAN YOU Flash kids\xef\xbb\xbf'
p786
aS'poaqwsweerppuff bfgid.lx\xef\xbb\xbf'
p787
aS'Dear Ryan, LAMP WARS\xef\xbb\xbf'
p788
aS'This is pretty impressive!\xef\xbb\xbf'
p789
aS'poewerpuffg gbirtls\xef\xbb\xbf'
p790
aS'I got the reference!!! I did that for my final exam in drama class! :P\xef\xbb\xbf'
p791
aS'can you do a spoof of Hetalia??? \xef\xbb\xbf'
p792
aS'dear Ryan can you kill one of your friends\xef\xbb\xbf'
p793
aS'Hello\xef\xbb\xbf'
p794
aS'gonna try to write powepuff girls with my elbow\npoewrtpol;jufgfg\\hgiorflkxd\xef\xbb\xbf'
p795
aS'this was awesome! totally funny. =0) \xef\xbb\xbf'
p796
aS'powertpuff gikrls\xef\xbb\xbf'
p797
aS"Wow I can relate. I've been really isolated b/c I'm different. I got so \ntired of people that my kindness has been sucked and had thoughts of being \na criminal. I've been set up with a psychologist so now I've stabilized \nknowing that I'm on the road to recovery.\xef\xbb\xbf"
p798
aS'Him got that booty\xef\xbb\xbf'
p799
aS'I got the reference :) \xef\xbb\xbf'
p800
aS'Dear Ryan,Do Darude-Sandstorm\xef\xbb\xbf'
p801
aS'wtf\xef\xbb\xbf'
p802
aS'Hahahaha dis is hilarious!!!!! \xef\xbb\xbf'
p803
aS'sing brass goggles\xef\xbb\xbf'
p804
aS'Dear Ryan, do you know confused black girl meme?\xef\xbb\xbf'
p805
aS"I understood the reference from who's on first\xef\xbb\xbf"
p806
aS'They complain about not having fingers but they are able to pick up the \nphone perfectly fine?\xef\xbb\xbf'
p807
aS'Not going to lie, I LOVED this show when I was younger. Him mentioning the \ndemon comment is really freaking me out now. :c\xef\xbb\xbf'
p808
aS'So ducking funny\xef\xbb\xbf'
p809
aS'XD Come on. The Abbott and Costello joke WAS hilarious.\xef\xbb\xbf'
p810
aS"It is Hard. Gto type wiyh my elbkws. (It is hard to type with me elbows.) \nit's especially hard on an iPhone\xef\xbb\xbf"
p811
aS"Oh, I speak elbow, too!\nP999888(:!..****],.':-\xef\xbb\xbf"
p812
aS'how about you give them robotic hands?! everybody love robotic hands!\xef\xbb\xbf'
p813
aS"Who's on first! I got it\xef\xbb\xbf"
p814
aS'Posedpigg /powerpuff same thing \xef\xbb\xbf'
p815
aS'GOOD JOB\ni like PPG\xef\xbb\xbf'
p816
aS'lol\xef\xbb\xbf'
p817
aS'Lol super funny but that hurt my feelings :/\xef\xbb\xbf'
p818
aS"I am on a phone... Let's see how this turns out\nLol mom dc bugbear km I'll gb op Czech. \n\n...My elbow was hitting the suggestions too many times. \xef\xbb\xbf"
p819
aS"Can't they just use both their hands?\xef\xbb\xbf"
p820
aS'I got the reference...\xef\xbb\xbf'
p821
aS'welcome to LSD Ryan.\xef\xbb\xbf'
p822
aS'BAHAHAHAHAHAHA AMAZING! XD\xef\xbb\xbf'
p823
aS'i like base ball \xef\xbb\xbf'
p824
aS'damn... the end O.O\xef\xbb\xbf'
p825
aS'Slyur he weigh hilly l = spelling whit elbos\xef\xbb\xbf'
p826
aS'Is buttercup a girl or boy?\xef\xbb\xbf'
p827
aS'HAHAHAHAHAHA love this love this love this <3\xef\xbb\xbf'
p828
aS'I got 19\xef\xbb\xbf'
p829
aS'Only if power puff girls was drawn like this\xef\xbb\xbf'
p830
aS'pppolsarpujfcf bgvkifrl,xs\xef\xbb\xbf'
p831
aS'How did you make this video?\xef\xbb\xbf'
p832
aS"I'm gonna type with my elbows.  gtnhjkl isx hzfrd \n\nTranslation: This is hard.\xef\xbb\xbf"
p833
aS'Dear ryn can you do spong bob.\xef\xbb\xbf'
p834
aS'Powerpuff girls <-- I wrote with my elbows \xef\xbb\xbf'
p835
aS'u guys HAVE to do Bean Boozled\xef\xbb\xbf'
p836
aS'right in the kokoro ...\xef\xbb\xbf'
p837
aS'Dear Ryan,\nCan you do your own cooking show parody about the Food Network stars?? :)\xef\xbb\xbf'
p838
aS'Me to \nPowerputtv gritted \nholy shit that was hard as shiting\xef\xbb\xbf'
p839
aS"XD are you like a lobster or something? shouldn't you be a her? XD I love \nthis  I always wondered why their hands looked so different\xef\xbb\xbf"
p840
aS'aaaahggggg right on my childhood\xef\xbb\xbf'
p841
aS'OMFG, derp\xef\xbb\xbf'
p842
aS"I'm gonna type niga higa with my elbows... Nigw higa, so clos\n\xef\xbb\xbf"
p843
aS'Powerpuff Girls with elbow: poerpugg guls\n...Did pretty good...guess.\xef\xbb\xbf'
p844
aS'Haha the way I imagine this show for adults is exactly like this video XD \xef\xbb\xbf'
p845
aS'Lol this is funny \xef\xbb\xbf'
p846
aS'"Because we don\'t have fingers we don\'t have fingernails. How do you except \nus to scratch the dirt off our balls?"\xef\xbb\xbf'
p847
aNaS'Where is Mojo Jojo? \xef\xbb\xbf'
p848
aS"[p-opewret5r;p['liugfvfgv bghiuot5r;l.p'e holy crap i suck at that also IM \nSCARRED FOR LIFE\xef\xbb\xbf"
p849
aS'dear ryan can you do call of duty\xef\xbb\xbf'
p850
aS'Dear ryan,can you eat with your stomach?\xef\xbb\xbf'
p851
aS'LOL you look like a monster from incidious. XDDDDD\xef\xbb\xbf'
p852
aS'dear ryan: can you do my little pony?\xef\xbb\xbf'
p853
aS'1:07\nSweetie Belle derelle on the right side of the wall.\nScootaloo is a chicken picture on the left side of the wall.\nGround ponies.\nRyan is a brony.\xef\xbb\xbf'
p854
aS'Powderpuff girls\n\nI wrote this with my wrist\xef\xbb\xbf'
p855
aS'Ahbalem cawhat now reference \xef\xbb\xbf'
p856
aS'I gotta say, this animation was fucking legit.\xef\xbb\xbf'
p857
aS'the professor has a lot of fingers...\xef\xbb\xbf'
p858
aS'"It\'s a pain in my stubs!" \xef\xbb\xbf'
p859
aS'Dear ryan can you go to the moon?\xef\xbb\xbf'
p860
aS'Oh my god I love this XD\xef\xbb\xbf'
p861
aS'My attempt to type with my elbows:\n\nPlarpuff girls\xef\xbb\xbf'
p862
aS'powerpuff girls: with my elbows lol\xef\xbb\xbf'
p863
aS'And with that MLP reference,this video became yet ANOTHER brony chat room. \n-_-\xef\xbb\xbf'
p864
aS'To be honest i am fully mature now, but i STILL LOVE PPF ! :3\xef\xbb\xbf'
p865
aS'Dear Ryan, \nCan you do spongebob\xef\xbb\xbf'
p866
aS"Nonono\nthis is confusion\nWho's on first\nWhat's on second\nIdon'tknow's on third.\nEveryone knows that.\nOh, Him? He's gay.\n(if you couldn't tell already, I got the reference XD)\xef\xbb\xbf"
p867
aS'This just made my day.\xef\xbb\xbf'
p868
aS'Posetphfg hofld (I tried to write powerpuff girls with my elbow)\xef\xbb\xbf'
p869
aS'How do you expect us to scratch the dirt off our balls? HAHAHAHAHAHAHA,THAT \nBLEW MY STOMACH TO BITS!!!!!!\xef\xbb\xbf'
p870
aS'typing with elbow he;;o\xef\xbb\xbf'
p871
aS'They can use their tunges lol\xef\xbb\xbf'
p872
aS'funny\xef\xbb\xbf'
p873
aS'Round ponies \xef\xbb\xbf'
p874
aS"K. Fetjvjykmj rough r/npef \n(I'm writing with my elbows) \n\n\n\n\n\n\n\n\n\n\n\n\nNailed it!!! *Epic Swag explosion in background* \xef\xbb\xbf"
p875
aS'Typing PowerPuff Girls on a computer with my elbow. \nplooplwsrerpop[;oiu8ui8fdfc n nghhuytfgklos\xef\xbb\xbf'
p876
aS'Not even a single beetles reference?\xef\xbb\xbf'
p877
aS'Even if we dont have fingers it doesnt mean its the end of the world. See \nthats why i wanted to say.. So we are taking yours!\xef\xbb\xbf'
p878
aS'in to\xef\xbb\xbf'
p879
aS'Dear Ryan, Can you... ATTACK ON TITAN!?!?\xef\xbb\xbf'
p880
aS'this is very right why the shitty fuck they dont habe fingers?\xef\xbb\xbf'
p881
aS'Dear Ryan,\n\nCan you do the ALS ice bucket challenge?\xef\xbb\xbf'
p882
aS"I'm gonna try to write powerpuff girls with my elbow\npowerpuuff ggirls (it's actually a lot easier than I thought)\xef\xbb\xbf"
p883
aS'dear ryan can you do gravity falls\xef\xbb\xbf'
p884
aS'ahahhaha i got it and im olny 12 so hehehe.i love that skit\xef\xbb\xbf'
p885
aS'alois trancy there I have now attampted to type with my name with my elbows \n(the sharp part)\xef\xbb\xbf'
p886
aS'Dear Ryan can u do adventure time parody\xef\xbb\xbf'
p887
aS'I love that reference...\nso awesome.\xef\xbb\xbf'
p888
aS'Lemme see how hard it is to be a power puff girl...\n\n\n\n\nPowettrouffgoitttrl (elbow typed "power puff girl" )\n\n\n\n\n\nPretty easy if you ask me.\xef\xbb\xbf'
p889
aS"For an game almost at it's 15th anniversary...\n\nDear Ryan, can you do Shenmue?\xef\xbb\xbf"
p890
aS'ppppoewfdfpppuf gierlsx\n\n\n\ntried to write that with my elbow\xef\xbb\xbf'
p891
aS'can you pleeeeeease make another one!!!!!!!:)\xef\xbb\xbf'
p892
aS'I got the reference \xef\xbb\xbf'
p893
aS'I got the abbott and costello refference!\xef\xbb\xbf'
p894
aS".. i can try to right with mi elbow:BLOOP\npower \\\n'l;o.kjhnmjkmn,,.\xef\xbb\xbf"
p895
aS'Have Blossom tried to type emails? Have Buttercup tried to scratch off a \nball? Have Bubbles be loving the Ponies?\xef\xbb\xbf'
p896
aS'Yes I wrote the sec one with my finger\xef\xbb\xbf'
p897
aS"aww I used to watch power puff girls wen I was a little munchkin... lol... \nlov the who's on first reference :) ... nice jurb nigahiga\xef\xbb\xbf"
p898
aS'The westing game\xef\xbb\xbf'
p899
aS'that was AWESOME!\xef\xbb\xbf'
p900
aS'That was... Retarded\xef\xbb\xbf'
p901
aS'I got the Abbot and Costello reference\xef\xbb\xbf'
p902
aS'I get it\xef\xbb\xbf'
p903
aS'Poertguggvgitios\xef\xbb\xbf'
p904
aS'XD\xef\xbb\xbf'
p905
aS"Abbott and Castella: Who's on first? HA\xef\xbb\xbf"
p906
aNaS'I got the reference Ryan! XD\xef\xbb\xbf'
p907
aS'Who else died ??? \xf0\x9f\x98\x82\xf0\x9f\x98\x82\xf0\x9f\x98\x82\xf0\x9f\x98\x82\xf0\x9f\x98\x82\xf0\x9f\x98\x82\xf0\x9f\x98\x82\xef\xbb\xbf'
p908
aS'Dear ryan you should make survive a horror movie part 2\xef\xbb\xbf'
p909
aS'2:52 SWEET JOLLY FUCKING RANCHERS\xef\xbb\xbf'
p910
aS'LOL! The demon from Insidious part killed me!\xef\xbb\xbf'
p911
aS'"Ground ponies!"\n\nMe: BWAHAHAHAHAHAHAHA\n\xef\xbb\xbf'
p912
aS'am i the only one who thought this was actually good.\xef\xbb\xbf'
p913
aS'can you do an avatar last airbender parody... or just bend the elements :P \xef\xbb\xbf'
p914
aS'Dear Ryan, can you do a Barbie movie parody?\xef\xbb\xbf'
p915
aS'NAILED IT\xef\xbb\xbf'
p916
aS'Him is scary in this \xef\xbb\xbf'
p917
aS'If you made a show like this I would watch it.:p\xef\xbb\xbf'
p918
aS'I got the Abbott and Costello reference! =)\xef\xbb\xbf'
p919
aS'dark\xef\xbb\xbf'
p920
aS'That Abbott and Costello reference though! \xef\xbb\xbf'
p921
aS' Everything is awsome\n\xef\xbb\xbf'
p922
aS'I got the reference.\xef\xbb\xbf'
p923
aS'i got the reference \xef\xbb\xbf'
p924
aS'\xc3\xb8\xc3\xb8\xc3\xa6p\xc3\xa5-op0l3w243er5tp+\xc3\xa5\xc3\xb88urfrtf\n\nAtlest I trid\xef\xbb\xbf'
p925
aS'dear ryan can you be a dinosaur.\xef\xbb\xbf'
p926
aS'Weeeeee XD lol\xef\xbb\xbf'
p927
aS'Omg I fucking LOVED that Insidious reference!!! I just subscribed xP\xef\xbb\xbf'
p928
aS'I TG5RFY6P0-EDE 5TRGGTWE  QW8UR5T4YH  JNM65 BT  ASGH987YUDSEE\n\n(i was typing with my shoulder \xef\xbb\xbf'
p929
aS'Dear ryan can you do attack on titan \xef\xbb\xbf'
p930
aS'I get the Abbott and Costello reference! :)\xef\xbb\xbf'
p931
aS'HAHAHAHAHAHAHAHAAHAHAHHAHAHAHAHAHA\xef\xbb\xbf'
p932
aS'RYANNN DO ATTACK ON TITAN OR AVATAR THE LAST AIRBENDER!!!!!!!!!\xef\xbb\xbf'
p933
aS'Dear Ryan how many  beetroots can you eat in I hour\xef\xbb\xbf'
p934
aS'wow.\xef\xbb\xbf'
p935
aS'Dear ryan, can you do more powerpuff girls?\xef\xbb\xbf'
p936
aS'I loved the part where he made the fart noise when she typed in \nappl4tws1dvg342eeeeeeeeee I was laughing so HARD!!\xef\xbb\xbf'
p937
aS'?\xef\xbb\xbf'
p938
aS'Damn\xef\xbb\xbf'
p939
aS'I get the abbot and castello reference! Sry if I spelled their names wrong!\xef\xbb\xbf'
p940
aS'I got the abbot and Castello joke. :(\xef\xbb\xbf'
p941
aS'Dat animation\xef\xbb\xbf'
p942
aS'*Sees thumbnail.* Ryan. You are amazing. ;-;\xef\xbb\xbf'
p943
aS"Abbot and Costello ftw :'D\xef\xbb\xbf"
p944
aS'+Ashanti Ferguson  Watch it! XD\xef\xbb\xbf'
p945
aS"DUI in frying I'm trying to tiype with my elbows\xef\xbb\xbf"
p946
aS'i got the refrence and found it hilarious\xef\xbb\xbf'
p947
aS'Good job\xef\xbb\xbf'
p948
aS'LOL!!!\xef\xbb\xbf'
p949
aS'\xf0\x9f\x98\xb6\xef\xbb\xbf'
p950
aS'Well that escalated quickly.. XD\xef\xbb\xbf'
p951
aS'I got the Abbot & Costello reference!\xef\xbb\xbf'
p952
aS'dear ryan, can you eat mayonaise with pasta?\xef\xbb\xbf'
p953
aS"LMAO ,OMG , I CAN'T STOP LAUGHING !!!!!\xef\xbb\xbf"
p954
aS'Dear Ryan, Can you do Codename: Kids Next Door?\xef\xbb\xbf'
p955
aS'I failed at life\xef\xbb\xbf'
p956
aS'i am typing with my elbows\xef\xbb\xbf'
p957
aS'This stuff is gold in the form of a video\xef\xbb\xbf'
p958
aS'Nicd\xc3\xa9 vid rtanc with elbows\xef\xbb\xbf'
p959
aS'1:01 I can relate to bubbles\xef\xbb\xbf'
p960
aS'Oh goodness! They stole his fingers!!,!\xef\xbb\xbf'
p961
aS'Dear Ryan, can you do an animation video with different animated characters \nfrom various cartoon shows? (The marvelous misadventures of flapjack, \nchowder, courage the cowardly dog, hey arnold, and the tila tequila show \nand spongebob?) \xef\xbb\xbf'
p962
aS'like l-o-l\xef\xbb\xbf'
p963
aS'GROUND PONIES!!! \xef\xbb\xbf'
p964
aS'Dear Ryan do adventure time please\xef\xbb\xbf'
p965
aS'Got gay still funny though\xef\xbb\xbf'
p966
aS'one piece\xef\xbb\xbf'
p967
aS'I got your Abbott and Costello reference immediately! It was genius \xef\xbb\xbf'
p968
aS'haha when him went back he said "weeeeeeeeeeee" hahahahaha\xef\xbb\xbf'
p969
aS'Lol. A pain in the stub\xef\xbb\xbf'
p970
aS'I GOT IT I GOT IT I GOT IT!!! I UNDERSTAND THE REFERENCE!!!!!\xef\xbb\xbf'
p971
aS'Powerpugff : That is how i wrote powerpuff with my elbow\xef\xbb\xbf'
p972
aS"I've always thought that Him was scary... it's the voice... and that he was \nsupposed to be trans... \xef\xbb\xbf"
p973
aS'Funny cause I got the reference\xef\xbb\xbf'
p974
aS"I'm not going to lie.. Him looks like Greg >.>\xef\xbb\xbf"
p975
aS'th\\kim,\xef\xbb\xbf'
p976
aS'More of theese PLEASE!!!\xef\xbb\xbf'
p977
aS'Wow. That was one of my favorite episodes of the powerpuff girls.\xef\xbb\xbf'
p978
aS'Pardon my inner grammar nazi, but shouldn\'t it be "by whom?" at 1:27?\xef\xbb\xbf'
p979
aS'Dear Ryan, Can you please do My little pony :D\xef\xbb\xbf'
p980
aS'Hahahahaha Buttercups hand!!\xef\xbb\xbf'
p981
aS'dear ryan do spongebob plzzzzzzz\xef\xbb\xbf'
p982
aS'Dear Ryan can u do supermans \xef\xbb\xbf'
p983
aS'gonna type with my elbow iuurujugyk\xef\xbb\xbf'
p984
aNaS'Powerpuff girls\xef\xbb\xbf'
p985
aS'Poseef puffn borls\n(Typed with elbows lol)\xef\xbb\xbf'
p986
aS'Dear Ryan, PLEASE do digimon. This was awesome \xef\xbb\xbf'
p987
aS"Powerpucfgid'z\xef\xbb\xbf"
p988
aS'But blossom was holding the phone without any problems what the heck..\xef\xbb\xbf'
p989
aS'Childhood ruined\xef\xbb\xbf'
p990
aS'"Whose on first?" I get the joke! :D That scene was hilarious!\xef\xbb\xbf'
p991
aS'Just wow\xef\xbb\xbf'
p992
aS'You did pretty good for animating for the first time :O\xef\xbb\xbf'
p993
aS'Dear Ryan, would you use One Thousand Years of Pain on Madara?\xef\xbb\xbf'
p994
aS'Dear Ryan, can you be my gay boyfriend?\xef\xbb\xbf'
p995
aS'The crab sounds like the Sam smith song\xef\xbb\xbf'
p996
aS'I tried to cut mine\xef\xbb\xbf'
p997
aS'YES IM NOT THE ONLY ONE WHO KNOWS POWERPUFF GIRLS EXSIS\xef\xbb\xbf'
p998
aS'Dear Ryan, make a comment without google+\xef\xbb\xbf'
p999
aS'lol loved the ending xD\xef\xbb\xbf'
p1000
aS'Lol "my ponies are still on the ground!"\xef\xbb\xbf'
p1001
aS'Wow\xef\xbb\xbf'
p1002
aS'U copied Speedosausage, bad Nigahiga, bad.\xef\xbb\xbf'
p1003
aS"This is now my favorite video of his. And I'm a huge Powerpuff Girls fan. \n>:)\xef\xbb\xbf"
p1004
aS'typing dinosaur with my elbow\ndinosaur\xef\xbb\xbf'
p1005
aS'you ever wondered what would happen if they become teenagers and get on \ntheir period?\xef\xbb\xbf'
p1006
aS'Im going to rypy my name whit my elbo now lotrcn\xef\xbb\xbf'
p1007
aS'They can use their tunges lol\xef\xbb\xbf'
p1008
aS'How can they get 10 fingers in the end if the professor has only 8 fingers? \nMindfucked. ._.\xef\xbb\xbf'
p1009
aS"dear ryan, can u imagine yourself 50 years i'm the future?\xef\xbb\xbf"
p1010
aS'Dear Ryan can you open a laffy taffy with out scicers or any thing sharp or \nby biting it \xef\xbb\xbf'
p1011
aS'I got the Abbott and Costello reference :)\xef\xbb\xbf'
p1012
aS'The ending scared the crap out of me...\xef\xbb\xbf'
p1013
aS'These animated adventures are pretty cool!\xef\xbb\xbf'
p1014
aS'Am i the only one who actually got the Abott and Costello reference\xef\xbb\xbf'
p1015
aS'IM TRYING\n\nLowerpoddbiotpf\xef\xbb\xbf'
p1016
aS'And this is what happens when you mix cartoons with LSD...\xef\xbb\xbf'
p1017
aS'I got the reference xD\xef\xbb\xbf'
p1018
aS'Dear Ryan, can you sing the Kyiomi(Gwiyomi) song ?\xef\xbb\xbf'
p1019
aS'I got the reference, Ryan. I understand\xef\xbb\xbf'
p1020
aS'hehehe i wonder why they want fingers #ifunny #Troll\xef\xbb\xbf'
p1021
aS'Dear Ryan can u do power rangers?\xef\xbb\xbf'
p1022
aS'the mayor wife face at 1:47 though\xef\xbb\xbf'
p1023
aS'......\n\xef\xbb\xbf'
p1024
aS'i like this\nbut the jokes are forced as fuck\nlike i said, i like this\xef\xbb\xbf'
p1025
aS'apple\xef\xbb\xbf'
p1026
aS'Lord e yhgyhh I typed with my eyes closed lol\xef\xbb\xbf'
p1027
aS'They tried to draw or cut! This is fluffing difficult!\xef\xbb\xbf'
p1028
aS"What dafug you ain't give us no finger?\xef\xbb\xbf"
p1029
aS'oh god this vid is his funniest.\xef\xbb\xbf'
p1030
aS'I can spell it\xef\xbb\xbf'
p1031
aS'I got the reference...because of health class. XD\xef\xbb\xbf'
p1032
aS'butter cup: I cut mine *rock music turns on*\xef\xbb\xbf'
p1033
aS'I got it\xef\xbb\xbf'
p1034
aS'all about the nubby hands XD\xef\xbb\xbf'
p1035
aS"1:31-1:50 Haha,Abbott and Costello reference 'Who's On First'  was \nhilarious\xef\xbb\xbf"
p1036
aS'Dear Ryan can you do a kamehameha wave\xef\xbb\xbf'
p1037
aS'Dear Ryan can you teach me the steps to rob a bank\xef\xbb\xbf'
p1038
aS'Hippopotamus cx4p\n\nThe only way I can get the latest version of the iPhone is \nI typed this with my elnow\xef\xbb\xbf'
p1039
aS"BEST POWERPUFF GIRLS I'VE EVER SEEN EVER!!!! XD\xef\xbb\xbf"
p1040
aS'Lol\xef\xbb\xbf'
p1041
aS'bubbles"sometimes i play with my pony and they just fall to the ground" lol\xef\xbb\xbf'
p1042
aS'Right in the childhood xD\xef\xbb\xbf'
p1043
aS'this video was perfect, the animation was way better than it was before and \nthe voice overs were amazing, loved it!\xef\xbb\xbf'
p1044
aS'Ryan sounds just like him\xef\xbb\xbf'
p1045
aS'http://youtu.be/_vycUIW_tsA go to this link :D\xef\xbb\xbf'
p1046
aS'I got the reference.\xef\xbb\xbf'
p1047
aS'Dear RYAN,\ncan u do harlem shake...\nThat would be just awesome.\xef\xbb\xbf'
p1048
aS'the ending was well.... ok I guess xD\xef\xbb\xbf'
p1049
aS'HAHAHAAHAHAHAHAH FREAKING GOOOOOOOOOD <3\xef\xbb\xbf'
p1050
aS'Dear Ryan, can you do Frozen?\xef\xbb\xbf'
p1051
aS'Dear Ryan,\nCan you clap along like a room without a roof?\xef\xbb\xbf'
p1052
aS"I don't care is the shortstop\xef\xbb\xbf"
p1053
aS'Dear ryan can do bleach anime\xef\xbb\xbf'
p1054
aS'Dear Ryan, can you do My Little Pony or be a brony?\xef\xbb\xbf'
p1055
aS'him him\xef\xbb\xbf'
p1056
aS'OMG!!!! hahahahahahahahaha this is better\xef\xbb\xbf'
p1057
aS'Dear Ryan if you were a physico killer how would you attack someone?\xef\xbb\xbf'
p1058
aS'Can you do thor\xef\xbb\xbf'
p1059
aS'Holy shit the animation is really good!\xef\xbb\xbf'
p1060
aS'I got the reference.:p\xef\xbb\xbf'
p1061
aS'why is the green one all manly and emo? like wtf\xef\xbb\xbf'
p1062
aS"I've never watched The Powerpuff Girls and I still found this hilarious.\xef\xbb\xbf"
p1063
aS'I love that you put an Abbot and Costello reference! :D\xef\xbb\xbf'
p1064
aS'Best video ever\xef\xbb\xbf'
p1065
aS'Dear Ryan, turn down for what?\xef\xbb\xbf'
p1066
aS'Aww you made the power puff girls look even CUTER! :) \xef\xbb\xbf'
p1067
aS'Dear Ryan, can do a mad mario episode?\xef\xbb\xbf'
p1068
aS'funny\xef\xbb\xbf'
p1069
aS'This made me want to watch powerpuff girls XD so funny \xef\xbb\xbf'
p1070
aS'dear Ryan: can you do saw\xef\xbb\xbf'
p1071
aS'Lol I got the reference \xf0\x9f\x98\x8b I love this\xef\xbb\xbf'
p1072
aS'Bro i wouldnt mind if the real powerpuff girls werre like this... XD\xef\xbb\xbf'
p1073
aS'childhood show ruined................... but it was awesomely ruined\xef\xbb\xbf'
p1074
aS'"My Poneys are still on the ground" XD\xef\xbb\xbf'
p1075
aS'I got that Abbott and Costello reference.\xef\xbb\xbf'
p1076
aS'I like your original content dislike\xef\xbb\xbf'
p1077
aS'Dear Ryan, can you win the no bell prize?\xef\xbb\xbf'
p1078
aS'my childhooooooooooood ;_____;\nthey would never murder their papa, omg y ryan??? yyyyyy?\xef\xbb\xbf'
p1079
aS'I got that reference xD Hilarious\xef\xbb\xbf'
p1080
aS'Dear Ryan, can you do frozen?\xef\xbb\xbf'
p1081
aS'Dear Ryan, can you do Avatar the Last Airbender?\xef\xbb\xbf'
p1082
aS"''Go ahead and destroy Townsville. We don't like these people anyway.''\nCan't stop laughing.\xef\xbb\xbf"
p1083
aS'Tried to type with my elbows, ended up typing a lot of random stuff and \nopening a Chrome settings page....\xef\xbb\xbf'
p1084
aS'Dear Ryan can you be Ash Ketchum\xef\xbb\xbf'
p1085
aS'Loved it lol\xef\xbb\xbf'
p1086
aS'well at least he told the truth about the powerpuff girls\xef\xbb\xbf'
p1087
aS"Oh my god this is the best! I'm dying! \xf0\x9f\x98\x82\xef\xbb\xbf"
p1088
aS'Dear Ryan, can you rhyme, on a dime, any time?\xef\xbb\xbf'
p1089
aS'Dear Ryan, Can you eat your foot?\xef\xbb\xbf'
p1090
aS'My childhood has gone~~~~~~~\xef\xbb\xbf'
p1091
aS'Wow eyeliner hahaha\xef\xbb\xbf'
p1092
aS"Dear Ryan, can you do Sword Art Online? (I could voice Asuna!) haaaaaa \nthat'd be funny. Did chapter 16.5 happen or not???\xef\xbb\xbf"
p1093
aS'Dear Ryan, are you good at Flappy Bird??\xef\xbb\xbf'
p1094
aS"Don't worry Ryan, I got the Abbot and Costello reference :)\xef\xbb\xbf"
p1095
aS'Dear Ryan .Can you do DBZ Yamcha fails\xef\xbb\xbf'
p1096
aS"Dear ryan can you do a let's play?\xef\xbb\xbf"
p1097
aS'I got the reference \xef\xbb\xbf'
p1098
aS'No.... Childhood ruined... So sad...\xef\xbb\xbf'
p1099
aS'dear ryan,\ncan you do dora?\xef\xbb\xbf'
p1100
aS"I got the who's on first reference so take that the mayor's wife or \ngirlfriend or assistance or whoever the fuck you are who's face we never \nget to see I mean seriously did they run out of ideas for faces or did they \njust get lazy or maybe she just doesn't own a pair a scissors or a comb I \ndon't know anyways funny video Ryan\xef\xbb\xbf"
p1101
aS'Dear Ryan make an animation of spongebob please!\xef\xbb\xbf'
p1102
aS"ABBOTT AND CASTELLO!!!!!!!    \nthe funniest part is i've seen it and i'm only 12 XD\xef\xbb\xbf"
p1103
aS'Dear Ryan do you have a girlfriend?!?!?!\xef\xbb\xbf'
p1104
aS'Dear Ryan can you mention me in your next Dear Ryan video\xef\xbb\xbf'
p1105
aS'Dear Ryan-Can you take a SELFIE??????\xef\xbb\xbf'
p1106
aS'Dear Ryan\nCan you do Barbie?\xef\xbb\xbf'
p1107
aS'Dear Ryan, can you do iCarly? Please? C:\xef\xbb\xbf'
p1108
aS'Dear Ryan, can you do Frozen?\xef\xbb\xbf'
p1109
aS'you just ruined my childhood\xef\xbb\xbf'
p1110
aS'This was brilliant.\xef\xbb\xbf'
p1111
aS'This is so creepy\xef\xbb\xbf'
p1112
aS'Dear Ryan, can you do lamps vs. cats?!?\xef\xbb\xbf'
p1113
aS'Dear Ryan, Can you speedpaint\xef\xbb\xbf'
p1114
aS"Dear Ryan: Can you do Death Note? Coz that'd be awesome!!!\xef\xbb\xbf"
p1115
aS"glad i'm not the only ppg fan\xef\xbb\xbf"
p1116
aS'AWESOME\xef\xbb\xbf'
p1117
aS'gj\xef\xbb\xbf'
p1118
aS'This art style looks like danke puff pants art style \xef\xbb\xbf'
p1119
aS'I just wondering... What the Fluff give those PPG fingers?!\xef\xbb\xbf'
p1120
aS'how hard is it to type with your elbows\nME TRYING: iws iitt reaLLY THJAT HARD\xef\xbb\xbf'
p1121
aS"0['p;[\nl;olfsassgtgfr,/';;[ppli8ufgtrhujhygyi96t5/ldrwe \ni just tried to write power puff girls with my elbows\xef\xbb\xbf"
p1122
aS"100 slot server, Awesome admin, Insane plugins and more all at \n184.17.193.187 sorry if this is considered spam youtubers! Remember short \nand quick advertisements will achieve players. Please repost this if you \nluv me <3 Even if you don't know me <3\xef\xbb\xbf"
p1123
aS'i am typinbg usking my elbows\nrreply by using your elbow\xef\xbb\xbf'
p1124
aS'Got it with my elbow:\nPoeeeeeewesewderpuffhhgitttrls\n\nThat was my friend\n\nPowerpuff girls nailed it\xef\xbb\xbf'
p1125
aS'Ty\nPing wigtntgn my dl bow is \xc3\xb1aard i give up us. Mbvvv duggftjdf\xef\xbb\xbf'
p1126
aS'on your how to be a rapper Omg write it some real lyrics and seriously i \nwould buy it on itunes that beat was awesome\xef\xbb\xbf'
p1127
aS'LOL i lost it at him\xef\xbb\xbf'
p1128
aS'lol\xef\xbb\xbf'
p1129
aS'I get the refrence. I had to watch it in school\xef\xbb\xbf'
p1130
aS'Dear Ryan, could you act gay!\xef\xbb\xbf'
p1131
aS'holy shit funniest vid eve from him lol mr sacksxD\xef\xbb\xbf'
p1132
aS"I'm liking the Abbott and Costello.\xef\xbb\xbf"
p1133
aS"Who's on first?\xef\xbb\xbf"
p1134
aS'Dear Ryan, can u do the zumba?\xef\xbb\xbf'
p1135
aS'Childhood.......now ruined........XD haha lol\xef\xbb\xbf'
p1136
aS'pretty sick animation\xef\xbb\xbf'
p1137
aS'\xf0\x9f\x98\x82\xf0\x9f\x98\x82\xf0\x9f\x98\x82\xf0\x9f\x98\x82\xf0\x9f\x98\x82\xf0\x9f\x98\x82\xef\xbb\xbf'
p1138
aS'hahahhahahha\xef\xbb\xbf'
p1139
aS'best cartoon EVER!!!!!!!!!!!!!!!!!!!!!\xef\xbb\xbf'
p1140
aS'Well that was disturbing.\xef\xbb\xbf'
p1141
aS'Dear Ryan can you do a parody of TMNT?\xef\xbb\xbf'
p1142
aS"How did u make this? It's awesome\xef\xbb\xbf"
p1143
aS'Dear Ryan, can you do The Fast & The Furious?\xef\xbb\xbf'
p1144
aS'Awesome\xef\xbb\xbf'
p1145
aS'I got that abbot and Costello reference :3\xef\xbb\xbf'
p1146
aS"Who's on first, what's on second, I don't know is on third.\xef\xbb\xbf"
p1147
aS'I got the reference\xef\xbb\xbf'
p1148
aS'Dear ryan, can you do spongebob parody? \xef\xbb\xbf'
p1149
aS"Wasn't so funny\xef\xbb\xbf"
p1150
aS"Omfg that was so cute! You're so cute!\xef\xbb\xbf"
p1151
aS'You should continue making these into series!\xef\xbb\xbf'
p1152
aS'Dear Ryan can you survive a zombie apocalypse\xef\xbb\xbf'
p1153
aS'THAT WAS \nAMAZING!!!!!!!!!!!!!!!!!!!!!!!!!!!!!!!!!!!!!!!!!!!!!!!!!!!!!!!!!!!!!!!!!!!!!!!!!!!!!!!!!!!!!!!!!!!!!!!!!!!!!!!!!!!!!!!!!!!!!!!!!!!!!!!!!!!!!!!!!!!!!!!!!!!!!!!!!!!!!!!!!!!!!!!!!!!!!!!!!!!!!!!!!!!!!!!!!!!!!!!!!!!!!!!!!!!!!!!!!!!!!!!!!!!!!!!!!!!!!!!!!!!!!!!!!!!!!!!!!!!!!!!!!!!!!!!!!!!!!!!!!!!!!!!!!!!!!!!!!!!!!!!!!!!!!!!!!!!!!!!!!!!!!!!!!!!!!!!!!!!!!!!!!!!!!!!!!!!!!!!!!!!!!!!!!!!!!!!!!!!!!!!!!!!!!!!!!!!!!!!!!!!!!!!!!!!!!!!!!!!!!!!!!!!!!!!!!!!!!!!!!!!!!!!!!!!!!!!!!!!!!!!!!!!!!!!!!!!!!!!!!!!!!!!!!!!!!!!!!!!!!!!!!!!!!\xef\xbb\xbf'
p1154
aS'All of the questions asked in the video were the exact questions i used to \nask when i was younger!\xef\xbb\xbf'
p1155
aS'I got the reference\xef\xbb\xbf'
p1156
aS'Dear Ryan, Can you do the Rugrats? \xef\xbb\xbf'
p1157
aS'That was funny\xef\xbb\xbf'
p1158
aS"HU' S ON FIRST love the refrence\xef\xbb\xbf"
p1159
aS'Dear Ryan, can you do quadruplets with different genders like boy, girl, \ngay, lesbian.\xef\xbb\xbf'
p1160
aS'well this just crushed my childhood 0_0\xef\xbb\xbf'
p1161
aS'lol to the abott and costello reference\xef\xbb\xbf'
p1162
aS'Really Ryan? Outta ideas or something?\xef\xbb\xbf'
p1163
aS'lllooollll,Dear Ryan can you make a parody of starwars episode IV?\xef\xbb\xbf'
p1164
aS'THIS IS SO FUCKING FUNNY !!!!!!!\xef\xbb\xbf'
p1165
aS'got the reference\xef\xbb\xbf'
p1166
aS"AWW YEAHHHHHHHHHHH!\nPlease do Dexter's Laboratory/Courage The Cowardly Dog/Robotboy/any other \nCN childhood show next:D\xef\xbb\xbf"
p1167
aS"This must've taken so much work...I'm impressed!\xef\xbb\xbf"
p1168
aS'Oh no. My childhood.\xef\xbb\xbf'
p1169
aS'I love this\xef\xbb\xbf'
p1170
aS'Dear Ryan, Can you do Frozen?\xef\xbb\xbf'
p1171
aS'Dear Ryan, Can you do My Little Pony?\xef\xbb\xbf'
p1172
aS'AWESOME!\xef\xbb\xbf'
p1173
aS'Hahahahahah\xef\xbb\xbf'
p1174
aS'Dear Ryan,can you do an kickflip tutorial?\xef\xbb\xbf'
p1175
aS'I totally got that reference \xef\xbb\xbf'
p1176
aS'Yes this is why i subscribed\xef\xbb\xbf'
p1177
aS'I loved this so much XD Made my day! \xef\xbb\xbf'
p1178
aS'that was so f***ed up !!!!!!!!!!! BUT SO AWESOME XD\xef\xbb\xbf'
p1179
aS'Lol wtf\xef\xbb\xbf'
p1180
aS'Stopped at "I tried to cut my fingers". No... that\'s sick. They\'re young \ngirls. This isn\'t an emo parody.\xef\xbb\xbf'
p1181
asS'time'
p1182
ctime
struct_time
p1183
((I2014
I4
I11
I19
I39
I2
I4
I101
I-1
t(dtRp1184
sS'id'
p1185
V_vycUIW_tsA
p1186
s.