(dp1
S'title'
p2
VWoman tries to mug Man with a knife. What he does next is GENIUS!
p3
sS'url'
p4
Vhttp://www.youtube.com/watch?v=_WGmcdPSSsg&feature=youtube_gdata_player
p5
sS'image'
p6
Vhttp://i.ytimg.com/vi/_WGmcdPSSsg/0.jpg
p7
sS'comments'
p8
(lp9
S'Some one tell me were I can get a knife like that XD\xef\xbb\xbf'
p10
aS'*This video was published on March 21, 2014. This video has 4,874,075 \nviews. The number of views is 7 digits long. 21 (the day this video was \npublished) divided by 7 (the digits in the number of views) equals 3. 3 is \nhow many sides a triangle has. A triangle is the symbol of the illuminati.  \nWell hidden, Ryan, but i found out.............RYAN IS IN THE ILLUMINATI!*\xef\xbb\xbf'
p11
aS'Is this guy racist to black people cause its says nigga before his last \nname\xef\xbb\xbf'
p12
aS'Butterfly knives are illegal\xef\xbb\xbf'
p13
aS"How did he get a Balisong? Weren't those illegal? \xef\xbb\xbf"
p14
aS"That is D-Trix's girlfriend \xef\xbb\xbf"
p15
aS"Here's a pun joke. I lost my watch but I didn't have time to look for it\xef\xbb\xbf"
p16
aS'XD\xef\xbb\xbf'
p17
aS'Woman tries to mug Man with a knife. What he does\xe2\x80\xa6: \nhttp://youtu.be/_WGmcdPSSsg\nYessssssssss I hate misleading titles\xef\xbb\xbf'
p18
aS'one day a potato was walking down a sidewalk\nthen a potato eater emerged from the bushes\nhe ate the potato as the potato yelled "NOOOOO"\npotato eater licked his lips in satisfection\nbut then super banana came to the rescue as he was about to eat another \npotato\nthe super banana "banana split kicked" his face\nthen he got eaten\nlittle did the potato eater know that super swag tomato was behind him\nthe tomato super swaggy slapped him with a "ratataaa"\nthe potato eater died and no longer eated the potatos and bananas\n\nbuy gold.\xef\xbb\xbf'
p19
aS'Damn. And I wanted D-Trix to be MY girlfriend. : - (\xef\xbb\xbf'
p20
aS'Nguyen is one of my best friends last name... 0-0\xef\xbb\xbf'
p21
aS'Ryan Higa, you are the wordplay master of the world.\xef\xbb\xbf'
p22
aS"Ryan I'm Asian too\xf0\x9f\x98\x91\xf0\x9f\x8d\x9c\xef\xbb\xbf"
p23
aS'How does this vid have over 100k likes!?!? Ryan made over 100$ for this 5 \nmin long vid? LOL!\xef\xbb\xbf'
p24
aS'READ THIS COMMENT TO SER THE BEST COMMENT EVER!!\n\n\n\n\n\n\n\n\n\n\n\n\nLol :P\xef\xbb\xbf'
p25
aS"She's so FUCKing pretty, like I wanna merry her..... Woooooooooo!!!!!!!!! \nShe said yes\xf0\x9f\x98\x82\xf0\x9f\x98\x82\xf0\x9f\x98\x82\xf0\x9f\x98\x82\xf0\x9f\x98\x82\xf0\x9f\x98\x82\xf0\x9f\x98\x82\xef\xbb\xbf"
p26
aS"Does Ryan's butterfly knife come in Fade?\xef\xbb\xbf"
p27
aS'9gag much?\xef\xbb\xbf'
p28
aS'omg omg omg omg omg so so sooooooooooo funny!!!!!!!!!!!!!\xef\xbb\xbf'
p29
aS'jeanyus\xef\xbb\xbf'
p30
aS'like if u know the name of the butterfly knife by playing tf2\xef\xbb\xbf'
p31
aS'Every 9gag title ever.\xef\xbb\xbf'
p32
aS'Omg lolsies alot\xef\xbb\xbf'
p33
aS'That is a sick butterfly knife\xef\xbb\xbf'
p34
aS'Shane Dawson does this in nearly every single video..\xef\xbb\xbf'
p35
aS'THIS VIDEO HAS A MISLEADING TITLE. unsub and report. lol\xef\xbb\xbf'
p36
aS'What he does*\xef\xbb\xbf'
p37
aS'Genius!\xef\xbb\xbf'
p38
aS' vsauce every time\xef\xbb\xbf'
p39
aS'I LOVE IT\xef\xbb\xbf'
p40
aS'Duke Tha Killa , \n\nsad\xef\xbb\xbf'
p41
aS'Gimme dat butterfly\xef\xbb\xbf'
p42
aS'Lol\xef\xbb\xbf'
p43
aS"What's the song in the background when Ryan's explaining about the video? \nAnd don't say darude sandstrom.\xef\xbb\xbf"
p44
aS'EPIC!!!!!!!!!!!!!!!!!!!!!!!!!!!!!!\xef\xbb\xbf'
p45
aS'I love it when you link random things together to make something sound \nawesome\xef\xbb\xbf'
p46
aS'...\xef\xbb\xbf'
p47
aS'Lol \xef\xbb\xbf'
p48
aS'Translation: Woman tries to gives a mug to a man that has a knife, what he \ndoes is retarded.\n\n\n\n\n\n\n\n\n\nJK\xef\xbb\xbf'
p49
aS"I've been a fan a long time and now i'm watching them all again for the \n100th time. One thing is for sure, a video from Ryan never dissapoints!\xef\xbb\xbf"
p50
aS'cough romanatwoodvlogs cough \xef\xbb\xbf'
p51
aS'Shane dawson.\xef\xbb\xbf'
p52
aS'dude he has a butterfly knife so swg :3\xef\xbb\xbf'
p53
aS'Gay \xef\xbb\xbf'
p54
aS'that girl though! b.e.a.u.t.i.f.u.l.!\xef\xbb\xbf'
p55
aS"The misleading titles don't get me it's those darn thumbnails! \xef\xbb\xbf"
p56
aS'My last name is Nguyen\xef\xbb\xbf'
p57
aS'*fake*\xef\xbb\xbf'
p58
aS'balisong knife lol\xef\xbb\xbf'
p59
aS'I have the same knife\xef\xbb\xbf'
p60
aS'I like dukethakilla but he does that A LOT!!!!!\xef\xbb\xbf'
p61
aS'ugh yes it was misleading lol\xef\xbb\xbf'
p62
aS'Ryan Higa.. You are amazing! :)\xef\xbb\xbf'
p63
aS'Stop \xef\xbb\xbf'
p64
aS'\n\xef\xbb\xbf'
p65
aS"I think your videos are the only ones I enjoy clicking even with misleading \ntitles!!! I mean seriously WHO DOESN'T ENJOY EVERY VIDEO YOU POST OMG. \nHELLA HILARIOUS :-) \xef\xbb\xbf"
p66
aS'I........i .......kkkilllle..d.......threee......peopl......e\xef\xbb\xbf'
p67
aS'huh.. butt hurt?\xef\xbb\xbf'
p68
aNaS"1: Why did the chicken cross the road?\n\n2: I dunno???\n\n1: to get to the gay guys house.\n1:knock knock?\n\n2: who's there?\n\n1: the chicken! \n\n\xf0\x9f\x98\x82\xf0\x9f\x98\x82\xf0\x9f\x98\x82\xf0\x9f\x98\x82\xf0\x9f\x98\x82\xf0\x9f\x98\x82\xf0\x9f\x98\x82\xef\xbb\xbf"
p69
aS'I was wondering why the baseball was getting bigger and then it hit me\xef\xbb\xbf'
p70
aS'The end is awesome \xef\xbb\xbf'
p71
aS'that girl is pretty xD\xef\xbb\xbf'
p72
aS"Aah ye i can totally relate, it's mostly vloggers now, like using stupid \ntitles i\n-.- i don't even watch half of them now because of that...\xef\xbb\xbf"
p73
aS'Lol my last name is also Nguyen\xef\xbb\xbf'
p74
aS'can you make a video about One piece\xef\xbb\xbf'
p75
aS'2:46-3:47 lol I kept watching that part over. The first time i didnt get \nit, but the 2nd time, I was.laugjing... Such jeanus puns...\xef\xbb\xbf'
p76
aS'Damnnnnn\xef\xbb\xbf'
p77
aS'So true\xef\xbb\xbf'
p78
aS'Wawwww! :(:(:( But I do get your point.\xef\xbb\xbf'
p79
aS'Nothing like tittle but though lol\xef\xbb\xbf'
p80
aS'That girl was kinda pretty\xef\xbb\xbf'
p81
aS'I have the same mug -_-\xef\xbb\xbf'
p82
aS'Butterfly nife\n\xef\xbb\xbf'
p83
aS'I am literally sitting here flipping my balisong as he flips his out, and I \nmay or may not have screamed like a little girl.  I thought I was the only \none who flips to youtube videos\xef\xbb\xbf'
p84
aS'This as TMZ name all over it\xef\xbb\xbf'
p85
aS'Yolo\xef\xbb\xbf'
p86
aS'Dear Ryan,\nCan u sit on a couch?\xef\xbb\xbf'
p87
aS'Nice butterfly knife \xef\xbb\xbf'
p88
aS"I hope that the majority of the views because people clicked the link \nexpecting one of the videos he's making fun of\xef\xbb\xbf"
p89
aS'Sean Fujiyoshi!\xef\xbb\xbf'
p90
aS'boring\xef\xbb\xbf'
p91
aS"Fucking thank you amen (I'm an atheist)\xef\xbb\xbf"
p92
aS'Basically Buzzfeed\xef\xbb\xbf'
p93
aS'YA F\xc3\x9a\xc4\x86K YA Jokes\xef\xbb\xbf'
p94
aS"Like my comment if that's u.\xef\xbb\xbf"
p95
aS'Yeah fck shaytards\xef\xbb\xbf'
p96
aS'Is that a butterfly knife?\xef\xbb\xbf'
p97
aS'I love using a balisong\xef\xbb\xbf'
p98
aS'I got tricked\xef\xbb\xbf'
p99
aS'She is sooooooo fuckin sexy !!!\xef\xbb\xbf'
p100
aS'She should have said " definitely JEANLESS " :D\xef\xbb\xbf'
p101
aS'I just got Fujiyoshied.\xef\xbb\xbf'
p102
aS'So, did you? Come on. You can tell us!\xef\xbb\xbf'
p103
aS'i love it\xef\xbb\xbf'
p104
aS'Way to pun-ish your mugger.\xef\xbb\xbf'
p105
aS'Wow! I was on HygaTv and i saw the making of this video, so I searched for \nthe real video on this channel. I was just scrolling and then i found this \nvideotitle and I thought: I got to see this one too!! And then I found out \nTHIS WAS THE VIDEO WHERE I WAS LOOKING FOR!! :D (bad grammer, I am still \nlearning english:))\xef\xbb\xbf'
p106
aS'Yo, I\'m gonna spread the wird about the "I\'m Dyeing" thing!\xef\xbb\xbf'
p107
aS"Hey theres this video called the longest living elder! GOTTA WATCH IT!\n\nIts a video about a guy who managed to get his sim to be 160 YEARS OLD! \nGOTTA WATCH!\nYou're right Ryan XD What a dissapointment.\xef\xbb\xbf"
p108
aS'You are *Genius* Had no Idea how you came up with the *Illuminati*\xef\xbb\xbf'
p109
aS'XDDDD Eye yam dyeing hear\xef\xbb\xbf'
p110
aS'HAHAHAH\xef\xbb\xbf'
p111
aS'That typical 9Gag title though !\xef\xbb\xbf'
p112
aS'just so you guys know i was one of the people tricked by the title T_T \xef\xbb\xbf'
p113
aS'Woman tries to give a mug to a man who has a knife XD\xef\xbb\xbf'
p114
aS'Cool knife, what is it?\xef\xbb\xbf'
p115
aS'Dang son pun after pun after pun. \xef\xbb\xbf'
p116
aS'T^T you tricked me!!! Wahhh ToT\xef\xbb\xbf'
p117
aS'Injeanish! \xef\xbb\xbf'
p118
aS'ahem Shay Carl ahem\xef\xbb\xbf'
p119
aS'9Gag be like: What what this guy does next will leave you in tears..\xef\xbb\xbf'
p120
aS'Ryan higa is the king of puns\xef\xbb\xbf'
p121
aNaS'4:22   LOL\xef\xbb\xbf'
p122
aS'Yellow Journalism?\xef\xbb\xbf'
p123
aS'You are my favourite youtuber if you could replie I would probably have a \nseizure\xef\xbb\xbf'
p124
aS'In a world were a father and his son must do anything in their power to \novercome poverty, they must also learn the true meaning of family bonds to \novercome any obstacle that may come their path. Witness as this family of \ntwo lift one another to make through to the end of this dilemma. Coming to \na theater near you.\nSummer 2016\nBoner Soup\xef\xbb\xbf'
p125
aS'Ahem, lisbug\xef\xbb\xbf'
p126
aS'Obnoxious\xef\xbb\xbf'
p127
aS'this guy is definitely genius :p\xef\xbb\xbf'
p128
aS"This is why I don't watch Shane Dawson....\xef\xbb\xbf"
p129
aS"I'm calling u out\xef\xbb\xbf"
p130
aS'The man who can out pun the pun queen- fish.\xef\xbb\xbf'
p131
aS'You ALWAYS Have a Point ;-) ;-) :-D :-D :-D ;-D ;-D :-D ;-)\xef\xbb\xbf'
p132
aS'+nigahiga \xef\xbb\xbf'
p133
aS'dear ryan, can you be the walking dead?\xef\xbb\xbf'
p134
aS"Ryan and his puns!!!:D :'D\xef\xbb\xbf"
p135
aS'where tf did that mug came from ? from her pocket ? Lol\xef\xbb\xbf'
p136
aS'I so agree about the titles \xef\xbb\xbf'
p137
aS'The title is more of a pun than a misleading title\xef\xbb\xbf'
p138
aS'i love this channel\xef\xbb\xbf'
p139
aS'*cough* buzzfeed *cough*\xef\xbb\xbf'
p140
aS'PINKIE PIE RULES\xef\xbb\xbf'
p141
aS'I still cannot get over the puns! xD\xef\xbb\xbf'
p142
aS'Fucking upworthy. Hate that shit.\xef\xbb\xbf'
p143
aS'Ha ha ha:D\xef\xbb\xbf'
p144
aS'There was a troll on the internet saying there was an outbreak in somewhere \nin my country\xef\xbb\xbf'
p145
aS"Tats Megan batoon Dtrix's gf is Lauren\xef\xbb\xbf"
p146
aS'Fuck you dude. \xef\xbb\xbf'
p147
aS'\n\xef\xbb\xbf'
p148
aS'wow im gona sue u f4 makeign me clikd beucs mics;leading tile wow *sues*\xef\xbb\xbf'
p149
aS'Omg I got tricked!!!!!!!!!!\xef\xbb\xbf'
p150
aS'to ozapenguin you think alot\xef\xbb\xbf'
p151
aS'I love this video\xef\xbb\xbf'
p152
aS'I unsubscribed LOL\xef\xbb\xbf'
p153
aS'you now what I learned niahiga YOUR AWSOME\xef\xbb\xbf'
p154
aS'you a bitch\xef\xbb\xbf'
p155
aS'Pun Wars!!!\xef\xbb\xbf'
p156
aS'Butterfly Knife - TF2 Spy Knife\xef\xbb\xbf'
p157
aS'Aww... Balisong/Butterfly knives are illegal in Canada ;-; \xef\xbb\xbf'
p158
aS'Lol, the waitress\'s name is "Yu Nguyen"\n\nIt\'s pronounced "You win" to everyone who doesn\'t know\xef\xbb\xbf'
p159
aS"Niga higa are you sure you are not vanoss's lost brother?\xef\xbb\xbf"
p160
aS'2:03 "what?" XD\xef\xbb\xbf'
p161
aS'whats the backround music?\xef\xbb\xbf'
p162
aS'hahaha hilarious!\xef\xbb\xbf'
p163
aS'lol why would you give the knife back  if it was your knife XD lol good vid \ndude. all you said in that video is true\xef\xbb\xbf'
p164
aS"That is why I don't watch Shane Dawson\xef\xbb\xbf"
p165
aS'3:28 Dat face though\xef\xbb\xbf'
p166
aS'ikr\xef\xbb\xbf'
p167
aS"SO THAT'S HOW YOU PRONOUNCE NGUYEN\xef\xbb\xbf"
p168
aS'Your fucking awesome nigahiga\xef\xbb\xbf'
p169
aS"Does Ryan actually know how to use butterfly knife? That's badass!\xef\xbb\xbf"
p170
aS'"Yu Nguyen" \niseewhatyoudidthere.jpg\xef\xbb\xbf'
p171
aS'#first world problems. \xef\xbb\xbf'
p172
aS'I love this video.It is so hilarious\xef\xbb\xbf'
p173
aS'Lol my name is Vu Nguyen\xef\xbb\xbf'
p174
aS'HAHAHA LOL\xef\xbb\xbf'
p175
aS'Puns\xef\xbb\xbf'
p176
aS'Was that a butterfly knife from csgo?\xef\xbb\xbf'
p177
aS'That sir is JEANASS!!!\xef\xbb\xbf'
p178
aS'*cough cough* tyler Oakley shane Dawson conner franta joey graceffa\xef\xbb\xbf'
p179
aS'How is the girls name supposed to be pronounced, that part gor me stumped\xef\xbb\xbf'
p180
aS'ryan higa u troll..... Woman tries to mug Man with a knife. What he does \nnext is GENIUS!\xef\xbb\xbf'
p181
aS'Hehe! Awesome :)\xef\xbb\xbf'
p182
aS'ThAt girl is so pretty\xef\xbb\xbf'
p183
aS'hes right\xef\xbb\xbf'
p184
aS"You remind me of my friend Max when he wasn't a jerk.\xef\xbb\xbf"
p185
aS'Dear Ryan, can u hunt ghosts\xef\xbb\xbf'
p186
aS'so u are asian. score!!\xef\xbb\xbf'
p187
aS'I saw this one thing on yahoo "you\'ll never believe where this baby was \nfound!"  then I read it. a church... the baby was found in a church\xef\xbb\xbf'
p188
aS'Your wasting my time!!!!\xef\xbb\xbf'
p189
aS'Great video Ryan!!\xef\xbb\xbf'
p190
aS'I thought it was about puns \xef\xbb\xbf'
p191
aS'Nice\xef\xbb\xbf'
p192
aS'the comment number is 9000, cant have that\xef\xbb\xbf'
p193
aS"ha i almost didn't watch it because of the title...\xef\xbb\xbf"
p194
aNaS'You look like vanossgamimg\xef\xbb\xbf'
p195
aS'Cough Shane Dawson cough\xef\xbb\xbf'
p196
aS'Happy b-day, Jamie!!\xef\xbb\xbf'
p197
aS'That was so awesome :-D \xef\xbb\xbf'
p198
aS"Tats Megan batoon dtrix's gf is Lauren\xef\xbb\xbf"
p199
aS'0:56 Shane Dawson \xef\xbb\xbf'
p200
aS'Eyup!\xef\xbb\xbf'
p201
aS'I laughed so hard\xef\xbb\xbf'
p202
aS"Lol I thought it'd be a Skit\xef\xbb\xbf"
p203
aS'true lol\xef\xbb\xbf'
p204
aS"I'm not gonna flag this vid but how do you flag vids\xef\xbb\xbf"
p205
aS'is this one of "how to" videos?\xef\xbb\xbf'
p206
aS'wheres the teehee\xef\xbb\xbf'
p207
aS"I'm suprise Megan even appeared in the video.\xef\xbb\xbf"
p208
aS'Reasons of misleading titles:\n1. They want all your attention and their begging for fame... everywhere\n2. They trolled you for no good reason\n3. BOREDOM \xef\xbb\xbf'
p209
aS'if you click ctrl and w at the same time the graphics for a video is much \nbetter\xef\xbb\xbf'
p210
aS'Your so *PUNNY*\xef\xbb\xbf'
p211
aS'this is pure genius.\xef\xbb\xbf'
p212
aS'CNN is the biggest in this area :)\xef\xbb\xbf'
p213
aS'Misleading titles are like misleading trailers... IM LOOKIN AT U WATCH DOGS\xef\xbb\xbf'
p214
aS"That girl is so freakin cute if that's ur gf ur lucky\xef\xbb\xbf"
p215
aS'this is sooo true\xef\xbb\xbf'
p216
aS"I have that same situation on facebook, title says: 'this girl took her \nclothes off in front of camera and killed herself after her dad came in!!!' \nand then when you click on it they want you to upload this video in \nfacebook first before you can watch the video -.-\xef\xbb\xbf"
p217
aS'This guy is... AMASIAN! *rimShot*\xef\xbb\xbf'
p218
aS'The Legend of misleading titles is Philip DeFranco\xef\xbb\xbf'
p219
aS'I was tricked:(\xef\xbb\xbf'
p220
aS"I....can't beat him in this game. :)\xef\xbb\xbf"
p221
aS'Cold steel paradox?\xef\xbb\xbf'
p222
aS' Haha\xef\xbb\xbf'
p223
aS'Lol\xef\xbb\xbf'
p224
aS'In 3:16 you can see the back of the card and it can tell it\'s blank. they \nused a different card for the word "go" XD\xef\xbb\xbf'
p225
aS'+1\xef\xbb\xbf'
p226
aS'I have the same exact knife :)\xef\xbb\xbf'
p227
aS'Lol it tricked me\xef\xbb\xbf'
p228
aS'Those puns...\xef\xbb\xbf'
p229
aS'lol\xef\xbb\xbf'
p230
aS"To all the people who disliked this video there are over one million people \nwho liked so really we don't care and that's your opinion \xef\xbb\xbf"
p231
aS'I got tricked to this title\xef\xbb\xbf'
p232
aS'THAT WAS AMAZING!!! XD\xef\xbb\xbf'
p233
aS'yu nguyen yay her name is vietnamese i have the same last name too\xef\xbb\xbf'
p234
aS" To all of those who didn't watch all the way through, you have to\xef\xbb\xbf"
p235
aS'son of a bitch i fell for it\xef\xbb\xbf'
p236
aS'Ok then....\xef\xbb\xbf'
p237
aS'pewdiepie\xef\xbb\xbf'
p238
aS'I HAVE THOSE MUGS! :DDD\xef\xbb\xbf'
p239
aS'I can honestly say THIS was the first video that I ever came upon where the \ntitle was misleading... but the puns... omg the puns! Hilarious.\xef\xbb\xbf'
p240
aS'*w2s*\xef\xbb\xbf'
p241
aS'How do u come up with all these puns\xef\xbb\xbf'
p242
aS'BUTTERFLY KNIFE!!!!!!!!!!!!!!!!!!!!!!!!!!!\xef\xbb\xbf'
p243
aS'XD\xef\xbb\xbf'
p244
aS'It is a buterfly knife\xef\xbb\xbf'
p245
aS'This is all PVP style. \xef\xbb\xbf'
p246
aS'Butterfly knife\xef\xbb\xbf'
p247
aS'You eat ass\xef\xbb\xbf'
p248
aS'lol\xef\xbb\xbf'
p249
aS"That's true Ryan that's true\xef\xbb\xbf"
p250
aS'He looks like vanossgaming\xef\xbb\xbf'
p251
aS'This reminds me of the rickroll\xef\xbb\xbf'
p252
aS'How many people watched a music video because of a misleading title?\xef\xbb\xbf'
p253
aS'DID ANYONE ELSE READ "Women tries to HUG man with knife" ?!?!!?\xef\xbb\xbf'
p254
aS'Haha NICE\xef\xbb\xbf'
p255
aS'Lol comments hi poods om swedish what do u thinking abouth My vids om 13 \nyers Old and you are My bigest fan idol whathewer \nI realy preshyate that u make youtube vids and that u Reading this \nAnd all u haters why dislike? Dont anser that bekos i dont Know. \nAnd by da Way poods u Will her \xc3\xa0 song thats gana make me famos Lol just \nkiding now IT starts \n\n\n\nHi poods im gana se u ond day stupid autokorect \nAnd by the why dont Judge My stavfel bekos i dont now what IT Cals in \nenglish \n\n\n\nNow im going to be the new Justin berber \nMy song skils are so owerd Powerd \n\nByt i djust kiding abouth biber lol\n\n\n\n\nHahaha im going to get ritch. \n\nAnd pewds sorry for spaming a sooooo loooongggggg letttterrrr. \n\nAnd se ya beabs lol kid. Brofist\n\n\n\n\n\n\n\nAnd pewds u can do what u whant With this tingy. But dont lik IT \nplzzzzzzzzzzzzz bbbbbbyyyy and brofist agennn sorry My english im \xc3\xa0 13 yers \nboy that coms from sweden so dont judge\xef\xbb\xbf'
p256
aS'i though butterfly knifes were banned in the us\xef\xbb\xbf'
p257
aS'The girl is very attractive :D\xef\xbb\xbf'
p258
aS'l once saw a video titled "beluga almost kills little girl" and it was just \na beluga tapping on the glass in front of a little girl. \xef\xbb\xbf'
p259
aS'flagged for misleading title. JK\xef\xbb\xbf'
p260
aS'Lol the beginning was misleading, then it wasnt. But still pretty funny\xef\xbb\xbf'
p261
aS'Windows: while watching the video, press Ctrl, Q see what happens (its \nmagical) \xef\xbb\xbf'
p262
aS'Click this link to see a woman who mugs a man with a knife and what the man \ndoes next is genius Woman tries to mug Man with a knife. What he does next \nis GENIUS!\xef\xbb\xbf'
p263
aS'WOW..!!!!!!!1 That trick u did Ryan was AMAAAZING!!\xef\xbb\xbf'
p264
aS'PFFT, I recognize that knife immediately. Bear and Sons Balisong Trainer. I \nuse the same thing to flip!\xef\xbb\xbf'
p265
aS'I know one: Giant wolves.\xef\xbb\xbf'
p266
aS'You trolled us lol.\xef\xbb\xbf'
p267
aS'CHEKOUT MY BACKFLIP VIDEOS PLZ YOU WILL NOT REGRET IT!!!!!\xef\xbb\xbf'
p268
aS'WOW!!!!!! nice wordplay :)\xef\xbb\xbf'
p269
aS'I honestly though this would be a woman with a knife trying to mug a \nman..... I was laughing like an idiot when I saw what u actually meant \n...\xf0\x9f\x98\x85\xf0\x9f\x98\x85\xef\xbb\xbf'
p270
aS'So basically like BFvsGF with the misleading titles \xef\xbb\xbf'
p271
aS'Haha\xef\xbb\xbf'
p272
aS'Ryan you should of done a ken roll over\xef\xbb\xbf'
p273
aS'lemme get that knife bro \xef\xbb\xbf'
p274
aS'your a god\xef\xbb\xbf'
p275
aS"She's so pretty \xef\xbb\xbf"
p276
aS'Yo Im dead.......ok bad pun^_^\xef\xbb\xbf'
p277
aS'Lol I love this video wanted to watch this for a long time because the \ntitle got me\xef\xbb\xbf'
p278
aS'I love word plays\xef\xbb\xbf'
p279
aS'Ryan you should GTFO those sites.\xef\xbb\xbf'
p280
aS'Dope\n\xef\xbb\xbf'
p281
aS'got tricked, still watched\nnice one!\xef\xbb\xbf'
p282
aS'Who was the girl in the video?\n\xef\xbb\xbf'
p283
aS'At first I thought it said.. "Women tried to HUG a man with a knife." Lol \n:D\xef\xbb\xbf'
p284
aS'Yu Nguyen?? Is she Vietnamese?\xef\xbb\xbf'
p285
aS"ryan, where's teddy?\xef\xbb\xbf"
p286
aS"U fuckin' whore\xef\xbb\xbf"
p287
aS"You're an idiot.\xef\xbb\xbf"
p288
aS'That was an awsome butterfly knife trick Higa.\xef\xbb\xbf'
p289
aS'Thank u!\xef\xbb\xbf'
p290
aS'u r right\xef\xbb\xbf'
p291
aS'I got tricked\xef\xbb\xbf'
p292
aS'I=Him and Meghan would make a really cute couple\xef\xbb\xbf'
p293
aS'Why does this make me think of omegle\xef\xbb\xbf'
p294
aS'Poopy show\xef\xbb\xbf'
p295
aS'every pun was genius my girlfriend didnt understand most of it, sucks cause \ni found it hilarious!!!\xef\xbb\xbf'
p296
aS'Leik dsi if u crie ervy tiem\xef\xbb\xbf'
p297
aS'paradox\xef\xbb\xbf'
p298
aS'Ur so cute!\xef\xbb\xbf'
p299
aS'Damm u good at speeches\xef\xbb\xbf'
p300
aS'Best video ever!\xef\xbb\xbf'
p301
aS'dear ryan\ncan u ultimate word battle mets bucket hat guy or jimmy fallon?\xef\xbb\xbf'
p302
aS'He looks like vanossgaming\xef\xbb\xbf'
p303
aS'what he does at 5:46 will shock you. number seven is so obvious. \xef\xbb\xbf'
p304
aS"Buzz quote does this all the time and it ticks me off because they don't \nhave a rating system or a comment system so there is no way of warning \nother people that the title misleads them\xef\xbb\xbf"
p305
aS"This is misleading as fuck, but I knew Nigahiga wouldn't upload such a \nvideo.\xef\xbb\xbf"
p306
aS'That girl has nice armpits\xef\xbb\xbf'
p307
aS'Did I get it right ? You made a video with a Misleading Title to protest \nagainst Misleading Titles ..?\xef\xbb\xbf'
p308
aS'he just ruined his trousers........\xef\xbb\xbf'
p309
aS'What is geniush?\xef\xbb\xbf'
p310
aS" \nDear person reading this,\nMaybe some of you are feeling worthless and insecure at the moment, but you \nshould know that you are a beautiful human being inside and out, and you \ndeserve to be happy ! So just keep trying and someday your hard work will \npay off and you will inspire others to do great things ! It's not about how \nhard you hit, its about how hard you can get hit and keep moving forward, \nthat's what make's a true champion ! I hope you'll have a wonderful day ! :)\nMaybe this comment helped you a bit ! \nSincerely,\nMe\xef\xbb\xbf"
p311
aS'That balisong tho\xef\xbb\xbf'
p312
aS'tis is hilarious\xef\xbb\xbf'
p313
aS'I wasn\\t really tricked, i just thought it was gonna be a really funny \nskit.\xef\xbb\xbf'
p314
aS'Like if you cry everytime.\xef\xbb\xbf'
p315
aS'that was genius\xef\xbb\xbf'
p316
aS'that was geish\xef\xbb\xbf'
p317
aS'U mad bro .^. Couse u just cut ur pants whit knife? .^.\xef\xbb\xbf'
p318
aS':(\xef\xbb\xbf'
p319
aS'I was tricked by a title once I watched for a little then Jeff the killer \ncame outta no where and scared the heck outta me\xef\xbb\xbf'
p320
aS'I thought this would be a joke like, she tried to mug a guy who had a \nknife, and he used it.\xef\xbb\xbf'
p321
aS'154K now\xef\xbb\xbf'
p322
aS'Definition of misleading titles: Smosh\xef\xbb\xbf'
p323
aS'Nice butterfly knife\xef\xbb\xbf'
p324
aS'The lady is so pretty <3 \xef\xbb\xbf'
p325
aS'Do you wear pampers??\xef\xbb\xbf'
p326
aS'Games on ROBLOX are worse its like it says spongebob land but it is a small \nmap that only has a toilet or something stupid like that\xef\xbb\xbf'
p327
aS'did u really cut a part of ur jeans?\xef\xbb\xbf'
p328
aS'(\xe2\x80\xa2_\xe2\x80\xa2) ..\n\xe2\x88\xab\\ \\___( \xe2\x80\xa2_\xe2\x80\xa2)\n_\xe2\x88\xab\xe2\x88\xab _\xe2\x88\xab\xe2\x88\xab\xc9\xaf \\ \\\n\nWhat u looking at ?\nScroll down O.o\n\n\n\n\n\n\n\n\nI was tricked\xef\xbb\xbf'
p329
aS'Butterfly knife?\xef\xbb\xbf'
p330
aNaS'Hehehe nice one\xef\xbb\xbf'
p331
aS'True.\xef\xbb\xbf'
p332
aS"it was a nigahiga video so I wasn't tricked\xef\xbb\xbf"
p333
aS'So, basically just puns. \xef\xbb\xbf'
p334
aS'Why r u holding a knife in public?\xef\xbb\xbf'
p335
aS'A perfect example of this: Two hot Latinas. *clicks on it* its a video of a \ndude shoving a horse D*** up his ass\xef\xbb\xbf'
p336
aS'OMG lol I though it said women tries to hug a man holding a knife\xef\xbb\xbf'
p337
aS'Have you met Shane Dawson?\xef\xbb\xbf'
p338
aS'you have a butterfly knife? they are illegal in california DDDDD:\xef\xbb\xbf'
p339
aS'The girl in this vid is absolutely beautiful. Does she have her own youtube \nor a facebook page??\xef\xbb\xbf'
p340
aS'butterfly knives are illegal.\xef\xbb\xbf'
p341
aS'FIRST WORLD PROBLEMSX\xef\xbb\xbf'
p342
aS'Aaaaayyyyyeeeeeeeeee\xef\xbb\xbf'
p343
aS'jeanius\xef\xbb\xbf'
p344
aS'He looks like vannos\xef\xbb\xbf'
p345
aS'Wowwwwww\xef\xbb\xbf'
p346
aS'It was pretty funny tho\xef\xbb\xbf'
p347
aS'Wow.... that last part really Blew my mind! xD xD xD\xef\xbb\xbf'
p348
aS'Higa\xef\xbb\xbf'
p349
aS'Dukethakilla\xef\xbb\xbf'
p350
aS'are you dating the girl in the vidio\xef\xbb\xbf'
p351
aS'I really hate when ppl use misleading titles -_-\xef\xbb\xbf'
p352
aS'Lol \nDude just like porn\xef\xbb\xbf'
p353
aS'Lol\xef\xbb\xbf'
p354
aS'LOL say your name Yu Ngyuen LMAO\xef\xbb\xbf'
p355
aS'Butterfly knife? Those are legal?\xef\xbb\xbf'
p356
aS'Is megan his gf?\xef\xbb\xbf'
p357
aS'Ah you got me \xef\xbb\xbf'
p358
aS'my hair smells like cinnamon vanilla swirl \xef\xbb\xbf'
p359
aS'You called yourself stupid lol\xef\xbb\xbf'
p360
aS'like the philp defranco guy .. i hate that guy lol hes annoying and that \nchin..\xef\xbb\xbf'
p361
aS'I Thought the title said "woman tries to hug man with knife" was trying to \nfigure what would be so genius if someone tried to hug you with a knife xD\xef\xbb\xbf'
p362
aS'I have that knife.\xef\xbb\xbf'
p363
aS'Mate ur jot funny im unsubscribing move on and watch vannos gaming hes way \ncooler, ba boob boosh in ur face\xef\xbb\xbf'
p364
aS'(-_-) \xef\xbb\xbf'
p365
aS'Ryan is the master of puns\xef\xbb\xbf'
p366
aS'U know how to use a butterfly knife? \n\nWow\xef\xbb\xbf'
p367
aS'No subscribe to me too\xef\xbb\xbf'
p368
aS'But those puns though \n\xef\xbb\xbf'
p369
aS'Nguyen is vietnam name\xef\xbb\xbf'
p370
aS'wtf\xef\xbb\xbf'
p371
aS'Thx\xef\xbb\xbf'
p372
aS'#PhillipDeFranco \xf0\x9f\x90\xb8\xe2\x98\x95\xef\xb8\x8f\xef\xbb\xbf'
p373
aS'He talks about misleadng titles when he has them in his own videos.... God \nhipocracy\xef\xbb\xbf'
p374
aS'LOL!\xef\xbb\xbf'
p375
aS'I saw a MC video these were SOME of the tags\nSethbling Yogscast Cooking Howtobasic How to basic Skydoesminecraft Sky \ndoesminecraft Sky does minecraft minecraft mods thediamondminecart the \ndiamond minecart pewdiepie pew die pie smosh smosh games el smosh elsmosh \nsmoshssecond channel smoshs second channel tobuscus toby games tobygames \ntobyturner toby turner toby sucks at podcast lazy vlogs lazyvlogs happy \nwheels nba nfl nhl never give you up zexyzek stampy stampylonghead \nstampylongnose etho ethoslab ethos lab\nremember thats SOME\xef\xbb\xbf'
p376
aS"The giraffe video totally lived up to it's title.\xef\xbb\xbf"
p377
aS'THIS VIDEO HAD NOTHING TO DO WITH THE TITLE YOU SQUINTY EYED ASIAN SHIT!!!!!\nohh look bloopers\xef\xbb\xbf'
p378
aS'Shanedawson\xef\xbb\xbf'
p379
aS'This video is 2 seconds too long\xef\xbb\xbf'
p380
aS'He got me\n\xef\xbb\xbf'
p381
aS'Balisong Knife. Woo.\xef\xbb\xbf'
p382
aS'Ok then....\xef\xbb\xbf'
p383
aS'Nice balisong tricks (a balisong is a butterfly knife which is what he \nused)\xef\xbb\xbf'
p384
aS'MEGAN BATOON! MEGAN BATOON! the thirst is real. shes the girl btw\xef\xbb\xbf'
p385
aS'Isn\'t it called "yellow journalism"? \xef\xbb\xbf'
p386
aS'Why does he own a butterfly knife \xef\xbb\xbf'
p387
aS'Gotta love balisongs\xef\xbb\xbf'
p388
aS'So true.\xef\xbb\xbf'
p389
aS'What knife is that? Also what type of knife is it?\xef\xbb\xbf'
p390
aS'wth! XD\xef\xbb\xbf'
p391
aS'I was tricked for a fake video and it was a jumpscare *My friend was \ntrolling me because I had no Premium MC account and he gave me a link to \njeff the killer xD*\xef\xbb\xbf'
p392
aS'Do you realize that you have more subscribers than psy!\xef\xbb\xbf'
p393
aS'TMZ\xef\xbb\xbf'
p394
aS'Haha\xef\xbb\xbf'
p395
aS'Hi, Megaaaaan :)\xef\xbb\xbf'
p396
aS'THIS VIDEO IS JEANISH!\xf0\x9f\x98\x8a\xf0\x9f\x98\x84\xef\xbb\xbf'
p397
aS'Phillip De Franco is bad about misleading titles.\xef\xbb\xbf'
p398
aS'omg I just love puns! :D great job\xef\xbb\xbf'
p399
aS"I think I'm going to post a link to your video whenever I see a misleading \ntitle (a few times, then I'll get bored of doing it, haha).\xef\xbb\xbf"
p400
aS'Haha,,, nice!!! giraffe dancing to the dubstep huh?? R.I.P. mah self \xef\xbb\xbf'
p401
aS'You just explained your videos... :o\xef\xbb\xbf'
p402
aS'close enough\xef\xbb\xbf'
p403
aS'People only do misleading titles to get views c;.\xef\xbb\xbf'
p404
aS'another thing i hate is when people have to say \n \nroses are red \nviolets are blue \nthe title is in English \nthe video should be too\xef\xbb\xbf'
p405
aS"After being on youtube for a while now, I know how much hate people can \ngive to me when reading these kinds of comments but I think nigahiga fans \nmight be nicer. My dream is to be a film maker but i cant get into film \nschool, and I have 4000 subscribers, which is pretty impressive to me, but \nI'll never get noticed with these numbers. If someone would have the heart \njust to give this a thumbs up and spend all of 30 seconds watching a vid, \nit would mean the world. Thank\xef\xbb\xbf you all\xef\xbb\xbf"
p406
aS'This is a misleading title\xef\xbb\xbf'
p407
aS'This video was a-MAZE-ing. get it? hahaha.. hah... ha... :c\xef\xbb\xbf'
p408
aS'Lol!\xef\xbb\xbf'
p409
aS'Always pronounced it Neg-goo-yen\xef\xbb\xbf'
p410
aS'But the video did do what the title said T^T... NigaHiga you damn genius\xef\xbb\xbf'
p411
aS'i know right\xef\xbb\xbf'
p412
aS'Shane Dawson does this all the time. He uses exaggerating titles in his \nvideos, to get more views lol\xef\xbb\xbf'
p413
aS'what does the word " genish "  mean ? i\'m not a native english speaker , \nthnx for helping :D\xef\xbb\xbf'
p414
aS'Dear Ryan, do you record your other videos with the "TEEHEE" part, because \n3:48, look at the bottom right corner, it\'s a youtube video thingy curser\xef\xbb\xbf'
p415
aS'"Empty your pockets and give me everthing" (Reaches into pocket and hands \nover card) "What the hell is this?" Nigahiga: EVERYTHING. LMFAO\xef\xbb\xbf'
p416
aS'2:51 look at armpit...\xef\xbb\xbf'
p417
aS'Is that a butterfly knife?\xef\xbb\xbf'
p418
aS'I thought the title said hug...\xef\xbb\xbf'
p419
aS'haha those puns though\xef\xbb\xbf'
p420
aS'That butterfly knife is extremely illegal...\xef\xbb\xbf'
p421
aS"That's so true it's annoying\xef\xbb\xbf"
p422
aS"You didn't do teehee\xef\xbb\xbf"
p423
aS"I allmost didn't click because it's become a reflex not to click on titles \nthat might be misslesding.\xef\xbb\xbf"
p424
aS'How is it legal to own a balisong where he lives? \xef\xbb\xbf'
p425
aS'EXCLAMATION POINT\xef\xbb\xbf'
p426
aS"I know right! I hate how people put titles that's not even it\xef\xbb\xbf"
p427
aS'This looks a little like vanoss\n\xef\xbb\xbf'
p428
aS'Terrible aka tear-able.. Such a genius nigahiga, I mean jeanish. Haha.. :D\xef\xbb\xbf'
p429
aS'so no one recognizes megan batoon\xef\xbb\xbf'
p430
aS'nice word play :) \xef\xbb\xbf'
p431
aS'i love balisongs\xef\xbb\xbf'
p432
aS'you should like sword art online\xef\xbb\xbf'
p433
aS'Lol\xef\xbb\xbf'
p434
aS"I'm a victim.\xef\xbb\xbf"
p435
aS'Shane dawson does this\xef\xbb\xbf'
p436
aS'Everything XD\xef\xbb\xbf'
p437
aS"Oh snipple snapple it's tbjzl\xef\xbb\xbf"
p438
aS'At 1:39 I thought it said dick on this link.....\xef\xbb\xbf'
p439
aS'you are the best youtuber\xef\xbb\xbf'
p440
aS"it's like skate 3\xef\xbb\xbf"
p441
aS'Same thing thumbnails, which every Youtube partner does just for their \nviewers to click on their video\xef\xbb\xbf'
p442
aS"Aren't butterfly knives illegal? And when she looks like she is gonna stab \nhim. Keep looking at her pits. I swear to god you will see hair. Like this \nuntil he sees it\xef\xbb\xbf"
p443
aS'you would hate shane dawson\xef\xbb\xbf'
p444
aS'Or... is it?\xef\xbb\xbf'
p445
aS'That girl <3\xef\xbb\xbf'
p446
aS'He is a spy from tf2 cuz he have a butterfly knife\xef\xbb\xbf'
p447
aS'HOT CHICK ALERT!\xef\xbb\xbf'
p448
aS'You ruined a perfectly good pair of jeans!\xef\xbb\xbf'
p449
aS'i got tricked loll but its ok\xef\xbb\xbf'
p450
aS'DUMB ASS AUTO CORRECT ol\xef\xbb\xbf'
p451
aS'hahahaha! his vids always make me smile EVERYDAY\xef\xbb\xbf'
p452
aS"Aren't butterfly knifes illegle in America \xef\xbb\xbf"
p453
aS'Pure shiy man\xef\xbb\xbf'
p454
aS'Injeanish...\xef\xbb\xbf'
p455
aS'He asks if anyone has ever been tricked by the title.. yeah we have all \nwatched this video\xef\xbb\xbf'
p456
aS'Cool knife!\xef\xbb\xbf'
p457
aS'Ryan why the hell is your insanity so amusing?\nI wish I was as random as you.\xef\xbb\xbf'
p458
aS'Wish I had that Butterfly knife/ Balisong\xef\xbb\xbf'
p459
aS'Why her name is yu nguyen?\xef\xbb\xbf'
p460
aS'THAT WAS GENIOUS!!! XD\xef\xbb\xbf'
p461
aS'Where is he from?\xef\xbb\xbf'
p462
aS'1:25 sean fujiyoshi. anyone else notice??\xef\xbb\xbf'
p463
aS"lol nigahiga your so hilarious!!\nYou always get me with your literal jokes!!\nLMFAO!!\n(Everyday I'm shufflin'!)\xef\xbb\xbf"
p464
aS'*Cough *cough shane Dawson *cough *cough\xef\xbb\xbf'
p465
aS'It was funny when u put dat tittle which had nothing to do with dat\xef\xbb\xbf'
p466
aS"If Ryan doesn't like misleading titles then he shouldn't go to the WULAS \nchannel. Its full of them, but they are quite funny.\xef\xbb\xbf"
p467
aS"Aren't Balisongs illegal ?\xef\xbb\xbf"
p468
aS'i thought\xef\xbb\xbf'
p469
aS'Lmao she was like waaaaa\xef\xbb\xbf'
p470
aS'Megan Batoooooonnnnnnn <3\xef\xbb\xbf'
p471
aS'Lol \xef\xbb\xbf'
p472
aS'Javaraldez of roblox......were looking at you.....\xef\xbb\xbf'
p473
aS'*TEEHEE*\xef\xbb\xbf'
p474
aS'These people in the comments..... so, now everyone has ADHD, All of a \nSudden.\xef\xbb\xbf'
p475
aS"It's just an asian kid sitting in a chair with no pants. TMI\xef\xbb\xbf"
p476
aS'PUNS :))))\xef\xbb\xbf'
p477
aS'awesome word play\xef\xbb\xbf'
p478
aS'the woman is hot\xef\xbb\xbf'
p479
aS'shes so preettyyyy\xef\xbb\xbf'
p480
aS"You're so punny\xef\xbb\xbf"
p481
aS'Awesome ;)\xef\xbb\xbf'
p482
aS'Vote nigahiga and he swears no more misleading titles \xef\xbb\xbf'
p483
aS'PUN OVERLOAD\xef\xbb\xbf'
p484
aS'How do you pronounce her name. I know that a lot of Vietnamese people have \nthat name i think its Nyuguen or Nyguen OR!! Nyugen anyways... I dont know \nhow to pronounce Vietnamese pls help:( \xe2\x9c\x8c\xef\xb8\x8f\xf0\x9f\x91\x8c\xef\xbb\xbf'
p485
aS'lol and im sad jk\xef\xbb\xbf'
p486
aS'you got me\xef\xbb\xbf'
p487
aS'AGGREEDDDD \xef\xbb\xbf'
p488
aS"I really didn't think he even liked Megan on Internet Icon... Fascinating! \nI liked her...but ya. Huh \xef\xbb\xbf"
p489
aS'THANK YOU FOR THIS\xef\xbb\xbf'
p490
aS"I didn't think that the dubstep giraffes thing actually existed. Not \ndisappointed.\xef\xbb\xbf"
p491
aS'dammit ryan! i was hoping to see if the man who got mugged by the woman \nwould kiss her or something to stop her (btw i didnt know it was your video \ni clicked on...)\xef\xbb\xbf'
p492
aS'you kinda look like vanoss gaming.#true\xef\xbb\xbf'
p493
aS'I agree with u I hate it when I click on a video or click on an a title to \nread the story and its totally the different \xef\xbb\xbf'
p494
aS'First world problems everyone.\xef\xbb\xbf'
p495
aS'Megan!\xef\xbb\xbf'
p496
aS'talking to much\xef\xbb\xbf'
p497
aS'Dude you should get a better balisong\xef\xbb\xbf'
p498
aS'Damn she fine\xef\xbb\xbf'
p499
aS'butterfly knives are illegal xD\xef\xbb\xbf'
p500
aS'Nigahiga doesent suck\n\xef\xbb\xbf'
p501
aS'The irony is strong with this one?\xef\xbb\xbf'
p502
aNaS'dun dun tsss\xef\xbb\xbf'
p503
aS'ryan u hypocrite! but still funny xD\xef\xbb\xbf'
p504
aS'Yeah. Misleading leading titles are terrible. Why take people to a video \njust to disappoint them?\xef\xbb\xbf'
p505
aS'story of my life\xef\xbb\xbf'
p506
aS"(Watches entire video) im still trying to figure out where he \nlives.....that knife caught my eye since they're illegal slmost anywhere. \n....which makes me sad since im in texas so I cant get one\xef\xbb\xbf"
p507
aS"Omfg when you want to find a movie online and there's all those fake sites \nwith fake titles\xef\xbb\xbf"
p508
aS'Ryan, Why Y U No Hit Dat?\xef\xbb\xbf'
p509
aS"That's me on Twitter(fake celebs) and Youtube(Shane Dawnson)\xef\xbb\xbf"
p510
aS'c\xef\xbb\xbf'
p511
aS'RyanHiga subscribe to him not me\xef\xbb\xbf'
p512
aS'He should have turned into a super saiyan when he drank the potion\xef\xbb\xbf'
p513
aS'i was watching a video about sharks and then it started TRYING to convince \nme aliens existed\xef\xbb\xbf'
p514
aS'teh dumb tskkkkkkkkkkkkkkkk\xef\xbb\xbf'
p515
aS'youer hair looks like a dirty mop\xef\xbb\xbf'
p516
aS'u basterd !!!!!!!!\xef\xbb\xbf'
p517
aS'is that a model 51 bench made balisong\xef\xbb\xbf'
p518
aS'do they just sit around thinking about how much words they can make out of \neverything and good?\xef\xbb\xbf'
p519
aS'He pranked us\xef\xbb\xbf'
p520
aS'Why is she so attractive?\xef\xbb\xbf'
p521
aS' Yeah one time I clicked on a video that said when Justin beiber and Selena \ngomas making out and it said "jk we don\'t have any footage" ughhhhhh \nreally???????? Has anyone else had this problem?\xef\xbb\xbf'
p522
aS'Ctfxc uses misleading titles lol\xef\xbb\xbf'
p523
aS"It's vanoss brother just playing \xf0\x9f\x98\x82\xef\xbb\xbf"
p524
aS'Did anyone hear what he said at 3:10?. He said "If you still thing beat me \nin this game?". Nice Ryan\xef\xbb\xbf'
p525
aS"Idk if i'm just another typical European that can't see teh diffrence \nbetween Asians, but is he actually VanossGaming?\xef\xbb\xbf"
p526
aS'lol\xef\xbb\xbf'
p527
aS'He kinda described sam pottorf \xef\xbb\xbf'
p528
aS'I also get angry about the video not being what the title says.\xef\xbb\xbf'
p529
aS'too bad that wasnt  Shorts\xef\xbb\xbf'
p530
aS'Dear Ryan (butterfly knives illegal\n\xef\xbb\xbf'
p531
aS'I love the puns. Rofl.\xef\xbb\xbf'
p532
aS'THEY USE MISS LEADING TITLE TO GAIN MORE VIEWS WHICH = MORE MONEY FROM ADDS \nWHICH IS EXACTLY WHAT YOU DID RYAN\xef\xbb\xbf'
p533
aS'I thought the title said "Woman tries to hug a man with a wife".\xef\xbb\xbf'
p534
aS'I saw this article: \nhttp://www.theonion.com/articles/breaking-lebron-james-leaning-toward-joining-alqae,36417/\nHahaha, reminded me of this video\xef\xbb\xbf'
p535
aS'LMAO at 2:03-2:06\xef\xbb\xbf'
p536
aS'Darude - Sandstorm\xef\xbb\xbf'
p537
aS"Yeah, you're really good at that. XD it's ridiculous!! Yup. Misleading \ntitle thingies are irritating. \xef\xbb\xbf"
p538
aS"I know geniush is a joke,and i don't think this is a misleading titles.\xef\xbb\xbf"
p539
aS'Nice Balisong Ryan\xef\xbb\xbf'
p540
aS'i like this misleading tit;ltes thingsy\xef\xbb\xbf'
p541
aS"Haha wow that's so cheesy but really funny\xef\xbb\xbf"
p542
aS'Vanoss?\xef\xbb\xbf'
p543
aS'Badass knife skills\n\xef\xbb\xbf'
p544
aS'Welcome to YouTube\xef\xbb\xbf'
p545
aS'Kinda like anything by smosh\xef\xbb\xbf'
p546
aS'HI!\xef\xbb\xbf'
p547
aS"Isn't Ryan Hawaiian?\xef\xbb\xbf"
p548
aS'A+  on the whole thing. definitely the end\n \xef\xbb\xbf'
p549
aNaS'Was Anybody else scared to watch this at first \xef\xbb\xbf'
p550
aS'I love your videos\xef\xbb\xbf'
p551
aS'K\xef\xbb\xbf'
p552
aS'The knife the girl used is a balisong i love them i have one \xef\xbb\xbf'
p553
aS'This was funny\xef\xbb\xbf'
p554
aS'0:21 Marley in the back\xef\xbb\xbf'
p555
aS'lol i love megan\xef\xbb\xbf'
p556
aS'0:54 *Puts on nerd glasses* Yes yes Misleading titles this is a common \npractice in tabloids no? (What does this have to do with anything?)\xef\xbb\xbf'
p557
aS'Nice Balisong\xef\xbb\xbf'
p558
aS'She is soooooo fuckin HOT !!!\xef\xbb\xbf'
p559
aS'Shane Dawson does it show\xef\xbb\xbf'
p560
aS"Isn't that balisong knife illegal?\xef\xbb\xbf"
p561
aS'fool me once, shame on me.\nfool me twice, shame on you.\nfool me three times, NO! I WILL NOT BE FOOLED THREE TIMES!\xef\xbb\xbf'
p562
aNaS'Where do you get that knife\xef\xbb\xbf'
p563
aS'Hahahaha lol \xe2\x80\x9cyou win\xe2\x80\x9d and \xe2\x80\x9cyu nguyen\xe2\x80\x9d\xef\xbb\xbf'
p564
aS"The video and the title kind of relate because it is a video on titles not \nrelating to the post/tweet/article/video/etc. so if the title doesn't \nrelate to the video that is about titles not relating to videos; then in a \nsense it does make sense :D\xef\xbb\xbf"
p565
aS'I seriously love those word card thing. \xef\xbb\xbf'
p566
aS"oh btw I knew it wasn't gonna be about what the title said it was and yeah  \nget so mad when the title is misleading\xef\xbb\xbf"
p567
aS'who else loves the red button?\xef\xbb\xbf'
p568
aS'I looked up to you ur a hippocrit now u crushed my dreams\xef\xbb\xbf'
p569
aS'Butterfly knife :)\xef\xbb\xbf'
p570
aS'Ryan is ur Facebook page Ryan higa nigahiga\xef\xbb\xbf'
p571
aS'All the post r from Sean Ryan and will\xef\xbb\xbf'
p572
aS' Trick2g\xef\xbb\xbf'
p573
aS'is he wearing makeup lol\xef\xbb\xbf'
p574
aS'R\xef\xbb\xbf'
p575
aS'Stupid.........\xef\xbb\xbf'
p576
aS'Replace wigga wigga with nigahiga :p\xef\xbb\xbf'
p577
aS'Fuck y.........NOt You....\nI still subscribe.\xef\xbb\xbf'
p578
aS'Yes... stop the misleading title!\xef\xbb\xbf'
p579
aS'Like missing kid whan Thair father toke the kid\xef\xbb\xbf'
p580
aS'Lol\xef\xbb\xbf'
p581
aS'DUDE~!!!!!!!!!!!!!!!!!!!!!!! that was genius .w. i love you~ \xef\xbb\xbf'
p582
aS'I agree 10000%\xef\xbb\xbf'
p583
aS'For me on website in particular comes to my mind. Cracked.com\n\nCracked actually has interesting and relevant articles corresponding with \nan interestintpg title\xef\xbb\xbf'
p584
aS'Best ending\xef\xbb\xbf'
p585
aS'DARUDE-SANDSTORM\xef\xbb\xbf'
p586
aS'Quality has gone down a bit man... You look like try too hard. I am not \ndisappoint, just miss old style. \xef\xbb\xbf'
p587
aS'Preach when I looked for money in the bank 2014 highlights I got video \ngames I hate people who do that\xef\xbb\xbf'
p588
aS"2:53 -3:17 was genius higa. I admire your resourcefulness when it comes to \ncreativity. An inspiration to many I'm sure. Stay funny man\xef\xbb\xbf"
p589
aS'Yu Nguyen \xef\xbb\xbf'
p590
aS'Haha great video\xef\xbb\xbf'
p591
aS'I loved the puns!\xef\xbb\xbf'
p592
aS'Yu Nguyen! LOL\xef\xbb\xbf'
p593
aS'Toll\xef\xbb\xbf'
p594
aS'Its really jeanious\n\n\xef\xbb\xbf'
p595
aS'This is true very sadly true.\xef\xbb\xbf'
p596
aS'To funny haha;D\n\xef\xbb\xbf'
p597
aS'aww you got me bro but i got you\xef\xbb\xbf'
p598
aS'Huh ..misleading titles *ahem* Shane Dawson \xef\xbb\xbf'
p599
aS'NAILED IT! *explosion*\xef\xbb\xbf'
p600
aS"Niga F**K you and yo misleading videos that i can't stop clicking on 4 some \nreason.\xef\xbb\xbf"
p601
aS'Omg so true.\xef\xbb\xbf'
p602
aNaS'Hey Ryan you r awesome i want you to be most subscribed u speak the truth\n\xef\xbb\xbf'
p603
aS'I have no good comment but I want to comment just to show support so \numm.... Yeah! I agree with this video! :3\xef\xbb\xbf'
p604
aS'*cough *cough buzzfeed\xef\xbb\xbf'
p605
aS"TEE-HEE X'3\xef\xbb\xbf"
p606
aS'What about misleading thumbnails\xef\xbb\xbf'
p607
aS'hahahahahahahhaha THAT WAS AWESOME! xD \xef\xbb\xbf'
p608
aS'hahahah omg so silly\xef\xbb\xbf'
p609
aS'He looks like VanossGaming \xef\xbb\xbf'
p610
aS'The worst ones are with the English titles and then talk in Spanish or some \nother language!!! \xef\xbb\xbf'
p611
aS"Like this if you clicked on the giraffes fighting to dubstep button, \nthinking it was fake. \n\nIf you do click on it, don't wear headphones.\xef\xbb\xbf"
p612
aS'T.T.....your so beautifully passionate. :3\xef\xbb\xbf'
p613
aS'Hahaa, changes person in video about no pants: "what"?\n\nlolssss\xef\xbb\xbf'
p614
aS'Hey all you airsoft lovers\xef\xbb\xbf'
p615
aS'EPIC\nMAN\xef\xbb\xbf'
p616
aS'Lol\xef\xbb\xbf'
p617
aS'I love ur videos they make me crack up this is the best channel!\xef\xbb\xbf'
p618
aS'That PUN combo!! puntastic- `err\xef\xbb\xbf'
p619
aS'I have that same knife! Except my knife was cheap ad I broke it the day I \ngot it and I made a video with it before it broke.\xef\xbb\xbf'
p620
aS'its called yellow journalism\xef\xbb\xbf'
p621
aS'He said bottom frame not top frame.\xef\xbb\xbf'
p622
aS'you got me with the name\xef\xbb\xbf'
p623
aS'That Van Gogh\'s "Starry Starry Night" on the wall :))))\xef\xbb\xbf'
p624
aS"It's okay ryan\xef\xbb\xbf"
p625
aS'What? No tehee at the end of the video D:\xef\xbb\xbf'
p626
aS'hahahahahhaa "Everything"\xef\xbb\xbf'
p627
aS'yes\xef\xbb\xbf'
p628
aS'wat kind of knife was that\xef\xbb\xbf'
p629
aS'i\'m gonna carry a card that says "everything" and on the back "good" now so \nwhenever i get mugged he can get punned....that sounded a lot better in my \nhead\xef\xbb\xbf'
p630
aS'lol reminded me about No Game No Life XD\xef\xbb\xbf'
p631
aS'I freaking love Meagan Batoon! :-D I wanna date her so bad! :-D\xef\xbb\xbf'
p632
aS'I like how Ryan does these genius skits, like the whole everything turning \ninto good, god, then go, was pretty amazing.\xef\xbb\xbf'
p633
aS'Your mom has caused me many hours of frustration...\xef\xbb\xbf'
p634
aS'Reminds me of those tumblr posts with really exciting names and a punch of \ncomments with shocked gifs and like "wow omg" comments and you click and \nwonder why they do this to you\xef\xbb\xbf'
p635
aS'Shane dawson does this a lot but I still love him\xef\xbb\xbf'
p636
aS'where did u get your butterfly knife??????\xef\xbb\xbf'
p637
aS'Lol Ryan.\xef\xbb\xbf'
p638
aS'Nudge god my moms last name\xef\xbb\xbf'
p639
aS'Dear Ryan i liked that song (nice guys) can you please make an other music \nvideo\xef\xbb\xbf'
p640
aS"When I clicked in the vid and at first I saw that it wasn't and thing about \nwoman tries to.........and I was like YER folk in ded lad\xef\xbb\xbf"
p641
aS'3,391 false advertisers hate Nigahiga cause he tells the truth and is \nawesome.\n\nLove the card puns. Awesome.\xef\xbb\xbf'
p642
aS'1:38;most amazing 5 yr old...... crackhead kid\xef\xbb\xbf'
p643
aS'YOU HYPOCRITE! Just kidding... OR AM I?!\xef\xbb\xbf'
p644
aS'B****\xef\xbb\xbf'
p645
aS'Lol yup\xef\xbb\xbf'
p646
aS"Tobuscus always does this, I mean you know which game he is playing but \nhere's an example, he titled one episode of Happy Wheels boobypie and the \nthumbnail was irresponsible dad looking at a naked woman but her nipples \nwere covered by PewDiePie's face. But really boobypie was just the name of \nthe person that created one of the levels he was playing. Here's another \nexample, He titled an episode of Grand Theft Auto Louie CK because the guy \nhe pulled out of the vehicle kinda looked like him, which lasted like 5 \nseconds at the most. But I can live with it, because a least you know which \ngame he is playing and which episode of it.\xef\xbb\xbf"
p647
aS"Misleading titles. I didn't ask for this.\xef\xbb\xbf"
p648
aS"Check out greatgreifers (kid calls microsoft) and he didn't so yah\xef\xbb\xbf"
p649
aS'Da faq did I watch at the end? Anyway, AWESOME!\xef\xbb\xbf'
p650
aNaS'u got me :)\xef\xbb\xbf'
p651
aS'what was the piano song he used?\xef\xbb\xbf'
p652
aS'Lol! XD\xef\xbb\xbf'
p653
aS'I was thinking he was gonna turn and grab a piece of bread and ham and tell \nher to make a sandwich cause she has a knife or someshit...hahah but the \npuns were ducking epic..hahaha\xef\xbb\xbf'
p654
aS'Are u korean?\xef\xbb\xbf'
p655
aS'Haha love it!!!\xef\xbb\xbf'
p656
aS'Lol I fell for it\xef\xbb\xbf'
p657
aS'shane dawson is guilty for having misleading titles but i love him any way \nlol\xef\xbb\xbf'
p658
aS'i got tricket :,(\xef\xbb\xbf'
p659
aS'I love how there are 3 k dislikes because of the misleading tittle even \nthough it was about ranting about misleading titles\xef\xbb\xbf'
p660
aS'Ryan Higa.\nThe god of ...EXPLOSION..\nInside joke for all you whezzy waiter fans\xef\xbb\xbf'
p661
aS'so true\xef\xbb\xbf'
p662
aS'2:08 what?\nLOL\xef\xbb\xbf'
p663
aS"It's like when they say that a one year old got pregnant. And she actually \nhas an parasitic twin from birth inside of her. It's so stupid.\xef\xbb\xbf"
p664
aS'My last name is Nguyen and not to be mean, but you pronounced it wrong\xef\xbb\xbf'
p665
aS'That last part of his video was hilarious lol \xef\xbb\xbf'
p666
aS'Hahahahahahahahahaha.\xef\xbb\xbf'
p667
aS'U are awesome! !!\xef\xbb\xbf'
p668
aS'why not make a video about the problems on instagram\xef\xbb\xbf'
p669
aS"NOW I GET IT!! in-JEAN-ish.... I'm slow at times so forgive me. Anyone \nelse?? XD\xef\xbb\xbf"
p670
aS'Same thing happened to me one time.\xef\xbb\xbf'
p671
aS'oh.. I totally can relate, it is called NEWS at where I am.\xef\xbb\xbf'
p672
aS'The Starry Night <3\xef\xbb\xbf'
p673
aS'I think they get money for clicks.\xef\xbb\xbf'
p674
aS'Cough cough* Shane Dawson cough cough*\xef\xbb\xbf'
p675
aS'I miss Movies in Minutes :( They should do a Frozen parody :D\xef\xbb\xbf'
p676
aS'@ 3:06 she stares at his cock, intrigued lmfao xD\xef\xbb\xbf'
p677
aS'LAWL GOT TRICKED SO BAD!!!!!!!\xef\xbb\xbf'
p678
aS'haha 2:38\xef\xbb\xbf'
p679
aS'the knife he has is elegal in most places\xef\xbb\xbf'
p680
aS'LOL\xef\xbb\xbf'
p681
aS'so punny\xef\xbb\xbf'
p682
aS'THIS HERE is a misleading comment it starts out like its going to be an \namusing troll but then it just ends.\xef\xbb\xbf'
p683
aS'Shane Dawson is the worst offender; he built his entire channel on this \nbasis :/\xef\xbb\xbf'
p684
aS'just added to favorites. lol hilarious\xef\xbb\xbf'
p685
aS'Misleading titles: AKA eHow\xef\xbb\xbf'
p686
aS'That was a really good!\n\n\xef\xbb\xbf'
p687
aS'pun wars haha *badum tss*\xef\xbb\xbf'
p688
aS'NOPE\xef\xbb\xbf'
p689
aNaS'How does this guy have 12 plus million subscribers? \nOther artist rap, sing, shoot music videos...etc.\nYour sketches are immature and corny.\xef\xbb\xbf'
p690
aS'genius lol not\xef\xbb\xbf'
p691
aS'this is so!!  true \xef\xbb\xbf'
p692
aS'**cough cough** awesomenesstv **cough cough**\xef\xbb\xbf'
p693
aS'Fuckin asshole\n\xef\xbb\xbf'
p694
aS'"How to lift an elephant with 1 hand!"\n\nThere simply is not an elephant that only has 1 hand.\xef\xbb\xbf'
p695
aS'Took me a good 10 seconds after "in-JEANus" to realise it then laugh my ass \noff\xef\xbb\xbf'
p696
aS'...nobody should ever challenge the Higa to a pun game\xef\xbb\xbf'
p697
aS'the punz made the video\xef\xbb\xbf'
p698
aS'Lol hilarious\xef\xbb\xbf'
p699
aS'I thought balisongs were illegal?\xef\xbb\xbf'
p700
aS'You like balisongs too?! I love them, and I love flipping. Do you do any \nflipping? \xef\xbb\xbf'
p701
aS"Misleading titles aren't as bad as misleading thumbnails lol.\xef\xbb\xbf"
p702
aS'I know this is abit racist im not trying to be but when i saw he picture i \nthought it was Shinji Kagawa!\xef\xbb\xbf'
p703
aS'Yass, that Balisong though. \xef\xbb\xbf'
p704
aS"You're welcome.. Get 2 pencils with erasers and press the eraser side \nagainst each other for 15-20 seconds. Then let go slowly and it will be \nmagnetic.\xef\xbb\xbf"
p705
aS'Man this video is coo.... 0:15 oh look a butterfly, knife\xef\xbb\xbf'
p706
aS'on some videos: MCSG w/ TheCreeperFarts: I got Shot! When in the video he \ngot shot with an arrow on a minecraft gamemode \xef\xbb\xbf'
p707
aS'Nigahaga > Smosh >Raywilliamjohnson > 8th Graders > A sack of moist \npotatoes\xef\xbb\xbf'
p708
aS'Dem trolls\xef\xbb\xbf'
p709
aS'You tricked us, I feel betrayed\xef\xbb\xbf'
p710
aS'Amen\xef\xbb\xbf'
p711
aS'I read the title as "Woman tries to hug man with a knife"\xef\xbb\xbf'
p712
aS'Love this!\xef\xbb\xbf'
p713
aS"Ryan you and all of us know that we don't care if you make a misleading \ntitle as long as we see your videos and AdHd kick in but if anybody else \ndose it we are going to get the Russian dude with guns \xef\xbb\xbf"
p714
aS'Awesome video\xef\xbb\xbf'
p715
aS'DID HE FLIP A BALLISONG?!?!?!?!\xef\xbb\xbf'
p716
aS'Are you able to add links to the vids in the description because I use a \ntablet and I cant see the annotations, jnless im blind... or am I\xef\xbb\xbf'
p717
aS'TEEHEE\xef\xbb\xbf'
p718
aS'No pants on lol 1:45\xef\xbb\xbf'
p719
aS'Dat noise when you like a comment that youtube recently added... its nice\xef\xbb\xbf'
p720
aS'NNNNNNNOOOOOOOOOOOOOO I WAS TRICKED!\xef\xbb\xbf'
p721
aS'Yu Nguyen\xef\xbb\xbf'
p722
aS'I want to F*** that B****\xef\xbb\xbf'
p723
aS'Name of the music that start at 2:07, please?\xef\xbb\xbf'
p724
aS"That knife is balisong. That kind of knife is originally made in \nPhilippines :) \nI also have one haha. Love you Ryan. \nI'm a fan from Philippines btw\xef\xbb\xbf"
p725
aS"Now that's kinda racist Yu Nguyen \xef\xbb\xbf"
p726
aS'I want to get mugged so i can to that card thing\xef\xbb\xbf'
p727
aS'i instantly pushed the giraffe button lol haha!\xef\xbb\xbf'
p728
aS'That was still a funny video\xef\xbb\xbf'
p729
aS'So that means . . . . . Anyone who watched this got tricked ??\xef\xbb\xbf'
p730
aS'good point\xef\xbb\xbf'
p731
aS'LAWL\n\xef\xbb\xbf'
p732
aS'Lol\xef\xbb\xbf'
p733
aS'I love Ryan!!!!!!! \xf0\x9f\x98\x98\xef\xbb\xbf'
p734
aS'Ikr!!! This happens to me all the time click on something that sounds good \nand its not..lawl\xef\xbb\xbf'
p735
aS'... ITS THE OPPOSITE!! :D\xef\xbb\xbf'
p736
aS'lol\xef\xbb\xbf'
p737
aS"@GirraffesEatWindmills I have deez dreams, and they're like awkward\xef\xbb\xbf"
p738
aS'I have the same knife\xef\xbb\xbf'
p739
aS'Woman tries to mug, A man with a knife...\xef\xbb\xbf'
p740
aS'4052\nNo vwewer\xef\xbb\xbf'
p741
aS'I agree :)\xef\xbb\xbf'
p742
aS'HowToBasic.\xef\xbb\xbf'
p743
aS'Misleading thumbnails one these side bar suggestions\xef\xbb\xbf'
p744
aS'The puns are just \xf0\x9f\x91\x8c\xef\xbb\xbf'
p745
aS'*COUGH COUGH* awesomenessTV\xef\xbb\xbf'
p746
aS"That is why I don't watch Shane Dawson\xef\xbb\xbf"
p747
aS'If this ever happen, pull out a sandwich. She will cut them into half for \nyou\xef\xbb\xbf'
p748
aS'Nice balisong trick\xef\xbb\xbf'
p749
aS'She is pretty :c\xef\xbb\xbf'
p750
aS'Lol this dude has more follower than Justin Bieber in youtube lol\xef\xbb\xbf'
p751
aS'That was genius until he gave her the knife lol\n\xef\xbb\xbf'
p752
aS'i see what you did there\xef\xbb\xbf'
p753
aS'You sneaky tricked me\xef\xbb\xbf'
p754
aS"Lol its the spy's knife from tf2\n\xef\xbb\xbf"
p755
aS'Click-bait is disgusting. (Misleading titles)\xef\xbb\xbf'
p756
aS"That's Shane dawson \xef\xbb\xbf"
p757
aS'U always get over a million views and abou 1k likes \xef\xbb\xbf'
p758
aS'So true\xef\xbb\xbf'
p759
aS'Any1 know at balisong he used and where I can get one?\xef\xbb\xbf'
p760
aS'That butterfly knife. \nlol\xef\xbb\xbf'
p761
aS'Oh wow!!\xef\xbb\xbf'
p762
aS'IF you still THING you can beat me in this game go xD\xef\xbb\xbf'
p763
aS'i discovered somthing imortant HE HAS BLACK JEANS ON :O\xef\xbb\xbf'
p764
aS'0:14 I was freaking out that you will have another scar :S \n(I agree about the video purpose) :P\xef\xbb\xbf'
p765
aS'L.O.L\xef\xbb\xbf'
p766
aS'Hi\xef\xbb\xbf'
p767
aS'Blimey Cow already made a video like this!\xef\xbb\xbf'
p768
aS'I feel u misleading titles are annoying \xef\xbb\xbf'
p769
aS'Those puns \xf0\x9f\x91\x8c\xf0\x9f\x91\x8c\xf0\x9f\x91\x8c\xf0\x9f\x91\x8c\xef\xbb\xbf'
p770
aS'her eyes melt me...bae where are you\xef\xbb\xbf'
p771
aS'Genius\xef\xbb\xbf'
p772
aS'Dear Ryan, when did you start the "TEEHEE" and why?\xef\xbb\xbf'
p773
aS"That's the truest thing I ever heard.\xef\xbb\xbf"
p774
aS'check out my hack vids:) facebook hack, wow hack, + more:)\xef\xbb\xbf'
p775
aS'Yu Nguyen is You Win\nYou guyen\nYou uen\nYou win\xef\xbb\xbf'
p776
aS'"I don\'t like misleading titles but I wanted to bring this issue up to get \nyour attention" "I kinda don\'t want to force my viewers to click this vid \nbut I still need peep to view my channel"\n\n- contradicting irony in an irony \n- (sigh)...yeah... great\xef\xbb\xbf'
p777
aS'hahahahaha!!!!!!!\xef\xbb\xbf'
p778
aS'I got tricked \xf0\x9f\x98\xb0\xef\xbb\xbf'
p779
aS'stary night in the backround\xef\xbb\xbf'
p780
aS"Yu Nguyen, that's my last name\xef\xbb\xbf"
p781
aS'What kind of knife is that\xef\xbb\xbf'
p782
aS"What's her name? I need it for research purpose..\xef\xbb\xbf"
p783
aS"she's hot :3\xef\xbb\xbf"
p784
aS'Oh god the puns!! XD\xef\xbb\xbf'
p785
aS'Sean:wat?\xef\xbb\xbf'
p786
aS'If porn logic is applied to the title...Ery one knows what would happen \nnext.\xef\xbb\xbf'
p787
aS'BORING!\xef\xbb\xbf'
p788
aS'that was so jean-ish\xef\xbb\xbf'
p789
aS'Fuck you ill usnub with all my 12 million accounts.\xef\xbb\xbf'
p790
aS'I LOVE YOU\xef\xbb\xbf'
p791
aS"if that's your girlfriend, she's cute :3 and loved the way she looked at \nyou all sparkling\xef\xbb\xbf"
p792
aS'Is that his girlfriend?\xef\xbb\xbf'
p793
aS"i dream about see ryan few day ago. and i'mma guy. weird. \xef\xbb\xbf"
p794
aS"I miss 'TeeHee'\xef\xbb\xbf"
p795
aS'2:54 girl pit hair! Lol\xef\xbb\xbf'
p796
aS'Oh the irony.\xef\xbb\xbf'
p797
aS'Uuh duh Tass\xef\xbb\xbf'
p798
aS'!! Ryan just got so much more awesome with the butterfly knife! :D\xef\xbb\xbf'
p799
aS'You ran out of material..Unsubscribe.\xef\xbb\xbf'
p800
aS'AHAHAHAHAHAHAHAHAHAHAHAHAHA. SO FUNNY\xef\xbb\xbf'
p801
aS"LOL good one. you're so silly\xef\xbb\xbf"
p802
aS'Actually the lines was really funny! I was like "how did he think that" \nespecially with the note on the piece of paper he had! xaxaax\xef\xbb\xbf'
p803
aS'that was Jean-ius!\xef\xbb\xbf'
p804
aS'Balisong\xf0\x9f\x98\x8f\xef\xbb\xbf'
p805
aS"His y do dam cuts are annoying the shit out of me it's like every sentence \nhe has to do a cut I don't know why but it really bothers me\n\xef\xbb\xbf"
p806
aS'One of them should have said you blade my day\xef\xbb\xbf'
p807
aS'Shane Dawson always uses misleading titles. \xef\xbb\xbf'
p808
aS'...\xef\xbb\xbf'
p809
aS'Nigahiga is the pun god!\xef\xbb\xbf'
p810
aS'Not sure if he did this on purpose but you can see a bunch of green balls \nfloating around in the background and if you watched the earlier episodes \nthe green ball was often thrown at nerd version of Sean.\xef\xbb\xbf'
p811
aS'beehee\xef\xbb\xbf'
p812
aS'Hilarious ending! c:\xef\xbb\xbf'
p813
aS'Nailed it\xef\xbb\xbf'
p814
aS"... Ryan... Are you a fan of Vincent Van Goh's (incorrect spelling?) Starry \nnight...?\xef\xbb\xbf"
p815
aS'The laughing at the last part was so cute. It was like "hahaha" . You \nunderstand me right...?\xef\xbb\xbf'
p816
aS'Amen\xef\xbb\xbf'
p817
aS'AMEN!!\xef\xbb\xbf'
p818
aS'Love it! \xf0\x9f\x90\xb6\xf0\x9f\x90\xb6\xf0\x9f\x90\xb6\xef\xbb\xbf'
p819
aS'I got tricked by the title but good video\xef\xbb\xbf'
p820
aS'Laughed so hard at the end hahaha. "Give me all your money"\xef\xbb\xbf'
p821
aS'shes hot...\xef\xbb\xbf'
p822
aS'Dear Ryan, Can you do a freestyle about disney theories about \ntangled-frozen-little mermaid :))\xef\xbb\xbf'
p823
aS'I loved this! best joke ever all over again <3\xef\xbb\xbf'
p824
aS'love the van go painting :>\xef\xbb\xbf'
p825
aS"Nice Balisong! Good thing I'm filo!\xef\xbb\xbf"
p826
aS'Almost every movie you try to watch on youtube.\xef\xbb\xbf'
p827
aS"Now I get it! I have to lie in order for people to watch my channel... I'm \na ninja. Watch my videos!(if you want to :) )\xef\xbb\xbf"
p828
aS'lol! the ending was halarious\xef\xbb\xbf'
p829
aS'1:50 BURN\xef\xbb\xbf'
p830
aS'Badum tss\xef\xbb\xbf'
p831
aS'THIS IS REALLY NOT THAT FUNNY BUT IT DOES FIT THE TITTLE KIND OF AT THE END \nITS WAY BETTER!\xef\xbb\xbf'
p832
aS"I thought she was Latina but she's actually filipino and Irish she's hot \ntoo\xef\xbb\xbf"
p833
aS'U is poo and poo is you.\xef\xbb\xbf'
p834
aS'I agree. I absolutely hate PlayTheGameCentral for doing that numerous \ntimes... \xef\xbb\xbf'
p835
aS'awesomeness tv does the same thing\xef\xbb\xbf'
p836
aS'Are you vanoss\xef\xbb\xbf'
p837
aS"Shane Dawson does this all the time and says that's how you get views...\xef\xbb\xbf"
p838
aS'That second half of the the scene was AMAZING!\xef\xbb\xbf'
p839
aS'idk... i thought that was kinda genius. i also agree, titles are annoying \nsometimes. what i really hate, is when a title is in english, and the video \nis in a totally different language\xef\xbb\xbf'
p840
aS"I didn't get tricked.... I'm on a playlist\xef\xbb\xbf"
p841
aS'lol?...\xef\xbb\xbf'
p842
aS'i saw one that had the title "Why You Shouldn\'t Press The Batmobile \nButtons" and all it was was a boring video at an autoshow that happened to \nhave the batmobile in it\xef\xbb\xbf'
p843
aS'XDDDD This was aweome!!!!!!!!!!!\xef\xbb\xbf'
p844
aS'WANNA ROLL AROUND AT THE SPEED OF SOUND? THEN CLICK THIS: \nhttp://gamejolt.com/games/arcade/sanicball-alpha-v0-5/17385/\xef\xbb\xbf'
p845
aS'loved this video and totally agree with you.\xef\xbb\xbf'
p846
aS"is megan basically ryan's girlfriend\xef\xbb\xbf"
p847
aS'MAN THOSE PUNS WERE SO.........PUNNY. *sigh* what am i doing with my life.\xef\xbb\xbf'
p848
aS'I once got tricked into watching this video called "Camera falls 205ft on \nroller coaster" or something like that, I can\'t remember the exact title... \nBut I thought it was literally a camera slipping out of a guy\'s hand and \nfalling from the top of Steel Force at Dorney Park (recognized it from \nthumbnail) but it turned out to be just an on-ride POV of the ride. \nMISLEADING TITLES SUCK!!\xef\xbb\xbf'
p849
aS'Just like porn ;)\xef\xbb\xbf'
p850
aS'Oh trust me, I so hate it when misleading titles fool me. I once watched a \nvideo called "Miley Cyrus is Dead?!" When... It was actually about... \nFricking dreams... Oh dear Lord what world we live in...\xef\xbb\xbf'
p851
aS'if he teared the card to make god, how did he show she was terrible when he \nripped the card. lol. thats a good pun\xef\xbb\xbf'
p852
aS'Anybody else notice thats a butterfly knife hes using\xef\xbb\xbf'
p853
aS'I got tricked \xef\xbb\xbf'
p854
aS"hahaha he's talking about Shane Dawson xD\xef\xbb\xbf"
p855
aS'SAW WHATCHA DID THERE\xef\xbb\xbf'
p856
aS"he's talking to you +Philip DeFranco jokes\xef\xbb\xbf"
p857
aS'Dang it I was tricked!!!!!\xef\xbb\xbf'
p858
aS'Nice intro and Yup, I know how lame fake titles can get...\xef\xbb\xbf'
p859
aS'Eminem is rap god, but Ryan is the pun god\xef\xbb\xbf'
p860
aS'Lol\xef\xbb\xbf'
p861
aS'O2l does that all the time XD\xef\xbb\xbf'
p862
aS'HowToBasic XD\xef\xbb\xbf'
p863
aS"That knife is balisong. That kind of knife is originally made in \nPhilippines :) \nI also have one haha. Love you Ryan. \nI'm a fan from Philippines btw\xef\xbb\xbf"
p864
aS'she was mad hot!\xef\xbb\xbf'
p865
aS'i love ryan for his jeanius (hihi) word plays like also the 1 episode when \nhe wanted to confess her ex that he was not straight... xD\npls keep that up, it is what makes u soo special above any other youtubers \nimao :D\xef\xbb\xbf'
p866
aS'The audio on the vid was ahead of his mouth movements...\xef\xbb\xbf'
p867
aS'You are awesome dude\xef\xbb\xbf'
p868
aS'Dear Ryan, can you do SAO?\xef\xbb\xbf'
p869
aS'Not really.\xef\xbb\xbf'
p870
aS'Mmlpp\nPplppp\nLPpp\n\nL\n\nPmmppl\nmp\nPPP\nP\n\nLplp\nP ml\nP\nLip\n\nmllllmpl\nPol\nPlmplmlppl\n\xef\xbb\xbf'
p871
aS'"how to get a shiny mew"   :(\xef\xbb\xbf'
p872
aS'what the heck on the red button\xef\xbb\xbf'
p873
aS':(\xef\xbb\xbf'
p874
aS'jeanish! i love it\xef\xbb\xbf'
p875
aS"It's fine it's funny\xef\xbb\xbf"
p876
aS'I actually use misleading titles sometimes. My video Real Stabbing Caught \non Tape has 471 views without any publicity. Same thing with my Easter \nBunny Caught on Tape.\xef\xbb\xbf'
p877
aS'Best intro ever\n\xef\xbb\xbf'
p878
aS"Yu Nguyen... I don't get it...\xef\xbb\xbf"
p879
aS"I know that's so true\xef\xbb\xbf"
p880
aS'wowwwwww\xef\xbb\xbf'
p881
aS'0:55 i thought it was misleading tities.\xef\xbb\xbf'
p882
aS'Public note its True ...\xef\xbb\xbf'
p883
aS'yes..got me to click on it, and give you yet another thumbs down.\xef\xbb\xbf'
p884
aS'reading this comment is pointless. but some people just cant stop reading. \nam i right?\xef\xbb\xbf'
p885
aS'* COUGH COUGH * Shane Dawson\xef\xbb\xbf'
p886
aS'Oh I get it. Lol\xef\xbb\xbf'
p887
aS"Once I saw a title saying 'a robber robs a bank Mandy a man does something \namazing!!!!!!!!!!11!!1!1!1!1!11!1!1!!1 what it really was was just a man \nwearing a giant sock on his head and yelling 'gimme all your money!' And \nthen a man brought the knife the robber was using and starts robbing the \nrobber\xef\xbb\xbf"
p888
aS'http://youtu.be/_WGmcdPSSsg\xef\xbb\xbf'
p889
aS'I COULD see his bottom half in the frame though, little bit :/\xef\xbb\xbf'
p890
aS'I thought this was a real cctv camera.. XD\xef\xbb\xbf'
p891
aNaS'Not what I was expecting, but at least makes a solid point.\xef\xbb\xbf'
p892
aS'I just realized that l have the same cup thats on 0:13, the white one with \nlines on it that girl was holding... l like have the EXACT same one\xef\xbb\xbf'
p893
aS"I'm stuck on which is more attractive,Megan or Catherine.\xef\xbb\xbf"
p894
aS'You are a brilliant hypocrite. This is awesome!!! ^_^\xef\xbb\xbf'
p895
aS'Shane dawson does it a lot !!\xef\xbb\xbf'
p896
aS'The knife was the spy knife in team fortress 2\xef\xbb\xbf'
p897
aS' Like Rick roll -_-\xef\xbb\xbf'
p898
aS'Dammit I wanted to see a women mug a man with a knife\xef\xbb\xbf'
p899
aS'epic! haha\xef\xbb\xbf'
p900
aS"Yu Nguyen? She may be an American Vietnamese, isn't she? \xef\xbb\xbf"
p901
aS'Damn, you got me...\xef\xbb\xbf'
p902
aS"So in otherr words....how to basic\nIf you dont know who bow to basic is check him out on youtube really funny \nguy click on his videos and you'll be In for a surprise \xef\xbb\xbf"
p903
aS'Dem puns tho\xef\xbb\xbf'
p904
aS'Sounds like he got tired of clicking "Big Titties Flopping In Wet T-Shirts" \njust to be Rick Rolled... Tee-hee! \xef\xbb\xbf'
p905
aS'well that girl is cute..\n\nfap fap fap\xef\xbb\xbf'
p906
aS'Uh...... what was this about\xef\xbb\xbf'
p907
aS'IGN no.1 worst site for this. :D\xef\xbb\xbf'
p908
aS'Gonna start carrying a not that says everything now just cause of this\xef\xbb\xbf'
p909
aS'I wanna butterfly knife!!! \xef\xbb\xbf'
p910
aS"aren't thos kind of knives illegal\xef\xbb\xbf"
p911
aS'PREACH\nalso amazing puns\xef\xbb\xbf'
p912
aS'That was punny\xef\xbb\xbf'
p913
aS'Lol! Love the puns, tricks and figurative speeches at the end!\xef\xbb\xbf'
p914
aS'first world problems\xef\xbb\xbf'
p915
aS'??????????\xef\xbb\xbf'
p916
aS'Even this video has nothing to do with the title.... It pisses me off\n\n\nlol just kiddin\xef\xbb\xbf'
p917
aS"It's not the only things which annoys the people \nThe second thing that is the most annoying thing on the web\nADVERTISES\xef\xbb\xbf"
p918
aNaS"I should do these puns to my friend.. He's probably gunna say its \nterrible..\xef\xbb\xbf"
p919
aS'If that\'s the case just title the video "BOOBS"\xef\xbb\xbf'
p920
aS'Couch Cough MattHDGamer \xef\xbb\xbf'
p921
aS'True\xef\xbb\xbf'
p922
aS'I hate tht also it happens to apps\xef\xbb\xbf'
p923
aS'So ironic\xef\xbb\xbf'
p924
aS'Dear Ryan, can you sing like Angie Miller\xef\xbb\xbf'
p925
aS'LOL, "and youre---tear-able.."\xef\xbb\xbf'
p926
aS'at this point of yt i see that iq is going down very fast\xef\xbb\xbf'
p927
aS'\xf0\x9f\x98\x82\xf0\x9f\x98\x82\xef\xbb\xbf'
p928
aS'ILLUMINATI\xf0\x9f\x94\xba\xef\xbb\xbf'
p929
aS"Shane Dawson's vlog channel is VERY Misleading.\xef\xbb\xbf"
p930
aS'From Findance, most misleading "news" website in finland\n\nGANDAM STYLE KILLED A MAN!!!\n\nMexicans were dancing gandamstyle in wedding and someone accidentally shoot \nsomeone with pistol. Fucking gandamstyle, psy is a murderer! \xef\xbb\xbf'
p931
aS'whoa, sub count.... :D\xef\xbb\xbf'
p932
aS'Lol, my thought of the video was not even close to the real video\xef\xbb\xbf'
p933
aS'Genius!!!\xef\xbb\xbf'
p934
aS'was i the only one who clicked the link to the graiffes\xef\xbb\xbf'
p935
aS"#SpreadTheWord People Believe it or not there's another Bullshit saying \nWill Smith died at age 45 \xef\xbb\xbf"
p936
aS'WOAH!!! WE HAVE THE SAME MUG!!! (at the beginning)\xef\xbb\xbf'
p937
aS"I agree with you. I hate misleading titles. I know an entire channel that \nhas misleading titles but the video is nothing like it. It's Rhett and Link \n(Good mythical morning)\xef\xbb\xbf"
p938
aS'Nope, I clicked previous video.\xef\xbb\xbf'
p939
aS"Sean's hair cut looks cool\xef\xbb\xbf"
p940
aS"I've never seen such creativeness in a channel on YouTube like this one...\nKeep up the awesome work guys !!\n\xef\xbb\xbf"
p941
aNaS'The nametag says nguyen. \xef\xbb\xbf'
p942
aS'Also, I was legitimately scared seeing you throwing a butterfly knife \naround\xef\xbb\xbf'
p943
aS'Tooooo Funny.... Wait till the end to see what really good\xef\xbb\xbf'
p944
aS'This comment has nothing to do with the video.\xef\xbb\xbf'
p945
aS"Oh Ryan you're so punny haha get it \xef\xbb\xbf"
p946
aS'piddleass cough hmph cough\xef\xbb\xbf'
p947
aS'LOOK AT MY CHANNEL TO SEE THE MOST AMAZING HACK VIDEOS!\xef\xbb\xbf'
p948
aS'and pewdipie has fuckin twice as many followers as you do..i love pewdiepie \ndont get me wrong but nigahiga def deserves the lead...this is one creative \nvideo\xef\xbb\xbf'
p949
aS'Godamnit I have a friend (actually, i hate him) who thinks he\'s so great \nbecause he comes up with stuff but I just watched this video and its quite \nobvious to my that my "friend" is a lying jerk who steals other people\'s \nwork and acts as if its his own\xef\xbb\xbf'
p950
aS'Nice Bali-song knife\xef\xbb\xbf'
p951
aS'ahhhhhhhhhhhhhh ive been tricked\xef\xbb\xbf'
p952
aS'Retarded\xef\xbb\xbf'
p953
aS'hahah loved it\xef\xbb\xbf'
p954
aS'That weird\xef\xbb\xbf'
p955
aS'LOL Yu Nguyen\xef\xbb\xbf'
p956
aS'wow the end was weird\xef\xbb\xbf'
p957
aS'not genius but stupid\xef\xbb\xbf'
p958
aS'136k likes wow\xef\xbb\xbf'
p959
aS'lol I love your videos <3\xef\xbb\xbf'
p960
aS'Dear Ryan\n Can  you do hello kitty?\xef\xbb\xbf'
p961
aS'Hey ryan your videos are really good i wish you goodluck be safe :))))\xef\xbb\xbf'
p962
aS'\xf0\x9f\x98\xad\xf0\x9f\x98\xad\xf0\x9f\x98\xad\xf0\x9f\x98\xad\xf0\x9f\x98\xad\xef\xbb\xbf'
p963
aS'Every buzzfeed video ever\xef\xbb\xbf'
p964
aS'Still very cool xD\xef\xbb\xbf'
p965
aS'Was that stary night in the background the painting? O.o\xef\xbb\xbf'
p966
aS"I like Shane Dawson and all. He's funny but he does this ALL the time. \xef\xbb\xbf"
p967
aS'Shane Dawson\xef\xbb\xbf'
p968
aS'lol\xef\xbb\xbf'
p969
aS'lol\xef\xbb\xbf'
p970
aS"Those kinds of knives are illegal in Wisconsin as far as I know... Good \nthing it ain't WI where he lives :3\xef\xbb\xbf"
p971
aS'Genius!!!\xef\xbb\xbf'
p972
aS'Sarah, its jeanish not geenish\xef\xbb\xbf'
p973
aS"I was sent to this vid by a friend, he tricked me, on a diff note, you need \nto get a butterfly knife, i noticed you've only got a practice one.\xef\xbb\xbf"
p974
aS'Nice butterfly knife \xef\xbb\xbf'
p975
aS'Shane does this, but I still love him!\xef\xbb\xbf'
p976
aS'i was tricked cuz i didnt see nigahiga as the maker of the video\xef\xbb\xbf'
p977
aS'She is hot\xef\xbb\xbf'
p978
aS'Haha KevJumba reference\xef\xbb\xbf'
p979
aS'Man, that everything card and all of the puns with it were good.\xef\xbb\xbf'
p980
aS'Dear Ryan, have you seen attack on Titan?\xef\xbb\xbf'
p981
aS'Dear ryan: can you be a brony?\xef\xbb\xbf'
p982
aS'this "niga"!\xef\xbb\xbf'
p983
aS"Smosh's titles are often just confusing, at least on their gaming channel.\xef\xbb\xbf"
p984
aS'i got tricked -_________________________-\xef\xbb\xbf'
p985
aS'I sense that a mile away ryan. \xef\xbb\xbf'
p986
aS'Nice Hair Ryan!!!!! :)\xef\xbb\xbf'
p987
aS'And honest\xef\xbb\xbf'
p988
aS'Shane Dawson videos are the perfect example of misleading and well quite \nannoying in my opinion .\xef\xbb\xbf'
p989
aS'Thank you! I had a gut feeling that I was forgetting someone, now I know \nwho it is :)\xef\xbb\xbf'
p990
aS"I almost didn't watch this video because of the title. Lol!\xef\xbb\xbf"
p991
aS'Nice balisong Is that. A bear and son\xef\xbb\xbf'
p992
aS"But seriously how did he know that that Asian guy didn't have any pants on \nwithout looking at him?! Gay alert!!!!Hacker alert!!!!!Sweedish \nalert!!!!!!!!!\xef\xbb\xbf"
p993
aS'Lol Shane Dawson but I still love him\xef\xbb\xbf'
p994
aS'I like the card bit\xef\xbb\xbf'
p995
aS'i thought its about puns..\xef\xbb\xbf'
p996
aS"@sarah allali\nIts not a real word its just a pun lmao :')\xef\xbb\xbf"
p997
aS'Dear ryan can you do hobbit\xef\xbb\xbf'
p998
aS'That is the exact butterfly knife I have Ryan\xef\xbb\xbf'
p999
aS'another bad title: Most expensive lottery ticket in the world- \nhttp://blogs.reuters.com/felix-salmon/2014/04/21/the-most-expensive-lottery-ticket-in-the-world/\n\xef\xbb\xbf'
p1000
aS'Pewdipie usaly does that or smosh but I like them\xef\xbb\xbf'
p1001
aS'The most annoying misleading title is "HALF-LIFE 3 CONFIRMED!!!" When its \nreally just about some possibilities for Half-Life 3 and about how Gabe \nNewell is a retard.\xef\xbb\xbf'
p1002
aNaS"why does it have to be stupid Asian kid?  Why can't you just say stupid \nkid?  Why are you so racist Ryan!\xef\xbb\xbf"
p1003
aS"I'm Pewdiepie!!!\xef\xbb\xbf"
p1004
aS'This goes all the way back to tabloids and magazines looking for more \nreaders even before the turn of the century. The Yellow Press before the \nSpanish American war is I think one of the greatest examplrs\xef\xbb\xbf'
p1005
aS'Best intro ever\n\xef\xbb\xbf'
p1006
aS'oh man that last part made me bust a gut xD ryan is the best with his puns\xef\xbb\xbf'
p1007
aS'Nice balisong knife \xef\xbb\xbf'
p1008
aS'i love his puns lmao so clever\xef\xbb\xbf'
p1009
aS'Ryan your such a dork xP\xef\xbb\xbf'
p1010
aS'Your puns are sugoi^^\nWhen my friend showed me this video in school, it kinda reminded me that I \nsaw you doing a Naruto Movie Trailer before, so I went to review it again, \nand it was awesome!\nAlso, it reminded me of seeing a picture of you asking your other self if \nhe watches anime, and then he replied: No. Anime is for kids, stop being \nimmature and grow up. Read a Book. (then you\'re like reading Naruto manga)\n~It really brings back memories, you\'re great with puns and all, and my \nfriend who showed me this video kinda admires you, and he rly likes the \nsound effect and action that you do a lot in this video---of course I like \nit too...~\n^you\'re a rly cool person and just wanna say: "Ganbatte-kudasai^^" and keep \nROCKing the way you do cuz\' #YOLO  \xef\xbb\xbf'
p1011
aS'good at first,to ongoing.\xef\xbb\xbf'
p1012
aS'3:28 lol\xef\xbb\xbf'
p1013
aS"Don't PUNish us hahahaha....... But finally someone says Nguyen correctly. \nnice video\xef\xbb\xbf"
p1014
aS'Was that stary night in the background the painting? O.o\xef\xbb\xbf'
p1015
aS'Lol I actually haven\'t clicked on this for so long because of the title \nbecause I thought it was one of "those" videos\xef\xbb\xbf'
p1016
aS'Nvm\xef\xbb\xbf'
p1017
aS'HAHAH !  \xef\xbb\xbf'
p1018
aS'Clicked this link on ifunny and it took me to this B.S\xef\xbb\xbf'
p1019
aS'Nice\xef\xbb\xbf'
p1020
aS"It's a Korean word\xef\xbb\xbf"
p1021
aS'YouTube ratings preview extension for Chrome... problem solved. \xef\xbb\xbf'
p1022
aS'if you still thing u can beat me in this game, go\xef\xbb\xbf'
p1023
aS'Nice balisong...............\xef\xbb\xbf'
p1024
aS'That girl \xef\xbb\xbf'
p1025
aS'Must I say this again? RYAN IS THE KING OF PUNS!! :D\xef\xbb\xbf'
p1026
aS"Shane Dawson should watch this :\\ maybe then he won't be losing views \nthanks to his new Bomb.com videos...\xef\xbb\xbf"
p1027
aS"Once I saw a title saying 'a robber robs a bank and a man does something \namazing!!!!!!!!111!!1!!!11!!!\xef\xbb\xbf"
p1028
aS'This asian dude is fucking anoying!\xef\xbb\xbf'
p1029
aS'Dear Ryan, Can you crack a rat?\xef\xbb\xbf'
p1030
aS"Your puns though. They're jeanious!\xef\xbb\xbf"
p1031
aS'Thumb up, if you HATE misleading TITLES here on Youtube !!!\nI never use misleading titles, HONEST ;)\xef\xbb\xbf'
p1032
aS'this is like most annoying people on the internet: new section... the \nmistitle peoples\xef\xbb\xbf'
p1033
aS'Where in the world did he get a balisong from\xef\xbb\xbf'
p1034
aS'Dear Ryan, can you crack a rat?\xef\xbb\xbf'
p1035
aS'So punny\nMuch funny\nWow\xef\xbb\xbf'
p1036
aS'that really was in-jean-ious. you have the best puns, Ryan. xD\xef\xbb\xbf'
p1037
aS'Lol\xef\xbb\xbf'
p1038
aS'Dear Ryan, can you save the world from bad jokes?\xef\xbb\xbf'
p1039
aS"Lmao Ryan you always know what's up. Good job. \xef\xbb\xbf"
p1040
aS'I love your videos\xef\xbb\xbf'
p1041
aS'dude you do you still do dare\xef\xbb\xbf'
p1042
aS'I thought Nguyen was pronounced "Ngu-yen" and not "win"\xef\xbb\xbf'
p1043
aS'Shane Dawson.\xef\xbb\xbf'
p1044
aNaS'MEGANN! What a nice little surprise \xef\xbb\xbf'
p1045
aS'Bleacher Report...\xef\xbb\xbf'
p1046
aS'Dear Ryan. Do a dance off with Megaton.\xef\xbb\xbf'
p1047
aS'LMAO ur creative bro \n!!!\xef\xbb\xbf'
p1048
aS'Dear Ryan,\nCan you do a scene where Regina gets married? \xef\xbb\xbf'
p1049
aS'Thought he was gunna bring out the bread and mayo. Everyone knows her \nwomanly instincts woulda kicked in and shed have made him a sammich.\xef\xbb\xbf'
p1050
aS'Y ryan. Y did u trick me!!!!\xef\xbb\xbf'
p1051
aS'Dear Ryan, Have a pun battle with Chuggaaconroy!!\xef\xbb\xbf'
p1052
aS'Arg I was exited XD\xef\xbb\xbf'
p1053
aS'You have a point lol\xef\xbb\xbf'
p1054
aS'Bassicly philipdefranco\xef\xbb\xbf'
p1055
aS'FREAKING HILARIOUS ENDING HAHAHAHAHAHAHAHAHAHAHAHAHAHHAHAHAHAHAHAHAHAHAHA\xef\xbb\xbf'
p1056
aS"Lol, I love Megan Batoon. She's amazing.\xef\xbb\xbf"
p1057
asS'time'
p1058
ctime
struct_time
p1059
((I2014
I3
I21
I17
I10
I29
I4
I80
I-1
t(dtRp1060
sS'id'
p1061
V_WGmcdPSSsg
p1062
s.