(dp1
S'title'
p2
VI Dare You (ft. Superwoman & Tyler Oakley)
p3
sS'url'
p4
Vhttp://www.youtube.com/watch?v=dGjLyzof9Us&feature=youtube_gdata_player
p5
sS'image'
p6
Vhttp://i.ytimg.com/vi/dGjLyzof9Us/0.jpg
p7
sS'comments'
p8
(lp9
S'I dare you to slap that gay boy with a wiener(hot dog for all you sickos!)\xef\xbb\xbf'
p10
aS'I was actually surprised to not find any comments on this about pulling out \nthe eyelash since people with Trichotillomania sometimes do that.\xef\xbb\xbf'
p11
aS'i dare you to slap that gay boy that doesnt know how to punch\xef\xbb\xbf'
p12
aS'I DOUBLE DOG DARE you to eat a RAW potato with toothpaste, relish and \nmustard. After you bit into it, go outside and offer someone that potato \nthat you bit XD RECORD THEIR REACTIONS \xef\xbb\xbf'
p13
aS'That girl is grosse she acts manly\xef\xbb\xbf'
p14
aS"So what if Tyler is gay? It's his life he can make his own choices, it's \nnot fair for him to have people judge him for who he wants to be..you can \nrespect Lesbians but Gays? Wtf.\xef\xbb\xbf"
p15
aS'i dare you to run in a circle for 1min\xef\xbb\xbf'
p16
aS"I love Lily's t-shirt...\xef\xbb\xbf"
p17
aS'i put mayo on my hair a long time ago cause i heard it repairs damaged \nhair.... my hair smelled SOOO bad after that i had to wash my pillows and \nsheets after laying on them -.-\xef\xbb\xbf'
p18
aS'New I DARE YOU episode featuring Superwoman and Tyler Oakley! Leave your \nDARES and who you want to see play next in the comment section for the next \nepisode!\n\xef\xbb\xbf'
p19
aS'I hate that girl.\xef\xbb\xbf'
p20
aS'THIS WAS SO GOOD. Thanks for letting me be a part of it! :]\xef\xbb\xbf'
p21
aS'Damn ryan you have a nice house\xef\xbb\xbf'
p22
aS"Is this Pewdiepie? didn't know he is asian.\xef\xbb\xbf"
p23
aS'I quit watching the video a couple minutes in because it had a gay guy in \nit i dont get why they think they should be accepted for being gay \xef\xbb\xbf'
p24
aS'Ok... Tyler Oakley "I\'m like a man" a couple min. Later "I DONT KNOW HOW TO \nPUNCH" \xef\xbb\xbf'
p25
aS"I dare you to do heel flips on a skateboard while drinking tea or act out \nthe computernerdo101's Gangnam style parody\xef\xbb\xbf"
p26
aS'I dare u to put spicy sauce on overran and eat it\xef\xbb\xbf'
p27
aS"Tyler oakley is the biggest fag ever. Don't hate the fact he's gay but hate \nthe fact he acts like a fucking girl which is what I really hate about \ngays. Those that act like normal men are cool.\xef\xbb\xbf"
p28
aS'I dare you to shove a fist full of eggs into your anus\xef\xbb\xbf'
p29
aS'I dare you to pour ice down your pants\xef\xbb\xbf'
p30
aS'I dare you to drive around the city and say I LOVE PANDAS at every \nintersection you pass by.\xef\xbb\xbf'
p31
aS'i dare you to eat a spoonful of vegemite :P\xef\xbb\xbf'
p32
aS"Drink a whole bottle of vinegar and don't vomit!\xef\xbb\xbf"
p33
aS"Ryan Higa AND Superwoman in the same video! My two favourite Youtubers! \nWHEEEE!!!!!\n(Don't know how to take the exclamation points out of this comment....!!!)\xef\xbb\xbf"
p34
aS'I dare you to take a bath in egg yolk\xef\xbb\xbf'
p35
aS'I dare you to let the person to your right AND your left shoot a stone into \nyour mouth with a slingshot for 1-2.5 points each hit depends on the size\xef\xbb\xbf'
p36
aS'I dare you to go into a public setting and go up to 4 random people (They \ncant be people playing :P) and say "ASDF SUSHI SPONGEBOB POKEMON I LIKE \nPINEAPPLE CHEESE HONK HONK THIS IS SPARTA GOODBYE GEORGE LOOK OUT FOR THE \nTURKEY WASABI SUSHI  FRUIT SALAD SO BRITISH SLASH FUNNY SUPER OAK RING \nNIGHT MOO IM A COW MEEE!" (I would like to see Rhett and Link on I Dare You \n:P)\xef\xbb\xbf'
p37
aS'I dare you to eat the snot of the person to your left.\xef\xbb\xbf'
p38
aS"He doesn't no how to punch wht?????\xef\xbb\xbf"
p39
aS'Duck tape your eyes then walk around the pool without falling in it\xef\xbb\xbf'
p40
aS'I dare u to kiss the person on your right or left your choice \xf0\x9f\x91\x84 or u can \neat a teaspoon of tooth past xoxo\xf0\x9f\x98\x8b\xf0\x9f\x98\x8b\xf0\x9f\x98\x8b\xef\xbb\xbf'
p41
aS'I dare you to eat 3 spoon full of vegemite\xef\xbb\xbf'
p42
aS"I didn't know that Superwoman was also Sexywoman\xef\xbb\xbf"
p43
aS'Greg: "I feel Tyler\'s balls on my neck"\nMe: lucky\xef\xbb\xbf'
p44
aS'I dare Ryan to go outside and said I marry your girlfriend sorry \xef\xbb\xbf'
p45
aS'Pour a glass of toilet water down your pants.\xef\xbb\xbf'
p46
aS'i dare you to go to the supermarket and slap someone random!\xef\xbb\xbf'
p47
aS"What's with all the homophobic comments? Someone's sexual preference has \nnothing to do with you so you can just GTFO.\xef\xbb\xbf"
p48
aS'i love watching these!!\xef\xbb\xbf'
p49
aS'mustash guy got the WORST ones\xef\xbb\xbf'
p50
aS'I deer you to dance in front of every body a girl dance\xef\xbb\xbf'
p51
aS"I love lily's shirt!!!!! <3\xef\xbb\xbf"
p52
aS'he pooped his pants !!!!!!!!\xef\xbb\xbf'
p53
aS'OMG! Zayn on Superwoman shirt !!!! Got super excited !!! \xef\xbb\xbf'
p54
aS'liked it good XD\xef\xbb\xbf'
p55
aS'More Superwoman and Tyler Oakley :)\xef\xbb\xbf'
p56
aS'eat a handful of salt\xef\xbb\xbf'
p57
aS'FREE MONEY HERE http://myreff.com/c?r=P6xsxqU2b NOT FAKE\xef\xbb\xbf'
p58
aS'put on a thong a and drag yourself across the street\xef\xbb\xbf'
p59
aS'I dare you to give outside and do the Harlem Shake. With only a skirt on. \n(Shirt included if want less points)\xef\xbb\xbf'
p60
aS'wash your hair with peanut butter. please \xef\xbb\xbf'
p61
aS'Superwoman is queen \xf0\x9f\x91\x90\xef\xbb\xbf'
p62
aS'I dare you to bang your head hard against the wall 3 times lol\xf0\x9f\x98\xa8\xf0\x9f\x98\x82\xef\xbb\xbf'
p63
aS'It said first 3 LIQUIDS\xef\xbb\xbf'
p64
aS'This is so funny \xef\xbb\xbf'
p65
aS'Loved lily shirt\xef\xbb\xbf'
p66
aS'I dare you to grab the first 3 liquids you find and pour it down your pants\xef\xbb\xbf'
p67
aS'Tyler was like, "Oh Shit!"\xef\xbb\xbf'
p68
aS'Superwoman is a amazing \xef\xbb\xbf'
p69
aS"It really did look like shit on Sean's shorts\xef\xbb\xbf"
p70
aS'who the fuck doesnt know how to punch.. fukin fagg, the girl punches better \nthan him what a disgrace to men..\xef\xbb\xbf'
p71
aNaS'Take five foods out of the fridge and put them in a sandwich then eat it. \n(3-5 points)\xef\xbb\xbf'
p72
aS'I dare you to snort lime salt\xef\xbb\xbf'
p73
aS'YES!!!! ||SuperWoman|| won!!!\nWooooohoooooo!!!!!!!!! \xf0\x9f\x98\x86\xf0\x9f\x98\x86\xf0\x9f\x98\x86\n||SuperWoman|| is my bae\xef\xbb\xbf'
p74
aS'I dare you to slap everyone in the face really hard and ill subscribe :)\xef\xbb\xbf'
p75
aS"Why is this the best thing I've ever seen??\xef\xbb\xbf"
p76
aS'I. Love you!!\n\xef\xbb\xbf'
p77
aS'zayn is everywhere\xef\xbb\xbf'
p78
aS'poor tyler\xef\xbb\xbf'
p79
aS'I dare you to do a backflip off the wall \xef\xbb\xbf'
p80
aS'I dare you to get dizzy for a minute\xef\xbb\xbf'
p81
aS'pause at the right moment, then we see the tragic story of how superwoman \nbecame the number 9... X3!!  13:08\xef\xbb\xbf'
p82
aS'i dare u to dring ur own pee\xef\xbb\xbf'
p83
aS'I dare you to take a bath with the first 5 items you find in your fridge\xef\xbb\xbf'
p84
aNaS'I dare you to punch Sean in the face then put glitter in his face \xef\xbb\xbf'
p85
aS'Why did she not lick a dick saaaaaan\n\xef\xbb\xbf'
p86
aS"It's not her first big THING she licked \xf0\x9f\x98\x8f\xf0\x9f\x98\x8f\xef\xbb\xbf"
p87
aS'MARMITE!!!!!!!!!!!!!!!!\xef\xbb\xbf'
p88
aS'was super woman actually going to kiss someone \xef\xbb\xbf'
p89
aS"I dare you to pick someone else's booger and eat it\xf0\x9f\x98\x81ilysm\xf0\x9f\x92\x95\xef\xbb\xbf"
p90
aS"I dare you to chew on Greg's mustache for 5 seconds \xef\xbb\xbf"
p91
aS'I dare you to do a strip dance in front of everybody\xef\xbb\xbf'
p92
aS"Lily's shirt gives me life\xef\xbb\xbf"
p93
aS'I dare you to belly flop on a giant water balloon \xef\xbb\xbf'
p94
aS'I dare you to go outside and give a stranger a hot dog then skip like a kid \ninside\xef\xbb\xbf'
p95
aS'"Let\'s find things for her to lick. LIKE DIS DICK!"     :P\xef\xbb\xbf'
p96
aS'Shes a champ.\xef\xbb\xbf'
p97
aS'it is so gay\xef\xbb\xbf'
p98
aS'Tyler Oakley is such a fucking pussy. He has to stop acting gay on purpose.\xef\xbb\xbf'
p99
aS'I DARE YOU TO DO: ALS ice bucket challenge.. nominate me!\xef\xbb\xbf'
p100
aS'This was uploaded on my Bday! My fave youtubers!\xef\xbb\xbf'
p101
aS"YOU HAVE A POOL, HOLY SHIT, YOU'RE RICH AS FUCK\xef\xbb\xbf"
p102
aS'I dare you to chew food and take it out of your mouth, then eat it. One \nextra point if you add dog hair to it 3:)\xef\xbb\xbf'
p103
aS'I sooo want the shirt superwoman is wearing !!!!!\xef\xbb\xbf'
p104
aS'Tyler oakFAGGG!!!\xef\xbb\xbf'
p105
aS"Guys give me a dare in Facebook Ashley Bernardo pls and I'm gonna post a \nvid\xef\xbb\xbf"
p106
aS' I dare you to sub me\xef\xbb\xbf'
p107
aS'That shirt lily is wearing tho \xe2\x9d\xa4\xef\xb8\x8f\xe2\x9d\xa4\xef\xb8\x8f\xe2\x9d\xa4\xef\xb8\x8f\xe2\x9d\xa4\xef\xb8\x8f\xf0\x9f\x92\x8b\xf0\x9f\x92\x8b\xf0\x9f\x92\x8b\xf0\x9f\x98\x98\xf0\x9f\x98\x98\xf0\x9f\x98\x98\xf0\x9f\x98\x8d\xf0\x9f\x98\x8d\xf0\x9f\x98\x8d\xf0\x9f\x98\x8d\xef\xbb\xbf'
p108
aS'You should do the gross bean challenge!!!!!\xef\xbb\xbf'
p109
aS'So funny\xf0\x9f\x98\x82\xf0\x9f\x98\x82\xf0\x9f\x98\x82\xf0\x9f\x98\x82\xef\xbb\xbf'
p110
aS'I dare you to lick a penis\xef\xbb\xbf'
p111
aS'They did the ASL Ice bucket challenge before it was cool. #Darjny\xef\xbb\xbf'
p112
aS'I dare you to eat poop :)\xef\xbb\xbf'
p113
aS'I dare u too lick the person in the ear\xef\xbb\xbf'
p114
aS'That gay boys name is tyler Oakley just so you guys know\xef\xbb\xbf'
p115
aS'Mr.Higa be seriously LOADED XD noice crib dude\xef\xbb\xbf'
p116
aS'I dare you to lick the floor\n\xef\xbb\xbf'
p117
aS'Subbed\xef\xbb\xbf'
p118
aS"i dare you to kiss somebody's toung\xef\xbb\xbf"
p119
aS"I would've loved to eat the mayo.\xef\xbb\xbf"
p120
aS'I dare you to hold your hand over the fire for 1 minute\xef\xbb\xbf'
p121
aS'I dare you to run in the street saying that you can be a girl who is a very \nstupid and dumb\xef\xbb\xbf'
p122
aS'Love the video. Laughed very hard. I enjoy watching all your videos. Its so \nawesome. All my favorite you tubers in one place, Tyler oakley, Superwoman, \nAnd you\xef\xbb\xbf'
p123
aS'poop him\xef\xbb\xbf'
p124
aS'I dare you to pee on the person to your right in the mouth\xf0\x9f\x99\x8a(5points)\n\xef\xbb\xbf'
p125
aS'I dare you to fill the tub with ice cold water and ice and go inside it for \nat least 30 seconds\xef\xbb\xbf'
p126
aS'Ice bucket challenge before it was cool\xef\xbb\xbf'
p127
aS"I dare you to pluck 3-5 hair strands from Greg's mustache! Greg gets points \ntoo\xef\xbb\xbf"
p128
aS'Gayyyyyyyyyyyyyyyyyyyyyyyyyyyy\xef\xbb\xbf'
p129
aS'haha\xef\xbb\xbf'
p130
aS'i dare u to   do a other parkours\xef\xbb\xbf'
p131
aS'Next Time Lilly Is There I Dare U 2 Kiss Her\xef\xbb\xbf'
p132
aS'He looks like he shat him self\n\xef\xbb\xbf'
p133
aS'What the fuck?! Everyone loves him on his channel but now they all hate \nhim??? FUCK YOU ALL!!\xef\xbb\xbf'
p134
aS'I dare you to get vegie mite and tomato juice mix it in a blender and chug \nit\xef\xbb\xbf'
p135
aS'Did You know Tyler Oakly is gay\n\xef\xbb\xbf'
p136
aS'I dare you to put hotsauce in your nose \xe2\x98\xba\xf0\x9f\x98\x80\xf0\x9f\x98\x82\xef\xbb\xbf'
p137
aS'I dare you to put your face in a\xef\xbb\xbf'
p138
aS' #idareyou  to eat a plain uncooked potatoe\xef\xbb\xbf'
p139
aS'I dierl you to have se*x\n\xef\xbb\xbf'
p140
aS'i dare you to to lick the persons ear across from you\xef\xbb\xbf'
p141
aS'I dare you to rub cooked spaghetti in your hair with sauce\n\xef\xbb\xbf'
p142
aS'I dare you to put Shit down a Snorkly But the Snorkel on there nose\xef\xbb\xbf'
p143
aS' Superwoman is so brave, SAAN\xef\xbb\xbf'
p144
aS'I dare you to say hi while getting tickeld very very hard\xef\xbb\xbf'
p145
aS'I dare you to like the inside of the toilet\xef\xbb\xbf'
p146
aS'Mouth\xef\xbb\xbf'
p147
aS'TYLER IS KING\xef\xbb\xbf'
p148
aS'i dare you to lick the persons armpit to your right\xef\xbb\xbf'
p149
aS'Im sure tyler is gay\xef\xbb\xbf'
p150
aS'GAYYYYY!!!!!\xef\xbb\xbf'
p151
aS'I dare you to dress like a girl in walmart\xef\xbb\xbf'
p152
aS'i dare you to do the ice bucket challenge\xef\xbb\xbf'
p153
aS'I dare you to eat a bottle of veggie might\xef\xbb\xbf'
p154
aS'I dare you to lick your elbow with your tongue.\nI want to see Tobuscus, Smosh (Anthony, Ian), PewDiePie, Jenna Marbels.\xef\xbb\xbf'
p155
aS'Al ov\xef\xbb\xbf'
p156
aS'12:49 have fun with photoshop!\xef\xbb\xbf'
p157
aS"Don't make any dirty gifs of these, internet!\xef\xbb\xbf"
p158
aS'I dare u to kiss the person next to u on the armpit \xef\xbb\xbf'
p159
aS"Wow she's crazy....\xef\xbb\xbf"
p160
aS'I dare you to go on the streets in public and say something dirty/ or sing \na song \xf0\x9f\x92\x95\xef\xbb\xbf'
p161
aS'I dare you to get slapped by the person on your right\xef\xbb\xbf'
p162
aS'I DARE YOU!!!!!!!!!!!! to eat orange peels dipped in Vegemite mixed with \nmustard and soggy milk\xef\xbb\xbf'
p163
aS'I dare you to kiss a boy on the cheeks\xef\xbb\xbf'
p164
aS'I dare you to french kiss the person on your right 30seconds.\xef\xbb\xbf'
p165
aS'lol\xef\xbb\xbf'
p166
aS'This is one of the best vids. Ever.\xef\xbb\xbf'
p167
aS'#Leh :) #IISuperwomanIIrocks\xef\xbb\xbf'
p168
aS'i dare you to eat mayo with hot sauce and drink toilet water\xef\xbb\xbf'
p169
aS'I dare you to hump a shopping cart\xef\xbb\xbf'
p170
aS'I dare you to put eye shadow on the person next to you and then lick it \noff.\xef\xbb\xbf'
p171
aS' I dare you to put a whole Boyle of mayonnaise in your hair and not wash it \nout for the rest of the episode. :D\xef\xbb\xbf'
p172
aS'Jenna marble and superwomen I dare you to run around naked outside yelling \nI love being naked!\xef\xbb\xbf'
p173
aS'I dare YOU!!! To fill your nose up with peanut butter\xef\xbb\xbf'
p174
aS'I dare you to drink dog drul\xef\xbb\xbf'
p175
aS'i dare you to lick some ones butt hole\xef\xbb\xbf'
p176
aS'I dare you to eat a bar of soap\n\xef\xbb\xbf'
p177
aS'i dare you to put Nutella at your butt and walk outside and pretend like it \nis your poop. (4 pts)\xef\xbb\xbf'
p178
aS'Get karate chopped in the stomach and harder each time\xef\xbb\xbf'
p179
aS'I put cola in a water gun and shot it in my nose u can hear it in u Ear\xef\xbb\xbf'
p180
aS"Superwoman!!!!! How come I still didn't get my shirt ?!\xf0\x9f\x98\xa1\xef\xbb\xbf"
p181
aS"Omg I didn't know she was a veggitarian\xef\xbb\xbf"
p182
aS'I dare u to stick ur tongue in a mystery item\xef\xbb\xbf'
p183
aS'I dare you to eat a spoonful of Vegemite in a pool\xef\xbb\xbf'
p184
aS'The only white guy there was half way red. | [|\xef\xbb\xbf'
p185
aS'I dare you to eat ketchup and not spilling it well spining\xef\xbb\xbf'
p186
aS'I love Tyler so much\xef\xbb\xbf'
p187
aS'i dare you to eat mustard and mayonnaise ice cream\xef\xbb\xbf'
p188
aS'I dare you to kiss Craigs mustache\xef\xbb\xbf'
p189
aS'Ryan you totally should have won!\xef\xbb\xbf'
p190
aS'I dare u to wear your underwear or speedos for the whole game"\xef\xbb\xbf'
p191
aS'Sean poops his pants\xef\xbb\xbf'
p192
aS"5:10 and that was how the ice bucket challenge was created lady's and \ngentlemen \xef\xbb\xbf"
p193
aS'it was funny\xef\xbb\xbf'
p194
aS'loved it\xef\xbb\xbf'
p195
aS' I dare you to go in public scream notice me senpai and walk away\xef\xbb\xbf'
p196
aS'Eat a dog turd\xef\xbb\xbf'
p197
aS'I dare you to use ranch as if it was a face wash \xf0\x9f\x98\xb7\xef\xbb\xbf'
p198
aS'i cant believe you did that +IISuperwomanII \xef\xbb\xbf'
p199
aS'omg that was so funny I love you superwoman <3\xef\xbb\xbf'
p200
aS'i dare u to call a random number and when they answer say mommy i went \npoopy oops wrong number than hang up  \xef\xbb\xbf'
p201
aS'I dare you to dump your face in 3 objects.\xef\xbb\xbf'
p202
aS'Poor boy..... He forgot Nutella\xef\xbb\xbf'
p203
aS'I Dare you to eat 2 spoons of peanut butter.... :))\xef\xbb\xbf'
p204
aS'I dare you to brush your teeth with wasabi sause\xef\xbb\xbf'
p205
aS'All you guys are using mayo and its bad to you,but for me i actually like \nthe taste of mayo.\xef\xbb\xbf'
p206
aS'this was crazily and amazingly funny\xef\xbb\xbf'
p207
aS'7:14 who was that? On the left\xef\xbb\xbf'
p208
aS'i kissed a toilet seat for a dare. . . . . . . . .\xef\xbb\xbf'
p209
aS'F\xc3\xb9\xc3\xa7k u Oakley \xef\xbb\xbf'
p210
aS'Lily. Doing the ice bucket challenge before it was cool\xef\xbb\xbf'
p211
aS'ANOTHER ONE WITH LILLY PLEASE!!\xef\xbb\xbf'
p212
aS'I. WANT. HER. SHIRT.\xef\xbb\xbf'
p213
aS"Here's a dare: drink a glass of marmite mixed with hot sauce\xef\xbb\xbf"
p214
aS'tyler never do the hair thing again\xef\xbb\xbf'
p215
aS'I dare you to put a whole thing of mayo down your pants\xef\xbb\xbf'
p216
aS"I dare you to lick someone's butt, while the pants are off! HAHAHAHAHA \xef\xbb\xbf"
p217
aS'FUCKING TYLLERERERER\xef\xbb\xbf'
p218
aS'LOL\xef\xbb\xbf'
p219
aS'I dare u to put ur head in the toilet and drink toilet water\xef\xbb\xbf'
p220
aS'I thought the white-hair dude is a girl~\xef\xbb\xbf'
p221
aS'Kiss 5 dogs\n\xef\xbb\xbf'
p222
aS'SUPERWOMAN FOR THE WIIIIIIN!!!   #superwomanfanforevaa  \xef\xbb\xbf'
p223
aS'Fill your mouth with mustard and jelly till it over flows \xef\xbb\xbf'
p224
aS'i dare u to act like an dramatic girl teen for the rest of the episode. i \ncall 4 points. XD\xef\xbb\xbf'
p225
aS'11:17 Sean pooped his pantsXD\xef\xbb\xbf'
p226
aS'This was made on my brothers birthday\xef\xbb\xbf'
p227
aS'I dare you to let yourself be kicked into a pool a la THIS IS SPARTA!!!\xef\xbb\xbf'
p228
aS'Is that Vegimite a thing? Like DL people actually we eat that stuff?\xef\xbb\xbf'
p229
aS'I dare you to bite the person who is sitting next to you in the ass. ;)\xef\xbb\xbf'
p230
aS'I dare you to kiss the person to your left on the lips\xef\xbb\xbf'
p231
aS'I dare you to lick the seat of the couch\xef\xbb\xbf'
p232
aS'Tell Greg to wax his mustache\n\xef\xbb\xbf'
p233
aS'I dare u to put four mentos in your mouth then drink diet coke\n\xef\xbb\xbf'
p234
aS'When Tyler took the pie to his face, I think you forgot the whip cream.\xef\xbb\xbf'
p235
aS'I dare you to use two random shampoo and hot coke for hair \xef\xbb\xbf'
p236
aS'Tyler Oakley \xe2\x9d\xa4\xef\xb8\x8f\xef\xbb\xbf'
p237
aS'Haha this was really funny \xef\xbb\xbf'
p238
aS'He pooed,his pants\n\xef\xbb\xbf'
p239
aNaS'Punch in the neck or eye\xef\xbb\xbf'
p240
aS'Have Shane Dawson do it\xef\xbb\xbf'
p241
aS'I dare you to spread Nutella on a fried egg and eat it and also put syrup \non it\n\xef\xbb\xbf'
p242
aS'Dear Ryan,\nCan you scare Sean \xef\xbb\xbf'
p243
aNaS'Love u all so funny and awesome sauce\xf0\x9f\x98\x84\xf0\x9f\x98\x83\xf0\x9f\x98\x80\xef\xbb\xbf'
p244
aS'I dare you to lick the toilet seat \xef\xbb\xbf'
p245
aS'I DARE YOU to shave your hair \xef\xbb\xbf'
p246
aS'Bethany Mota and Connor Franta\xef\xbb\xbf'
p247
aS'Ha you crapped your self\xef\xbb\xbf'
p248
aS'I dare you to..  smash 6 eggs with your elbow, without, screaming :D\xef\xbb\xbf'
p249
aS'I dare you to kiss someone on your right \xef\xbb\xbf'
p250
aS'when will you make another expectation vs reality Ryan?\xef\xbb\xbf'
p251
aS'I dare you to remove 10 hairs from either your leg or nose with tweezers\xef\xbb\xbf'
p252
aS'I dare you to wet your pants\xef\xbb\xbf'
p253
aS'BIG FAN NO NOT BIG,ENORMOUS\xef\xbb\xbf'
p254
aS'OMG THIS IS SO FREAKING FUN!\xef\xbb\xbf'
p255
aS"She's got the guts\xef\xbb\xbf"
p256
aS'Reanact a HowToBasic video\xef\xbb\xbf'
p257
aS'I dare you to mix ghost peppers,marshmallow cream and candy corn into one \nbowl and put your foot in it first then get the person on your right or \nleft to slam it in your face\xef\xbb\xbf'
p258
aS'does shaun need some diapers?\xef\xbb\xbf'
p259
aS'i cant even XD im grossed out yet entertained \xef\xbb\xbf'
p260
aS'I need her tshirt sooo BAD :( \xef\xbb\xbf'
p261
aS"Not hating Because I love em but I think that u should try Vegemite with \njack shit on it it's yummy \xef\xbb\xbf"
p262
aS'The kids that say yay sounds like the exact kids from fnaf when you reach 6 \nAM. :-) \xef\xbb\xbf'
p263
aS'The first ice bucket challenge\xef\xbb\xbf'
p264
aS'So many famous youtubers in these comments and video E:\xef\xbb\xbf'
p265
aS'These people will probably die not from old age\xef\xbb\xbf'
p266
aS'11:17\nHe POOPED HIS PANTS LOOOOOL\n\xef\xbb\xbf'
p267
aS'I dare you to eat raw beef eggs and dog food\xef\xbb\xbf'
p268
aS'I DARE YOU: FREE PASS\xef\xbb\xbf'
p269
aS'put a roted banna in ur mouth\xef\xbb\xbf'
p270
aS'I dare you to pick 2 soap,ice cream and coke\n\xef\xbb\xbf'
p271
aS"STOP HATING ON TYLER!!!!!!!!!!!!!!!!!!!!!!!!!!!!!!!!! People can be whoever \nthey wanna be!! Would U like to be called a fag. And don't say yes u @!#$@\xef\xbb\xbf"
p272
aS' I dare you to drink 4 tbsp of Worcestershire sauce without water. \xef\xbb\xbf'
p273
aS'And Shaun pooped\xef\xbb\xbf'
p274
aS'i dare you to eat a rotten egg\xef\xbb\xbf'
p275
aS'I dare you to dive in a pool with an ice bucket on top of your head!:)\xef\xbb\xbf'
p276
aS'Superwoman and tyler are bombs! really love your personalities! so \nentertaining to watch\xef\xbb\xbf'
p277
aS'Dip your head in mayo\xef\xbb\xbf'
p278
aS'This was made on my b day! lol...\xef\xbb\xbf'
p279
aS'i dare you to pick your nose in both nostrils\xef\xbb\xbf'
p280
aS'I dare you to put an egg in your mouth, crush it with your teeth and spit \nit out\xef\xbb\xbf'
p281
aS"This video actually has mor dislikes than likes? How's that possible?? It's \none of the best I dare you's I've ever seen!!\xef\xbb\xbf"
p282
aS'poop\n\xef\xbb\xbf'
p283
aS'I dear you to eat this piece of paper\xef\xbb\xbf'
p284
aS'I dare you to let all the participants pour different flavours of smoothies \non your head XDD!\xef\xbb\xbf'
p285
aS'I dare you to jump into a pool from a hight with the Big Bouncy Inflatable \nGreen Ball and try to keep it in your hands the entire time till you get \nout of the pool\nPS:as soon as the ball of lame gets to the size of a basket ball you should \nhave Jeremy come back and make some shots with it.\xef\xbb\xbf'
p286
aS'Man you are the best youtubers i ever seen EVER!!!!!\n\n\n\n\n\nJust kidding you suck peoples dick and licks everyone buttcrack while they \nare taking a shit...\xef\xbb\xbf'
p287
aS'I meant splits \n\xef\xbb\xbf'
p288
aS'I dare you to smell the fart the person on the right :D\xef\xbb\xbf'
p289
aS'I love mayo so much\xf0\x9f\x98\xb9\xef\xbb\xbf'
p290
aS"4:07 look at Lily's shirt\xef\xbb\xbf"
p291
aS"I dare you to put ice cubes in your arm pits and if u can't do it for more \nthan 5 seconds give 2 of your points to the person on the left\xef\xbb\xbf"
p292
aS'i dare you to do the ice and salt challenge for 2 minutes\xef\xbb\xbf'
p293
aS'DO AN ATOMIC SIT-UP!!!!! lol\xef\xbb\xbf'
p294
aS'It said liquids not solids\xef\xbb\xbf'
p295
aS"She's pretty hot\xef\xbb\xbf"
p296
aS'I dare you to drink 10 liquids from your fridge mixed together. And one of \nthe liquids has to be coffee. 4.5 points\xef\xbb\xbf'
p297
aS'Wow tyler was on the reacting video shrek is love shrek is life and the \nother one was on k-pop :/\xef\xbb\xbf'
p298
aS'I love his mustache \xef\xbb\xbf'
p299
aS'I dare you to shove dirt down your underwear \xef\xbb\xbf'
p300
aS'I dare you to put nutela on your butt in public\xef\xbb\xbf'
p301
aS'I dare u to poop in the toilet and the person to your right put there head \ninside it and flush\xef\xbb\xbf'
p302
aS'I dare you to run outside with your shirt up to ur nose and knock on random \npeoples doors\xef\xbb\xbf'
p303
aS'Get someone to punch you in the balls\xef\xbb\xbf'
p304
aS'Quite a view for Tyler oakly\xef\xbb\xbf'
p305
aS'Tyler oakley is da bomb\xef\xbb\xbf'
p306
aS'i want to see danisnotonfire and fousytube +nigahiga \xef\xbb\xbf'
p307
aS'The Ice bucket challenge pretty much\xef\xbb\xbf'
p308
aS'I dare u to eat wet dog food :-)\xef\xbb\xbf'
p309
aS'SUPERWOMAN IS WEARING A ZAYN MALIK SHIRT!!!!!!!!\xef\xbb\xbf'
p310
aS"I dare you put a huge pile of Legos and do the worm on them with you're \nshirt off >:]\xef\xbb\xbf"
p311
aS'I dare you to jump off the couch and land with your feet on the person to \nyour right\xef\xbb\xbf'
p312
aS'Tyler Oakley is a faggot lol superwoman should get hit by a bus LMFAO XD\xef\xbb\xbf'
p313
aS'duct tape your  back to your person on your lefts back for the whole rest \nof the game\xef\xbb\xbf'
p314
aS'i dare you to eat 2 sugarcubes dipped in mayo\xef\xbb\xbf'
p315
aS'Lilly is my fav \xe2\x9d\xa4\xef\xb8\x8f\xe2\x9d\xa4\xef\xb8\x8f\xef\xbb\xbf'
p316
aS'Dare*\xef\xbb\xbf'
p317
aS'Walking Down the corner with a piece of bread and butter diarrhea ptt ptt \ndiarrhea ptt ptt\xef\xbb\xbf'
p318
aS"I Dare  Ryan to smell one of your friend's socks. Thank you\xef\xbb\xbf"
p319
aS'I dare you to face plant in Legos \xef\xbb\xbf'
p320
aS"She's cute af.\xef\xbb\xbf"
p321
aS'i dare you to have some one strong to smack you balls\xef\xbb\xbf'
p322
aS'I dare you to make a shake with the first 3 things you find in your fridge, \nbut the person who is getting the shake must not see what you put.\xef\xbb\xbf'
p323
aS'Let the fan fiction begin\xef\xbb\xbf'
p324
aS'Who is that in the background 13:54\xef\xbb\xbf'
p325
aS'Pause at 2:42 moment superwoman boobs touch that chinese guy\xef\xbb\xbf'
p326
aS'RYAN!! INVITE PEWDIEPIEEE!!! :) (if you make another one of this episode)\xef\xbb\xbf'
p327
aS'he got poop on his pants\xef\xbb\xbf'
p328
aS'I DARE YOU TO HOLD YOUR BREATH IN A HALF MIN!!!\xef\xbb\xbf'
p329
aS'Go ding dong dich in boxers \xef\xbb\xbf'
p330
aS'I dare you to lick the face of the person on the right of you\xef\xbb\xbf'
p331
aS'I Dare You: Eat a key from an old computer keyboard!\xef\xbb\xbf'
p332
aS'go tobjzl\xef\xbb\xbf'
p333
aS'shmurrr\xef\xbb\xbf'
p334
aS'I dare you to shave the sweatiest armpits and stuff it in your mouth for 1 \nminute\xef\xbb\xbf'
p335
aS'i dare you to bleach your hair or eyebrows\xef\xbb\xbf'
p336
aS'the person who said to put water down the nose you just people to get hurt\xef\xbb\xbf'
p337
aS'I dare you to allow the person to your right to smack you in your balls\xef\xbb\xbf'
p338
aS"+nigahiga you gave the surra de bunda points to the wrong person! You gave \nit to the guy who put vegimite on his pants not the one who got vegimite on \nhis face! So lilly didn't win (sorry lilly) !! I am so smart, no one else \nfigured that out!\xef\xbb\xbf"
p339
aS'I dare you to put lip stick on with out using your hand.\xf0\x9f\x92\x84\xef\xbb\xbf'
p340
aS"I'm Asian too\xef\xbb\xbf"
p341
aS'I dare you to go into a Best Buy wearing khakis and a blue polo and pretend \nto work there.\xef\xbb\xbf'
p342
aS'I dare you to twerk in the mall\xef\xbb\xbf'
p343
aS"love the challenge and Dare videos!!! Don't perform any of these dare yea \nokay\xef\xbb\xbf"
p344
aS'I dare you to 4 pieces of toilet paper soaked in toilet water\xef\xbb\xbf'
p345
aS'Put three giant marshmallows covered in mayo in your mouth \xef\xbb\xbf'
p346
aS'I dare you to jump of the roof of your house\n\xef\xbb\xbf'
p347
aS'I dare u to lick someones umpit\xef\xbb\xbf'
p348
aS'I dare you to eat 5 raw eggs (five points)\xef\xbb\xbf'
p349
aS'Wasup tyler\n\n\xef\xbb\xbf'
p350
aS'i dare you to lick the persons head to your right\xef\xbb\xbf'
p351
aS'I Dare You To Lick The Person To Your Left Or Right In Their Ear \n:) \xef\xbb\xbf'
p352
aS'Soo cool\xef\xbb\xbf'
p353
aS'Gross\xef\xbb\xbf'
p354
aS'I think Greg looks like 2pac\xef\xbb\xbf'
p355
aS'Guys calm down over superwoman, she and ryan just have different humor \nstyles. By the way, shes not a jerk, shes just awesome. JEEZ\xef\xbb\xbf'
p356
aS'I dare you to lap dance for the person to your left \xef\xbb\xbf'
p357
aS'Yaaay\xef\xbb\xbf'
p358
aNaS'Next I dare you vid: snort fundip\xef\xbb\xbf'
p359
aS'I dare you to poke a pin any where on your body. :)\xef\xbb\xbf'
p360
aS"I couldn't even watch when her face was down the toilet how did she do it \n:D \xef\xbb\xbf"
p361
aS'Lol\xef\xbb\xbf'
p362
aS"Next time tell miranda sings and rclbeauty101.\nMy dare is:\n1.Pick your nose and show everyone what came out.\n2.Choose any player to dip their finger in Vegemite and you have to lick it \noff.\n3.Name all seven of Snow White's dwarfs. Any you are unable to name in 30 \nseconds will be written on your arms, legs, belly or face by the other \nplayers.\n4.Put 5(maximum number) or 3(minimum number) ice cubes down you pants (if \nyour a boy) of down your bra(if your a girl) for 15 seconds\xef\xbb\xbf"
p363
aS'why is everyone hating on Tyler and Lily like wtaf I love them \xef\xbb\xbf'
p364
aS'Ice bucket challenge\xef\xbb\xbf'
p365
aS"I dare you to kiss someone's butt\n\xef\xbb\xbf"
p366
aS'i dare you to become a banana\xef\xbb\xbf'
p367
aS'I dare you to pike two foods from your fridge stick them in the toilet and \nlike or eat it\xf0\x9f\x98\xa7\xef\xbb\xbf'
p368
aS'i mean 11:09\xef\xbb\xbf'
p369
aS'i dare u to cut the hair of the next person\xef\xbb\xbf'
p370
aS'u people think that this was what inspired the "ice bucket" challenge? XD\xef\xbb\xbf'
p371
aS'u know supperwormon sweet \xef\xbb\xbf'
p372
aS'i dear you to slap the person to your left in the face\xef\xbb\xbf'
p373
aS'I dare u to run 20 times while u are eating a piece of pie after that drink \ntoilet water \xef\xbb\xbf'
p374
aS'Sorry but pooooooooooooooooooooooooooooooop soan!!!!!!!!!!?????????????????\xef\xbb\xbf'
p375
aS'Superwoman \xe2\x9d\xa4\xef\xb8\x8f\xef\xbb\xbf'
p376
aS'You pooped your pants\xef\xbb\xbf'
p377
aS'err.....lol\xef\xbb\xbf'
p378
aS'I dare you to jump stairs and land stomach in pool\xef\xbb\xbf'
p379
aS'dear ryan can you do a flip while eating a hamburger\xef\xbb\xbf'
p380
aS'I dare you to shave off your head hair\xef\xbb\xbf'
p381
aS'EEEEEEEEEEEEEEEEWWWWWWWWWWWWWWWWWWW\xef\xbb\xbf'
p382
aS'lol, that was nothing. my science teacher got held down by his buddies \nwhile they poured vinegar into his eyes, nose, mouth, and ears after he got \ncovered in 150 gallons of lye, hot grease, and some other dangerous \nchemicals from an exploding water heater he was making bio diesel in. they \nsave his life (the vinegar neutralized the lye). his clothes, glasses, \nwatch, shoes and everything got ruined. \xef\xbb\xbf'
p383
aS'I dare you to crack 3 eggs on your head.extra points if someone throws them \nat you.\xef\xbb\xbf'
p384
aS'Thats like the bucket i did ice bucket challange whit \xe2\x98\xba\xef\xb8\x8f\xef\xbb\xbf'
p385
aS'I love how tylers hair is like perfect again\xef\xbb\xbf'
p386
aS'I dare you to have someone smack u 6 times and it getting harder each time \ngood luck B-)\xef\xbb\xbf'
p387
aS"Reallyyyy don't like Tyler Oakley. How does anyone think he's funny?\nIt's like he lacks the basic essential instincts of humor completely.\n\nMaybe he's a great person or something that I haven't necessarily seen out \nof all of the times of seeing him around the internet.\n\nBut hey, I love this channel. c:\xef\xbb\xbf"
p388
aS'Also it has to be made by the person on your left\xef\xbb\xbf'
p389
aS'Suck a banana blindfolded\xef\xbb\xbf'
p390
aS'Snort ketchup\xef\xbb\xbf'
p391
aS'i dare you to pierce your ear with a pin or something\xef\xbb\xbf'
p392
aS'I dare you to go trick or treating not on Halloween\xef\xbb\xbf'
p393
aS'I dare you to where nothing but bikinies at walmart until you get kicked \nout\xef\xbb\xbf'
p394
aS'I dare you to suck the person to your rights penis\xef\xbb\xbf'
p395
aS'Ryan is so cute in this. My gosh I love this series, never stop\xef\xbb\xbf'
p396
aNaS'I dare u suck dick\xef\xbb\xbf'
p397
aS'I dare you to smash coffee beans on the floor, pour water on it and lap it \nup straight from the floor\xef\xbb\xbf'
p398
aS"I love Lilly's (superwoman) shirt <3 Zayn!!\xef\xbb\xbf"
p399
aS'And also with cold water\xef\xbb\xbf'
p400
aS'I feel so bad for Tyler xD\xef\xbb\xbf'
p401
aS'i dare you to run onto the street and act like a pigeon :D!\xef\xbb\xbf'
p402
aS'Tyler Oakly acts like a total girl so whats hes gay i dont care about that \nhe acts like a girl\n\n\nGAYYYYYYYY\xef\xbb\xbf'
p403
aS"Why doe's he change he's got to man up\xef\xbb\xbf"
p404
aS'I dare you let a person of your choosing choose an item for you to eat a \nladle full of\xef\xbb\xbf'
p405
aS"Vegemite is a taste that you have to get used to from child birth. Unless \nyou get pregnant and your taste buds change (which I've heard) you will \nnever like Vegemite.\xef\xbb\xbf"
p406
aS'i dare you to slap sean\xef\xbb\xbf'
p407
aS'Ball of lame lol!!!!!!!!!!!!!!!!!!!!!!\xef\xbb\xbf'
p408
aS'+nigahiga I dare you lick every ones nipple if one of them is a girl \nbetween toes\xef\xbb\xbf'
p409
aS"Y'all are too nice\xef\xbb\xbf"
p410
aS'I dare superwoman to kiss nigahiga \xef\xbb\xbf'
p411
aS'wat.the.****. What about the innocent 8 year olds that watch this. Shame on \nu Sean\xef\xbb\xbf'
p412
aS"I love mayo! I'd eat 3 big spoonfuls of it anyday\xef\xbb\xbf"
p413
aS'I dare you to knock on a house then run away\xef\xbb\xbf'
p414
aS'i dare you to snort tobasco\xef\xbb\xbf'
p415
aS'You have poo on you ehehehehehhehhhehhehehehehehehehheheheheheh\xef\xbb\xbf'
p416
aS'Lol\xef\xbb\xbf'
p417
aS'Best I Dare You yet\xef\xbb\xbf'
p418
aS'YES!!! SUPERWOMEN WON!!! love you lilly.\xef\xbb\xbf'
p419
aS'Show em  dont show em you and me dont gotta show em!\xef\xbb\xbf'
p420
aS"Nick between somebody's poop\xef\xbb\xbf"
p421
aS'i bellyflopped of my couch before\xef\xbb\xbf'
p422
aS'SHAWN WTF\xef\xbb\xbf'
p423
aS'Who is sitting behind the tabel?! That scared me so bad!\xef\xbb\xbf'
p424
aS"Greg's a professional nose drinker\xef\xbb\xbf"
p425
aS"Superwoman is hot, sorry I'm a lesbian XD\xef\xbb\xbf"
p426
aS'I dare you to eat a lemon\xef\xbb\xbf'
p427
aS"I dare you to prank call another MALE youtuber that ISN'T in the room and \ntell him that you LOVE him (like love ,love) <3 \xef\xbb\xbf"
p428
aS'superwoman +Katy Perry \xef\xbb\xbf'
p429
aS'So is Tyler Oakley a gay person\xef\xbb\xbf'
p430
aS'Wgo does tyler like\xef\xbb\xbf'
p431
aS'I love her shirt\xf0\x9f\x98\x8d\xe2\x9d\xa4\xef\xb8\x8f\xef\xbb\xbf'
p432
aS'Her t shirt \xf0\x9f\x98\x8d\xef\xbb\xbf'
p433
aS'do one with pewdiepie and smosh!\xef\xbb\xbf'
p434
aS'i dare you to drink hot sauce straight from the bottle\xef\xbb\xbf'
p435
aS'i dear you to cut of his mustash\xef\xbb\xbf'
p436
aS'I dare u to do the cinnamon challenge plz\xef\xbb\xbf'
p437
aNaS'I love how this video created this huge argument about gays in the comments \nsection. Grow up.\xef\xbb\xbf'
p438
aS'YAY MY BAES ARE HERE!!!!!!\xef\xbb\xbf'
p439
aS'I dare you to wash your hair with ketchup!\xef\xbb\xbf'
p440
aS'Anyone else see lilys shirt\xef\xbb\xbf'
p441
aS'#Troyler\xef\xbb\xbf'
p442
aNaS'I dare you to play call of duty \xef\xbb\xbf'
p443
aS'Eat broadly and peanut butter at the same time\xef\xbb\xbf'
p444
aS'#SUPERWOMAN\xef\xbb\xbf'
p445
aS"Gay man that's funny as hell\xef\xbb\xbf"
p446
aS'Have someone give you a swirly!\xef\xbb\xbf'
p447
aS'Lick it\n\xef\xbb\xbf'
p448
aS'go to walmart and the first person you see air hump untill they realize you \nthen book it\xef\xbb\xbf'
p449
aS'These dares are so crazy, I want to try them... NEW "I Dare You" by +\nnigahiga and my friend +Tyler Oakley and special guest +IISuperwomanII!\xef\xbb\xbf'
p450
aS"Lilly's shirt though...\n<3\xef\xbb\xbf"
p451
aS"That's hilarious Tyler's gay so he punched like a girl \xef\xbb\xbf"
p452
aS'I dare someone to be blindfolded and put makeup on your face.\xef\xbb\xbf'
p453
aS'Fill a bath with ice and bathe In it for a full minute. 5 points\xef\xbb\xbf'
p454
aS'I dare you to eat 50 Mcnuggets in under 10 minutes\xef\xbb\xbf'
p455
aS'I dare you to let a ton of chocolate, put it in a bucket, and soak your \nfeet in it for 20 seconds. Or you can dump it on your head for extra points\xef\xbb\xbf'
p456
aS'Yes people, Tyler Oakley is gay, now stfu and live your life ok\xef\xbb\xbf'
p457
aS'Lilly is a badass! So competitive)))\xef\xbb\xbf'
p458
aS"Stop asking for gay dares they would not do it so stop \n\n\n\n\n\n\n\n\n\n\n\n\nU clicked to read more \nThat's a real troll\xef\xbb\xbf"
p459
aS'I dare you to tell a secret you never told ANYBODY\xef\xbb\xbf'
p460
aS'M3H XD\xef\xbb\xbf'
p461
aS"She's hot for an Indian \xef\xbb\xbf"
p462
aS'6:55, the moment they turn & laugh, GIF, NOW. This is your homework for \ntoday and I want it on my desk by monday. Class dismissed.\xef\xbb\xbf'
p463
aS'Does peanut butter count as liquid\xef\xbb\xbf'
p464
aS'I dare you to put vegamite on your face in public and scream poopy disaster\xef\xbb\xbf'
p465
aS'he got shitted on \xef\xbb\xbf'
p466
aS'Do parkour on the stairs.\xf0\x9f\x98\x88\xef\xbb\xbf'
p467
aS'i dare you to drink your piss\xef\xbb\xbf'
p468
aS'i dare u to get punched by everyone in the back\xef\xbb\xbf'
p469
aS'Tyler is so gayyyy\xef\xbb\xbf'
p470
aS'I dare you to eat a spoonful of veggiemite for 5 points \xf0\x9f\x99\x8a\xf0\x9f\x99\x8a\xf0\x9f\x91\x8d\xef\xbb\xbf'
p471
aS'I dare you to reenact viral videos\xef\xbb\xbf'
p472
aS'Love your videos\xef\xbb\xbf'
p473
aS'btw... a woman shouldnt half to dunk her head down a toilet. but shes lucky \nto win\xef\xbb\xbf'
p474
aS'Spoiler alert! Superwoman wins\xef\xbb\xbf'
p475
aS"Ryan's stair-climbing was like a kangaroo jumping!! \xef\xbb\xbf"
p476
aS"Sean's ass is a weapon\xef\xbb\xbf"
p477
aS'I dare you to put mustard on your wall and lick it\xef\xbb\xbf'
p478
aS'i dare you yo have a karate mach with ryan higa if you are ryan higa shan \nfujioshi\xef\xbb\xbf'
p479
aS'Do milk challenge\xef\xbb\xbf'
p480
aS' Hi\xef\xbb\xbf'
p481
aS'BIG PIE to the face \xef\xbb\xbf'
p482
aS'I dare you to put a toothpick under your toenail and kick a wall!HARD!\xf0\x9f\x98\x8b\xef\xbb\xbf'
p483
aS'I dare you to eat a crayon.\xef\xbb\xbf'
p484
aS'nice house\xef\xbb\xbf'
p485
aS'omg! when you were putting the vegemite on his hands i literally smelt it!! \ngroosssssss!!!!!! SALTY!\xef\xbb\xbf'
p486
aS'4:05 lol the t-shirt!\xef\xbb\xbf'
p487
aS'I dare you to like the bottom of a car tire\xef\xbb\xbf'
p488
aS'I dare you to take cinnamon challenge upside down\xef\xbb\xbf'
p489
aS'I dare you to stack up 5 chairs by a pool then do a belly flop\xef\xbb\xbf'
p490
aS'I dare you to drink a cup of hot sauce and chili mixed together \xef\xbb\xbf'
p491
aS'I ship Lily and Ryan so HARDDDDDDDDD\xef\xbb\xbf'
p492
aS'It was on hopsin birthday\xef\xbb\xbf'
p493
aS'i dare you to eat half a spoon of really hot sauce\xef\xbb\xbf'
p494
aS'#lillywearingazaynshirt\xef\xbb\xbf'
p495
aS'I dare you to put chocolate on your but and then twerk in the middle of the \nstreet. \xef\xbb\xbf'
p496
aS'Can lily and Ryan PLZ date they are perfect together \xf0\x9f\x98\x8d\xf0\x9f\x98\x8d\xf0\x9f\x98\x8d\xf0\x9f\x98\x8d\xef\xbb\xbf'
p497
aS'ive tried rockstar the drink im drinking it right now the flavor is blue \nice\xef\xbb\xbf'
p498
aS'Victory stinks like a toilet.\xef\xbb\xbf'
p499
aS'I dare you to walk on lego without shoes :)\xef\xbb\xbf'
p500
aS'I dare you to lick your elbow with your tongue \n\xee\x81\x8a\xee\x84\x90\xee\x81\x8a\xee\x84\x90\xee\x81\x8a\xee\x84\x90\n\xee\x8c\xae\xe2\x94\x8f\xe2\x94\x93YOU can\xee\x8c\xae\n*\xe2\x94\x8f\xe2\x94\xbb\xe2\x94\xab\xe2\x95\xa6\xe2\x95\x97\xe2\x95\x94\xe2\x95\x97\xee\x80\x8e\xee\x8c\xa6\n*\xe2\x94\x83\xe2\x94\x81\xe2\x94\xab\xe2\x95\x91\xe2\x95\x91\xe2\x95\x91\xe2\x95\x91\xee\x80\x8e\xee\x8c\xa6\n*\xe2\x94\x83\xe2\x94\x81\xe2\x94\xab\xe2\x95\xa9\xe2\x95\x9d\xe2\x95\x9a\xe2\x95\x9d IT\xee\x8c\xb7\n\xee\x8c\xae\xe2\x94\x81\xe2\x94\x9b\xee\x90\x85\xee\x8c\xa7\xee\x8c\xa8\xee\x8c\xae\n\xee\x84\x8f\xee\x80\xbf\xee\x84\x8f\xee\x80\xbf\xee\x84\x8f\xee\x80\xbf\xef\xbb\xbf'
p501
aS'Vegemite I love it\xef\xbb\xbf'
p502
aS'Take a bath in mayo and ice\xef\xbb\xbf'
p503
aS'People need to learn how to get the hell over themselves and deal with they \nfact that YES, TYLER OAKLEY IS GAY. YOU CANNOT CHANGE THAT. So stop hating \nand get on with your life .. \xef\xbb\xbf'
p504
aS'HAA... GAYYYYYYYYY\xef\xbb\xbf'
p505
aS'LILY IS MA QUEEN X!!!!!!!!!\xef\xbb\xbf'
p506
aS"Wow super women doesn't sound like jesse and jeana lol saaaann I mean come \non....\xef\xbb\xbf"
p507
aS'I Dare You to... EAT THIS COMMENT \xef\xbb\xbf'
p508
aS'Im using my nanas account I dare you to dunk your head in a bucket of \nliquid soap without any goggles withnyour mouth and eyes wide open! If lily \ngets this I will laugh\xef\xbb\xbf'
p509
aS'I dare you to the cinnamon challenge or you can use flour as an alternative \n:)\xef\xbb\xbf'
p510
aS'i dare you to put ketchup,mayo,Nutella,vinegar,mustard in your underwear \nthen have someone stick their hand in it\xef\xbb\xbf'
p511
aS'So this is how the ALS ice bucket challenge started...\xef\xbb\xbf'
p512
aS'Such funny videos \xf0\x9f\x98\x84\xef\xbb\xbf'
p513
aS'Walk up to a random person and hand them a picture of one of the \nparticipants saying "Make it look like an accident." \xef\xbb\xbf'
p514
aS'Lol!\xef\xbb\xbf'
p515
aS'IISuperwomanII+Nigahiga=Cutest couple ever!\nLilly+Ryan=Rylly, etc.\xef\xbb\xbf'
p516
aS'I ship Lily and Ryan so hard \xef\xbb\xbf'
p517
aS"I CAN'T BREATH\xf0\x9f\x98\x82\xf0\x9f\x98\x86\xef\xbb\xbf"
p518
aS'I dare you to kiss each other for 6 points\xef\xbb\xbf'
p519
aS'The woman is so annoying.\xef\xbb\xbf'
p520
aS'i dare u to drink ur own urin  \xef\xbb\xbf'
p521
aS'5\xef\xbb\xbf'
p522
aS'I DARE YOU.. To eat this dare. \xef\xbb\xbf'
p523
aS'I dare you to eat a warhead.\xef\xbb\xbf'
p524
aS'I dare you to wrap yourself in toilet paper and back smack into a pool\xef\xbb\xbf'
p525
aS'I dare you to put the wettest sushi down your pants. No compramizes\xef\xbb\xbf'
p526
aS'I dare someone To eat a bag of frozen peas and frozen fish\xef\xbb\xbf'
p527
aS'Lolololololol\n\xef\xbb\xbf'
p528
aS'I dare superwoman mommy\xef\xbb\xbf'
p529
aS'i dare you to do a shot of half vodka, half hot sauce.\xef\xbb\xbf'
p530
aS"I dare you to dunk your head in a bucket of Apple Cider Vinegar (It's good \nfor your hair, but burns) \xef\xbb\xbf"
p531
aS'I dare you to crack a egg on your face\xef\xbb\xbf'
p532
aS"I dare you to pick someone else's nose and eat it\nThis is an old video though so you might not even see this lol\xef\xbb\xbf"
p533
aS'Turn on the kids chanel and keep it on for the full game\xef\xbb\xbf'
p534
aS'Eat a lemon or a lime\n\xef\xbb\xbf'
p535
aS'I dare u to togue kiss the person to your right\xef\xbb\xbf'
p536
aS' I dare u to dump your head in vegimite \xef\xbb\xbf'
p537
aS'I dare you to bath in 10 bags of squishy bath\xef\xbb\xbf'
p538
aS"Lily's shirt doe\xef\xbb\xbf"
p539
aS'I dare you to drink toilet water\xef\xbb\xbf'
p540
aS'i dare you to lick someones  ear\xef\xbb\xbf'
p541
aS'you probably wont read this but i dare you to stick your nose in the person \nto your rights nose and ear for 10 seconds!\xef\xbb\xbf'
p542
aS"Dare you to lick your person on the right's butt pants on \n\xf0\x9f\x98\xad\xf0\x9f\x98\xad\xf0\x9f\x98\xad\xf0\x9f\x98\xad\xf0\x9f\x98\xad\xf0\x9f\x98\xb1\xf0\x9f\x98\xb1\xf0\x9f\x98\xb1\xf0\x9f\x98\xb2\xf0\x9f\x98\xb2\xf0\x9f\x98\xb2\xef\xbb\xbf"
p543
aS'i dare you to punh  your salfl in the face 29 tmies\n \xef\xbb\xbf'
p544
aS'Um...\xef\xbb\xbf'
p545
aS'I dare you to eat rotten cheese \xf0\x9f\x98\xae\xef\xbb\xbf'
p546
aS'I like Tyler\xef\xbb\xbf'
p547
aS'"I felt Tyler\'s balls on my neck"\nWell that escalated quickly\xef\xbb\xbf'
p548
aS'This is for greg i dare you to shave your beard\n\xef\xbb\xbf'
p549
aS'I dare you to go on your car. Also put mayo on it washing with your butt\xe2\x98\xba\xef\xbb\xbf'
p550
aS'i dare you to touch the person next to you but in the sexual way i mean \ntouch him/her in the no no zone\xef\xbb\xbf'
p551
aS'Do a idare you with miranda sings please!!!!!\xef\xbb\xbf'
p552
aS' I dear you to fall down the stairs 6 points\n\xef\xbb\xbf'
p553
aS'Wtf!? That weird guy cant punch?! Mind blown\xef\xbb\xbf'
p554
aS'She cago\xef\xbb\xbf'
p555
aS'superwomen i dare you to eat bacon \xef\xbb\xbf'
p556
aS'i dare you to drink a whole cup of canola oil and then dress like a cray \ncray gurl then knock on a guy\'s door and say "hey darling you and me \ntonight\' then wink and strut off \xef\xbb\xbf'
p557
aS'Htf do they have 13million + subs!!????\n\xef\xbb\xbf'
p558
aS'I dare u to shave the hair in the middle off\xef\xbb\xbf'
p559
aS'Ok, which of you actually eats Vegemite? You always seem to have some on \nhand haha\xef\xbb\xbf'
p560
aS'I dare you to put a spider in your under wear for a minute \xef\xbb\xbf'
p561
aS'Hi Lilly\xef\xbb\xbf'
p562
aS'*+nagahiga* I dare u to put a hole bunch of hot sauce on your face the put \nice!!!!!!!!!!\xef\xbb\xbf'
p563
aS'I feel bad for the guy in the tree shirt :(\xef\xbb\xbf'
p564
aS"1st dare , youtuber , a women , hot women and spoon fulll of white \nstuff..........they are asking for it aren't they \xef\xbb\xbf"
p565
aS'lol\xef\xbb\xbf'
p566
aS'Creepertality you are a fucker lol\xef\xbb\xbf'
p567
aS"Vegemite is good but without butter and on bread :) although I'm Australian \nthough \xf0\x9f\x92\x81\xf0\x9f\x98\x9b\xf0\x9f\x92\x85\xef\xbb\xbf"
p568
aS"I LOVE LILY'S SHIRT!!\xef\xbb\xbf"
p569
aS'I dare you to lick the road\xef\xbb\xbf'
p570
aS'I dare you to get a bowl of confectioners sugar and add three skittles in \nit and get them out with your head only\xef\xbb\xbf'
p571
aS'i dare one of yall to brush ure teeth with any sauce you find in your \nrefrigerator then drink it down with any disgusting drink like its mouth \nwash\xef\xbb\xbf'
p572
aS'I dear you to do the ice bucket challenge with oil\xef\xbb\xbf'
p573
aNaS'i dare you to make tyler look like a sex maniac\xef\xbb\xbf'
p574
aS'I dare Greg to shave his awesome Stache!\xef\xbb\xbf'
p575
aS"1. People are saying gay as an insult but if you guys were gay would we \njudge you no we wouldn't \n2. People who are gay can be shy to come out to there family and friends \nbecause of you you insult them you laugh at them but really they are no \ndifferent for you chew on that .\n\n\xef\xbb\xbf"
p576
aS'I dare you to eat Vegemite or anything that is nasty\xef\xbb\xbf'
p577
aS'I dare you  to call a random person and tell them that your in labor or \npregnant\xef\xbb\xbf'
p578
aS'I dare you to do this:\nWhen someone strays from his or her cart, steal it and say \xe2\x80\x9cITS MINEEEEEE! \nALLLL MINEEEE!\xe2\x80\x9d\xef\xbb\xbf'
p579
aS'I dare you to pee in a toilet and drink 15ml of the piss\xef\xbb\xbf'
p580
aS'i dare u to pick the first 3 things you see in your fridge and blend it and \ndrink all of it under a minute.\n\n\xef\xbb\xbf'
p581
aS'13:00- first cleaning!\xef\xbb\xbf'
p582
aS"I DARE U TO DRINK A SMOOTHIE THAT'S MIXED WITH EVERY SINGLE LIQUID IN YO \nHOUSE. KETCHUP INCLUDED.\xef\xbb\xbf"
p583
aS'I dare. You to\nBreak dance in public \xef\xbb\xbf'
p584
aS'and eat it\xef\xbb\xbf'
p585
aS'I dare to pour vinegar in your smotch\xef\xbb\xbf'
p586
aS'everyone is virtually fighting like chill. treat ppl like theyre dyeing. \ngod\xef\xbb\xbf'
p587
aS'I dare you to fill Legos in to a soak and hit anyone with it\xef\xbb\xbf'
p588
aS'I dare u to do a lap dance\xef\xbb\xbf'
p589
aS'I dare you to drink atleast 5 shots of straight coffee. No Milk, water or \nflavour\xef\xbb\xbf'
p590
aS'In the thumbnail I thought Tyler was dying his hair back to dirty blonde \xef\xbb\xbf'
p591
aS'I dare you to rub icy hot on your balls in public and act like a monkey\xef\xbb\xbf'
p592
aS'GRACE HELBIG\xef\xbb\xbf'
p593
aS'it was funny\n\xef\xbb\xbf'
p594
aS'I dare you to have long hair. ARE YOU HAPPY SUPERWOMEN!? <3\xef\xbb\xbf'
p595
aS"Tyler's laugh is the best thing that happened to me today\xef\xbb\xbf"
p596
aS'YAAS TYLER OAKLY IS A DIRECTIONER SO IS SUPERWOMAN! You guys just made my \nday...\xef\xbb\xbf'
p597
aS'Tyler ur gay\xef\xbb\xbf'
p598
aS'I dare you to do the gangnam style in the mall\xef\xbb\xbf'
p599
aS'I dare you to eat a spoon of marmite >:D\xef\xbb\xbf'
p600
aS"She's more man than any of YALL put together \xf0\x9f\x98\x82\xf0\x9f\x98\x82\xf0\x9f\x98\x82\xef\xbb\xbf"
p601
aS'I dare you to stick your head into the fattest persons butt for 10seconds\xef\xbb\xbf'
p602
aS"I like when Tyler Oakley said I'm gonna fu*k this sh*t!\xef\xbb\xbf"
p603
aS"Did he just say he doesn't know how to punch?\xef\xbb\xbf"
p604
aS'i dare you to eat a spoonful of salt alone\xef\xbb\xbf'
p605
aS"Hopefully a guest star gets this one...I dare you to let all the other \nmembers dare you to do whatever they want...WHATEVER they want...your'e \nwelcome you guys.\xef\xbb\xbf"
p606
aS'Tyler: i dont know how to punch! Lol I love u Tyler and superwoman!\xef\xbb\xbf'
p607
aS"That boy, that, did, da bit thing i's gay\xef\xbb\xbf"
p608
aS'SOOOOOOO AWESOME!!!! Bwahahaha\xef\xbb\xbf'
p609
aS'Ice bucket challenge lol\xef\xbb\xbf'
p610
aS'i dare you to put on a wig for the rest of the video\xef\xbb\xbf'
p611
aS'Who is that standing behind Ryan in the computer chair\xef\xbb\xbf'
p612
aS'I dare u to eat 6 saltine crackers\xef\xbb\xbf'
p613
aS'DIRRRTYYYY EDITION get two pieces of gum (different colours) and put one in \nsomeones mouth and one in urs, then exchange the bubblegum\xef\xbb\xbf'
p614
aS'I dare you to shoot a basketball backwards and if you miss everyone gets to \npunch you \xef\xbb\xbf'
p615
aS'I love her shirt...\xef\xbb\xbf'
p616
aS'i dare you to do the nae nae dance\xf0\x9f\x98\x82\xf0\x9f\x98\x82\xf0\x9f\x98\x82\xef\xbb\xbf'
p617
aS'I DARE YOU TOO DRINK THE TOLIET WATER WITH NOTHING ELSE\xef\xbb\xbf'
p618
aS'I dare you to start singing "baby" from justin bieber on the mall while \njumping.\xef\xbb\xbf'
p619
aS'i aint hating but that indian girl is like a man and that dude with white \nhair is like a girl......\xef\xbb\xbf'
p620
aS'OH MY GOSH! SUPERWOMAN!\xef\xbb\xbf'
p621
aS'I dare you to pour a drink on the bathroom ground and drink it \xef\xbb\xbf'
p622
aS'I dare u to run through ur neighborhood in boxers \xef\xbb\xbf'
p623
aS'i want nutella now\xef\xbb\xbf'
p624
aS'Tyler... I would say that your dare was as easy as Pie.\xef\xbb\xbf'
p625
aS'wrong video\xef\xbb\xbf'
p626
aS'I dare you to eat a ghost pepper\xef\xbb\xbf'
p627
aS'Joey graceffa and I dare you to drink musterd \xef\xbb\xbf'
p628
aS'I dare you to get a straw and drink pool water. LOOLLOLOLOLOLOOL\xef\xbb\xbf'
p629
aS'Go in the mall driest up as a clawn making boulens\n\xef\xbb\xbf'
p630
aS'Cool but gross\xef\xbb\xbf'
p631
aS'I would tell you to kiss someone they lips or leg\xef\xbb\xbf'
p632
aS'O my goons\xef\xbb\xbf'
p633
aS'viniger can kill you\xef\xbb\xbf'
p634
aS'I love that dudes moustache!\xef\xbb\xbf'
p635
aS'aquward moments\xef\xbb\xbf'
p636
aNaS'I snorted vinegar once by accident and I got a nosebleed\xef\xbb\xbf'
p637
aS'SHUT THE HELL UP ABOUT TYLER YES HE IS GAY, SO WHAT? UR ALL JUST BEING \nHOMOPHOBIC AND STUPID. ITS HIS CHOICE TO BE ATTRACTED TO THE OPPOSITE SEX \nAND SO BE IT. LEAVE MY QUEEN ALONE \xef\xbb\xbf'
p638
aS'I dare you to dump your sock into dog poop and put it on your shirt.\xef\xbb\xbf'
p639
aS'i dare you to DRINK viniger (niga higa!!!)\xef\xbb\xbf'
p640
aS'That must be horrible \xef\xbb\xbf'
p641
aS'that was so funny\xef\xbb\xbf'
p642
aS"Tyler: I am a man I will beat u up\n\nFive secs later: I don't know how to punch\xef\xbb\xbf"
p643
aS'I dare u to drink toilet water but before u do add some vegemite to it or \nur own piss\xef\xbb\xbf'
p644
aS'I dare all of you to go into a restaurant and see how many times you can \ntouch your nose on people in 2 and a half minutes.\xef\xbb\xbf'
p645
aS'tyler get your balls of his back 14:55\xef\xbb\xbf'
p646
aS'The inventor of ice bucket challenge :O\xef\xbb\xbf'
p647
aS'8:03 YES BITCH BVB!\xef\xbb\xbf'
p648
aS'I dare you to use vegemite as hair wax and get the person on your left to \nstyle it as if you were going on a date (4points tops)\xef\xbb\xbf'
p649
aS'I forgot Vegemite was gross and not an everyday food in their country lol I \nlive in Australia\xef\xbb\xbf'
p650
aS'I SHIP RYAN AND LILY SUPER HARDCORE\xef\xbb\xbf'
p651
aS'You guys are so funny!\xf0\x9f\x98\x84\xef\xbb\xbf'
p652
aS'Do more I dare you please\xef\xbb\xbf'
p653
aNaS"look at the girls (I don't know her name) shirt at 4:07\xef\xbb\xbf"
p654
aS'OMG YASSSSSSSSS bring tyler and lily back on i dare you THIS WAS MY \nFAVORITE EPISODE \xef\xbb\xbf'
p655
aS'lol\xef\xbb\xbf'
p656
aS'ice bucket challenge\xef\xbb\xbf'
p657
aS'I ship Ryan and Lilly so much\xef\xbb\xbf'
p658
aS"It's not uncommon for people to eat mayo out the jar. I used to do it often \nand then saw my brother doing it one day. If it's a traditionally made \nmayo, made from good eggs it's really quite delicious. It would actually be \nmore unpleasant chasing it down with a flavoured drink.\xef\xbb\xbf"
p659
aS'.... i dare you to put your face in in MUD and take a bite for the KILL!!!\xef\xbb\xbf'
p660
aS'I swear lilly carry a rockstar every where she goes\xef\xbb\xbf'
p661
aS'My 3 favorite youtubers together \xe2\x9d\xa4\xef\xb8\x8f\xef\xbb\xbf'
p662
aS'I dare you to dump soda on yourself and leave it till the end of the game.\xef\xbb\xbf'
p663
aS'Eat a raw egg \xef\xbb\xbf'
p664
aS'or have a shaving cream fight\xef\xbb\xbf'
p665
aS"i dare you to kiss someone's butt with jam on it for 10 secs\xef\xbb\xbf"
p666
aS'I dare you you to rub Vegemite or any other condiment(maybe chili sauce) on \nyour face and lick off what you can(sorry....\xf0\x9f\x98\x82)\xef\xbb\xbf'
p667
aS'\xf0\x9f\x98\x82\xef\xbb\xbf'
p668
aS'I dare you to take off your shirt and let the other players spray silly \nstring all over your upper body.\xef\xbb\xbf'
p669
aS' I dare you to eat poop\n\xef\xbb\xbf'
p670
aS'Superwoman Put Her Head In Water With Ice In It. A while later, Ice bucket \nchallenge got big. \xef\xbb\xbf'
p671
aS'I thought for sure someone was gonna get dared to lick the toilet sit xD \n#Shemurr  \xef\xbb\xbf'
p672
aS'I dare u to do the spits \n\xef\xbb\xbf'
p673
aS'i dare you to kiss the person on your left\xef\xbb\xbf'
p674
aS'I was drinking this like soda juice thing once and I accidentally got some \ninto my nose. It hurts.\xef\xbb\xbf'
p675
aS'I dare you to find the dirtiest, stinkiest, smelliest, piece of clothing \nand wear it for the rest of the game and whoever wins the game has to dump \na can of tomato sauce on you. \xef\xbb\xbf'
p676
aS'i dare you to do a backflip in the pool with tyler\xef\xbb\xbf'
p677
aS'I dare u to put a worm in your pants i actually did that myself!\nIts not as scary as it seems!\xef\xbb\xbf'
p678
aS'I dare you to lick the wall\xef\xbb\xbf'
p679
aS'I am in to doing things and you gigs are awesome\xef\xbb\xbf'
p680
aS'I dare you to spin around in 10 circles outside then run forward\xef\xbb\xbf'
p681
aNaS'Eat a spoon full of vegemite \xef\xbb\xbf'
p682
aS'I dare you to eat 5peices of wet toilet paper \xef\xbb\xbf'
p683
aS'i dare u to pour oil and vineger down ur pants\xef\xbb\xbf'
p684
aS'I dare you to havr a rap off with the person on your fight winner gets +4 \npoints loser gets -4 points\xef\xbb\xbf'
p685
aS"I Love Tyler Even though he's Gay :)\xef\xbb\xbf"
p686
aS'ah!!!!! LOL knew lily wud win...she is SUPERwoman....uh-huh....LOVE \nEVERYONE IN THE VEDIO>.< \xef\xbb\xbf'
p687
aS'i love you +IISuperwomanII and i love +nigahiga !!!!!!!!!!!!!!!!!! Its the \nbest combination of my 2 favourite youtubers\xef\xbb\xbf'
p688
aS'Hiiiii I love this vid because superwoman is in it \xf0\x9f\x98\x83\xf0\x9f\x98\x84\xf0\x9f\x98\x84\xf0\x9f\x98\x83\xf0\x9f\x92\x96\xf0\x9f\x92\x96\xf0\x9f\x92\x96\xf0\x9f\x92\x96\xef\xbb\xbf'
p689
aS"You're the the funniest and best youtuber ever please never stop making \nvideos and always be you :) \n(If possible...please SAY MY NAME IN UR NEXT VIDEO....LIKE KINDA A \nSHOUTOUT) \nAND OME TO INDIA,......BANGALORE \xef\xbb\xbf"
p690
aS"I dare you to lick someone else's armpit \xf0\x9f\x98\x82\xf0\x9f\x98\x82\xf0\x9f\x98\x82\xf0\x9f\x98\x82\xef\xbb\xbf"
p691
aS'Was this in Australia?\xef\xbb\xbf'
p692
aS'Guy with the mustache always makes my day lol\xef\xbb\xbf'
p693
aS'TEEHEE\xef\xbb\xbf'
p694
aS"Superwoman's Shirt\xe2\x99\xa5\xef\xbb\xbf"
p695
aS'I love the banter before they say I DARE YOU lol\xef\xbb\xbf'
p696
aS'Lilly Cyrus\xef\xbb\xbf'
p697
aS'TAPE all of your fingers together for the next 4 turns\xef\xbb\xbf'
p698
aS'"Zurra de bunda" in portuguese means "butt punch" but i guess it\'s kinda \nobvs thought.\xef\xbb\xbf'
p699
aS"I dare you to drink urine and if it's somebody elses or if it was urinated \ninto a toilet then retrieved then drank extra point(s)\xef\xbb\xbf"
p700
aS'And worth 3 points\nAnd three points only !!!!\xef\xbb\xbf'
p701
aS'I dare you to strip naked\xef\xbb\xbf'
p702
aS'I hate 1d\xef\xbb\xbf'
p703
aS'Zane Anderson, the reason why you got those responses is because:\nA. You used the word \'bitch\'.\nB. You spelled vegetarian wrong.\nC. You probably should have looked into it.\nD. Your typing and tone was a little off-key. You should have typed \nsomething like this: "Does anyone know why she\'s a vegetarian?"\n\nBAM! Problem solved.\xef\xbb\xbf'
p704
aS'i dare you to let someone else make a cup full with 5 secret eatable \ningredients lol\xef\xbb\xbf'
p705
aS'I regret watching this after eating.\xef\xbb\xbf'
p706
aS'Aw will in the back :) \xef\xbb\xbf'
p707
aS'I dare you to kiss someone ass\xef\xbb\xbf'
p708
aS'Best I Dare You ever xD Go supeh woman!\xef\xbb\xbf'
p709
aS'Snort vinager\xef\xbb\xbf'
p710
aS'Doodoo butt\xef\xbb\xbf'
p711
aS'i wish i was those lamps ;]\xef\xbb\xbf'
p712
aS'Why is there so many camera mans?\xef\xbb\xbf'
p713
aS'I dare you to eat a rotten apple with a worm in it\xef\xbb\xbf'
p714
aS'i dare you to eat a smoothie made out of the first 15 things in youre \nfridge\xef\xbb\xbf'
p715
aS'I dare you to brush your teeth with vegemite\xef\xbb\xbf'
p716
aS"That's messed up\xef\xbb\xbf"
p717
aS'what does m3h mean?\xef\xbb\xbf'
p718
aS'I dare u to pour melted chocolate on your hands and feet and try lick it \noff\xef\xbb\xbf'
p719
aS'Is nigahiga vanoss?\xef\xbb\xbf'
p720
aS'Do more dares with @iisuperwomanii !! I <3 her! \nI dare you to mix Nutella and mayonnaise together and spread it all over \nyour face and arms, then other people have to like it . \xf0\x9f\x98\x82\xf0\x9f\x98\x82 \xf0\x9f\x92\xa9\xef\xbb\xbf'
p721
aS'Next time Tyler should drink toilet water :D\xef\xbb\xbf'
p722
aS'I dare you to lick a players foot\xef\xbb\xbf'
p723
aS'I dare u kiss or hug the person to ur left\xef\xbb\xbf'
p724
aS'i dare you to make the mustard as a facial wash\xef\xbb\xbf'
p725
aS'Lol\n\xef\xbb\xbf'
p726
aS'I dare you to eat dirt lol thx\xef\xbb\xbf'
p727
aS'tyler Oakley I dare u to eat a spoon ful of icecream\xef\xbb\xbf'
p728
aS'if any one has a pimpul tou have too kiss it for 20 seconds!!!!!! >:3 (from \nkorissa 2005 younger sis of katie)\xef\xbb\xbf'
p729
aNaS'Sean pooped his pants!\xef\xbb\xbf'
p730
aS'You go superwoman\xf0\x9f\x92\x81\xf0\x9f\x92\x81\xf0\x9f\x92\x81\xf0\x9f\x92\x81\xf0\x9f\x91\x85\xf0\x9f\x91\x85\xef\xbb\xbf'
p731
aS'this is gold omfg\xef\xbb\xbf'
p732
aS"aww poor +Tyler Oakley \ni didn't thought it was possible to get all that out of his hair.. :3\xef\xbb\xbf"
p733
aS'i dare you to watch shrek is love, shrek is life without laughing \xef\xbb\xbf'
p734
aS'dust is dead skin\nomg\xef\xbb\xbf'
p735
aS'I dare u to rip your shirt off in public\xef\xbb\xbf'
p736
aS'the guy with the mustache is kinda cute\xef\xbb\xbf'
p737
aS'i dare you to suck my dick\xef\xbb\xbf'
p738
aS'Dare you to eat a booger\xef\xbb\xbf'
p739
aS'Wear a dress and the regina wig then cat walk to your neighbours house with \na pink bag containing candy shaped like lipstick then knock on their door \nand say "i just realised China was a continent!" Then pretend to apply ur \n\'lipstick\' (i know China is NOT a continent) then flip your hair and cat \nwalk back home\xef\xbb\xbf'
p740
aS'I dare you to eat paper\xef\xbb\xbf'
p741
aS'You should do a dar put a hole tube of hair gel and wait for it to get hard\xef\xbb\xbf'
p742
aS'Well, being gay is very wrong\xef\xbb\xbf'
p743
aS'I mean how do you expect me to pay attention when Lilly is wearing a Zayn \nMalik shirt?\xef\xbb\xbf'
p744
aS'i hate this world and how everybody is crule to tyler cause hes gay fuck \nthis generation\xef\xbb\xbf'
p745
aS'I dare you to run somewhere public and scream the first thing that pops \ninto your head\xef\xbb\xbf'
p746
aS'You know whats weird, tyler acts like a girl and superwoman acts like a man\xef\xbb\xbf'
p747
aS'love the Zayn Malik shirt Lily cx\xef\xbb\xbf'
p748
aS'I dare you to domp a bucket of ice and cold water on you\xef\xbb\xbf'
p749
aS'i dare you to make every person laugh (point per 1 person)\xef\xbb\xbf'
p750
aS"Do u see this. plus ik I'm gonna get hate for spamming but I want them to \ndo it!\xef\xbb\xbf"
p751
aS'Jump off your couch and land on your butt, then repeatedly bounce up and \ndown like a bouncey ball.\xef\xbb\xbf'
p752
aS'Lol Tyler ur such a girl XD luv u!\xef\xbb\xbf'
p753
aS'Pooed in yah pants\xef\xbb\xbf'
p754
aS'4:06\xef\xbb\xbf'
p755
aS"Lily's a boss \xef\xbb\xbf"
p756
aS'bend over thats what she said at 11:10\xef\xbb\xbf'
p757
aS'Bleaurgh..she keeps killing the mood.\xef\xbb\xbf'
p758
aS'She a girl if she sucks dick she sucks dust\xef\xbb\xbf'
p759
aS'put your hand under warm water for a while then submerge it on super cold \nwater really quickly\xef\xbb\xbf'
p760
aS'Poop\xef\xbb\xbf'
p761
aS'i dare you to twerk in public with a \xf0\x9f\x91\x99 bikini\xef\xbb\xbf'
p762
aS'Not to be mean at all but super woman is way more masculine then Tyler. I \nknow he is gay but still it is funny\xef\xbb\xbf'
p763
aS'i dare u to lick a used bandaid\xef\xbb\xbf'
p764
aS'Eat dog poop then eat the ghost pepper\xef\xbb\xbf'
p765
aS'The Zayn shirt\xef\xbb\xbf'
p766
aS'Is it a girl or boy no off fence\xef\xbb\xbf'
p767
aS'Eat one tablespoon of hot chilli powder\n\xef\xbb\xbf'
p768
aS'i want to see jeana and jessie for prankvsprank\xef\xbb\xbf'
p769
aS'...\xef\xbb\xbf'
p770
aS'I love superwoman\xef\xbb\xbf'
p771
aS'Ice bucket challenge \n\n\xef\xbb\xbf'
p772
aS'eat a a handful of medicine with no water!!!!!!!!!!!!!!!!!!:(\xef\xbb\xbf'
p773
aS'I dare you to eat a spoonful of baby food\xef\xbb\xbf'
p774
aS'I dare you to eat a sandwich made of mustard\xef\xbb\xbf'
p775
aS'I dare you to shave off your hair\xef\xbb\xbf'
p776
aS'I dare you to make out with the person on your right \xef\xbb\xbf'
p777
aS'I DARE YOU to put ice cold water on both your eyes and do not blink for 15 \nseconds\xef\xbb\xbf'
p778
aS'I dare you to slide down the stairs using a cardboard, surfing style!\xef\xbb\xbf'
p779
aS'I dare you to pour a cold bucket of water on you\xef\xbb\xbf'
p780
aS'I dare you to watch one whole episode of the porn anime "boku no pico" \nwhile eating ice cream, without gagging/looking away from the screen\xef\xbb\xbf'
p781
aS'I dare you too scream in the mall and say "HOORAY FOR INDOOR PLUMBING!!!" \xef\xbb\xbf'
p782
aS'ewwww miley cyrus\xef\xbb\xbf'
p783
aS"I dare you to make 15 balls of tinfoil in three seconds.... If you do it \nI'll give you an invisible cookie\xef\xbb\xbf"
p784
aS'I dare you to take off your shirt and wet it and put it back on\xef\xbb\xbf'
p785
aS'Google\xef\xbb\xbf'
p786
aS'I dare you to tickle someone until they pee\xef\xbb\xbf'
p787
aS'I dare you to kick sean in the nuts as hard as you can NO MERCY\xef\xbb\xbf'
p788
aS'I dare you to shove rasins up your nose\xef\xbb\xbf'
p789
aS'I dare u too eat some stupid food as your sandwich\xef\xbb\xbf'
p790
aS'you lucky for the funny girl\xef\xbb\xbf'
p791
aS'gg\xef\xbb\xbf'
p792
aS'you guys are effing ANNOYING!\xef\xbb\xbf'
p793
aS'I dear you to stick you head down the trash can with trash in it \xef\xbb\xbf'
p794
aS'Dat face though 9:29\xef\xbb\xbf'
p795
aS'Hey it said liquids not solids dumb ass\xef\xbb\xbf'
p796
aS'Love you superwomen !!\xef\xbb\xbf'
p797
aS'that what she said!\xef\xbb\xbf'
p798
aS'the boy with the white hair is cute\xef\xbb\xbf'
p799
aS'I dare you to use four things from your bathroom to make a tower a foot \nhigh and write my tower of finding girlfriends or boyfriends and put it on \na table in the mall \n\xef\xbb\xbf'
p800
aS'Surra de bunda ahahah ..... muito bom \xef\xbb\xbf'
p801
aS"Lilly's actually a lot like Jesse Wellens; with the 'san' and the hand \nmovements. But more like a sister is similar to her brother, that kind of \nway.\xef\xbb\xbf"
p802
aS"i dare that guy who did  `duck tape your hand and legs together and go up \nthe stairs' to do this dare: kiss a girl, then boy\nlove, mara\xef\xbb\xbf"
p803
aS'I dare you to kiss Tyler Oakley on the lips\xf0\x9f\x92\x8b\xf0\x9f\x99\x8a\xef\xbb\xbf'
p804
aS'I dare you to stuff an under ware inside your mouth\xef\xbb\xbf'
p805
aS'NASTY! 11:26 lel\xef\xbb\xbf'
p806
aS'im speechless........ewwwwwwwwwwwwwww\xef\xbb\xbf'
p807
aS'I dare you to run around Walmart and scare people\n#nigahiga\xef\xbb\xbf'
p808
aS'OMG\xef\xbb\xbf'
p809
aS'and drink it\xef\xbb\xbf'
p810
aS"I'm crying from laughing so hard\xef\xbb\xbf"
p811
aS'lick someones asssssssssssssssssssssssssssssssss\xef\xbb\xbf'
p812
aS'I LOVE THAT GIRLS SHIRT\xf0\x9f\x98\x9b\xf0\x9f\x98\x9b\xef\xbb\xbf'
p813
aS"I dare you to eat a piece of bread that has soaked in water for a minute. \n(I'm tellin ya.. its nasty.)\xef\xbb\xbf"
p814
aS'U shit your pants\xef\xbb\xbf'
p815
aS'I dare you to go swimming in clothes\n\xef\xbb\xbf'
p816
aS'the beginning of the ice bucket challenge \xef\xbb\xbf'
p817
aS"Put a bottle of soy Sauce in your underwear and have it on for 10 minutes \nor ketchup if you don't have any 5 points\n\xef\xbb\xbf"
p818
aS'This was hilarious \xef\xbb\xbf'
p819
aS'Lol Hhhh aaaaaahahaahahaha\xef\xbb\xbf'
p820
aS'Do an I dare you with smosh!!!\xef\xbb\xbf'
p821
aS'I dare you to kiss anything or anyone in the room. \xef\xbb\xbf'
p822
aS'I dare u to take ur pants and unites off: )\xef\xbb\xbf'
p823
aS'why did everyone didnt like mayo thats wierd \xef\xbb\xbf'
p824
aS"He shit he's pants\n\n\xef\xbb\xbf"
p825
aS'I dare you to let everbody kick you in the butt\xef\xbb\xbf'
p826
aS'i dare u to lick the person the right of u niplr for 20 seconds\xef\xbb\xbf'
p827
aS'Boys be nacet\n\xef\xbb\xbf'
p828
aS'I dare you to try to put your feet over your head while sniffing pepper.\xef\xbb\xbf'
p829
aS'\xc4\x98ga mon\xc3\xa3 you \xc3\xa8rema ber\xc4\x99\xef\xbb\xbf'
p830
aS'I dare u to have sex with superwoman on tape\xef\xbb\xbf'
p831
aS'I dare you to do a flip into a pool but your arms are ducktaped together\xef\xbb\xbf'
p832
aS'I dare you to go up to a stranger and scream or yell in their ear\xef\xbb\xbf'
p833
aS'Wtf is grody?\xef\xbb\xbf'
p834
aS'She is so annoying.\xef\xbb\xbf'
p835
aS'Guys please subscribe to me j need subs and views\xef\xbb\xbf'
p836
aS"I dare you to lick someone's forhead\xef\xbb\xbf"
p837
aS"I wouldn't do that any of it\xef\xbb\xbf"
p838
aS'I dare you to take 2 eggs, freeze one, and have the others mix them up and \nyou pick one to smash on your head as hard as you can.\xef\xbb\xbf'
p839
aS'hi everybody, im not the kind of person to do this but im desperate, I make \nvideos of me using SculptGL, Minecraft, and Intros, i will edit a intro for \ncommission (money), im sorry if i annoy anyone...\xef\xbb\xbf'
p840
aS"Lilly's shirt. <3\xef\xbb\xbf"
p841
aS"Is that they're house???\xef\xbb\xbf"
p842
aS'Ryan you should invite +JasonHibono in your I dare you video \xef\xbb\xbf'
p843
aS"Me and Super Wright did this but didn't post it yet.\xef\xbb\xbf"
p844
aS'i dare you to kick ryan in the groin\xef\xbb\xbf'
p845
aS'I dare u to do the eraser challeng\xef\xbb\xbf'
p846
aS'eat some players booger\xef\xbb\xbf'
p847
aS'Jackassess\xef\xbb\xbf'
p848
aS'Let a person punch your face 5 times.\xef\xbb\xbf'
p849
aS'Cut off 1/4 of you eyebrow 1.5 pts =)\xef\xbb\xbf'
p850
aS'ALS ICE BUCKET CHALLANGE\xef\xbb\xbf'
p851
aS"Did Tyler just say he can hit in multiple ways?? ooh!! And Lilly's Zayn \nMalik shirt is what I'm drooling on!!\xef\xbb\xbf"
p852
aS"I'm a man\nHow do I punch?\xef\xbb\xbf"
p853
aS'more like a smell of crap or pee\xef\xbb\xbf'
p854
aS'I dare you to eat a bloody toenail covered in a used band aid \xef\xbb\xbf'
p855
aS"Is it just me or it feels like to whack Tyler's face with a big fat hockey \ncause he is overall stupid\xef\xbb\xbf"
p856
aS'i dare you that boy figth\xef\xbb\xbf'
p857
aS'Still love u nigahiga no homo\xef\xbb\xbf'
p858
aS'I dare you to smack peoples asses in public \xef\xbb\xbf'
p859
aS'I dare you to lick toliet water after someone peed or pooped in it.\n\xef\xbb\xbf'
p860
aS'SEAN POOPED\xef\xbb\xbf'
p861
aS'i dare you to eat a banana peel\xef\xbb\xbf'
p862
aS'I dare you to gobble down one whole bottle of sea salt\xef\xbb\xbf'
p863
aS"I dare you to put peanut butter between someone's toes then lick it out\xef\xbb\xbf"
p864
aS"Eating a spoon of mayo... it's good for you.\xef\xbb\xbf"
p865
aS'I DARE YOU TO LICK A FROZEN Chicken OR MEAT\xf0\x9f\x91\x85\xef\xbb\xbf'
p866
aS'Like if you rewinded the video to see how good Tyler did on "Take the \nSteal" just because Ryan said it xD\xef\xbb\xbf'
p867
aS'I dare you to lick the person to your rights spit\n\xef\xbb\xbf'
p868
aS'I dare are to take your underwear off and the pant have to be off too!!!\xef\xbb\xbf'
p869
aS'I dare you to come down from the stairs backwards on your back, your head \ngoes first! or... do a handstand on the wall and let people tickle you, \nhandle it for 5sec! teehee\xef\xbb\xbf'
p870
aS'hay you shod have arena grande lol  and some one shod kiss here for 2 mints \nomg cool\xef\xbb\xbf'
p871
aS"Let's talk about Lily's t-shirt at 4:06\xef\xbb\xbf"
p872
aS'I love superwomans shirt!!!! \xe2\x9d\xa4\xef\xb8\x8f\xe2\x9d\xa4\xef\xb8\x8f\xf0\x9f\x92\x8b\xf0\x9f\x92\x8b\xf0\x9f\x98\x98\xf0\x9f\x98\x98\xf0\x9f\x91\x8c\xf0\x9f\x91\x8c\xf0\x9f\x98\x82\xf0\x9f\x98\x82\xef\xbb\xbf'
p873
aS'I DARE YOU TO TWERK AT WALMART AND HAVE THE OTHERS SING ANACONDA BY NIKI \nMINAJ\xef\xbb\xbf'
p874
aS'I dare u to eat poop\xef\xbb\xbf'
p875
aS'I dare you to put three pebbles into your nose.\n\xef\xbb\xbf'
p876
aS'I dare you to do the salt and ice challenge \xef\xbb\xbf'
p877
aS'I dare you to invite me to play! \xef\xbb\xbf'
p878
aS'GO SUPERWOMAN!!!!!\xef\xbb\xbf'
p879
aS'Australians live vegimite\xef\xbb\xbf'
p880
aS'i dare you to put watermelon on your eyes\xef\xbb\xbf'
p881
aS'I Dare you To Climb Up A Pole And Jump Off Of It.\n#lolz  \xef\xbb\xbf'
p882
aS'LoL totally funny Greg and Shawn that was hillariois\xef\xbb\xbf'
p883
aS'Lol when lily stuck her head down the toilet\xef\xbb\xbf'
p884
aS'Licking stuff.. Juuust like Miley Cyrus\xef\xbb\xbf'
p885
aS'I Dare You (ft. Superwoman & Tyler Oakley)\nI would never last in this\xef\xbb\xbf'
p886
aS"Why are people hating on him because he's gay ? He's still human isn't he\xef\xbb\xbf"
p887
aS'I dare you kiss another player \xef\xbb\xbf'
p888
aS'I dare you to run into a wall\xef\xbb\xbf'
p889
aS'I dare you to put your head into a bucket of mayo\xef\xbb\xbf'
p890
aS'I ship Ryan and Lilly. No shame. \xef\xbb\xbf'
p891
aS'or snort a whole bag of crystal light\xef\xbb\xbf'
p892
aS'when watching this keep pressing 9\xef\xbb\xbf'
p893
aS"Even though I'm Australian I HATE Vegemite!!!\xef\xbb\xbf"
p894
aS'i dare you to jump from a staircase! lol\xef\xbb\xbf'
p895
aS"I. LOVE \nLile$$$$$$$$$$$$$$$$$$$$$$$$$$$$$$$$$$$$$$$$$$$$$$$$$$$$$$$$$$$$$$$$$$$$$$$$$$$$$$$$$$$$$$$$$$$$$$$$$?$?$?$?$?$?$?$?$?$?$?$?$?$?$$$%%$$?????????$$$$$$$$''???????$$$$$$$$$??????????\xef\xbb\xbf"
p896
aS'I dare you to wear a dress\xef\xbb\xbf'
p897
aS'OMG O.O THE GIRL WAS DRINKING THE EXACT SAME DRINK I WAS DRINKING WHEN SHE \nATE THE MAYO.. OH MY LORD O-O\xef\xbb\xbf'
p898
aS'I dare you to act like howtobasic\xef\xbb\xbf'
p899
aS'Ggggggaaaaaaaaaayyyyyyyy!!!!!!!!\xef\xbb\xbf'
p900
aS"the way tyler punches reminds me of the that story my drama teacher was \nchoreographing fight scene and 1 dude haven't thrown a punch in his entire \nlife\xef\xbb\xbf"
p901
aS'i dare you to drink dirty fish tank water, or water with peoples socks \ninside \xef\xbb\xbf'
p902
aS"don't pour water on your nose may it contained a amoeba that can eat your \nbrain .. the amoeba will come to your nose and attack your brain .. pls.. \nused mineral water \xef\xbb\xbf"
p903
aS'is that your house or apartment (its huge)\xef\xbb\xbf'
p904
aS'Ok, why wont people stop talking about tyler oakley being gay. theres \nnothing wrong with it.\xef\xbb\xbf'
p905
aS'Next have kian lawley and jc caylen \xf0\x9f\x98\x84\xef\xbb\xbf'
p906
aS"You guys act like the pain that you're going through is equal to \ncastration, it's really nothing, punch people harder.\xef\xbb\xbf"
p907
aS' Sean pooped his pants\xef\xbb\xbf'
p908
aS'I want to be you frend\xef\xbb\xbf'
p909
aS"there are so many comments here judging tyler for being gay. we live in a \nworld where people are equal. no one is less than anyone. if we lived in \nlike, the stolen generation than i wouldnt care. but we dont. its so unfair \nthat people are treated like they are less because of the choices they've \nmade. tyler chose to be gay, he shouldnt be judged for that. no one should \never be judged on the choices they make. \xef\xbb\xbf"
p910
aS'i dare you to kiss a guy on the cheeck five times haha\xef\xbb\xbf'
p911
aS'I DARE YOU TO EAT A GHOST PEPPER IF YOU WANT THE SPICINESS GONE EAT ICE \nCREAM AND 2 BOTTLE OF WATER\xef\xbb\xbf'
p912
aS'I dare you to belly flop from the third stair on a pile of legos\xef\xbb\xbf'
p913
aS'I Dare You (ft. Superwoman & Tyler Oakley): http://youtu.be/dGjLyzof9Us\xef\xbb\xbf'
p914
aS'i dare you to put a hot pan on your face\xef\xbb\xbf'
p915
aS'I dare you to lick the person next to you there belly for 10 points\xef\xbb\xbf'
p916
aS"Superwoman's Zayn Malik shirt. That is AWESOME!\xef\xbb\xbf"
p917
aS'i Dare you to eat the sucks on your left for 6 points\xef\xbb\xbf'
p918
aS'I date u to get tickled for 3minutes without laughing\n\xef\xbb\xbf'
p919
aS'is Tyler gay\xef\xbb\xbf'
p920
aS'Eat a spoonful of pepper\xf0\x9f\x98\xa4\xf0\x9f\x98\xa4\xef\xbb\xbf'
p921
aS'Swallow a worm \xf0\x9f\x98\xb3\xf0\x9f\x98\x81\xef\xbb\xbf'
p922
aS'I dare you to dance like a chiken and jump like one and say im an idiot and \nmake the whole team say wat do they think about u until ur next tern\n\xef\xbb\xbf'
p923
aS'Play with joey graceffa\xef\xbb\xbf'
p924
aS'I dare u to eat a jalape\xc3\xb1o \xf0\x9f\x98\xa1\xf0\x9f\x98\xa1\xf0\x9f\x98\xa1\xf0\x9f\x98\xa1\xf0\x9f\x98\xa1\xef\xbb\xbf'
p925
aS'I felt tyler balls on my neck hahahaha.\xef\xbb\xbf'
p926
aS'i dare you to have a water balloon fight in walmart\xef\xbb\xbf'
p927
aS'Eat that mayo oh yeah\xef\xbb\xbf'
p928
aS'before I flush it id pee in the toilet\xef\xbb\xbf'
p929
aS'I dare you to get wasabi smear it on your face and leave it on for 3 min \nand then wash it of with the first liquid in your fridge \xef\xbb\xbf'
p930
aS'adios mio, vinegar in the nose??? +IISuperwomanII nailed it\xef\xbb\xbf'
p931
aNaNaS'I cannot believe you have 13 million subscribers I watched you from the \nbeginning when you had 200 subbies and now you have 13 \nmillion\xf0\x9f\x91\x8c\xf0\x9f\x92\x81\xf0\x9f\x98\x8d\xf0\x9f\x98\x9c\xf0\x9f\x98\x9d\xf0\x9f\x98\x83\xf0\x9f\x98\x82\xef\xbb\xbf'
p932
aS'This video gets so much better when you remember that Tyler has a massive \ncrush on Ryan Higa xD\xef\xbb\xbf'
p933
aS"DON'T STOP READING OR ELSE SOMETHING BAD WILL HAPPEN. MY NAME IS JENNY. I \nLIVE IN A CELL WITH NO WINDOWS OR DOORS. I HAVE NO NOSE OR EARS. I AM DEAD. \nIF YOU DO NOT POST THIS TO 15 PEOPLE BEFORE YOU GO TO BED, I WILL APPEAR \nTONIGHT BY YOUR BED AND STAB YOU WITH A KNIFE. THIS IS NO JOKE. SOMETHING \nGOOD WILL HAPPEN TO YOU AT 10:22. SOMEONE WILL CALL YOU AND SAY I LOVE YOU \nOR I'M SORRY. BUT HERE'S THE CATCH: SEND TO 15 VIDEOS.\xef\xbb\xbf"
p934
aS'Someone doing the swirly with piss in the toilet :P for 7 points\xef\xbb\xbf'
p935
aS'yo get timothydelaghetto \xef\xbb\xbf'
p936
aS'I dare you to throw a bucketload of scrambled egg at the person holding the \ncamera\xef\xbb\xbf'
p937
aS'I dare you to lick a dirty rock\xef\xbb\xbf'
p938
aS'i dare you to let someone squeeze your nose as hard as they want\xef\xbb\xbf'
p939
aS"*I want Lily's Zayn top more than free wifi.* and thats saying something\xe2\x80\xa6 \xef\xbb\xbf"
p940
aS'9:52 macklemore is that you\xef\xbb\xbf'
p941
aS'She did the icebucket challenge\xef\xbb\xbf'
p942
aS'Why is all your food spoiled\xef\xbb\xbf'
p943
aS'The guy in the hat got the worst ones\xef\xbb\xbf'
p944
aS'Im so wet thats what she said\xef\xbb\xbf'
p945
aS"It's a turd\xef\xbb\xbf"
p946
aS'I dare you to fart in sume wune fase\n\n\xef\xbb\xbf'
p947
aS'I dare you to use body lotion as soap 0.0\xef\xbb\xbf'
p948
aS'I dare you to kiss superwoman\xef\xbb\xbf'
p949
aS'The girl have my bb in her short\xef\xbb\xbf'
p950
aS' Hi\xef\xbb\xbf'
p951
aNaS"Today, October 6, 2014, five U.S. states passed laws legalizing gay \nmarriage. Clearly there are thousands of people moving in a new direction \nof open minds and acceptance, so why can't you?\xef\xbb\xbf"
p952
aS"I dare you to lick each other's checks \xef\xbb\xbf"
p953
aS'i dare you to belly flop on the person on your right\xef\xbb\xbf'
p954
aS'Original ALS\xef\xbb\xbf'
p955
aS'I dare you to wear nail polish all over your face \xef\xbb\xbf'
p956
aS'Tyler looks like Maklemore lol\xef\xbb\xbf'
p957
aS'I dare u eat a lemon\n\xef\xbb\xbf'
p958
aS'imma vegetarian TOOOOOOOO\xef\xbb\xbf'
p959
aS'Cut an inch off your hair \xef\xbb\xbf'
p960
aS'I dare you to eat someones sock!\xef\xbb\xbf'
p961
aS'#IDAREYOU TO GO TO THE RESTROOM AND REMOVE YOUR UNDERWEAR AND PUT IT ON YOU \nHEAD. \xef\xbb\xbf'
p962
aS'Man i wish that lily would like my lamp like that\xef\xbb\xbf'
p963
aS'I dare you to slap ryan\xef\xbb\xbf'
p964
aS'I dare you to act like a fag in front of 5 people\xef\xbb\xbf'
p965
aS'OMG\xef\xbb\xbf'
p966
aS'i dare you to find a black person and say nigga\xef\xbb\xbf'
p967
aS"I dare you to fart in everyone's face\xef\xbb\xbf"
p968
aS'Lick the hole toilet seat 2 times\xef\xbb\xbf'
p969
aS'"I AM TYLER OAKELY AND I\'M GONNA FUK THIS SHIT UP!" ahahha\xef\xbb\xbf'
p970
aS"you stupid homophobics making fun of tyler. he's gay and hilarious, you're \nprobably jealous because a gay boy has made more money and is more famous \nthan you'll ever be.\xef\xbb\xbf"
p971
aS'I dare you to brush your anus off with a toothbrush and then stick in your \nmouth for 5 seconds\xef\xbb\xbf'
p972
aS'i dare you to mix pop eggs and mayo\xef\xbb\xbf'
p973
aS'I dare you to put a peice\xef\xbb\xbf'
p974
aS'5:01 for just $5 you can help this man he has mustache sindrum\xef\xbb\xbf'
p975
aS"Pre-dinner mayo! It's good for you! >:D any ROSMT fans here?\xef\xbb\xbf"
p976
aS'is it just me or did tyler look like macklemore after he put the mixture in \nhis hair\xef\xbb\xbf'
p977
aS'She Can Punch Harder Than The Fake Blond Fag \xef\xbb\xbf'
p978
aS'i dare superwoman to give that T-shirt to me!! \xef\xbb\xbf'
p979
aS'is peanutbutter fucking liquid?\xef\xbb\xbf'
p980
aS'Douchebag sorry\xef\xbb\xbf'
p981
aS'I dare you to go in a store and say that i want to stick my head in \nsomeones butt\xef\xbb\xbf'
p982
aS'his name is tyler\xef\xbb\xbf'
p983
aS"why is everyone after tyler oakley... i mean come on guys, ryan had him \nhere for a reason and hands down but he's a genius!!!\xef\xbb\xbf"
p984
aS'Hi could you u do types of sneezing\xef\xbb\xbf'
p985
aS'GO SUPERWOMAN !!!!!!!!!!!!!!!!!!!!!!!!!!:0\xef\xbb\xbf'
p986
aS'I ship Ryan and Lilly\n\xef\xbb\xbf'
p987
aS'I dare you to go skydiving (10 points)\xef\xbb\xbf'
p988
aS"I've acedentely got vinegar in my nose when I was like 6 or 7\xef\xbb\xbf"
p989
aS'@5:42 reverse Ice Bucket Challenge.\xef\xbb\xbf'
p990
aS"I don't really care if Tyler is gay but he is well...........handsome!\xef\xbb\xbf"
p991
aS'ZAYN!\xef\xbb\xbf'
p992
aS'7:11 who was that behind Ryan \xef\xbb\xbf'
p993
aS'ryan has his own camera crew?\xef\xbb\xbf'
p994
aS'funny\xef\xbb\xbf'
p995
aS'Do a vineger shot or snort salt\xef\xbb\xbf'
p996
aS'Tyler Oakly and Lilly and Ryan are like my favorite YouTubers so this is \nwas amazing\xef\xbb\xbf'
p997
aS'She Was Prity\xef\xbb\xbf'
p998
aS'Are they in Australia?\xef\xbb\xbf'
p999
aS'Vegimite is good. \xef\xbb\xbf'
p1000
aS"I dare you to lick someone's snot on a tissue. the point should depend on \nhow big or gross the snot is ;)\xef\xbb\xbf"
p1001
aS'I dare you to become the servant to the person who has the most points. If \nnobody is winning, the person to your  right\xef\xbb\xbf'
p1002
aS'lol i ate a spoonful of mayo as a dare once.... i gagged\xef\xbb\xbf'
p1003
aS'h e    p o o p e d\xef\xbb\xbf'
p1004
aS'Go Superwoman!\xef\xbb\xbf'
p1005
aS'its awesome that you collabed with superwoman and tyler oakley :)\xef\xbb\xbf'
p1006
aS'I dare you to vomit on your righ leg by putting ur hand in ur mouth\xef\xbb\xbf'
p1007
aS'hi\xef\xbb\xbf'
p1008
aS'i dare you to put a ice block on your anus for 10 seconds\xef\xbb\xbf'
p1009
aS'You can lick my lamp if you know what I mean\xef\xbb\xbf'
p1010
aS'lick dog poop off someones shoe\n\xef\xbb\xbf'
p1011
aS'i dare you to get slapped on the cheek by the strongest\xef\xbb\xbf'
p1012
aS'i dare you to lick EVERYONES face \xef\xbb\xbf'
p1013
aS'She looks like Lara croft\n\xef\xbb\xbf'
p1014
aS'I dare u to lick the toilet\xef\xbb\xbf'
p1015
aS'You shit your pants\xef\xbb\xbf'
p1016
aS'the origin of the ice bucket challenge.\xef\xbb\xbf'
p1017
aS'I dare you all to watch a full season of my little pony friendship is magic\xef\xbb\xbf'
p1018
aS'I dare you to put on lipstick while having everyone in the room tickle you \nat the same time. More accuracy = more points ;)\xef\xbb\xbf'
p1019
aS'I was ready to run cuz when it October what time is it!?????? horror movie \ntime. The commercials play when you want to watch uer vid but of course it \nplays!\xef\xbb\xbf'
p1020
aS"who want's to dare me\xef\xbb\xbf"
p1021
aS'i dare you to eat raw chicken\xef\xbb\xbf'
p1022
aS'one might say it was as easy as pie...\xef\xbb\xbf'
p1023
aS'" do you wanna build a snowman?"\xef\xbb\xbf'
p1024
aS'Its so Funny !\xef\xbb\xbf'
p1025
aS'Heyyy my girl Superwoman!\xef\xbb\xbf'
p1026
aS'SHE IS THE MAN!\xef\xbb\xbf'
p1027
aS'That got weird fast XD\xef\xbb\xbf'
p1028
aS'Does anyone know where Lily got that shirt from? I NEED. \xef\xbb\xbf'
p1029
aS'Take bite of raw meat!!!!!!!\xef\xbb\xbf'
p1030
aS'I dare u too hit super all\xef\xbb\xbf'
p1031
aS"Just saying when it was super woman's turn it was a whole new ice bucket \nchallenge for us :D\xef\xbb\xbf"
p1032
aS'I dare you to go to wallmart, go to the dairy section and grab two jugs of \nmilk, then you will run around the inside of the wallmart three times \nholding the jugs over your head and screaming at the top of your lungs.\xef\xbb\xbf'
p1033
aS'FOR THOSE THAT DOESN\'T KNOW "SURRA DE BUNDA" IS BRAZILIAN EXPRESSION THAT \nMEANS THAT YOU HAVE TO USE YOUR ASS TO GIVE A PUNCH.!  ( BUNDA = ASS, SURRA \n= PUNCH ) \xef\xbb\xbf'
p1034
aS'I feel like Greg and superwoman are siblings\xef\xbb\xbf'
p1035
aS'Why is Vegemite in the fridge XD\xef\xbb\xbf'
p1036
aS'5:33 the original ice bucket challange \xef\xbb\xbf'
p1037
aS'Lol that was gay maybe\n\n\n\n\n\n\n*___________*\n/ \\\n| |\n\n\n\n\n\n\n\nTried to make bro fist\n\nAnd I dare u to slap ryan hard\n\xef\xbb\xbf'
p1038
aS'i dare u to slap someone with kimchi\xef\xbb\xbf'
p1039
aS'I dare you to prank call the police\xef\xbb\xbf'
p1040
aS'GAY\xef\xbb\xbf'
p1041
aS'12:00- poop!\xef\xbb\xbf'
p1042
aS'I dare u to get a close pin and put it on both ur ears. \xef\xbb\xbf'
p1043
aS'Tiffany Lin hi\xef\xbb\xbf'
p1044
aS'And i now love superwoman even more that i ever did before!!\xef\xbb\xbf'
p1045
aS"Honestly. I don't understand why everyone is hating on Tyler Just because \nof who he is and how he acts. Like honestly people grow up. Tyler Oakley is \nprobably one of my favourite youtuber ever. He is my queen. People just \nneed to get over themselves. \xef\xbb\xbf"
p1046
aS'i dare you to go the rest of the day without using your hands at all\xef\xbb\xbf'
p1047
aS'Let Someone Get 5 Liquids For You to drink\xef\xbb\xbf'
p1048
aS'No leave Tyler \xef\xbb\xbf'
p1049
aS'dear ryan can u jump off a cliff land on ur feet and get a girl while in \nmid air cause u can u are a god.\xef\xbb\xbf'
p1050
aS'I dare you to 5 spoon fulls of Vegemite \nFor:Ryan\nAND RYAN ONLY!!!!!!!!!\xef\xbb\xbf'
p1051
aS'Imagine the Balls that rested on his lip\xf0\x9f\x98\x82\xf0\x9f\x98\x82\xf0\x9f\x98\x82\xf0\x9f\x98\x82\xf0\x9f\x98\x82\xef\xbb\xbf'
p1052
aS'Lol i saw Tyler and was like no you aINt gOIn DO sHIt \xef\xbb\xbf'
p1053
aS'Dear ryan do a sting pong match\xef\xbb\xbf'
p1054
aS"I'm avegetarian too, love animals\xef\xbb\xbf"
p1055
aS'This is why I love Superwoman. Such a trooper!!\xef\xbb\xbf'
p1056
aS'i dare you to prank call another youtuber!\xef\xbb\xbf'
p1057
aS'idare you to eat marmite\xef\xbb\xbf'
p1058
aS'i dear next time u play i dare I dare someone to kick u in the nuts \xef\xbb\xbf'
p1059
aS'sean pooped\xef\xbb\xbf'
p1060
aS'Omg The Way Ty Said: Thats Really Messy  \xef\xbb\xbf'
p1061
aS'i dare you to wear bikini until the end of the game LOL\xef\xbb\xbf'
p1062
aS'Is the guy in the white hair gay\xef\xbb\xbf'
p1063
aS'I dare you to blend the most disgusting things you can find in a store and \ndrink it but only one thing can be good\xef\xbb\xbf'
p1064
aS'i dare u to make a drink mix out of cinnamon and warm vinegar\xef\xbb\xbf'
p1065
aS'Tyler is soo gay\xef\xbb\xbf'
p1066
aNaS'Girls be nacet\xef\xbb\xbf'
p1067
aS'I think gay people are cool it is not bad if you are gay\xef\xbb\xbf'
p1068
aS'i dare you         to get a bowl a coca cola and lick it till the hole bowl \nis empty\xef\xbb\xbf'
p1069
aS'Why have you got that gay poof Tyler Oakley on here ?\xef\xbb\xbf'
p1070
aS'Suka\xef\xbb\xbf'
p1071
aS'love her shirt, and i have her name\xef\xbb\xbf'
p1072
aS'Omg omg omg douchbag\xef\xbb\xbf'
p1073
aS'superwoman punches harder than that fag tyler\xef\xbb\xbf'
p1074
aS'I love lilys shirt 0:45\xef\xbb\xbf'
p1075
aS'That nod at 2:22 loool\xef\xbb\xbf'
p1076
aS'I dare u to go to a store and keep asking the same person how much an item \ncosts (the item must have the label on) XD \xef\xbb\xbf'
p1077
aS'Literally eat crap\n\xef\xbb\xbf'
p1078
aS'i dare everyone to jump on your stomach and extra points if you were cleats\xef\xbb\xbf'
p1079
aS'I dare you to put peanut butter on your face and put peanut then eat it\n\xef\xbb\xbf'
p1080
aS'I dare u to drink oil mixed with water\xef\xbb\xbf'
p1081
aS'It Was Gay\xef\xbb\xbf'
p1082
aS'Haha! Poo!\xef\xbb\xbf'
p1083
aS'#IDareYou to go to the restroom and remove you underwear and go commando \nfor the rest of the game. ^_^\xef\xbb\xbf'
p1084
aS'i love mayo so i could do a big spoonful! XD\xef\xbb\xbf'
p1085
aS'5:25- #icebucketchallenge  \xef\xbb\xbf'
p1086
aS'Aha he shit his pants \xef\xbb\xbf'
p1087
aS'I dare u to go to Starbucks and ask for a cup of whip cream\xef\xbb\xbf'
p1088
aS'i dare you to prank call another youtuber!\xef\xbb\xbf'
p1089
aS'i am never ever gonna touch lily hair again...\ni love her hair tho\xef\xbb\xbf'
p1090
aS'I dare you to die youre hare blue\xef\xbb\xbf'
p1091
aS'dear ryan can you do a bleach parody\xef\xbb\xbf'
p1092
aS"I dare you to eat a spoonful of vegemite and if it's that disgusting, don't \ndrink what you want, drink a glass of water with 5 drops of vinegar in it\xef\xbb\xbf"
p1093
aS"I have been watching ryan for a long tym now....I send so many dear ryan \nand I dare u but don't get any response....y ryan...y? BTW I am ur BIGGEST \nfan!!!\xef\xbb\xbf"
p1094
aS'YAAAASS LILLY\xef\xbb\xbf'
p1095
aS'Boy show your dick\xef\xbb\xbf'
p1096
aS'whoa\xef\xbb\xbf'
p1097
aS"Get into an ice bath and eat a chilli but you can't get out the bath \nwithout finishing chilli ;p\n\xef\xbb\xbf"
p1098
aS'Dear +nigahiga  I met you at Disneyland. Just to put this out, I DARE YOU \nTO GO OUT INTO A MODERATELY PUBLIC PLACE AND TRY TO START A FLASH MOB.\xef\xbb\xbf'
p1099
aS'I love lily \xe2\x9d\xa4\xef\xb8\x8f\xef\xbb\xbf'
p1100
aS'I dare you to eat a petal off a flower\xef\xbb\xbf'
p1101
aS"Lilly's shirt! hehe\xef\xbb\xbf"
p1102
aS'That video was awesome! But since when did you have a pool in yohr house?\xef\xbb\xbf'
p1103
aS'I dare you to  dying your hair light purple! :P\xef\xbb\xbf'
p1104
aS'I dare you to eat the person to your rights boogers ;)\xef\xbb\xbf'
p1105
aS'I dare to dress as a women and go out into public.\nI dare you to do the knife game with the song.\xef\xbb\xbf'
p1106
aS'i love vegemite! \xef\xbb\xbf'
p1107
aS'I dare you to let some one else slap u in the back with the wet hand... \ngood luck xD\n\xef\xbb\xbf'
p1108
aS'i dare you to take a sip of soy sauce , with vinegar , and calamansi juice \nwith a pinch of sugar :) mix !\xef\xbb\xbf'
p1109
aS'Dear Ryan! Can You Do WWE?\xef\xbb\xbf'
p1110
aS'I dare you to eat a whole bottle of cinnamon.\xef\xbb\xbf'
p1111
aS'Idare u 2 pass\xef\xbb\xbf'
p1112
aS'I dare you to streak\xef\xbb\xbf'
p1113
aS'People shit in that toilet ewww\xef\xbb\xbf'
p1114
aS'I Dare you to get a toothpaste and put it on a bread and eat it\xef\xbb\xbf'
p1115
aS'Yah\xef\xbb\xbf'
p1116
aS'I dare you to take one pair of dirty underwear and wear it on your head for \nthe rest of the game\xef\xbb\xbf'
p1117
aS'I dare you to eat 10 peppers\xef\xbb\xbf'
p1118
aS'Omg LILLYYY!!! my favorite I dare u \xef\xbb\xbf'
p1119
aS"The vegemite has return! >:)\nAwww the loser didn't do anything this time? Aw well. This was hilarious no \ndoubt :D\xef\xbb\xbf"
p1120
asS'time'
p1121
ctime
struct_time
p1122
((I2014
I7
I18
I21
I19
I51
I4
I199
I-1
t(dtRp1123
sS'id'
p1124
VdGjLyzof9Us
p1125
s.