(dp1
S'title'
p2
VSkitzo - Introductions
p3
sS'url'
p4
Vhttp://www.youtube.com/watch?v=DUe6aOnSJBE&feature=youtube_gdata_player
p5
sS'image'
p6
Vhttp://i.ytimg.com/vi/DUe6aOnSJBE/0.jpg
p7
sS'comments'
p8
(lp9
S'2:10 How did he know his name was Hanate if Hanate has not said his name \nyet. \xef\xbb\xbf'
p10
aS'The Capital City Where I Live Is Called Regina xD\xef\xbb\xbf'
p11
aS'2014 and im still here watching it\xef\xbb\xbf'
p12
aS"No! your name isn't boob!\xef\xbb\xbf"
p13
aS'I wish that how to be emo ryan was on skitzo too!\xef\xbb\xbf'
p14
aS'Lol Honda civic at the end of hanateas name\xef\xbb\xbf'
p15
aS'i always love skitzo~~~ plz do more skitzos!!!!!!!!!!!\xef\xbb\xbf'
p16
aS'soooooooooooooooooooooooooooo.... its not in hd but the TEEHEE is?\xef\xbb\xbf'
p17
aS'my name boob\xef\xbb\xbf'
p18
aS'R-sizzle\xef\xbb\xbf'
p19
aS'What happened to "Dead Because I Killed It" and \n"EliteDarkLord_DragonSlayer_3.14159?@\xef\xbb\xbf'
p20
aS'Hi my name is Regina, but you can call me Regina! OMG no Regina XD\xef\xbb\xbf'
p21
aS'GUYS GUYS!! I HAVE SOMETHING VERY IMPORTANT \n\n\n\n\n\n\n\nmy name boob\xef\xbb\xbf'
p22
aS'My name boob\xef\xbb\xbf'
p23
aS'My name is Regina, but you can call me Regina.\xef\xbb\xbf'
p24
aS'Hanate: wait dats not fair i nevr got 2 tel my halluween storee.\nRyan: Sorry Hanate, what did you do?\nHanate: i stai hum cuk rice.\xef\xbb\xbf'
p25
aS"Who's that hottie with the most REAL beautiful hair?\xef\xbb\xbf"
p26
aS'My name boob\xef\xbb\xbf'
p27
aS'OMG IMFAO!!!!!!!!! HAHHAHAHAHA!!!! X"\'\'D \xef\xbb\xbf'
p28
aS'Hanate Wakuso Shiseo Tadashite Suzuki Honda Civic! XDD\n\nThat name is from How To Be Ninja!\xef\xbb\xbf'
p29
aS'i think hola means hi...\xef\xbb\xbf'
p30
aS'Hanate Hanate wa kuso sheseiotada suzuki honda civic\xef\xbb\xbf'
p31
aS'You can tell how these characters have grown (because Ryan has grown). This \nwas a great start but the (same) characters are much more themselves, \nalmost believable as 4 different actors in Skitzo - Nose Scar. The mark of \ngreatness. Great job Ryan. \xef\xbb\xbf'
p32
aS'how bout another halloween story!!\xef\xbb\xbf'
p33
aS'I wonder why he put a different picture for r dizzle\xef\xbb\xbf'
p34
aS'Hahaahh\xef\xbb\xbf'
p35
aS'If his name is boob,then can I be Regina hahahahaha\xef\xbb\xbf'
p36
aS'hola nigahiga!\xef\xbb\xbf'
p37
aS'mai name boob\xef\xbb\xbf'
p38
aS'His voice is so diff\xef\xbb\xbf'
p39
aS'ROFL THIS IS HILARIOUS\xef\xbb\xbf'
p40
aS"I'm watching ALL of ryan ' s vids and I'm at 2009\xef\xbb\xbf"
p41
aS'i remember when this first came out ifawgjawbjgawgbaj\xef\xbb\xbf'
p42
aS'i miss regina :(\xef\xbb\xbf'
p43
aS'Hahaha 2014 and still watching this\n\nHanate: My name boob. <----LMFAO\xef\xbb\xbf'
p44
aS"I miss this. \xe2\x9d\xa4\xef\xb8\x8f His videos never fail to get a laugh out of me no matter \nwhat mood I'm in. I have a feeling I'll still be watching this when I'm in \nmy 80s+. \xef\xbb\xbf"
p45
aS'You can tell how old this vid is cause there is a link to his myspace \naccount in the description\n\xef\xbb\xbf'
p46
aS'why does Ryan have a ring on his ring finger \xef\xbb\xbf'
p47
aS'but you can call me hanate wakuso shiseo tadashite teriyaki suzuki honda \ncivic\xef\xbb\xbf'
p48
aS'Skitzo.... Schizo.... s..... sck... UUURGH Is the title a schizophrenia \njoke? o3o\xef\xbb\xbf'
p49
aS'MY NAME BOOB\xef\xbb\xbf'
p50
aS'Good show \xef\xbb\xbf'
p51
aS'He needs to make more Skitzo episodes...\xef\xbb\xbf'
p52
aS'LMAO I love Skitzo old videos are the best <3\xef\xbb\xbf'
p53
aS"Wow :')\xef\xbb\xbf"
p54
aS'I cant stop laughing fucking hilarious XD\xef\xbb\xbf'
p55
aS'my name boob\xef\xbb\xbf'
p56
aS'More skitzo please :) \xef\xbb\xbf'
p57
aS"Regina: If His name is boob then can my name be Regina (in that weird \nsounding way)\n\nR-dizzle: That's tight! \n\nOMG PLEASE DONT TELL ME IM THE ONLY ONE THAT THINKS THAT SOUNDS WRONG! ( \nyou know cuz it sounds like something else)\xef\xbb\xbf"
p58
aS'lol 2:38 her face!!!!!!!!! XD\xef\xbb\xbf'
p59
aS'I remember watching this when I was 7. And I loved it so much. But I still \ndo :)\xef\xbb\xbf'
p60
aS'i remember watching this when i was 9 \xef\xbb\xbf'
p61
aS'"Question"\n"Yes Regina"\n"If his name is boob, can my name be Ragina ?"\n"That\'s tight !"\nBest part of the video \xf0\x9f\x98\x82\xf0\x9f\x98\x82\xf0\x9f\x98\x82\xf0\x9f\x98\x82\xef\xbb\xbf'
p62
aS'lol, "if his name is boob can mine be reGINA?", "that\'s tight!" I CAN\'T \nSTOP LAUGHING\xef\xbb\xbf'
p63
aS'lololol this is awesome...:)\xef\xbb\xbf'
p64
aS'When Ryan used to make me really fall on the floor laughing rofl! I love \nthe old comedy stuff.\xef\xbb\xbf'
p65
aS'What does skitzo means\n\xef\xbb\xbf'
p66
aS'lol Boob and Ragina!!!!!!!! XD \xef\xbb\xbf'
p67
aS'More skitzo i love\xf0\x9f\x98\x86\xef\xbb\xbf'
p68
aS'I love Regina!\xef\xbb\xbf'
p69
aS'Lmfao boob, \xef\xbb\xbf'
p70
aS'My name boob \xf0\x9f\x98\x82 bob, thats what i Said boob \xf0\x9f\x98\x82\xef\xbb\xbf'
p71
aS'Haha\xef\xbb\xbf'
p72
aS'My name boob\xef\xbb\xbf'
p73
aS'REGINAAAAA!!!!!!!!!!!!!!!!!!!!!!!!! :)\xef\xbb\xbf'
p74
aS'hanate wakuso shiseido tadashite teriyaki suzuki honda civic\xef\xbb\xbf'
p75
aS'\nSo what do you think?\n...\nMY NAME BOOB\xef\xbb\xbf'
p76
aS'His voice is more pitch back then\xef\xbb\xbf'
p77
aS'My name boob xD im gonna cry oh goddd hanate\xef\xbb\xbf'
p78
aS'My name Boob.\xef\xbb\xbf'
p79
aS"What's Hanate's last name? Hanate ........?\xef\xbb\xbf"
p80
aS'The space below is everyone who uses Myspace...\n"                                                                      "\xef\xbb\xbf'
p81
aS'Lmfao boob, \xef\xbb\xbf'
p82
aS'I remember watching this five years ago... Ah the memories ^^\xef\xbb\xbf'
p83
aS'My name boob boob boob \xf0\x9f\x98\x82\xf0\x9f\x98\xad\xef\xbb\xbf'
p84
aS'Mah name boob\n\nXD\xef\xbb\xbf'
p85
aS"It's 2014 and I just now realized that Hanate's (Boob's) name is the same \nas one of the trainers in the 'How to be Ninja' video from 2007. That's \nsad.\xef\xbb\xbf"
p86
aS'Lol\xef\xbb\xbf'
p87
aS'You racist\xef\xbb\xbf'
p88
aS'at 2:59 my computer paused, and it was on a disturbing picture\xef\xbb\xbf'
p89
aS'this was 5 years ago its still funny in 2014\xef\xbb\xbf'
p90
aS'Bob. My name boob.\xef\xbb\xbf'
p91
aS'pleaseeee make another skitzo\xef\xbb\xbf'
p92
aS'omg hanate is the funniest person on youtube now,well, besides ryan higa of \ncourse\xef\xbb\xbf'
p93
aS'Boob x re-gina!!!\xef\xbb\xbf'
p94
aS'my name is boob\xef\xbb\xbf'
p95
aS"THIS IS THE BEST VIDEO TO EVER EXIST I'VE BEEN WATCHING IT YEAR AFTER YEAR \nAND ITS STILL SO AMAZING \xef\xbb\xbf"
p96
aS'Too hilarious! LOVE SKITZO!! #TeamHanate\xef\xbb\xbf'
p97
aS'Going back a bit \xe2\x98\xba\xef\xb8\x8f\xef\xbb\xbf'
p98
aS'When Hanate said his name at the end he said Honda civicXD!!!\xef\xbb\xbf'
p99
aS'hellur\xef\xbb\xbf'
p100
aS'can u just make a video about hanate just looking at the cam .. and being \nhim .. i love that dude :p\xef\xbb\xbf'
p101
aS'some of his old videos kinda sucked :3 \nN.O\xef\xbb\xbf'
p102
aS'My name boob\xef\xbb\xbf'
p103
aS'My name Boob. \xef\xbb\xbf'
p104
aS"haha omg watched this again, he has changed so much!! :')\xef\xbb\xbf"
p105
aS'r-dizzle fo shizzle mah nizzle of the hizzle drizzle\xef\xbb\xbf'
p106
aS"this is the higa video where I laughed so hard I can't even breathe anymore \n\xef\xbb\xbf"
p107
aS'Lol\nBoob\nRagina \n\xef\xbb\xbf'
p108
aS'I loved the Skitzo ones the most!\xef\xbb\xbf'
p109
aS"3:04 and that's when Ryan realized...\nHe was working with idiots\xef\xbb\xbf"
p110
aS'Ryan: So what do you think?\nRandom silence\nHanate: My name boob\nRyan: Ugh...\xef\xbb\xbf'
p111
aS'What song did you use at the beginning?\xef\xbb\xbf'
p112
aS'Hehe MySpace \xef\xbb\xbf'
p113
aS'When i first watched this video and heard Hanate\'s intro,i thought he said \n"My name\'s Boo" and wondered why everyone else in the video was laughing.\n2nd time i watch it, i hear him say the same thing except this time i got \nit lol,My name is boo with a b  :P\xef\xbb\xbf'
p114
aS'I JUST LOVE HOWNTHEY INTRODUCE THEM SELVES XD\xef\xbb\xbf'
p115
aS'This was so funny!!!!!!!!!!!!! XD\xef\xbb\xbf'
p116
aS'You are so funny haha was laughing the whole time\xef\xbb\xbf'
p117
aS'(2:53)\xef\xbb\xbf'
p118
aS'phahaha myspace in the description!!!\xef\xbb\xbf'
p119
aS'More skitzooo!!!\xef\xbb\xbf'
p120
aS'omg theres a link to myspace\nLOOOOOOOL\xef\xbb\xbf'
p121
aS'Why does Ryan have a marriage ring?\n\xef\xbb\xbf'
p122
aS'.... My name boob :D Ugh!...\xef\xbb\xbf'
p123
aS'\xf0\x9f\x98\x82\xef\xbb\xbf'
p124
aS'that was great\xef\xbb\xbf'
p125
aS'Mah name bub.\xef\xbb\xbf'
p126
aS'I love this f#%*ing \xf0\x9f\x92\xa9\xef\xbb\xbf'
p127
aS'wow... memories\xef\xbb\xbf'
p128
aS'boob\xef\xbb\xbf'
p129
aS'MY NAME IS BOOB.\xef\xbb\xbf'
p130
aS'My name boob\xf0\x9f\x98\x82\xf0\x9f\x91\x8f\xef\xbb\xbf'
p131
aS'My name BOOB\xef\xbb\xbf'
p132
aS'AWE I MISS WATCHING THIS HAHAHAHAH\xef\xbb\xbf'
p133
aS'Regina:question (raise hand)\nRyan:yes regina \nRegina:if his name is boob can i be vergania \nR-dizzle:thats tight \n\n\nLol XD i love skitzo\xef\xbb\xbf'
p134
aS'My name boob.\xef\xbb\xbf'
p135
aS'Was this the very first Skitzo?\xef\xbb\xbf'
p136
aS"You are not getting under this\nUnder what?\nUnder my umbrella(holding a lamp)\nThat's a lamp. \nYou think you are some kind of umbrella expert \xef\xbb\xbf"
p137
aS'boob ahahahahahhahah\xef\xbb\xbf'
p138
aS'Watching in 2014\xef\xbb\xbf'
p139
aS'haha i love skitzo!!! \xef\xbb\xbf'
p140
aS'My name boob xD\xef\xbb\xbf'
p141
aS'Dat Hanate face.\xef\xbb\xbf'
p142
aS'We just did an introductions video please check it out <3 \xef\xbb\xbf'
p143
aS'How do u not like this\xef\xbb\xbf'
p144
aS'holy shit i was laughing my ass off while watching this\xef\xbb\xbf'
p145
aS'Hello my name is boob but you can call me Hanate&/@("/!4!,&/\'rbapxnebrid \nwait his name is boob? He means bob yea that\'s why I said boob no bob \nquestion if he is boob can I be Regina?\xef\xbb\xbf'
p146
aS'Wait if his name is Boob, can i change my name to RegIna\n\n\n\n\n\nXD \xef\xbb\xbf'
p147
aS'Utah\xef\xbb\xbf'
p148
aS'"Okaaaay" XD \xef\xbb\xbf'
p149
aS'this was from 2009, wow I feel old\xef\xbb\xbf'
p150
aS'Hahah my name bob :D\xef\xbb\xbf'
p151
aS'RYAN I MISS YOUR SKITZOSSSSSSS \xf0\x9f\x98\xa9\xf0\x9f\x98\xa9\xf0\x9f\x98\xa9\xf0\x9f\x98\xa9\xf0\x9f\x98\xa9\xf0\x9f\x98\xa9 \xef\xbb\xbf'
p152
aS'My name boob\xef\xbb\xbf'
p153
aS'Hahaha boob\xef\xbb\xbf'
p154
aS'"blah blah i know right?" "boob!"\xef\xbb\xbf'
p155
aS'Im sad you dont still do these. Honestly ive watched this one like a \nthousand times\xef\xbb\xbf'
p156
aS'MORE MORE MORE PLZZZZZZZZZZZZ\xef\xbb\xbf'
p157
aS'Im from 2045\n\n\xef\xbb\xbf'
p158
aS'If his name is Boob, can I be Re-GINA?\xef\xbb\xbf'
p159
aS'Lol just seems like yesterday since skitzo was first born haha \xef\xbb\xbf'
p160
aS"Can I change it to Regina. (R dizzle) yo that's tight\xef\xbb\xbf"
p161
aS"Wait where is dead, because I killed it........Why isn't he in any of these \nskits......\xef\xbb\xbf"
p162
aS'Rewinded the part when he said drizzle hahahaj\xef\xbb\xbf'
p163
aS'I don\'t know if u noticed but if u put ur headphones on and when there \narguing R dizzle said "I was walking with his lamp the. A bitch stepped on \nhis foot"\xef\xbb\xbf'
p164
aS'They should make new years resolutions, cuz that would be awesome... My \nname is boob\xef\xbb\xbf'
p165
aS'Lmao Ragina\xef\xbb\xbf'
p166
aS'Hanate is my fav\xef\xbb\xbf'
p167
aS'Never gets old \xe2\x9d\xa4\xef\xb8\x8f\xf0\x9f\x98\xad\xef\xbb\xbf'
p168
aS'Boob\xef\xbb\xbf'
p169
aS"Let's see.... Hanate wa kuso shiseiotada shite teriyaki Suzuki Honda civic. \nYep. Much easier to say than Bob/boob. \xef\xbb\xbf"
p170
aS'Never gets old\xef\xbb\xbf'
p171
aS'Regina : if his name is boob can i be regina!!!!\xef\xbb\xbf'
p172
aS'Never gets old xDDD\xef\xbb\xbf'
p173
aS"that's my brain during math there xD\xef\xbb\xbf"
p174
aS'English Youtubers are better than the german ones in a way... :D\xef\xbb\xbf'
p175
aS'Hanate is far more funnier than Regina and R-dizzle\xef\xbb\xbf'
p176
aS'Hi\xef\xbb\xbf'
p177
aS'bring it back skitzo\xef\xbb\xbf'
p178
aS'My name boob \nhahahahahahahwhahahahahqhahahahahahahahhahahahaahahahahhaahahhahahahahahahahahahaahhahahaahahahahahalololololololololololoololololololololololololololLololololololololololololololololololo\xef\xbb\xbf'
p179
aS'R-Dizzle is my favorite\n\xef\xbb\xbf'
p180
aS'Why is it called skitzo?\xef\xbb\xbf'
p181
aS'lol boob, i love regina :)\xef\xbb\xbf'
p182
aS'My name boob! Ryan: *facepalm*\xef\xbb\xbf'
p183
aS'"If his name is Boob, can I be ReGINA?"\n"That\'s TIGHT." \nI don\'t know if that was meant to be a joke or not but xD\xef\xbb\xbf'
p184
aS'you have to watch this even though its old. i watched this a million times \nyet its still FUNNY\xef\xbb\xbf'
p185
aS'I still cant catch hanate full name\xef\xbb\xbf'
p186
aS'"I like rainbow, sunshines and puppies.... but i don\'t like when puppie\'s \nnoses are wet, because it\'s wet, what is that is that boogers or is that \nwater, what is that?" 1:00\xef\xbb\xbf'
p187
aS'LoL\xef\xbb\xbf'
p188
aS'My name boob\xef\xbb\xbf'
p189
aS'What is up with the comments section...?\xef\xbb\xbf'
p190
aS'HANATE IS MY FAVORITE TOTALLY\xef\xbb\xbf'
p191
aS'So stupid Regina\nLike in the 2:30\xef\xbb\xbf'
p192
aS'My name boob!\xef\xbb\xbf'
p193
aS'I WANT MORE \nSKITZO!!!!!!!!!!!!!!!!!!!!!!!!!!!!!!!!!!!!!!!!!!!!!!!!!!!!!!!!!!\xef\xbb\xbf'
p194
aS'Hanate looks retarded 2:07\xef\xbb\xbf'
p195
aS'I love how Ryan puts every generic Japanese thing in for hanates name! \nCracks me up every time. Ifrom his newest skittish it seems like Ryan \nregrets creating ski to but I have always loved it!\xef\xbb\xbf'
p196
aS'My name boob\xef\xbb\xbf'
p197
aS'My name Boob\xef\xbb\xbf'
p198
aS'Hanate is my favourite hands down end. (My name Boob.) LMFAO!\xef\xbb\xbf'
p199
aS"Coz the videos are 'Skits' (Short Comedy Pieces) \xef\xbb\xbf"
p200
aS'Love thiss hahahaha\xef\xbb\xbf'
p201
aS'Gotta love R-Dizzle! "HIZZLE"!\xef\xbb\xbf'
p202
aS'Regina is SO stupid\xef\xbb\xbf'
p203
aS'My favorite skitzoooo. Hey ryan bring it back again,skitzo newyear maybe\xef\xbb\xbf'
p204
aS'hahahahahaha hanate omg i cant even XD\xef\xbb\xbf'
p205
aS'regina - if his name is boob can i be reGINA ?\nRdizzle - thats tight! loll!\xef\xbb\xbf'
p206
aS'Hhah.. Regina: "Question! If his name is Boob, can my name be Ragina?" xD \nhilarious \xef\xbb\xbf'
p207
aS'Awkward moment when you learn Hanate is canadian.\xef\xbb\xbf'
p208
aS'Lawl\xef\xbb\xbf'
p209
aS'Instead of bob\n\xef\xbb\xbf'
p210
aS' MY NAME BOOB!\n\xef\xbb\xbf'
p211
aS'Hi my name is Regina but... u can call me Regina LOL So stupid\n\xef\xbb\xbf'
p212
aS'i miss these\xef\xbb\xbf'
p213
aS'Hanate wasusuki wanawakaa jusiuu\xef\xbb\xbf'
p214
aS'*MORE SKITZO!!!!!!! MORE MOREEEEEEE MORE MORE MORE GRRRR!*\xef\xbb\xbf'
p215
aS'Boob\xef\xbb\xbf'
p216
aS'I LOVE SKITZO!!! YOU NEED TO DO ANOTHER ONE!!\xef\xbb\xbf'
p217
aS'Hanate wa kuso sheseiotadashite teriyaki suzuki honda civic okay\xef\xbb\xbf'
p218
aS'but hey! why does that face at 2:39 remind me of Ms Swan when she was tryng \nto  smile?\xef\xbb\xbf'
p219
aS'Lol, boob\xef\xbb\xbf'
p220
aS'Lamps\xef\xbb\xbf'
p221
aS'Regina is stupid.\nHanate is clever.\nR-dizzle is a gangster.\nRyan is my FAVOURITE actor!!!\xef\xbb\xbf'
p222
aS'name is boob, lol!\xef\xbb\xbf'
p223
aNaS'i always like Hanate :D\xef\xbb\xbf'
p224
aS"ReGina that's tight lmfao I see what she did there"
p225
aS'I remember when this first came out.'
p226
aS'Add more skitzo and maybe combine it with other situation'
p227
aS'Can my name be ragina Thts tight'
p228
aS'You should bring this back! Make more please'
p229
aS'Hanate lol'
p230
aS"I can't believe I haven't ever seen this. I've seen every other nigahiga \nvideo but I remember their names from his 2006-07 videos"
p231
aS'I wonder what rhymes with R dizzle kizzle nizzle sizzle fizzle DaFuQ am I \ndoing anymore'
p232
aS"Hahahahahhaha sooooo funny !!!! Regina's face lolllll"
p233
aS'he already did'
p234
aS'Skitzo thanksgiving reunion'
p235
aS'My name boob'
p236
aS'Thumbs up if you came fro Nose Scar'
p237
aS'Bring back Skitzo! :('
p238
aS'WOAH I JUST REALIZED REGINA IS LIKE ROLAND FROM WASSABI PRODUCTIONS'
p239
aS'trizzle'
p240
aS'R-dizzle: "Yo wassup guys my name is R-Dizzle" Ryan: "Ok! Thank you \nR-dizzle-" R-Dizzle: "Forshizzlemanizzle (or whatever)." Ryan: "Alright \nR-Dizzle Fo-" R-Dizzle: "Off the hizzle." -Awkward moment of silence- Ryan: \n"Tha-" R-Dizzle: "Drizzle." That was so funny omg'
p241
aS'Still awesome !! :D'
p242
aS'Boob'
p243
aS"If he's boob, can I be re-gina hahaha"
p244
aS'Im ur biggest lamp'
p245
aS'my name boob.'
p246
aS'Make more'
p247
aS'Dear Ryan, please bring Skitzo back!!!!! '
p248
aS"That's tight....."
p249
aS'@CupcakePupcake nope Regina is nothing like rolanda. Regina is BETTER.'
p250
aS'Can i be Re-gina? Yeah thats tight.lol'
p251
aS'I hate the ad'
p252
aS'Make more'
p253
aS'I love Regina she is the best'
p254
aS'So who came here because of skit so the nose scar'
p255
aS'I MISS THESE OMFGG'
p256
aS'My name boob'
p257
aS'read fast hanate wakuso shiseo tadashite teriyaki suzuki honda civic'
p258
aS'At the end. My name Boob'
p259
aS'Wierd names, you dont think! LOL!!!'
p260
aS'MY NAME BOOB'
p261
aS'my name BOOP/BOOB'
p262
aS'are u guys ever gonna comb that wig lol'
p263
aS'"If his name is Bobb, can I be Regina?" "That\'s tight!" "I know right" \nSneaky Ryan'
p264
aS'Oh, I miss Skitzo...'
p265
aS'MA NEM BOOB!!! :)'
p266
aS'I just love the way ryan acts as regina.. i wd love to see more skitzoz \nplease!'
p267
aS"Ryan said he's bringing back an old series with a bunch of characters!"
p268
aS'ROFL!!!! DUDE THIS SRSLY NEEDS TO COME BACK xD'
p269
aS'Yes, Ryan pleas e'
p270
aS'I enjoy watching these vids so much XD'
p271
aS'Skitzo* Lol'
p272
aS"Idk why but if I were a boy, I'd marry regina"
p273
aS'We are brothers and sisters belonging to one faith and one story. I appeal \nto lovers of folk music of Kazakhstan. Come to my channel to find out more \nabout the brotherly people and their culture. Or just listen to music. Hav\xd0\xb5 \nnice day Citizens of the land )))'
p274
aS'"My name boob" (serious face) 2:02'
p275
aS'Dear ryan can you make another episode of skitzo'
p276
aS'its kinduf ovious damonotism is andy rice -.-'
p277
aS'If hes boob can i b regina??'
p278
aS'My name boob'
p279
aS'wow nevermind'
p280
aS'He should Continue with this'
p281
aS"Ryan luks lik kim hyun joong.......he's reli cute ^-^ "
p282
aS'my name boob lol hanate and regina are the funniest ones'
p283
aS'Regina'
p284
aS'Skitzo thanksgiving reunion'
p285
aS"Hanate's face at 2:06 hahaha"
p286
aS"If he's boob can I be regIna? LMFAO!"
p287
aS'Lol I love Skitzo xD'
p288
aS'My name boob'
p289
aS'My name boob......, XD'
p290
aS'I ship Regina and R-Drizzle so hard sdfghjkl'
p291
aS"1:35. That's the same guru form How To Be Ninja. Omg Ryan."
p292
aS'Yeah, but Regina is like better than Rolonda.'
p293
aS'Skitzo. Sounds like Schizo..........phrenic'
p294
aS'\xe2\x98\x9dMy name boob'
p295
aS'Could not stop layghing'
p296
aS'R dizzle foshizle mynizzle of the hizzle......DRIZZLE'
p297
aS'#teamHanate'
p298
aS'people call my friend hanate p.s regina can you say "if you take a horn of \na unicorn it\'s murderous then it\'s a horse a very ugly horse " thanks ryan!'
p299
aS'Hanate: *raises hand* my name boob.. XD'
p300
aS'You should make a skitzo reunion now!'
p301
aS'Dear Ryan, can you bring it back to the front? Please do some on skitzo \npretty please^^^ /puppy eyes/'
p302
aS'Skitzo!! Moreee'
p303
aS'Please make more skitzos'
p304
aS'Skitzo is awesome'
p305
aS'Old school nigahiga'
p306
aS'Dammit, Clean & Clear. No one wants to watch your commercials. Anywho. \nSKITZO.'
p307
aS'My name Boob"'
p308
aS'dear ryan, can you do ballet?'
p309
aS'Bring back skitzo'
p310
aS'My name boob!'
p311
aS'My name BOOB'
p312
aS'I never get tired of watching this'
p313
aS'Keep doing skitzo'
p314
aS'Regina- isnt that right? R-Dizzle-right. Regina- isnt that right? Hanate- \nmy name boob Me- * dieng on the floor *'
p315
aS'hanate : my name is boob ryan : no bob'
p316
aS'skitzo always made me laugh so hard !'
p317
aS'#TeamHanete'
p318
aS'me too'
p319
aS'tee hee'
p320
aS'forever alone'
p321
aS'More'
p322
aS'Dear Ryan, Could you be a lunch lady?'
p323
aS"IT'S BACK!!!"
p324
aS'Loved?'
p325
aS'"My name boob" lol'
p326
aS'Loved it!'
p327
aS'Hanate -o- V'
p328
aS"It's always funny when they have there wondering moments and Regina makes \nthe funniest faces"
p329
aS'We need more skitzo!!!'
p330
aS'HAPPY BIRTHDAY'
p331
aS'You really need to make more skitzos i miss 5):'
p332
aS'you almost killed at that boob part '
p333
aS'Hanate Wakuso Shiseido Tadashite Teriyaki Suzuki Honda Civic'
p334
aS'Combine gangster, ninja, and stupid.'
p335
aS'Hello. My name is B\xc3\xb6b.'
p336
aS'My name boob'
p337
aS"my name boob it's bob"
p338
aS'Like if ur watching this in 2013'
p339
aS'Do more!'
p340
aS'I love skitzo'
p341
aS'Thats right'
p342
aS'Skitzo thanksgiving reunion'
p343
aS'Who else at the end when Hanate paused them all and said "my name boob" \nJust Burst out laughing?'
p344
aS"I just got it, can I be Regina, that's tight... HAAHAHAHAHA"
p345
aS'OMG 4 YEARS AGO! I REMEBER WHEN THIS CAME OUT !!!!!'
p346
aS'i miss these so much'
p347
aS'Teehee'
p348
aS"my name boob XD also is that a ring see on Ryan's finger?!"
p349
aS'GO. AWAY.'
p350
aS'Make more, Skitzo is better than of the pill'
p351
aS'Dear Ryan, can you make more Skitzo? :D'
p352
aS'Do more skitzos!!'
p353
aS'Rdizzle got swag'
p354
aS'dude....ryan is acting as a girl '
p355
aS'Hehehehe i didnt notice cx '
p356
aS'i loveeee SKITZO!!!!'
p357
aS'DUN DUN DUN....My name boob'
p358
aS'If u want to be an emo be Anthony form smosh'
p359
aS"You are the most hilarious person I've ever seen. Every time I feel awful, \nI watch your videous and they always cheer me up! :)"
p360
aS'Hi, guys, my name is Regina but you could call me Regina'
p361
aS'MAKE MORE RYAN!'
p362
aS'Skitzos r the best!!!!!!'
p363
aS"I think I've watched this video 20 times already "
p364
aS'MAKE MORE'
p365
aS'oooh the dump chick...........LMFAO'
p366
aS'Love it <3 Bring a little gangster c:'
p367
aS'dat face 2:06'
p368
aS'My name boob lol'
p369
aS'I love that :D'
p370
aS'R-Dizzle has to be my favorite of your alter egos. lol -Trauma Tize'
p371
aS'MY NAME - BOOB!'
p372
aS'haha my name boob i laughed so hard i lost my voice '
p373
aS'my name boob..'
p374
aS"the end of hanate's name is honda civic lol "
p375
aS'Hi my name is Regina but you guys can call me Regina. Lol! :-)'
p376
aS'ooo ma gawd,,,, rojina'
p377
aS'love with regina .'
p378
aS'im r'
p379
aS'my name is boob'
p380
aS'Regina! Hehe!'
p381
aS'Lol'
p382
aS'my name boob.'
p383
aS'One of your best videos'
p384
aS'This needs to come back lol'
p385
aS'lol *silence* dum dum dum dum duuuuummmmm "MY NAME BOOB"'
p386
aS'Boob'
p387
aS'HANATE! ^o^v'
p388
aS'Please make more Skitzo Ryan!! We miss them! ):'
p389
aS'1:25'
p390
aS'BOOB xD'
p391
aS'please.. just pause at 2:07.. lmaoo'
p392
aS'HanateWakushoShiseyoTadareshiTeriyakiSuzukiHodaCivic Just one Watch And \nUnderstand it '
p393
aS'lol hallo everybody my name is boob but you can call mr hanate \nwootakoterriacy susacki'
p394
aS'I really want this to come back'
p395
aS'3:00 the famous drama music :)'
p396
aS'Books'
p397
aS"Why haven't you continued Skitzo?"
p398
aS"Hi my name is Ragena but u can call me Ragena And I like rain bows and sun \nshines and puppies except when thir noses are wet what is that is that \nbloggers or water what isn't hat"
p399
aS'then my name is ragina thats tight hahahaahaahahah'
p400
aS"Omg so many memories this is one of the first YouTube vids I ever watched \nand it's still hilarious"
p401
aS'I laughed so hard at this'
p402
aS'LOL '
p403
aS'whats the song name at 3:00?'
p404
aS'*asian'
p405
aS'TEEHEE'
p406
aS'OMGOSH U HAVE TO MAKE MORE OF SKITZOS I MISS THEM'
p407
aS'my name boob! '
p408
aS"MORE SKITZO PLEEEEEEEEEEZ IT'S THE BEST!! XD"
p409
aS'My name boob'
p410
aS'R-Dizzle and S-Deezy should do a crossover :D'
p411
aS'1.17 really wat is that'
p412
aS'GUYS LIKE THIS COMMENT SO RYAN CAN SEE THAT WE WANT TO BRING BACKK SKITZO!!!'
p413
aS'regIna??!! what the heck is wrong with her?! making asian women look bad! \nand BOOB?! really?! "MY NAME IS R-DIZZLE FO-SHIZZLE MA-NIZZLE OFF \nTHE-HIZZLE DRIZZLE?! BUT YALL CAN CALL ME R-DIZZLE..." AND HANATE WITH THE \nHONDA CIVIC NAME? what?! '
p414
aS'yes'
p415
aS'My name boob'
p416
aS'my name boob.XD'
p417
aS'yesss bring SKITZO back!!!!!!'
p418
aS'hahhaha my name is boob'
p419
aS'My name Boob LMAO!!!!!'
p420
aS'SKIZTO!!!!!! MORE PLZZZ!!!!!'
p421
aS'i keep forgetting these are all ryan..'
p422
aS'if his name is B( .) ( .)B can i be rigina'
p423
aS'Man I miss skitzo'
p424
aS'Loveeee itt'
p425
aS'Do a malk skit!!!'
p426
aS"No they aren't, how come that there are 4people in the room. EXPLAIN THAT!! "
p427
aS'Boob hahah QUESTION IF HIS NAME IS BOOB CAN I BE REGINA \nHAHAHAHAHAHAHDDJDDBSUDBDKSBD I DIED HAHAH'
p428
aS"It's official, Ryan's videos are timeless."
p429
aS"Ryan isn't asian he is HAWAIIAN "
p430
aS'so funny XXXXXXXXXXXXXXXDDDDDDDDDDDDD '
p431
aS'Funny af!'
p432
aS'Make more skitzo'
p433
aS'Boob'
p434
aS'hahahahaha they are did u watch the video in higatv XD'
p435
aS'Dang I miss skito'
p436
aS'"my name boob" "he means bob" "that what i say boob" "no BOB" "boub?" "B O \nB" "boob..." loooooooolzz'
p437
aS'"Hi guys, my name is Regina, but you can call me Regina." LMFAO'
p438
aS'My mm my name boob'
p439
aS'At my school play. my class did this video'
p440
aS'thats what i said boob bob boob bob boub? bob ? if his name is boob can my \nname be ragiena? LMFAO XD'
p441
aS'Hahahaha! "Can I be reGINA? That\'s tight!"'
p442
aS'Lol Regina is so funny'
p443
aS'Daw'
p444
aS'3 x 999,999,999,999,999,999'
p445
aS'MEEE'
p446
aS'That was awesome. Good job Ryan.'
p447
aS'Thumbs up if u watch tis in the year of 2015..'
p448
aS'Lol so funny when bob keeps saying his name is boob'
p449
aS'Gimus morarrrrrr'
p450
aS'Wo I like rainbows and sunshine and puppys TEEHEE'
p451
aS'i finally understand y it is called skitzo...'
p452
aS'so much funny thanx'
p453
aS"If you're boob and ur ragina ill be dick richardson teehee"
p454
aS'Omg the name Hanate has was in How To Be Ninja.. '
p455
aS'Rigiiina and Boob are so cool!'
p456
aS'2:06 BOOB! :D'
p457
aS'I want thumbs up! uuummmmmm... my name boob.'
p458
aS'Awesome bro love regeina character LOL'
p459
aS'Seriously guys? 23 likes? '
p460
aS"I've seen this a million times and I just realized Hanate's name had Honda \nSevic in it lol!!!!!"
p461
aS'whoo 6million views!(:'
p462
aS'i love SKITZO!'
p463
aS'my name boob'
p464
aS'"Harro hairybody" xDD that\'s when I started laughing'
p465
aS'Hanate says all kinds of car dealer names....'
p466
aS'REGINA XD'
p467
aS'hanate: my name boob'
p468
aS'Ryan please do more Skitzo :) '
p469
aS'QUESTION!!!'
p470
aS'Yea, news flash, he was trying to make her stuoid'
p471
aS'nowadays its called DID (Disassociative Identity Disorder) but that sucks '
p472
aS'Civic'
p473
aS"I'm new on YouTube I'm going to makes videos something like this cheek my \nchannel out please"
p474
aS"regena's new name regina=vagina"
p475
aS"it's funny how ryan is the serious one in this wait.. they are all ryan .. "
p476
aS'LMAO. my name boob.'
p477
aS'hahahahanate 1:26'
p478
aS'His name boob'
p479
aS'My name boob'
p480
aS'love you all but Boob is my favorite:D'
p481
aS'There\'s no "B" in your name o.o'
p482
aS'I just died XDDDD'
p483
aS"1:26 i'm gonna start clearing my throat like that :)"
p484
aS'Or Obob.'
p485
aS'Aww good times =)))'
p486
aS'My name boob haha laughed sooo hard on that one!!!'
p487
aS"Schizophrenics do not typically have multiple personalities. I asked my \ndoctor, and he said they don't. I asked because I am schizophrenic and when \nI see these I feel bad."
p488
aS'nice to meet you everybody, my name is Arkan and I\'ll be WATCHING you, like \n"the GHOST next door". teehee'
p489
aS'ive never laughed that much in my life'
p490
aS'Yeah can you make more Skitzos you only have like 6'
p491
aS'Me haha'
p492
aS'Teehee'
p493
aS'Regina'
p494
aS'LOL i love his shirt '
p495
aS'Wauw, so different from the last videos, Ryan,, PLEASE TAKE US BACK TO YE \nOLD TIMES :S'
p496
aS'my name boob -_-'
p497
aS'My name boob'
p498
aS'when it was r dizzals time i was laufing so hard and ryan make more skitzos '
p499
aS'the old ryan was funnier than now 2013 more random now it is more script no \noffense'
p500
aS'this was on my b-day... best present ever'
p501
aS"I'm dying laughing"
p502
aS'Really hanaete'
p503
aS'More skitzo'
p504
aS'... my name boob. :3'
p505
aS'Thumbs up if you want Ryan to make more Skitzos videos'
p506
aS'Hahahahahahahha'
p507
aS'LMAO!!!!!!!'
p508
aS'MAKE MORE I MISS THIS'
p509
aS'I liek Hanate :) '
p510
aS'Hahahahaha! I like this:)'
p511
aS'regina: if his name is boob, can i be ragina? rdizzle: yo thats tight!'
p512
aS'I became dizzy.... @:0 '
p513
aS'HAHAHA!! my name Boob xD '
p514
aS'"Hi guys! my name is Regina but you can call me Regina" lol '
p515
aS'I thought that was a deformed elephant before i figured out what it was....'
p516
aS'OMG REGIINA!!..like..that other word..HAHA '
p517
aS'Hanate: Okaaaaaaaaaaaaaaaaaaaaaaaay '
p518
aS'my name is Boob xD'
p519
aS'my name Boob'
p520
aS'that is soooo awesome how did you do that '
p521
aS'this was from 3 years ago?!?!?!'
p522
aS'hey @Aleksa Ljubisavljevic if you have a phone check your comment on \nskitzo-introductions vertically.'
p523
aS'oh I get it, Regina rhymes with Pussy'
p524
aS'My name boob'
p525
aS'what would Skitzo be without regina...'
p526
aS'More skitzo porvafor. U culd add a new character. Maybe a Mexican named \nsombrero.'
p527
aS'hey Vagi....uh....Regina!'
p528
aS"why don't they do a saw movie? "
p529
aS'Hahaha'
p530
aS'My name boob'
p531
aS'no...it rhymes with vagina'
p532
aS'"My name Boob" *ryan facepalm* WIN Hanate being Hanate'
p533
aS'IIt means that the puppy/dog is healthy, duh.'
p534
aS'Still watching in 2012'
p535
aS'my name boob. lol'
p536
aS'comebine gangster, ninga, and........stupid'
p537
aS"BRAIN BLAST!!! Skitzo is Ryan's funny way of saying schizophrenia which is \nhaving a split personality. YEAH"
p538
aS"If he's boob can I be Regina hahaha"
p539
aS"Where's Dead, because I killed it?"
p540
aS"I'm from Australia"
p541
aS'ma neim buub'
p542
aS'You rook rike bruce ree'
p543
aS'Regina? more like Vagina'
p544
aS"No, she made her name RHYME with vagina. It's a joke."
p545
aS'So funny'
p546
aS"My name boob wait if his name is boob can my name be Regina? Yo man that's \ntight LOL"
p547
aS'Rigina is so funny!!!'
p548
aS'I like r sizzle'
p549
aS'Yes Guys I think we might have Gotten Skitzo Back!!! Thank You Ryan!'
p550
aS'I miss these'
p551
aS'scribe to me please'
p552
aS'hanate wakuso tadashite teriaki suzuki honda civic'
p553
aS'if his name is boob can i be regI(capital)al'
p554
aS"lmao my mom's name is Regina and when she has foreign people call her house \nfor some odd reason they always say can I speak to rah-gina lol "
p555
aS'The thing is, MY name is REGINA.'
p556
aS'"harro!...xDDDDDDDDDDDDDDD'
p557
aS'Watching this all from the last one to the first one is just hilarious! xD'
p558
aS"i just pee'd myself laughing."
p559
aS'3:03 My name Boob'
p560
aS'Question: If his name is boob can i be Regina hahahahaha i died at that \npart XD '
p561
aS'i would love he did it know i loved it '
p562
aS'I love this vid i could repeat it like thee thousand times and still think \nits funny OH YEAH!!'
p563
aS'My name boob'
p564
aS'MY NAME boob'
p565
aS'2:00 my name Boob'
p566
aS'Loved it but add the emo guy, dead because I killed it.'
p567
aS'2:00 My answer to everything '
p568
aS"That awkward moment when you realise that 'Skitzo' starts 'schizophrenia'..."
p569
aS'LOL YOU RACIST DOG YOU RACIST ! NAH IM JUST KIDDING GO AHEAD .(: '
p570
aS'So funny'
p571
aS'Dear Ryan, you should have a day at the beach'
p572
aS'Forever alone.'
p573
aS"Haha yo man that's tight!"
p574
aS"Can't stop laughing at boob lol"
p575
aS'OMG NIGAHIGA! YOU ARE SOO FUNNY!!! THE BEST ON YOUTUBE!!'
p576
aS'3:04 Hanate: My name boob Ryan: Ahhhh,.. Funnyyy'
p577
aS'Regina:QUESTION! Ryan:What?! Regina:If hes boob can i be Ragina? \nR-Dizzle:Thats tight Ryan:No ones changing there name! Regina:I can change \nmy name if i want to shouldnt I?! R-Dizzle:Yea Hanate:My name boob'
p578
aS"wow! I didn't know someone else actually watched the video like me!!"
p579
aS'\xd0\x9cy name is Bob, but you can call me Hanate \nWakuSushiSeuTadashiTeriakiSozukiHondaSivikHokaaaal..'
p580
aS'somebody should make their username mynameboob ...they would be my \nbestfriend.'
p581
aS'i love Hanate...or Boob....imean Bob :D '
p582
aS"Lol hanate's asian troll face! pause at 1:08"
p583
aS"Even after all these years, I still love these skitzos' and still find them \nhilarious."
p584
aS'the way rejina says boogers cracks me up '
p585
aS'this would have been better with an EMO guy'
p586
aS'MY NAME BOOB.'
p587
aS'Okaaaaaaaaaaayyyyy?'
p588
aS'Lol "my name boob"'
p589
aS'lol i just miss these videos! i love watching these again i remember when \nthey first came out'
p590
aS'I LOVE HANATE!'
p591
aS"you're a very bad at making lies"
p592
aS"What's hanatte full name again ?? Lol"
p593
aS'Make more skitzo'
p594
aS'Haha me too'
p595
aS"Yea u should bring this back and this time make Regina blond... It's gonna \nbe so fetch! xD"
p596
aS'This here, is like the classic NigaHiga'
p597
aS'what can we call him???'
p598
aS'He shud make more videos of skitzo! :('
p599
aS'Lol'
p600
aS'Make more skitzo'
p601
aS'two minutes in: my name boob.'
p602
aS'HahHa not funny in my under coment'
p603
aS'Srry car brand names'
p604
aS"hahahahahahahahaa I can't help it, I can see these series a million times \nand I always die laughing hahahahaa....pleaaaase ryan, make more skitzo!!!!"
p605
aS"If his name is boob, can I be Regina? THAT'S TIGHT!"
p606
aS'"If his name\'s \'Boob\' can i be Regina?" "That\'s tight" oh god i thought so \nwrong'
p607
aS'this is hilarious I laughed so hard at 1:30 to 2:06 MY NAME BOOB ~lol'
p608
aS'Dear Ryan can you make a Skitzo movie? :D'
p609
aS'If his name is Boob, and hers is Regina, can I be JKPenis?'
p610
aS'hanate said honda civic in his name'
p611
aS'You forgot the suzuki!'
p612
aS"i hope you'll make more of these. :) "
p613
aS'What pinkmvtter said is what it is.'
p614
aS'He started to make a series with himself. . . Genius.'
p615
aS'can I Know what video is the Elite Darklord? please?'
p616
aS'hahahah i really like r-dizzle the best even though they are all you'
p617
aS'3:04 XD classic!'
p618
aS'Im Boob xDD'
p619
aS'If his name is boob can I be regina? Lol'
p620
aS'whats it mean'
p621
aS'i missed the skitzo series.. dear ryan, can you make more skitzo series :( \nmissed regina the most haha'
p622
aS'best'
p623
aS'ISNT THAT RIGHT RIGHT RIGHT MY NAME BOOB LOL LOVE THAT PART'
p624
aS'I agree'
p625
aS'I LOVE HIS FACIAL EXPRESSIONS!! '
p626
aS'face at 2:38 AWESOME. should be one of those troll faces'
p627
aS'i like hanate the best X3 he makes me laugh like mad XD'
p628
aS'LOL 2:38'
p629
aS'I MISS HIS OLD HUMOR'
p630
aS'I agree with you because it will make the show even better \nR-Dizzle=Gangster Regina=Stupid one Hanate=Ninja Elite Darklord=Nerd \nDead=Emo guy all of this will make this show even more better ...anyone \nagree?'
p631
aS'my name bub! lol'
p632
aS'my name bop lol!!!!!!!'
p633
aS'Regina is deff the best hahhahaXD'
p634
aS'1:49 that was to funney '
p635
aS'boobs name is honda civic'
p636
aS"re-gina = rhymes with vagina. and he said that's tight, meaning 'tight \nvagina'."
p637
aS'My name boob'
p638
aS'Mah name boob.'
p639
aS'I can change my name whenever i feel like it isnt that right? Thats right! \nIsnt that right? My name boob'
p640
aS'I almost died laghing!!'
p641
aS'Trust me your not the only one. '
p642
aS'Sorry to bother you, but schizophrenia has nothing to do with split \npersonalities.'
p643
aS'My name is boob LOL'
p644
aS'I remember when ii watched thiis ii loveyou ryann.. :)\xe2\x99\xa5\xe2\x99\xa5\xe2\x99\xa5\xe2\x99\xa5'
p645
aS'Bring back skitzo Ryan!!!!!!'
p646
aS'Dear ryan, can you please hug regina for me \xe2\x99\xa5'
p647
aS'FUNNY'
p648
aS'i miss these videos!!!'
p649
aS'hey my name is R Dizzle fo shizzle my nizzle off the hizzle Drizzle xD OMG \nthat was epic!'
p650
aS'u tryna rush me dawgg?'
p651
aS'This is still my favourite Skitzo out of all of them =)'
p652
aS'Me'
p653
aS'BRING DIS BACK!'
p654
aS'Lol.'
p655
aS'Dear Ryan how did you make this'
p656
aS'dear ryan,can you do more skitzo videos '
p657
aS"wow, i'm stupid, i only just realised why it's called skitzo... \nschizophrenia... wow, that took me a while, 3 years... :D"
p658
aS'ikr i hate it when people do that'
p659
aS'2:34 hanate kicks pickachu'
p660
aS'The music is from the game robot adventures'
p661
aS"Hi I'm Regina, but you can call me Regina."
p662
aS'MMY name BOOB LOL'
p663
aS'Pause at 2:07..XD'
p664
aS'funny'
p665
aS'lol wtf '
p666
aS'I love everyones intelligent faces. XD 0:16 :D'
p667
aS'0:31 R-Dizzle : *sigh* Yo wasup guyz my name is R-dizzle. Ryan: okay, thank \nyou r-dizz- *interuptes* R-dizzle: For shizzle my nizzle. Ryan: alright, \nR-dizzle forsh- *interuptes again* Off da \nhizzle...................................... Ryan:...........thank-* \nDRIZZLE. * Funniest part in my opinion lmao'
p668
aS'I like how Ryan is the sensible one...lol '
p669
aS'its how to be gangster'
p670
aS'LOL, I like Regina\'s faces. And also "If he can be boon, can I be ragina?"'
p671
aS'u racist dawg, u racist? lololol xD watched this a million times! :DD'
p672
aS'So what do you guys think? R-Dizzle: *detective* Regina: Girly? Hanate: \n*lift hand* MY NAME BOOB! lol'
p673
aS'MY NAME BOOB!'
p674
aS'Love My name boob'
p675
aS'i love hanate. hahaha XD'
p676
aS'Hanate is ma favourite'
p677
aS'"My name is Boob, but you can call me \nHanatewokusoshiotarashitereakesuzukihondacivicaaa..." "Okay... Lets..." \n"Wait your name is Boob?" "No he means Bob!" "Yes that\'s what I said Boob!" \n"No, Bob!" "Boob" "Bob!" "Boob?" "Question!" "Yes Regina?" "If he name is \nBoob, can my name be Regina?"'
p678
aS'1:38 okaaaaaaay lmfao'
p679
aS"Regina: Wait, if he's name boob, can i be call regINA? R-Drizzle: That's \ntight yo"
p680
aS"why don't u make skitzo anymore!!!??? i loved ur skitzo videos but it such \na short series:("
p681
aS"Actually, it's Hanatewakusoshiseotadashiteteriyakisuzukihondacivic."
p682
aS'My name boob'
p683
aS'if his name is boob, can i be regina? '
p684
aS'he too funny'
p685
aS'lol My name boob!'
p686
aS'I like how Hanate is shown trying to tell them his name is Bob :D'
p687
aS'SO fuckin funny'
p688
aS'Do you find it awkward to dress up like a woman???'
p689
aS'I miss bob nd dizzle cx'
p690
aS"It's actually condensation on dogs nose"
p691
aS'honda civic!!!!!! '
p692
aS'ummm..news for you regina all dogs noses are sposed to be wet:)'
p693
aS'Hanatewakusoshiseotadashiteteriyakisuzukihondacivic. XD'
p694
aS'I love this video'
p695
aS'Regina haha'
p696
aS'Luv regina'
p697
aS'I miss the Skitzo series. *_*'
p698
aS'he likes lamps'
p699
aS'"My name Boob." lol I died '
p700
aS'hanate: my name boob regina: if his name is boob can i be regina? R.Dizzle: \nyeah thats tight me:haha thats what she said lmfaoo'
p701
aS'Omgomgomg!,i just noticed something! "skitzo" is a term used to shorten up \n"skitsohrenia" Idk how to spell it, so i\'ll spell it how u peonounce it \n"skitzofrendia". Its when you see and hear things. So idk if ryan\'s \nimplying that he\'s crazy with skitzo (cuase he\'s seeing and hearing other \nhims) or he just liked the name.... But either way, isn\'t that cool! I just \nmade u a bit smarter.... And if you\'re watching nigahiga, trust me, you \njust got smarter... I\'M BIG FAN RYAN!.But i\'m the plastic kind.'
p702
aS'my name boo'
p703
aS'i miss skitzos so much!!! bring them back its been 41 videos please'
p704
aS'my name boob (duckish asian face) - Hanate xD'
p705
aS'Yes, we all saw the video ><'
p706
aS'Make more skitzo ryan!!'
p707
aS'so funny\xef\xbc\x81my name boob'
p708
aS'"If his name is boob can I be Regina?" I died'
p709
aS'my name boob! Fuck la life! XD '
p710
aS'i search up regina this was what happened'
p711
aS'Boob is high as fuck'
p712
aS'"If his name is Boob can I be Ragina? xD'
p713
aS"Oh my god! It's like were watching the same video!"
p714
aS"Thanks for quoting the video. I DON'T THINK I WOULD'VE UNDERSTOOD WHAT HE \nSAID."
p715
aS'i loke rainbow and sunshine and puppies....'
p716
aS'Herro everybody my name is boob. But you can call me \nHanatewassukiserisakiterriakihonda civic ooooooooookkkkkkkk '
p717
aS'My name boob.'
p718
aS"LOL! I've never noticed that before! Thanks! "
p719
aS'My name is boob'
p720
aS'LOL'
p721
aS'Wow... '
p722
aS'Lol'
p723
aS'i finally got the name xD'
p724
aS'STOP KICKING PIKACHU!'
p725
aS'Make more skitzo!'
p726
aS"Love Skitzo! It's hilarious! "
p727
aS'Funny stuff! Smh! hahah!'
p728
aS'I loved skitzo <3'
p729
aS'Go to 3:52 Ryan forgot to Take off his ring from being regina :P'
p730
aS'My name boob'
p731
aS'More Skitzo, pl0x :3'
p732
aS'" my name boob " at the end cracked me up'
p733
aS'Regina: " If his name is boob can I be Regina?" R-Dizzle: " Das tight!" i \ndied of laughter XD'
p734
aS'i like boob'
p735
aS'Boob looks like ryan bang!'
p736
aS'Omg pls make more skitzos !! I loved these'
p737
aS'My name is Boob ! hahahhaha'
p738
aS'lol hi my name is regina but you can call me regina. lol if his names boob \ncan i be ragina? lol I LOVE REGINA!'
p739
aS"ARGHHHH, your videos are my drug MAN I CAN'T STOP WATCHING IT :D"
p740
aS"rigena: Look if he's gonna be called boob, can i be called rigina? \nR-Dizzle: Thats tight! LOL!"
p741
aS'u r quick at replying '
p742
aS'2:54- ryans married!!????'
p743
aS'regina: if his name is boob can i be re-gina LOL '
p744
aS'Damn,i miss skitzo!!'
p745
aS'thanks!'
p746
aS'Teriyaki, from Teriyaki boys Suzuki from the car company Honda civic from \nHonda'
p747
aS'Thats a Lamp!'
p748
aS'Hi, my name is Regina... But you can call me Regina.'
p749
aS'hahahahahaha my name boob lol :) '
p750
aS"it's 2012 and hell yeah im still repeating this over and over when i get \nbored, never gets any older :D"
p751
aS'My name is.....BOB'
p752
aS'i remember when this first came out :)'
p753
aS'Hahaha Regiiina'
p754
aS'Drizzzle! <3 ahahahahahahah'
p755
aS'Dear Ryan plz make a Skitzo reunite part 2...this was so hilarious I almost \ndied laughing "Regyna" lol'
p756
aS'drizzle gets me every time'
p757
aS'all of them r funny!!!'
p758
aS'Dear Ryan, Can you make more Skitzo videos? '
p759
aS"Omg Regina is so funny! Why are there not more skitzo's :c They're the best"
p760
aS'rigaina and boob lol '
p761
aS"Schizophrenics don't have multiple personalities. Google it. This is the \none thing I don't like about Nigahiga, completely inappropriate, seeing as \n'skitzo' derives from something COMPLETELY unrelated to these videos. "
p762
aS'Wow I still laugh at this... Please Mr Higa make more skitzo videos'
p763
aS"I miss skitzo!!! It's so funny!"
p764
aS'hello everybody my name is boob but you can call me ?'
p765
aS'Ha'
p766
aS'"but I don\'t like it when puppies noses are wet."lol'
p767
aS'MY NAME IS BOOB!!!!'
p768
aS'i wish we could still call him boob'
p769
aS'Question! yes regina "If his name is boob can i be Regiana?" LOL\'DDD'
p770
aS'please brink skitzo back its awesome'
p771
aS'if his name is boob can i be regiana'
p772
aS'i just started laughing at regina when she wanted to be named regiiiiinnnaa \nxD'
p773
aS'I loved when he was like "My name Boob." in the part when they wanted to \nchange their names and at the end when it look like he had an idea and he \nsaid "My Name Boob." LOL!!!'
p774
aS' the daily life of Hanate Wakuso Shiseo Tadashite Teriyaki Suzuki Honda \nCivic .. okaaaaaaaii'
p775
aS'Is boob dating regina'
p776
aS"jajajaja I love every character...I don't have a favorite one....everyone \nis so funny..I laugh a lot with ryan, r-dizzle, regina and hanate"
p777
aS'"if his name his boob can my name be regINA? No. Dont you think I can \nchange my name? (talking to R-Dizzle) thats right. dont you think i can \nchange my name?(talking to hanate) MY NAME BOOB.'
p778
aS'gangster:i get that lamp and that bitch come under my foot O_o Me:What the \nfuck was he talking about O_O'
p779
aS'2:01 hahaha'
p780
aS'my name boob '
p781
aS'grrr buffering'
p782
aS'omg thats soooo funny '
p783
aS'Hanete coughs weird'
p784
aS"Omg, I've seen this like a hundred times and I'm still laughing so hard \nthat I've got a six pack now!"
p785
aS'Ryan Higa Y U NO MAKE MORE SKITZOS!?'
p786
aS'Ha!'
p787
aS'1:38 "Okaaaaaaaaaaaaaaaaaaaaaaaay?" HAAAHAHAHAHHA LOOOOOOOOOOOOOOOL'
p788
aS'hewwo, everybody. mai name is boob'
p789
aS'Who else watching in 2013? \\'
p790
aS'Thumbs up if 0:36 was your favourite part!'
p791
aS"that's what i'm gonna post on comment "
p792
aS'Hilliarious'
p793
aS'He needs to make more skitzos plzzz'
p794
aS'she said vagina '
p795
aS'boob'
p796
aS'listen closely at @2:00 rdizzle says. so i was walking my lamp and that \nbitch peed on my foot so i kicked his ass.. lol'
p797
aS"That's tight LOL."
p798
aS'My name bob'
p799
aS':B Mah name Boob'
p800
aS'1:50 to 1:53 on what regina and r-dizzle said is VERY VERY CRUDE! Did \nanyone understand?'
p801
aS'hahaa, "rijaina" xdd (IDK how to right that in "proper English" since I \nthink it would be written as "Regina" too)'
p802
aS'hahahahahaha regina '
p803
aS'thumbs up if u miss skitzo<3'
p804
aS'Lol is it me or does ryan sound more Asian?!'
p805
aS'My name BOOB'
p806
aS'I mean stereotypical "Asian"'
p807
aS'love skitzo!'
p808
aS'Ryan can you do more skitzo Ryan: CHALLENGE ACCEPTED'
p809
aS'OMYGODIJUSTFIGUREDOUTWHYITSCALEED "Skitzo" ... Skitzofrenic- multiple \npersonalities Ryan had four personalities SKITZO! And life makes sense \nagain.'
p810
aS"Regina isn't -_-"
p811
aS'i was dying of laughter on that part lol'
p812
aS'dat is what I said BOOB '
p813
aS'I didnt know that, i thought it was called skitzo because they were skits'
p814
aS'my name bop ._.'
p815
aS'First Santa Now THIS!!!!!'
p816
aS'LOL XD'
p817
aS'My name boob'
p818
aS"k i'm ready to stop laughing......NO I CANT STOP HA HA HA "
p819
aS'My name boob'
p820
aS'nonsense'
p821
aS'fuck'
p822
aS'I LOVE HIM I AM A BIG FANN OF HIM =DDDDDDD'
p823
aS'Mai name boob'
p824
aS'i miss watching sean'
p825
aS'My name is Boob Ryan: yu mean bob.? Thats what i said boob Regina: if his \nname can be boob then can i be re gina lmfao.! XD'
p826
aS'dam bro we got the smartest person in the world '
p827
aS'oh gad it is so dome '
p828
aS'i laugh out loud hahahaha'
p829
aS'if he is bub can i be regaina hahah lollololol'
p830
aS'you is genius* If you wanna type like a genius. (;'
p831
aS'Haha, I love when Hanate is about to introduce himself, and he\'s all like \n"EH HEH"'
p832
aS"Hello evrybody , my name is 'boob'. U can call me \n'Hanatewakososioshitakakashisuzukihondacivic' Okaaayyyy"
p833
aS'i watch this again and again seriously RYANNN you need bring back Skitzo :D \nSkitzo is frustrating funny ppl XD (uggh my words) i miss them, esp Regina \nkekeke LESS THAN THREE~ '
p834
aS'hanataywonshesateriyakikunsukihondasivic OKKKK. lol i think i got all of \nhis name. '
p835
aS'My name Boob. Dont u mean bob. No Boob.'
p836
aS'This is so fun to do! 1. click randomly somewhere in the middle of the \nvideo 2. press 5 3. repeat '
p837
aS'Dear Ryan, MAKE MORE SKITZOS!!!!!!!!!!! '
p838
aS'MY NAME BOOB! (ARGUING) BOOB (STILL ARGUING) BOOB! LOL I LOVE RYAN!'
p839
aS"Haha. xD Who else heard 'Honda Civic' in Hanate's name?"
p840
aS'Question? Yes Regina If he can be called can I be called Re-Gina hahha x\xe1\x8e\xa0 \n\xe1\x8f\xa9\xd0\xb5\xd1\x82\xe1\x8e\xa6 m\xd0\xb5 \xd0\xb5very \xd1\x82ime'
p841
aS'Dear Ryan, Can you punch a easter bunny in the face while screaming: \nWHOPAAH? '
p842
aS'Halo everybody. My name is boob R dizzle: Wait his name is boob'
p843
aS'Why is Ryan Higa such a pretty girl'
p844
aS'i have MPD and i can honestly tell you this is exactly what goes on in my \nhead. '
p845
aS'What if i told you Skitzo short for Schizophrenia. '
p846
aS'Dear Ryan, can you put Rustin Hieber in your skitzo!:)'
p847
aS'My name boob'
p848
aS'i didnt know! (sarcastic)'
p849
aS'D: not very nice dude chill man'
p850
aS'Friggin hilarious!!!'
p851
aS'Lol I figured that out in my first time'
p852
aS'"Wait, if his name is boob, can I be called regIna?" LolxD'
p853
aS'more skitzo '
p854
aS'My name Boob.'
p855
aS'Yep I will make soon'
p856
aS'I came back here because he filmed scitzos again!! xD'
p857
aS'I just noticed that this is FOREVER ALONE'
p858
aS'LOL i love when thre all fighting and boob just keeps saying my name boob \novr and ovr again '
p859
aS"Nope I'm watching this on my computer -_-"
p860
aS'Funny !!! Love regina btw'
p861
aS'MY NAME BOOB.'
p862
aS'Yeah Ryan make more stop videos. Please.'
p863
aS"My name boob. =_= interesting name. :'D"
p864
aS'Dear Ryan: i miss Regina so much!! where are she? can you please do more \nskitzo series?'
p865
aS"Can I be Regina? That's tight *Knee Slapper*"
p866
aS'regina vagina.'
p867
aS'Awesome video and its so funny'
p868
aS'DEAR RYAN, MAKE MORE SKITZO!!!!!!'
p869
aS"We're not nicer we hat e you and your not funny and you will never get 1000 \nsubs this is to you almostasian23"
p870
aS"Hanate: My name Boob Regina: Question Ryan: Yes, Regina Regina: If he's \nBoob can i be Ragina XDDD LMAO"
p871
aS"thumbs up if ryan should make more skitZo's!!!! "
p872
aS'Next they should play a card game or monopoly! '
p873
aS'you stole my comment!'
p874
aS'Lol he us hilarious'
p875
aS'Its so cool how he can actually make one person seem like 4. Thumbs up Ryan!'
p876
aS'i like rdizzle... and his many b=middle names'
p877
aS'yes '
p878
aS'if his name is boob and i be vrigina'
p879
aS"MAKE MORE SKITZO'S RYAN PRETTY PLEASE ???"
p880
aS'WTF MAN?!?!?!? THATS SO FUCKING MEAN!!!!!!!!!! he just want 1000 \nsubsriber,thats not much to ask!'
p881
aS'They need to do more xxx'
p882
aS"i know hanate's, rdizzle's dead's and elite's name..."
p883
aS'My Name Boob!!! Haha '
p884
aS'LOOOOL 2:06'
p885
aS'Ryan \xe4\xb8\x80\xe4\xba\xba\xe9\xa3\xbe\xe5\x9b\x9b\xe5\x80\x8b\xe8\xa7\x92\xe8\x89\xb2\xe5\xa5\xbd\xe5\xa5\xbd\xe7\x8e\xa9~~ :)'
p886
aS'hahaha boob and regina'
p887
aS'*is'
p888
aS'@1:36 suzuki,honda civic lol'
p889
aS'regaina'
p890
aS'LOL.......Boob!'
p891
aS"HE'S MORE FUNNIER THAN HEEJUN HAN. =)"
p892
aS"Hehe well that's how we Canadian's pronounce it"
p893
aS'WOOT THIS VIDEO WAS MADE ON MY BIRTHDAY'
p894
aS'Lol!'
p895
aS"You're right. His real name must be Bobo."
p896
aS"When I watch the skitzo, I ALWAYS, and I mean ALWAYS forget it's all Ryan \nduring it. O.o He's just so good at it! :D Oh, and Ryan: Can you please \nmake MORE SKITZO? Because we haven't seen them for a while now! :("
p897
aS'"What is that like is that boogers what is that" lololol'
p898
aS'LOL Boob xD'
p899
aS'Teehee'
p900
aS'"My name is Regina,but u can call me Regina". Lol I died'
p901
aS'Still loving this!!!'
p902
aS'LOOOOL I DIED AT BOOB! XD <3'
p903
aS'Funny'
p904
aS'Hanatay is funny'
p905
aS'lol i live in a city regina '
p906
aS'I miss skitzos please make more Ryan'
p907
aS"I can't believe it's already been almost 4 years since this first uploaded."
p908
aS"No I'm watching it in 1999 eAe"
p909
aS'laughing my fucking ass off :/ (i think at least)'
p910
aS'@TheRealDamienJay take a chill pill. its a joke. making fun of hard things \nin life IS HIS JOB. he is a comedian this is what he gets paid for. now \nother than the fact that the title is offensive to YOU. Wasnt it funny? \nadmit it you had a good time watching it. so stop being lame and go with \nthe flow'
p911
aS'Bob haha'
p912
aS'HAHAHAHHAHAHHAHAHAHAH'
p913
aS'Yes! Winning'
p914
aS'Is it just me, or did anyone ever realize that Skitzo comes from the Greek \nword meaning "split" (like schizophrenia, sort of)?? Split, as in how each \nperson is a different aspect of his personality..'
p915
aS'is it sad that I just realized skitzo is short for skitzofrenia'
p916
aS'lol boob haha no its bob hes like so funny and then is waz like r dizzle \nfor shizzle lol hehehehehehehehehhehehehdhdhdhdhdhdhdhehehe '
p917
aS'how could you not know ...?'
p918
aS'Regina @_@ LOL....'
p919
aS"'Jeolous' of what?"
p920
aS'Lol ryan comes up with the most funniest people EVER'
p921
aS'Regina!!!!!!!!'
p922
aS'i dont think you know what skitzo means. its normally used as a term to \nshorten the mental illness "schizophrenia" which is a disease that causes a \ndistorted perception on reality. People see a hear things that arent really \nthere and a good percentage of these individuals become SUICIDAL. i have \nfriends with schitzophrenia and i find you titling this series "skitzo" \nhighly offensive. They go through so much shit and then have to deal with \nthings like this. not cool bro.'
p923
aS'ur just jeolous'
p924
aS'Wait ur name is boob!?!? Lol'
p925
aS'Since his name is BOOB can I be REGINA lol awesome niga higa'
p926
aS'Boob!! hahahahaha I love Skitzos!'
p927
aS'Lol MORE SKITZO!!!!!!!!! Ryan we need more skitzo. '
p928
aS'that was funny as hell'
p929
aS'did anyone else catch that hondacivic at the end of boobs name??(hanate)'
p930
aS'boob boob boob boob boob boob'
p931
aS'Epic music Hanate: My name Boob *I laugh for 6 minutes straight*'
p932
aS'"Question" "Yes Regina" "If his name\'s Boob can I be Ragina?" "Thats Tight" \n"I know right" Lmfaoooo'
p933
aS"After Regina said if her name could be ragina did anybody catch r-dizzle \nsay that's tight get it?"
p934
aS'honda civic lolllllllllllllllllllllllllll '
p935
aS'If his name is boob, can I be vagina?'
p936
aS'There needs to be 10000000 more skitzos'
p937
aS'Omg 2,545 people dont like te name boob.'
p938
aS'*Epic Music* Hanate: My name Boob!'
p939
aS'nigahiga is married...? 2:54'
p940
aS'"Can I be Ragina?" Roflmfao XD'
p941
aS'HAHAHAHA. Hanate sounds like Mr. Chow.'
p942
aS'2:00-2:01 "my name boob" lmaooo'
p943
aS'if your boob can i be ragina?'
p944
aS'@justice eggleston, ditto. Lol'
p945
aS'I want him to make more Skitzos'
p946
aS'dafuq did i just read?'
p947
aS'my name boob!!!!'
p948
aS'make more skitzos!! '
p949
aS'the skitzos would be upset its been a long time hahahahaha'
p950
aS'My name boob'
p951
aS"More please!!!! why'd you stop?!?!?!"
p952
aS'TEEHEE'
p953
aS'LOL. "Isn\'t that right? My name Boob."'
p954
aS'Bring this back!!!'
p955
aS'i want to change my name to ragina, lolol'
p956
aS"OH DEAR GOD.. I'M CRYING. XD THAT WAS SOOOO ENTERTAINING. i love you ryan!"
p957
aS'Hi guys my name is Regina but you can call me regina'
p958
aS'So interesting love it so much'
p959
aS'What does lmfao mean?'
p960
aS'my name is boob'
p961
aS'My name boob'
p962
aS'2:33.. LOOOOOOOOOOOOOL~~~~~ xDD'
p963
aS'1:23 XD'
p964
aS'Regina 3'
p965
aS'MY NAME BOOB 2:01 '
p966
aS'lmfao'
p967
aS'There is this girl on my dance team.... Her name is regina... When ever the \ncoach says her name i start cracking up ! XD'
p968
aS'regina is my fav of evreybody!'
p969
aS'At the end on Hanates name, he said okkkkkeyyyy!!! Lol NEED MORE \nSKITZO!!!!!!!!!! PLEASE RYAN!?!?!?'
p970
aS'thumbs up if your still watching this in 2012 '
p971
aS'My name boob'
p972
aS"Why isn't Dead Because I Killed It in this video?"
p973
aS'Anyone notice that like every 5 seconds of there argument, Hanate says BOOB?'
p974
aS"Anyone else realize that he's pretty much just talking to himself and a \nwall.."
p975
aS'If his name is boob can i be Ragina??'
p976
aS'O yo yo yo. Cough. Herro Erybody, my name Boob. But you can call me \nhanate-wakuso-shiseo-tadashite-teriyaki-suzuki-honda civic, OKAYYYY! Wait \nyour name is boob? No he means Bob. Yeah I just said it, BOOB!'
p977
aS'I know you probably heard this like million times but I think you are truly \ntalented to make people laugh! So gifted. Thank you for making me laugh. My \nstress is just gone now!'
p978
aS'your dumb & funny '
p979
aS'Boob'
p980
aS'Please ryan can you make more sitzo videos because they are really funny'
p981
aS'Boob'
p982
aS'teehee! :)'
p983
aS'my name is boob'
p984
aS'If his name is Boob, can I be Raygina??'
p985
aS"Regina: if his name is boob, then can my name be re-gi-na ? LOOOL xD =)) \nomgosh. i can't breathe with all the laughter.!"
p986
aS'Hanate is my fav!!! ;-)'
p987
aS"Regina: I can change my name if I feel like it. *turns to R-dizzle* Isn't \nthat right? R-dizzle: Thats right! Regina: *Turns to Hanate* Isn:t that \nright? Hanate: MY NAME BOOB"
p988
aS"The ending can't breathe my name boob"
p989
aS'Saw12is the best'
p990
aS'lol :) my name boob! lmao!!! u rock ryan!'
p991
aS'Re-Gina. Boob r-dickle and ryan'
p992
aS'my name BOOB -____-'
p993
aS'lol, i was eating mie while watching this.. then i started choking from the \nlaughter... o_o'
p994
aS'Hi'
p995
aS'Omg I miss the fetus.'
p996
aS'LOL'
p997
aS'Anyone know any free software that can make this sort of an intro'
p998
aS'2:07 hahahahah derp face'
p999
aS'HAHA LOL SO FUNNY '
p1000
aS'"My name Boob" XD'
p1001
aS'Yea make more'
p1002
aS'I said, my name is hanate wakuso shiseo tadashite teriyaki suzuki honda \ncivic'
p1003
aS'Hanate: boob Ryan: bob Hanate: boob Ryan: bob Regina: Question Ryan: Yes \nRegina Regina: If his name is boob can I be called RegIna '
p1004
aS'MOAR SKITZO!!!!'
p1005
aS'Hahaha my name is boob'
p1006
aS'poor little pikachu :( anyway its a doll :P'
p1007
aS'Dear Ryan, can you play a prank on someone?'
p1008
aS'"Hello. My name is Bob. But you can call me \nhanatewakusoshiseotadashiteteriyakisuzukihondacivic, okahhhhh?????? \nhahahhahahahaha LAWL!!!!!!!!!!xD'
p1009
aS'Hahahahahahahahahahahahahahahahahahahaha!!!!!!! Re-gina!!'
p1010
aS'Boob'
p1011
aS'i was laughing through the whole video love you ryan!'
p1012
aS'What do you guys think? (dramatic music) Hanate:my name boob :D I love \nSkitzo'
p1013
aS'omg i got that before pressing the play button... -_- late'
p1014
aS'Drizzle *hand motions* lol'
p1015
aS'My name Boob. LoL.'
p1016
aS"i think they should have like a chinese new year and hanate should make \nthem respect it, because didn't you say he was chinese?"
p1017
aS'is he married look at his ring finger'
p1018
aS'Who wants to hear a secret? If you do, reply asking what the secret is.'
p1019
aS'hanate wakakuki....teriyaki honda civic..okayyy?'
p1020
aS'Regina: Question! If his name is boob can i be re-gina XDXDXD lol'
p1021
aS"I gave in. What's the secret?"
p1022
aS'Hanate: ( clearing up voice in a weird manner) Me: trying to hold in laugh \nHanate: my name is boob but you can call me hanate*something i forgot* Me: \ntrying to hold in laugh still Regina rdizzle ryan: *stuff* Hanate: my name \nboob Regina rdizzle ryan: *stuff* Hanate: boob Regina rdizzle ryan: *stuff* \nHanate: boob I am currently laughing my heart and lungs out'
p1023
aS'I love regina the most'
p1024
aS'skitzo is so hilarious'
p1025
aS'Hello Boop :3 my name is poop :3'
p1026
aS'42 TIMES AND I STILL LAUGH!!!!! XDXDXDXD'
p1027
aS'-dramatic music- -pause- my name boob LOL luv hanate'
p1028
aS'lol regina like sunshines'
p1029
aS'Make more!! TEAM HANATE'
p1030
aS'Seriously I forget that Ryan, R-dizzle, Hanate and Regina are play by same \nperson. WHAT AN AWESOME JOB YOU DID!'
p1031
aS'My name boob.'
p1032
aS'Boob'
p1033
aS'@RocksterABC123 what is the secret'
p1034
aS'oh yeah'
p1035
aS'HE KICKED PIKACHU!!!!!! MY TURN!!!!!!!!! XD'
p1036
aS'MY NAME BOOB oh wow that sounds so wrong with my username'
p1037
aS'Hey guys my name is Regina but you can call me Vergina. lmao'
p1038
aS'LOL'
p1039
aS'You have to enjoy Hanate'
p1040
aS'MY NAME BOOB!'
p1041
aS'my name is poop :3'
p1042
aS'my name boob ughhh XDXDXD'
p1043
aS'hanate is my favorite person'
p1044
aS'but is that the real word??'
p1045
aS'You really should make more of these! '
p1046
aS'This nigga said my name boob'
p1047
aS"my name's boob LOL epic video !! "
p1048
aS'Regina is the best!! .. Wait!! .. I cannot decide who is the best. But when \nRegina\'s talking I forget its Ryan himself who\'s acting like a girl and not \nsome actual girl.. he\'s so into the character .. "I like rainbows.. \nsunshines annnd puppiesss ... But!! I don\'t like my puppy\'s nose is all \nwet!" .. Hahahahhahahahaha '
p1049
aS'Ryan: so what do you guys think? R-Dizzle: *being serious in his own weird \nway* Regina: *twirling hair* Hanatet: *raises hand* my name boob! I died on \nthat part!!!! HAHAHA!!!'
p1050
aS'OMG NOSTALGIA'
p1051
aS"i literally couldn't stop laughing especially when it was Hante's turn"
p1052
aS'Dear ryan. can u be a teaser?'
p1053
aS'Make more Skitzo videos!!!!!'
p1054
aS'What is that wet stuff on the dogs nose? ;D'
p1055
aS'*random yelling* -boob- *random yelling* -boob- *random yelling* -boob- \n*random yelling* Any questions? ... Yes? MY NAME BOOB'
p1056
aS'cool story bro.'
p1057
aS'im from australia too. i live near them actually in melbourne'
p1058
aS"Soo many memories from this video. :') miss you kalea!"
p1059
aS'Thats tight'
p1060
aS'Hanate: (Pulls up one finger..) Mai name is boob Ryan: (Facepalm)'
p1061
aS'Okaaaaaaaaaaaaaayyyyyyyyy \xf0\x9f\x98\x82\xf0\x9f\x98\x82\xf0\x9f\x98\x82\xf0\x9f\x98\x82\xf0\x9f\x98\x82'
p1062
aS'Loool I love R Dizzle XD '
p1063
aS'Regina: If his name is boob can I be Regyna? Me: I see what you did \nthere...LOL'
p1064
aS' hahahah so funny '
p1065
aS'Dear all those people who quote the video so they can get top comment, I \ncan hear and watch the video so just stfu'
p1066
aS'lol '
p1067
aS'my long name is hanatewakusoshiseotadashiteteriyakisuzukihondacivic but u \ncan call me....... u can call me... Bob o.0 may i point out idk why the \nwords tada, shit, honda, suzuki and civic r in his name o.0'
p1068
aS'OMG!!!!! SOOO FUNNY!!!!!!! Question if his name is boob can my name be \nreginna or how ever you want to spell that idk but you know what i \nmean\xe2\x9c\x8cpeace!!!'
p1069
aS'ryan: arent you listening no (i wasnt listening ether '
p1070
aS"Regina: I can change my name if I want, right? Hanate: My name boob. \nAnother fave part: Ryan: So let's think about it alright? (pause) Hanate: \nMy name boob."
p1071
aS'I love this one'
p1072
aS'now thats tight!!! '
p1073
aS'your name should be Aniger'
p1074
aS'Question! yes regina. If his name is boob can i be ragina? thats tight! i \nknow right?! the best part <3'
p1075
aS'you are very right '
p1076
aS'I boob'
p1077
aS'LAUGHING ALL THE TIME'
p1078
aS'My name Boob.'
p1079
aS'so my name boob LOLZ i watched this 7 times in a row!!!'
p1080
aS"you don't say."
p1081
aS"If his name is Boob can I be Regina?? I CAN'T STOP LAUGHING I have a cold \nsore on the side of my mouth, and i started laughing so hard, my lip kind \nof tore and now it's bleeding!!! BUT IT'S SO DAMN FUNNY THERE!!!"
p1082
aS'@Sean Ombrog what?'
p1083
aS'isnt that right? thats right isnt that right? my name boob LMFAO '
p1084
aS'u make a pretty hot chick dude'
p1085
aS'shut up v'
p1086
aS'BOOP'
p1087
aS'@xXMusicForeverXx1 Woah i love cloudy skies, darkness, and werewolves too. \nHmmm...'
p1088
aS'thats tight!!'
p1089
aS'where is Dead, because I killed it and Elite Dark Lord_Dragon Slayer'
p1090
aS'*Raises Hand* My Name Boob'
p1091
aS'PLEASE MAKE MORE AWESOME SKITZO :) luv ya Ryan -3'
p1092
aS'my name is regena but u can all call me regena'
p1093
aS'Hello everybody -What? xD'
p1094
aS'TEAM HANATE'
p1095
aS'my name boob'
p1096
aS'boob...'
p1097
aS'Lol more skitzos we love them'
p1098
aS'You racist dog you racist'
p1099
aS'Dear Ryan Higa, i am a big fan of yours so.............PLEASE MAKE MORE \nSKITZOS!'
p1100
aS'susuki honda civic?'
p1101
aS'Regina!'
p1102
aS'"hey guyssss, my name is regina, but u can call me regina. i like \nrainbowsss and sunshinessss and puppies... but i dont like it when puppies \nnoses are wet! like what is that? because when its wet, what is that? is \nthat boogers, or water? what is that?" they never answered her question...'
p1103
aS'My name boob.'
p1104
aS"I loved these videos the MOST! except the how to's"
p1105
aS'I see Multiple Personality Disorder. Ryan makes it cool. Wish I had it...'
p1106
aS'Hanate wakuso shiseo tadashite teriyaki suzuki honda civic'
p1107
aS'I LOVE SKITZO'
p1108
aS'i like that part its so funny :)'
p1109
aS'RYANNN make more Skitzo videos. PLEASEEEEE <3'
p1110
aS'My name boob'
p1111
aS'MORE SKITZO'
p1112
aS'MY NAME BOOB IF HIS NAME IS BOOB AN I BE REGINA THATS TIGHT NO WHY NOT YEA \nI DONT GET IT ITS HER NAME WHY CANT SHE JUST CHANGE IT YEA MY NAME BOOB \nBOOB NOOO! LOL MY NAME BOOB '
p1113
aS'make more skitzo plz C:'
p1114
aS'so where do you get your little youtube shirts? :D'
p1115
aS'my name boob XD '
p1116
aS'"YOU RACIST DAWG?" "NAWW JUST PLAYING, GO AHEAD"'
p1117
aS'he made skitzo returning or something'
p1118
aS"Regina: you can't get under this R-drizzle: under what? Regina: under my \numbrella R-drizzle: that's a lamp Regina: so now your some kind of umbrella \nexpert? >:O "
p1119
aS'Than- DRIZZLE'
p1120
aS'i love ryan higa '
p1121
aS'R-pizzle '
p1122
aS'If his name is boob can I be regiina?'
p1123
aS'My name boob'
p1124
aS'hkhskfhughjrhMYNAMEBOOBmdfashjdgajskhgj,ghjrhBOOBjhfuegflaudghfjadghgfjhafjBOOB \nOK THAT"S ENOUGH!!! <3'
p1125
aS'my name boob lolllll r-dizzle rizzle drizzle lol regin regin lol'
p1126
aS'? Than can I be regina'
p1127
aS"Hi, guys! If you search nigahiga and why rhianna and chris brown broke up \nyou'll see reginas thought! Lol"
p1128
aS'Hamate states his full name and adds a little swagga at the end. Likka boss!'
p1129
aS'Love the way Hanate says his full name what people call him, then he addes, \nooookkkkkayyyyy'
p1130
aS'RE-GINA'
p1131
aS'LMFAOOOOOOOOOO !'
p1132
aS'" My name is Regina but and you can call me Regina. I like rainbows, and \nsunshine, and puppies" Wow, I\'m Regina and I like cloudy skys, darkness, \nand werewolves. We\'re total opposites. Like if you agree'
p1133
aS'anyone else think that Ryan should do another skitzo video...'
p1134
aS'I LOVE HANATE '
p1135
aS'MY NAME BOOB !'
p1136
aS'if his name is boob can i be ragina? '
p1137
aS'Y has he stopped making Skitzo videos'
p1138
aS'pause at 3:02 and get ready to laughe youre ass off'
p1139
aS'hahaha re GINA haha'
p1140
aS'OMG can we ask Ryan to make more Skitzo movies? '
p1141
aS'Hanate!!!'
p1142
aS'Thumbs up on my comment of you love skitzo am want Ryan to make more!!!!!! \nAnd share your fav character'
p1143
aS'Hanate is HILARIOUS!!! lol "What do you guys think?" DRAMATIC MOMENT Hanate \nleans forward and says: "my name boob!"'
p1144
aS'HAHAHHA LOL love him '
p1145
aS'ryan plz make videos ;)'
p1146
aS'Oh how I love Skitzo'
p1147
aS"Nigahiga should never stop making videos and if you ever do stop I'll \nremember the dude who was a good/funny and awesome person."
p1148
aS"My name is Regina but you can call me Regina (Ryan's face) jajajaja I love \nit!!"
p1149
aS'what if r-dizzle and regina had changed their names to ragina and r-dickle.'
p1150
aS'LMFAO BOOB'
p1151
aS'2:06 '
p1152
aS'Make more skitzoo'
p1153
aS'deer ryan can you make another Skitzo vid about your each childhood?'
p1154
aS'hi, i am emilie'
p1155
aS'Hope you can do Skitzo again'
p1156
aS'Why have half his videos been deleted??'
p1157
aS'Nigahiga can you be steel or metal'
p1158
aS'this video makes my day:)'
p1159
aS'GOOD JOB! I love my name Boob!'
p1160
aS'Dear Ryan, please make more Skitzo videos <3'
p1161
aS'Skitzo is Schizophrenia. lol.'
p1162
aS'pause on 2:06'
p1163
aS' BOOB! LOL'
p1164
aS'make more videos!!!'
p1165
aS'2:05, Lol, his face'
p1166
aS'My name boob!!lmfao!!'
p1167
aS'Hanate: Herro Everybody R-Dizzle: WHAT ? LOL !!'
p1168
aS'My name Boob. LMFAO that was the best part'
p1169
aS'@gaga44964 its not or shisel its fi shizzle'
p1170
aS'Dear Ryan ! Make more Regina videos pls :)'
p1171
aS"Regina is from 'why Chris brown beat Rihanna'"
p1172
aS'i love skitzo!!'
p1173
aS'lol watchign this for the 30 time this year .. soo funny :D'
p1174
aS'lol is he acting all is he Reging, far shizzel, an Regina?'
p1175
aS'Hu'
p1176
aS'I LOOOOOOOVE SKITZO !!!!!!!!!!! '
p1177
aS'I thought Sean was boob/bob'
p1178
aS'R-dizzle..fo shizzle ma nizzle..of the hizzle.....drizzle'
p1179
aS'\xe2\x80\xa2Make a wish in your hand \xe2\x80\xa2 Make a fist. \xe2\x80\xa2 Hold your fist by your heart for \nfive seconds And tomorrow will be the best day big your life :)'
p1180
aS'Hu'
p1181
aS'allo everybody my name is boob but you can call me hanate wakuso sheseyo \ntadashte teriaki susukki honda civic okaaaaaaaay'
p1182
aS'WE WANT MORE SKITZO VID RYAN, REGINAAAAA <3'
p1183
aS'MAKE MOREEE SKITZOOOS!!!!!!! XDDD'
p1184
aS"ryan shouldn't have replaced skitzo with off the pills"
p1185
aS'so halarious'
p1186
aS'I LOVE REGINAAA !!!'
p1187
aS'R-Drizzle:YOU RACIST DOG! YOU RACIST! Ryan:No I was just trying- \nR-Drizzle:Nah im just playing you can go ahead XD'
p1188
aS'...........my name is boob'
p1189
aS'LMFAO R-AGINA!!!! I laffed so hard.'
p1190
aS'Hello everybody, My name is boob'
p1191
aS'YO waz up guys my name is R-Dizzle off the hizzle shizzle my nizzle .... \ndrizzle lol!'
p1192
aS'I made a parody of this!! -3 should I post it'
p1193
aS'Sometimes I forget that all these 4 are just one person, Good work Ryan :)'
p1194
aS'1:27 - 2:07 funniest part'
p1195
aS'is that right? MY NAME BOOB!'
p1196
aS'Regina: "if his name is boob, can I be ReJainA?" lol XD stupid regina'
p1197
aS'Make more Skitzo!!! ^_^'
p1198
aS'Teehee'
p1199
aS"T_T he's asian, on top of that japanese. (personal fav ppl in the world :P)"
p1200
aS'Ryan:ooooooookkkkkkkkkk lets move on to you. Hanate:oh yeo yo. "aeeeheh" \nhello everybody my name boob. Love hanate\'s throat clearing :)'
p1201
aS'Hanate...the true Asian.'
p1202
aS'My favorite is Boob :D'
p1203
aS'so funny'
p1204
aS'BLOW UP THE COMMENTS SO IT WILL BE FIRST IN HIS INBOX TO MAKE A SKITZO! >.<'
p1205
aS'I can change my name if i feel like it'
p1206
aS'R dizzle is a S dezzy copy'
p1207
aS'THIS was what I loved about Ryan Higa ... bring this sort of insane, quick \nwit, humour back! LOVE it.'
p1208
aS'ahhoooooo. hedrdrdrdroooo evrdrdrybody. My name boob. :D'
p1209
aS'@sean6897 first of all learn how to spell second of all he coughed'
p1210
aS'@woodenswordnetwork ikr!!!!! BEST PARTTT.'
p1211
aS'1:26 ~ 1:48 lolz'
p1212
aS'MY NAME BOOB'
p1213
aS'The ninja dude is called hanate wakusho shiseo tadashite teriyaki suzuki \nhonda civic :D'
p1214
aS'hello my name is boob But you can call me hamate wakuso shiseo tadashite \nteriyaki wakuso Honda civic okkkaayyyyyy LMAO!!!'
p1215
aS'i LOVE HANATE and his lips expression'
p1216
aS'omfg theres a city named regina i learned it in scool its so funny wenever \nwe talk about i always yell no its regina like the way she says it in the \nvideo wen she .. yah ok im done'
p1217
aS'This is still my favorite episode!!'
p1218
aS'wassup guys my names R-dizzle" alright- " fo-shizzle my nizzle." - okay " \noff the hizzle." - thank- " drizzle" *ryan puuts hand up* " but ya\'ll can \ncall me R-dizzle" are you done??!! What you tryin ta rush me dogg?! You \nthink its some kinda racse?!! " no i was just try- " you racist dogg!!?- no \ni was- " no im jussst playin, go ahead... OMMMG favorite part'
p1219
aS'1:59 MAI NAME BOOB. xDD'
p1220
aS'If his name is Boob, can I be Ragina? LMAOOOOO'
p1221
aS'R-Dizzle- Or shisel my nizzle- off the hizzle- drizzle. Where do you come \nup with this stuff? It\'s so funny. "If his name boob, then can I be \nRegina?" I love that part too.'
p1222
aS'But u can call me hanate wakuso shiseo tadashite teriyaki suzuki honda \ncivic okaaaaaaaaaaaaaan'
p1223
aS'I mean skitzo'
p1224
aS'This is the most hilarious thing ever!! My favorite part is when they\'re \narguing and "Boob" keeps appering out of nowhere. "My name boob. Boob." \nLOL!!! i will subscribe, ok? BEST SERIES EVER!!!!'
p1225
aS'My Fav One Yet! =D *MY NAME "BOOB!" [ROTF]'
p1226
aS'Bob'
p1227
aS'Ragina:Question? Ryan:Yes Ragina Ragina:If his name is boob can i be \nRaGina? lmfao'
p1228
aS'Honatewakusussisailtorussiaker\xc2\xadiakisuzukihondacivic that name is cool and \nreally funny <3 :D'
p1229
aS'If his name is boob, can I be Regina? Best part.'
p1230
aS'When Hanate say ok i lawl lololololololololololololol'
p1231
aS'"my name is regina, but you can call me regina"'
p1232
aS"'If His Name Is Boob, Can I Be Regina?' 'THAT'S TIGHT!' "
p1233
aS'rayn go on youtube tipe in peaches2peaches PLEASE you will see a little \ngirl thats me '
p1234
aS'Check out the channel HannaandKateLynnshow please'
p1235
aS'(.)(.)'
p1236
aS"I can't believe this was almost 3 years ago. "
p1237
aS'regina makes me wanna go out and buy a wig '
p1238
aS'lol i cant even.. lololol'
p1239
aS'MORE SKITZO!!!!!'
p1240
aS"Skitzo is too funny lmao at Hanate and Regina's retardedness. "
p1241
aS'Hi guys, my name is Regina, but...you can call me regina. And i like \nrainbows and sunshine, and puppieszzz....BUT i dont like when puppies noses \nare wet, because like what is that: is that bugers, is that water??!! like, \nwhat is that>!?'
p1242
aS"Ryan! I don't know if you're a theatre fag, or if you're even a homo at \nall, but I think I might be in love with your adorable asian face! P.s. are \nyou into left handed lesbian albino alligator midget dwarf fist fucking \nwatersports? P.p.s. do you get high NIGAAAAAAA???? Cuz I wanna party wit \nyooo! Love, Graydon"
p1243
aS'this made me laugh so hard and btw Hi Ryan,Hi Regina,Hi R-Dizzle- For \nShizzle My Nizzle-Off The Hizzle-Dizzle,And Hi Boob ( bob ) LOVE THE SHOW!'
p1244
aS'hello anybody? what? my name is a boob!'
p1245
aS'I came here from the dear Ryan video'
p1246
aS"I think I just fell in love with Regina. I'm a girl though, nothing bad."
p1247
aS'I love \xe2\x99\xa5Skitzo\xe2\x99\xa5 videos '
p1248
aS'everytime regina talks...i laugh OMG i like puppiesssssss...but i dont like \nwhen puppies noses are wet because what is that is that boogers or water? \nwhat is that?.......if he is going to be boob can i be regine-a OMG LOL IM \nCRYING'
p1249
aS'@chelsisxr he cant just add a new character -_- r u a new subscriber?'
p1250
aS'Sounds like they should become the janoskians'
p1251
aS'Hi boob my name is reg-eye-na :)'
p1252
aS'MY NAME BOOB! MY NAME REGINA! me: lolwut BAHAHAHAHHAHAHAHAHHAHHA'
p1253
aS'my stomach is paining of laughing '
p1254
aS'My name boob, but u can call me hanate teriyaki suzuki honda civic, okaayy \n??'
p1255
aS'"My name is Regina, but you can call me Regina." \xef\xbc\x88\xe2\x95\xaf\xc2\xb0\xe2\x96\xa1\xc2\xb0\xef\xbc\x89\xe2\x95\xaf\xef\xb8\xb5 \xe2\x94\xbb\xe2\x94\x81\xe2\x94\xbb'
p1256
aS"Regina: isn't that right? Hanate: my name boob."
p1257
aS'!!'
p1258
aS'1:32 R-Dizzles reaction to boob when he mmouthes it. Love it'
p1259
aS'My name boob, if his name is boob can I be reGINA'
p1260
aS'oh oh yo yo! iiiihiii! Haro everybody. my name is boob. but you can call me \nhanatewakusashiteriyakinopacifickokaaaaaaaaaaaa..... Good thing I had that \nthing stucked in my head... I got laughing like crazy... >L<'
p1261
aS'haro everybady my name is boob but u could call me \nhanatewacushawashiseotesariakibic okkaaaaayyyyy '
p1262
aS'But you can call me Hanate Kfejekngkerjitgnglangrngri Terryaki \nJwenjdngerkng.'
p1263
aS'i love regina! haha so funny~'
p1264
aS'Drizzle *with fingers* LOL!!!!!!!!!!!'
p1265
aS"This is hilarious! The only thing I love more than this is Ellen's Dance \nDare Sarah Jill Jordan and Molly Style. Look it up! I loveeee it! Go check \nit out!"
p1266
aS'boob'
p1267
aS'pause at 0:51 creepy face'
p1268
aS'are u racist dawg ? u racist ? no I. , nah im just messin with ya , ( \nLMFFFFFFFAAAAAO !)'
p1269
aS'wat is that wen dogs noses get wet?'
p1270
aS'susiki honda civic lololool'
p1271
aS'If his name is boob, then can I be Regina? That my favorite part. I cracked \nup so bad!!!!'
p1272
aS'Good thing no one has said anything like"thumbs up if your still watching \nthis in 2012"........ (-_-)'
p1273
aS'If his name is bood, then can i be... XD '
p1274
aS'mah name boob! -_-'
p1275
aS'Make more!!! \xf0\x9f\x98\x84'
p1276
aS'okaaaaaaaaaaaaaaaaaaaaaaaayyyyyyyyyyyyyy?????????????'
p1277
aS'my name boob '
p1278
aS'Omg this is so hilarious! My favorite!'
p1279
aS'@nixteryou you just noticed or r u tryin to do sarcasm..........'
p1280
aS'"If his name is boob, can I be Regina?" "That\'s TIGHT!" xD'
p1281
aS'If His Name is Boob can I Be :D'
p1282
aS'@nigahiga pLeAsE mAkE MORE SKITZO!!!!!!!!'
p1283
aS'We can be watching this in 3012!'
p1284
aS'hey i got it! ryan,hanate,regina,and r dizzle are just one person! the look \nalike'
p1285
aS'If you study these characters closely, you can clearly see that they are \nplayed by the same person.'
p1286
aS'i luv it how hes everyone in the room'
p1287
aS'cracked up at "my name boob" rofl :\'D'
p1288
aS'Sad thing is my name is Regina -_- Ragina '
p1289
aS'1:34 Honatewakusussisailtorussiakeriakisuzukihondacivic okaaaaaaayy? \nROOFLMAOOO'
p1290
aS'pause at 3:02 ....hahaha'
p1291
aS"Omg Regina made me crack up!!!!! If he's boob can i be Regina? lol hahahaha \nluv u ryan! xoxo"
p1292
aS'Lol-my name boob!'
p1293
aS"I feel really horrible for laughing at the face Boob is making every time \nwe look at him. It's too perfect. "
p1294
aS'my name boob. when he just randomly said tht i cracked up '
p1295
aS'IS that boogers is tht water? i mean WHAT IS THT '
p1296
aS'my name boob XD'
p1297
aS"It's actually Hanate Wakusoteriyakisuzukihondacivic."
p1298
aS'thumbs up of watched in 2013 ^^'
p1299
aS'my name boob awsome start of dude lol [;'
p1300
aS'did anyone else understand that innuendo with the regyina instead of Regina \nthen him say that is tight did anyone put that together or am I just crazy? '
p1301
aS'I love skitzos'
p1302
aS'MOI'
p1303
aS'Regina is a real girl or what'
p1304
aS'OMG i laughed hard when Regina started I LOVE HER!!!'
p1305
aS'what do u guys think? dun dun dun dun dun dun dun dun... (raises a finger) \nmy names boob'
p1306
aS'lmfao'
p1307
aS'"my name is boob" "but u can call me \nrgsdthsfhthrsafer\'TERIYAKISUZUKIHONDACIVIC\' okaaay" .................'
p1308
aS"LMFAO!!!!!!!!!! I couldn't stop laughing because of rigina!!! BEST \nCHARACTER EVER!!!!!!"
p1309
aS'Please make more of these!!'
p1310
aS'Teehee'
p1311
aS'Ryan pleeeaaasseee make more skitzos I luv hanate #teamhanate'
p1312
aS'My name boob is the best part'
p1313
aS"i love this video i've seen it like 38 times but who's counting?? XD lolz"
p1314
aS'boob boob booob '
p1315
aS'if you take drugs you will DIE!!!!!!'
p1316
aS'Make more skitzo videos plz!!!'
p1317
aS'not bob boob '
p1318
aS'If his name is boob can I be regyna ? LMAO'
p1319
aS"my name is regina, but you can call me regina and i like rainbows and \nsunshine and puppies, BUT i don't like when puppies noses are wet! because \nwhen it's wet, whatis that boogers or is that water, what is that?! lol i \nlove regina!"
p1320
aS'haha...ryan can act being a girl naturally '
p1321
aS'LOL Your name is boob? o.oNo his name is bob Yes thats what they say boob \nbob boob! bob boob? LOLOLOL Cracked me up XD Rofl If his name is boob can \nmy name be regina XD LOL this is too funny im dying of laughter DX X_X '
p1322
aS'Lol'
p1323
aS'My name bub. LOL'
p1324
aS'ryan why do u have to be friends with them?'
p1325
aS'I love his ok at 1:37'
p1326
aS'My name boob >:)'
p1327
aS'My name boob lol'
p1328
aS'I have the same kind of pikachu!'
p1329
aS'lol........i love you videos dude if you can you totally need to make more \nskitzo vids cuz my neice love the skitzo vids ......lol my name is regina \nbut you can call me regina and i like rainbows and sunshine and puppies'
p1330
aS'if his name is boob, can i be rigina?'
p1331
aS'heh... 2:06 Boob is the coolest! xD'
p1332
aS'did r-dizzle say i was walkin past this lamp at 2:03 ? '
p1333
aS'MY NAME boob! you mean bob yes i mean boob'
p1334
aS'LOL IM ON THE FLOOR CRYING! SO FUNNY!!'
p1335
aS'I watch this everyday and still laugh Never gets old'
p1336
aS'oh you and your lamp obsession xD I love it!!'
p1337
aS'were you listening? no'
p1338
aS'He should really continue making these'
p1339
aS'Ryan make more skitzo please we all love itt!!!!!!!!:D'
p1340
aS'ryan sure loves lamps :P'
p1341
aS'my name boob. lol'
p1342
aS'That was so funny!!!'
p1343
aS'fuuuuuuuuuuuuuuuuuuuuuunnnnnnnnnnnnnnnnnnnnnnnnnnnnnnyyyyyyyyyyyyyyyyyyyyyyyyyyyyyyyyyyyyyyyyyyyyyyyyy'
p1344
aS'my name boob but u can call me \nhanatalghoerinhvgiouasdhgiohqeroynloairhsdjfojOKKKKKKKKKK???????????? '
p1345
aS"he's from hawaii but he's japanese."
p1346
aS'thump up for BOB :D '
p1347
aS'My name Boob you mean Bob if his name is boob then can i be vaginia. lol'
p1348
aS'OMG! i just died of laughter!! XD'
p1349
aS"OMG I'm legit dying Ryan :')"
p1350
aS'MAKE MORE SKIZO PLZZ '
p1351
aS'I LOVE SKITZO!!!! '
p1352
aS"See, this is when Ryan's MPD gets out of control. LOL just kidding Ryan, \nyou know we love you."
p1353
aS'I laughed my f ing face off'
p1354
aS'I freaking love skitzo'
p1355
aS'My name boob'
p1356
aS'and I .. Love it !!!'
p1357
aS'team hanate<3'
p1358
aS'@MissLacy15 You have too much time on your hands.'
p1359
aS'@ugglover0024 Hanate Wakuso Shiseo Tadashite Teriyaki Suzuki Honda Civic'
p1360
aS'So many stereotypes xD'
p1361
aS'hilarious! :D'
p1362
aS'Hanatewokusushisayoteshiterriyakisuzukihondacivic okaaaaaaaaaaaaaaayyyy'
p1363
aS'I came across this by mistake .. 2.01 "My name Boob" the funniest thing ever'
p1364
aS'this was made on my birthday :{)'
p1365
aS'And a little bit... Stupid. LOL!!!'
p1366
aS'i like hanate'
p1367
aS"if his name is boob can i be regyna? dat's tight!"
p1368
aS'My name boob XD'
p1369
aS'my name boob'
p1370
aS'please make more skitzo i love it so much xDD'
p1371
aS'rdizzle shizzle ma nizzle off the hizzle drizzle.'
p1372
aS'hanate(boob) is my favorite skitzo!!!!!!!!!!'
p1373
aS'his name is boob??'
p1374
aS'u racist dog u racist!'
p1375
aS'lots of videos have top comments with pictures! heres a picture of Hanate \n(-.-)'
p1376
aS'2:05 lol'
p1377
aS'My name Boob!'
p1378
aS'i completely lost it at the "my name boob" at the end. it is now my twitter \nname. <3'
p1379
aS'everyone is so funny'
p1380
aS'Hanate is Hilarious.'
p1381
aS'2:02 The other day I was walking my lamp that bitch pissed on my foot and I \nkicked its ass'
p1382
aS'I love the Skitzo videos! I have watched all of them so many times! I was \ninspired to make one of my own (but I promise it is different!) '
p1383
aS'does anyone but me get it when r-dizzle said "das tight" when regina said \nregine a'
p1384
aS'HAHAHAHA! Hanate is so funny!'
p1385
aS'sily asian xD'
p1386
aS'question... if his names boob can i be ragina '
p1387
aS'Regina should come with some guy'
p1388
aS'My name Boob...What?!... He means Bob... Thats what i said Boob... No \nBob... Boob.. Bob... Boob... Question.... Yes Regina.... If his name is \nBoob then can I be Regina.... LMFAO'
p1389
aS'Regina: If his name can be boob I can change my name if I want to.... \nright? Rdizzle: Right! Regina: Right? Hanate: My name Boob'
p1390
aS"1:25 that maybe the cutest made-up clear-the-throat sound I've ever seen!"
p1391
aS'Dude, Ryan, your making me choke here laughing! =D'
p1392
aS'\xe2\x94\x8f\xe2\x94\x81\xe2\x94\x81\xe2\x94\x81\xe2\x94\xb3\xe2\x94\x93\xe2\x95\x8b\xe2\x95\x8b\xe2\x94\x8f\xe2\x94\x93 \xe2\x94\x83\xe2\x94\x8f\xe2\x94\x81\xe2\x94\x93\xe2\x94\x83\xe2\x94\x83\xe2\x95\x8b\xe2\x94\x8f\xe2\x94\x9b\xe2\x94\x97\xe2\x94\x93 \xe2\x94\x83\xe2\x94\x97\xe2\x94\x81\xe2\x94\x81\xe2\x94\xab\xe2\x94\x83\xe2\x94\x8f\xe2\x95\x8b\xe2\x94\x93\xe2\x94\x8f\xe2\x95\x8b\xe2\x94\x81\xe2\x94\x81\xe2\x94\x81\xe2\x94\xb3\xe2\x94\x81\xe2\x94\x81\xe2\x94\x93 \xe2\x94\x97\xe2\x94\x81\xe2\x94\x81\xe2\x94\x93\xe2\x94\x83\xe2\x94\x97\xe2\x94\x9b\xe2\x95\x8b\xe2\x94\xab\xe2\x94\x83\xe2\x94\xa3\xe2\x94\x81\xe2\x94\x81\xe2\x94\x83\xe2\x94\x83\xe2\x94\x8f\xe2\x94\x93\xe2\x94\x83 \n\xe2\x94\x83\xe2\x94\x97\xe2\x94\x81\xe2\x94\x9b\xe2\x94\x83\xe2\x94\x8f\xe2\x94\x93\xe2\x94\xab\xe2\x94\x83\xe2\x94\x97\xe2\x94\xab\xe2\x94\x83\xe2\x94\x81\xe2\x94\x81\xe2\x94\xab\xe2\x94\x97\xe2\x94\x9b\xe2\x94\x83 \xe2\x94\x97\xe2\x94\x81\xe2\x94\x81\xe2\x94\x81\xe2\x94\xbb\xe2\x94\x9b\xe2\x94\x97\xe2\x94\xbb\xe2\x94\xbb\xe2\x94\x81\xe2\x94\xbb\xe2\x94\x81\xe2\x94\x81\xe2\x94\x81\xe2\x94\xbb\xe2\x94\x81\xe2\x94\x81\xe2\x94\x9b'
p1393
aS'My Name BOOB LOL XD'
p1394
aS'My favourite is Boob AKA Hanate. Haha'
p1395
aS"I remember when I saw this for the first time and I laughed so much at \nHanate that I couldn't breathe and now I realize that it's still just as \nfunny as it was then xD lol I love you Ryan^^"
p1396
aS'My name boob....I wrote that on my bookbag in school and everyone asks me \nwhat that isXD'
p1397
aS'More skitzo....'
p1398
aS'i thought regina said vagina'
p1399
aS'In r-dizzles intro in the title sequence what video is that? i wanna see it'
p1400
aS'hahaha '
p1401
aS'"Hi guys my name is Regina, but you can call me Regina :)" lol'
p1402
aS'My name is boob, but you can call me \nhanaaksssusvnevtivhchysusukihondasicivic okay??'
p1403
aS'cant believe hante said ma name boob haha :P'
p1404
aS'lol :)'
p1405
aS'That video was sick with it ;)'
p1406
aS'my name is hanate wakuso shiseo tadashite teriyaki suzuki honda civic , \nOkeeeeeeeeeeeeeeeeeeeeeey !!!!!! LOL hhhh !! :D'
p1407
aS'" I beat a little girl up and stole hers. Silly" lol :p'
p1408
aS'R-Dizzle looks like G-Dragon'
p1409
aS'yo wats up guys my name is r dizzle...fo shile my nizzle...off the \nhizzle....drizzle. But yall can call me r dizzle. LOL XD'
p1410
aS'HANATE IS F*CKING AWESOME!!!! '
p1411
aS'i just introduced my self to the replay button '
p1412
aS'Hi guys my name is regina but you can call me regina funniest part'
p1413
aS'Im boob'
p1414
aS'this should be rated lol!!!!!!!!!!!!! '
p1415
aS'my name boob,LOL,i DIED!!!'
p1416
aS'i love regina and boob or ob '
p1417
aS'i dont know why but i keep thinking that ryan is hot LOLOLOL. '
p1418
aS'can my name be phergina lol XD'
p1419
aS'hahhaha my name boob '
p1420
aS'dear ryan can you be a mom'
p1421
aS"You know when you're about to laugh when Regina starts moving her eyebrows \nlike that...."
p1422
aS"2:53, wait, Ryan's married? :P LOL, he's just wearing a ring on his left \nhand ring finger cause he feels like it... XD"
p1423
aS'boob'
p1424
aS'my name is boob'
p1425
aS'My Name Boobs..! LOL'
p1426
aS'Funny :P'
p1427
aS'\xe2\x94\x8f\xe2\x94\x81\xe2\x94\x81\xe2\x94\x81\xe2\x94\xb3\xe2\x94\x93\xe2\x95\x8b\xe2\x95\x8b\xe2\x94\x8f\xe2\x94\x93 \xe2\x94\x83\xe2\x94\x8f\xe2\x94\x81\xe2\x94\x93\xe2\x94\x83\xe2\x94\x83\xe2\x95\x8b\xe2\x94\x8f\xe2\x94\x9b\xe2\x94\x97\xe2\x94\x93 \xe2\x94\x83\xe2\x94\x97\xe2\x94\x81\xe2\x94\x81\xe2\x94\xab\xe2\x94\x83\xe2\x94\x8f\xe2\x95\x8b\xe2\x94\x93\xe2\x94\x8f\xe2\x95\x8b\xe2\x94\x81\xe2\x94\x81\xe2\x94\x81\xe2\x94\xb3\xe2\x94\x81\xe2\x94\x81\xe2\x94\x93 \xe2\x94\x97\xe2\x94\x81\xe2\x94\x81\xe2\x94\x93\xe2\x94\x83\xe2\x94\x97\xe2\x94\x9b\xe2\x95\x8b\xe2\x94\xab\xe2\x94\x83\xe2\x94\xa3\xe2\x94\x81\xe2\x94\x81\xe2\x94\x83\xe2\x94\x83\xe2\x94\x8f\xe2\x94\x93\xe2\x94\x83 \n\xe2\x94\x83\xe2\x94\x97\xe2\x94\x81\xe2\x94\x9b\xe2\x94\x83\xe2\x94\x8f\xe2\x94\x93\xe2\x94\xab\xe2\x94\x83\xe2\x94\x97\xe2\x94\xab\xe2\x94\x83\xe2\x94\x81\xe2\x94\x81\xe2\x94\xab\xe2\x94\x97\xe2\x94\x9b\xe2\x94\x83 \xe2\x94\x97\xe2\x94\x81\xe2\x94\x81\xe2\x94\x81\xe2\x94\xbb\xe2\x94\x9b\xe2\x94\x97\xe2\x94\xbb\xe2\x94\xbb\xe2\x94\x81\xe2\x94\xbb\xe2\x94\x81\xe2\x94\x81\xe2\x94\x81\xe2\x94\xbb\xe2\x94\x81\xe2\x94\x81\xe2\x94\x9b '
p1428
aS'Regina: if his name is boob can I be vregina? Rdizzle: Thats tight!'
p1429
aS'If his name is boob then can my name be Regina.'
p1430
aS'My name Boob xD'
p1431
aS'Lol I thought I was going to die laughing....'
p1432
aS"Ryan: We'll make one AWESOME show. What do you think? - - - Hanate: My name \nis boop. LOL I think he wants his own video of his name XD :))"
p1433
aS'my name boob cracking up!!!!!!!!'
p1434
aS'if his names boob, can i b regina?? lol LMFAO I WAS PISSING IN MY PANTS!'
p1435
aS'@seLenaFan0029 he is "hot" LOOOL :$'
p1436
aS'Regina is very funny and crazy'
p1437
aS'dear ryan, can you make more skitzos?'
p1438
aS'dramatic music hanate raises his hand " my name boob " lolz'
p1439
aS'Ha that was so funny I love these Ryan videos!!\xee\x90\x92\xee\x90\x92'
p1440
aS'@spotteddriver12 Its supposed to. Because you know, b o o b'
p1441
aS'LOL I LIKE MY NAME IS BOOB AND I LIKE THE PART 2:00'
p1442
aS"@seLenaFan0029 Well, it's true :D"
p1443
aS'i luv regina and hanate, they r the funniest XD'
p1444
aS'My name boob'
p1445
aS"RYAN... how'd u come up with SKITZO ????"
p1446
aS"Ryan: Hey guys! I'm glad you guys could make it because I brought you guys \nin here for a reason. But first, let's introduce ourselves. My name is Ryan \nand now let's move on to you. *Points at R-Dizzle* R-Dizzle: What? Ryan: \nWhy don't you? Ryan: I just did...weren't you listening? R-Dizzle: No. \nRyan: -.- R-Dizzle: *Sigh* Yo, what's up guys! My name is R-Dizzle. Ryan: \nOk R-Diz.. R-Dizzle: Fo-shizzle my nizzle Ryan: Thank you R-Dizzle \nFo-Shiz.. R-Dizzle:Off the Hizzle Ryan: Th.. R-Dizzle: Drizzle"
p1447
aS'my name boob'
p1448
aS'Team Bob"Hashimoto'
p1449
aS'\xf0\x9f\x98\xb1'
p1450
aS'no way! I just thought he had loads of twins! :O *Sarcasm*'
p1451
aS'Hanate WakusaseyotonashiblahblahTERIYAKISUZUKIHONDASEREKO KAI:)))))))'
p1452
aS'Regina meets queen in Latin... I think. '
p1453
aS'More skitzo'
p1454
aS'Regina: If his name is boob, can i be regina (re-jay-na)?????? Hahaha!!'
p1455
aS'1:26 did he snezze or coth ?'
p1456
aS'Ryan you should do another Skitzo!'
p1457
aS'REGINA: if his name is boob can i be RE-GINA....R-DIZZLE: THATS TIGHT! \nLMFAO :DDD'
p1458
aS' ddfff f f f de d bs d gv hg '
p1459
aS'regina:"Is\'nt that right" R-dizzle:"Thats right" Hanate:"my name boob" \nHanate:"boob" hanate:"boob Hahaha x)'
p1460
aS'@toonsie94 ikr!!!!!!!!!!!'
p1461
aS'if his name is boob can my name be rigina'
p1462
aS'Boob'
p1463
aS'lol boob'
p1464
aS"I think rigina should go up to hanate and say what are you doing what the \nhell art you doing? and then hanate should say making rice and he has real \nrice but he's at a fake kitchen thing for kids! and then rigina says you \nneed an umbrella and hands him a small barbie umbrella!"
p1465
aS'*clap*'
p1466
aS'Do a christmas special!!!'
p1467
aS'Gotta hand it to u your jokes'
p1468
aS'hahahha i cant belive he said his name was boob hahhhahahah'
p1469
aS"LMAO AT HANATE'S FACE"
p1470
aS'boob regaina wierd'
p1471
aS'@KingMaysa ragina'
p1472
aS'how are you gonna tell him what his name is? HIS NAME BOOB'
p1473
aS'Ryan please make more Skitzo videos :D'
p1474
aS'@LukeSkyWalkerRebel how the fuck can you remember that?'
p1475
aS'haaha! My name is Ragina but you can call me Ragina #LOL'
p1476
aS'2:00 Hanate: My name Boob'
p1477
aS'my name is r dizzle, for shizzle my nizzle, off the hizzle, drizzle. (x'
p1478
aS'oh my god. The two top comments ARE THE SAME! thats depressing. :('
p1479
aS'ri gina '
p1480
aS'I want to like this 100 times !!'
p1481
aS'no matter how many times I watch Skitzo videos , I never stop laughing hard'
p1482
aS'rofl my name boob when he said tht i fell on floor laughing i said it so \nsomeone at a sweet 16 and they walked away rofl! :D'
p1483
aS'I JUST FIGURED OUT WHY THIS IS CALLED SKITZO! can i get some applause? :)'
p1484
aS"Its suprising cuz he's a boob yet his name is boob... :/"
p1485
aS'My name is Hanate wakuso shiseo tadashite teriyaki suzuku honda sivic okay?'
p1486
aS'Woooooooowwww the dirty jokes amaze me. "Boob" "Can I be regaina?" "That\'s \ntight!" xD'
p1487
aS'\xe2\x94\x8f\xe2\x94\x81\xe2\x94\x81\xe2\x94\x81\xe2\x94\xb3\xe2\x94\x93\xe2\x95\x8b\xe2\x95\x8b\xe2\x94\x8f\xe2\x94\x93 \xe2\x94\x83\xe2\x94\x8f\xe2\x94\x81\xe2\x94\x93\xe2\x94\x83\xe2\x94\x83\xe2\x95\x8b\xe2\x94\x8f\xe2\x94\x9b\xe2\x94\x97\xe2\x94\x93 \xe2\x94\x83\xe2\x94\x97\xe2\x94\x81\xe2\x94\x81\xe2\x94\xab\xe2\x94\x83\xe2\x94\x8f\xe2\x95\x8b\xe2\x94\x93\xe2\x94\x8f\xe2\x95\x8b\xe2\x94\x81\xe2\x94\x81\xe2\x94\x81\xe2\x94\xb3\xe2\x94\x81\xe2\x94\x81\xe2\x94\x93 \xe2\x94\x97\xe2\x94\x81\xe2\x94\x81\xe2\x94\x93\xe2\x94\x83\xe2\x94\x97\xe2\x94\x9b\xe2\x95\x8b\xe2\x94\xab\xe2\x94\x83\xe2\x94\xa3\xe2\x94\x81\xe2\x94\x81\xe2\x94\x83\xe2\x94\x83\xe2\x94\x8f\xe2\x94\x93\xe2\x94\x83 \n\xe2\x94\x83\xe2\x94\x97\xe2\x94\x81\xe2\x94\x9b\xe2\x94\x83\xe2\x94\x8f\xe2\x94\x93\xe2\x94\xab\xe2\x94\x83\xe2\x94\x97\xe2\x94\xab\xe2\x94\x83\xe2\x94\x81\xe2\x94\x81\xe2\x94\xab\xe2\x94\x97\xe2\x94\x9b\xe2\x94\x83 \xe2\x94\x97\xe2\x94\x81\xe2\x94\x81\xe2\x94\x81\xe2\x94\xbb\xe2\x94\x9b\xe2\x94\x97\xe2\x94\xbb\xe2\x94\xbb\xe2\x94\x81\xe2\x94\xbb\xe2\x94\x81\xe2\x94\x81\xe2\x94\x81\xe2\x94\xbb\xe2\x94\x81\xe2\x94\x81\xe2\x94\x9b '
p1488
aS'my name boob '
p1489
aS'If his name is boob can i be regina(vegina).... Lmfao xD'
p1490
aS'Ryan: i think we should make a show ass combined together, what do you guys \nthink ? ...................... Silence silence........... Ryan: yes hanate? \nHanate: my name boob !'
p1491
aS'please make more skitzos they are so funny!'
p1492
aS'yo whats up guys my name is r dizzle wash in ni ma nizzle off the \nhizzle,drizzle, you can call me r dizzle'
p1493
aS'wait was that the big bounceable inflatable green ball?'
p1494
aS'@KingMaysa lol'
p1495
aS'LOL at gangster higa touching green ball.'
p1496
aS"I don't want to pry (BTW great vid) but did anyone else notice the ring on \nRyan's left hand near the end of the video?"
p1497
aS'My name boob'
p1498
aS'My name boob'
p1499
aS'No he means Bob.. Lol'
p1500
aS'No, My name is Bob just you can call me my username for short.'
p1501
aS'watched the whole thing, didnt laugh one little bit, or smurk, not funny. '
p1502
aS'Best video from Skitzo =))'
p1503
aS'Dramatic music at the end. Hanete: AHHHH, Mai nem Boob'
p1504
aS'Regena"I can change my name if I feel like it" D-rizzle ya anyone can \nchange thier name, MY NAME IS BOOOB'
p1505
aS'FUNNY'
p1506
aS"oh my gosh!! it's SO funny i had to watch it over and over again!! "
p1507
aS'called regina'
p1508
aS'hehehe love it!!! :)'
p1509
aS'Dear ryan, can you make hantewakusoshiseotadashiteteriyakisuzukihindacivic \nto say "My name boob."'
p1510
aS'My name Boob! :D'
p1511
aS'my name boob'
p1512
aS'boob boob boob'
p1513
aS'Regina soooo CutE'
p1514
aS'2.07. EPIC FACE :D'
p1515
aS"Why isn't this on T.V?"
p1516
aS'my name buob'
p1517
aS'"Can I be Regina?" omg that so funny!'
p1518
aS'Skitzooo! i really love it. '
p1519
aS'1:25 nuff said'
p1520
aS"I'm in love wt u OMG OMG -3"
p1521
aS'QUESTION: If his name is Boob can I be Regina ?'
p1522
aS'my name is boob'
p1523
aS'Yo R-dizzle were is Mike'
p1524
aS'MY NAME BOOB (-.-)'
p1525
aS'hello, my name is boob, but you can call me \nhanatewakusoshiseotadashiteteriyakisuzukihondacivic!'
p1526
aS"R'Dizzle: Wassup Guys My Name Is R'Dizzle Ryan: Okay Thank You R'Dizzle! \nR'Dizzle: Yo Shizzle My Nizzle! Ryan: Alright R'Dizzle Fo- R'Dizzle: Off \nThe Hizzle! Ryan: -Confused- Thank!- R'Dizzle: Drizzle! XD ROFL Oh \nR'Dizzle...so funny :D"
p1527
aS'Can You hear closely that R-dizzle was talking about lamb/sheeps (or \nwhatever) when they were fighting?'
p1528
aS"i love how the camera looks like low quality, but it's actually a really \nnice camera :)"
p1529
aS'hanante should have his own chanel '
p1530
aS'are YOU an umbrella expert?'
p1531
aS'@GirlThat12 btw, she said is that boogers not burgers!'
p1532
aS'My name boob'
p1533
aS'Best video. sooo funny'
p1534
aS'Hold ALT and try to like my comment '
p1535
aS'Would it be racist to say that they all look alike?'
p1536
aS'thumbs up if you hear the lamp with the bitch '
p1537
aS'okayyyyyyyyyyyyyyyyyyyyyyyyyyyyyyyyyyyyyyyyyyyyyyyyyyyyyyyyyyy lolz'
p1538
aS'MY NAME BOOB (- -)'
p1539
aS'if your boob like!!!!!!!!'
p1540
aS'1:51........HILARIOUS!'
p1541
aS'MY NAME BOOBIE!!'
p1542
aS'I hate when top comments are the same.. \xc2\xac.\xc2\xac'
p1543
aS'@sWeeTgiRl4u100 same here! '
p1544
aS'press 8'
p1545
aS"I like all your skitzo's but you should include an EMO in it and then add \nan NERD!!!"
p1546
aS'thumbs up if you remember the names from the how to be a ninja personal \ninstructors :)'
p1547
aS'im nat got at ngish'
p1548
aS'i love when he uses stuff from older vids'
p1549
aS'press 4 for BOOGERS press 8 for pikachu kick'
p1550
aS"I love how Ryan says lamp and door!!!! It's like an accent or something...!?"
p1551
aS'2:07 WTF'
p1552
aS'@AzraiPG what does that mean?'
p1553
aS'Ryan: No I swear I was just tryina R-dizzle: Nah I was just playin go ahead \nxD lol'
p1554
aS'Hi my name is regina you can call me regina .. i like rainbows and sunshine'
p1555
aS'Man, I miss Skitzo so bad'
p1556
aS'"If his name is Boob, can my name be Regina? *said like vagina*" "That\'s \ntight!"'
p1557
aS'hi my name is regina but but you can can call me regina'
p1558
aS'if his name is boob, can i be ReGINA!!!! XD'
p1559
aS'Ryan is wearing a purity ring. Aww good boy.'
p1560
aS'I just LOVE Regina!!!! :D'
p1561
aS'pause at 2:07 that crack me up'
p1562
aS'when i first watched this i heard vagina instead of regina! XP'
p1563
aS'hi ryan i have watched all 103 videos you rock'
p1564
aS'~Arguing~ Bob: "My name Bob!"...."boob" ~arguing~'
p1565
aS'the funniest video of ryan!!!hahahahah'
p1566
aS'are all three of them Ryan?'
p1567
aS'Drizzle! xD'
p1568
aS"Regina: Hi my name is Regina BUT you can call me Regina and I like rainbows \nand sun shines and....puppies BUT I don't like when puppies noses are wet, \nbecause when its wet what is that? is that burgers? or is that water what \nis that?"
p1569
aS'My name Boob LMFAO!'
p1570
aS'my name boob'
p1571
aS'looooooooooooooolll \xee\x90\x89\xee\x90\x89\xee\x90\x89\xee\x90\x89\xee\x90\x89\xee\x90\x89\xee\x90\x89\xee\x90\x92\xee\x90\x92\xee\x90\x92\xee\x90\x92\xee\x84\x85\xee\x84\x85\xee\x84\x85\xee\x84\x85\xee\x84\x85'
p1572
aS'I only heard..."hanate teriyaki suziki honda civic" from "BOOB" =D'
p1573
aS'if his name is boob, i wanna be regIna.'
p1574
aS'"if his name is boob, can i be reGINA?" "thats tight!" haha'
p1575
aS'@GirlThat12 u mean boogers? dumbass....'
p1576
aS'Hanateteryakisuzukihondacivicokkkkk'
p1577
aS'the best Introductions'
p1578
aS'isnt that right? my name boob.'
p1579
aS'Hanate: My name boob Regina: Question! If his name is boob can I change my \nname to Regina? HAHAHAHAHAHAHAHAHAHAHAHAHAHAAHAHAHAAHHAHAAHAHAHA '
p1580
aS'Regina=Vagina. :))'
p1581
aS'Hanate: oh oh yo yo*coughs* heltho everybody my name is..boob but you can \ncall me hanate-is-weird-and-kinda-dumb okayyy? Ryan: okay okay thats true! \nTEEHEE'
p1582
aS'my name boob too. lol naw im just joking. but seriously...'
p1583
aS'Regina: if he is boob can I be regina? R dizzle: thats tight dog! Nighiga: \nno?!?!?!?!?0'
p1584
aS'lol 0:30 what the hell face of the year'
p1585
aS'"What do you guys think?" *Epic long suspense with music* "........MY NAME \nBOOB"'
p1586
aS'"Yo Waz-Up Guys my name is R-Dizzle Fo sizzle my Nizzle Off the Hizzle" O_O \n" Drizzle"'
p1587
aS'"If his name is boob, can i be regina?" "That\'s tight!" LOL'
p1588
aS'@FiveStarDrummer123 She was copying lines from the video....it says, \n"Regina:" at the beginning.'
p1589
aS"TO ALL NIGAHIGA FANS! RayWilliamJohnson\xef\xbb\xbf has now has more subscribers than \nnigahiga! Lets help\xef\xbb\xbf nigahiga\xef\xbb\xbf to have more subs. RWJ doesn't deserve 3 \nmillion subs for\xef\xbb\xbf\xef\xbb\xbf just reviewing a video!\xef\xbb\xbf The reason nigahiga\xef\xbb\xbf doesnt\xef\xbb\xbf \nhave more subs is because at\xef\xbb\xbf the end of\xef\xbb\xbf the video he doesnt beg\xef\xbb\xbf people \nto\xef\xbb\xbf subscribe to him like\xef\xbb\xbf all those other\xef\xbb\xbf\xef\xbb\xbf youtube celebritys. Kindly \ncopy and\xef\xbb\xbf paste\xef\xbb\xbf this if can to other video and unsubscribe\xef\xbb\xbf RWJ to\xef\xbb\xbf help \nnigahiga.\xef\xbb\xbf Thank you Thumbs\xef\xbb\xbf Up (so everyone can\xef\xbb\xbf see.)"
p1590
aS'@MrAwsomeguy2000 yeeah'
p1591
aS'@GirlThat12 *Boogers* Not burgers. WTF man.'
p1592
aS'my name boob. LAWL XD'
p1593
aS'My name boob!!'
p1594
aS'so cute.. ahaha.. 1:26'
p1595
aS'Regina: isnt that right? *pointing to Hanate* hanate: MY NAME BOOB.'
p1596
aS"Can anyone say Hanate's full name real fast?"
p1597
aS'LOL AT 1:26'
p1598
aS'Fo shizzle my nizzle...drizzle.'
p1599
aS'haha if you go down and see the 2 letters cc on the video click it and \npress captions on its halarious \\'
p1600
aS'Pikachu abuse ...'
p1601
aS'regina is vagina'
p1602
aS'this is so hilarious <3 x'
p1603
aS'this is much better than the avengers'
p1604
aS'@Rubisalomon you ripped off the top comment'
p1605
aS'My name boob'
p1606
aS'sometimes i forget its only one person doing this ... '
p1607
aS'me!'
p1608
aS'TEEHEE!!!!!!!!:)'
p1609
aS'I started laughing when Hanate coughed or sneezed at the start of his intro \nXD'
p1610
aS'...... my name iz regina, and my name iz boob but u can call me \nhanatewakusoshisayotadashniteriyakisuzukihindacivic okahhhhhhhh. LOL \nSOOOOOO HILARIOUS!!!!!!!!!!!'
p1611
aS'hanate jhfuhfe cwvhvttev n tvnt vn r tvn vr vntrvn t v teriyaki sauce \nfsgbagv honda civic okaaaaaaaaaaaaaaaaaaaaaaaaaaaaaaaay'
p1612
aS'THUMS UP IF YOU LOVE HANTE.'
p1613
aS"R' Dizzle is focking HILARIOUS :D"
p1614
aS'Ok lets move on OHYOYO EHHHHHYAAAhAA AELLO EVWY BODY What? My name is Boob \nBut uu can cawll me hanate wakuso shiseo tada(Shit)e teriyaki suzuki Honda \ncivic OKAAAAAAAAAAAAAAAAYYY.....'
p1615
aS'@hpatel0 That is funny , i heard that too!'
p1616
aS'@fuadhean actually its hanate wakuzushiteriyakisusukihadosivik \nokaaaaaaay...?'
p1617
aS'@theadorjespert well duh.....it still same and i forgot to write the \ncivic.......:D'
p1618
aS'HARO EVYBADY MY NAME IS BOOB BAT U CAN CALL ME \nHANATEWAKUSOSHISERATERYAKISUZUKIHONDACIVICOKAAAAAAAAAY'
p1619
aS'(serious music playing for a while) Hanate: my name boob! TEEHEE'
p1620
aS'HANTE IS SO AWSOME'
p1621
aS'LOL BOOB and Ragina'
p1622
aS'my. name. is. boob. but you can call me \nhanatewakusoshisayotadashniteriyakisuzukihondacivic okayhhhh. LOL!!!'
p1623
aS'Ryan: and a little *awkward face* *Regina smiles* *part of video shows* \nRyan: uhh stupid, and combine it all together. me: LOL '
p1624
aS' To be honest i love HANTE he is the best of all. GO HANTE'
p1625
aS"yo my name's r dizzle, off the hizzle with the shizzle... ... ... twizzle. \nlawl "
p1626
aS'love this every single one wish i was as funny as him lololololol '
p1627
aS'"If his name is boob can I be Regina?" "That\'s tight!" I see what you did \nthere...'
p1628
aS'"Isn\'t that right?" "MY name Boob." LO FREAKING L'
p1629
aS'"so what do you think?" *dramatic music* "...my name boob" LOL:DDD'
p1630
aS'My name Boob.... =D LMFAO'
p1631
aS"@policarpioron20 no offence but im only quoting ryan's funniness besides \nmost of these comments arent even original."
p1632
aS'r-dizzle is funny'
p1633
aS"Regina: Isn't that right? R-dizzle: That's right! Regina: Isn't that right? \nHanate: MY NAME BOOB! Hahahahhaahahahhaahaha I died of laughing and I'm \ntyping this from my grave:)"
p1634
aS'XDD I LOVE HANTES COUGH BEFORE HE INTRODUSES HIMSELF LMBO HAHA XDD'
p1635
aS'Did he say boob?'
p1636
aS'...\xe2\x80\xa6\xe2\x80\xa6 my name boon'
p1637
aS'Rigina: but i dont like when puppies noses are wet, cuz when its wet what \nis that is it buggers or is it water, what is that!'
p1638
aS"did u guys know that i think that all the videos on youtube don't have the \nsecound to the last secound on them"
p1639
aS'Did anyone catch that between 2:00 - 2:06 , R- Dizzle said "the other day i \nwas walking my lamb and that b**** p***ed on my foot" HAHA'
p1640
aS'What do you guys think about combining a ninja, gangster, and a stupid (xD) \nin a series? I think... MY NAME BOOB'
p1641
aS'boob bob whateva'
p1642
aS'my name boob no bob no boob then can my name be rigina'
p1643
aS'Uwah! Ryan! MAKE MORE SKITZO VIDEOS , XD'
p1644
aS'@MrQazwer001 okaaaaaaaaaaaaayy!'
p1645
aS'@hpatel0 omg i never realized that.. thank you for making my day!'
p1646
aS'My name boob=D haha'
p1647
aS'UNDER MY UMBRELLA.!thums up!!!'
p1648
aS'MY NAME BOOB ! lol '
p1649
aS"I'M TYPING THIS IN CAPS TO MAKE IT LOOK IMPORTANT :P"
p1650
aS'ohh boob...'
p1651
aS'REGINA IS DRIVING ME CRAY CRAY HA HA HA HA HA'
p1652
aS'its hard to remember that regina and ryan are the same person '
p1653
aS'lol MA NEM BOOB'
p1654
aS'wy are youwearing this riing??? wyyy do you have a girlfriend? '
p1655
aS'"... but you can call me hanate wakuso shiseo tadashite teriyaki suzuki \nhonda civic okaaaaaaay" LOL'
p1656
aS'Haha my name boo'
p1657
aS'If his name is boob can I be Regyna?'
p1658
aS'"my name boob ANjsdfUGSDHKVKSD boob jshfksjiogogjzlkxcvhius boob \nxkifuhbsdbifuvjdsfkj OK THATS ENOUGH!" XD'
p1659
aS'lol my name boob halirious '
p1660
aS'press 2 for off the hazzle .........5 for tariyaki .........6 for ryan \nagreeing into changing names .........7 for hanate saying aido'
p1661
aS'1:21 "ou ou yo yo" XD'
p1662
aS'boob o-o -cough- halo evrybodeh, ma nam ish boob :)'
p1663
aS'My name Boob!!!!!!!!'
p1664
aS"''Wait if he can be Boob then can I be ReGYNA?'' LOL THIS WAS SO FUNNY."
p1665
aS'@izzie10131 u got the line rong u retard its can i be regina....o wait its \nspelled the same.........- _ -'
p1666
aS'"my name boob." LOLOLOLOL.'
p1667
aS'Regina: "If his name is boob, can I be RegINA"? HAHA omg I just peed my \npants'
p1668
aS'I DIED AT 1:42 '
p1669
aS'REGINA : ISNT THAT RIGHT? r-dizzle : thats right regina : isnt that right? \nhanate: my nam eis boob XDDDDD'
p1670
aS'"my name boob!" -Hanate'
p1671
aS"i had to watch this 20 times to figure out Hanate's name"
p1672
aS"I'm choking on my laughter and I had to pause at 1:20 because Regina is \nkilling me!"
p1673
aS'i was laughing alot in 1:41-2:06'
p1674
aS"W-wait, so your name is Boob? No, he means Bob. Yes, that's what i said! \nBoob! No, it's Bob. Boob! Bob. Boob! Bob BOoob? No, Bob! Question! Yes \nRegina! If his name is Boob can i be Reg\xc3\xafna?? That's tight! xD"
p1675
aS'regina-reGINA hanate-BOOB R-dizzle-R-DICKZZLE THUMBS UPZZLE'
p1676
aS'-dramatic music- dundundudn dud ndhdhruifhruehfefhNFURGHURTHRUFHU%H -raises \nhand- MAH NAME BOOB'
p1677
aS'i LOVE LOVE LOVE HANATE!!! XDDDD'
p1678
aS'@SUMUARIE4455 i think every1 noticed lol :L'
p1679
aS'lol love hanata'
p1680
aS"regina:''is that right?'' r-dizzle:yes'' regina:''is that right?'' \nhanate:''my name boob''"
p1681
aS'R-Dizzle can be R-Dickle xD'
p1682
aS'so he has the gangsta, the stupid girl, the ninja...but wheres the emo one??'
p1683
aS'i taught my 3 Year old cousin how to do the hanate face . '
p1684
aS"'If he's boob can my name be Ragina?' 'Thats TIGHT!' WTF!?"
p1685
aS'@KaelaBoo99 i think it might be bcuz it stands for... HIGA? XP not sure XD'
p1686
aS'I sometimes forget that Ryan plays all the characters..he makes them seem \nso unique, like a totally different person ;D'
p1687
aS'LMFAO Hanate puts Honda civic in his name'
p1688
aS'this shxt funny!!!!!!!!!!!!!!! '
p1689
aS'MY NAME BOOB.'
p1690
aS'has anbody noticed that ryan i s everybody like r-dizzle and regina and \nhante'
p1691
aS'eoooooooooooooooooooooooh that was AWESOME '
p1692
aS'i love hanatewakusoshiseautorasiteryakisuzukihondacivicokaaaai :D'
p1693
aS'YO GUYS...... IF UR SEEING THIS! THUMBS UPIF RYAN HIGA SHOULD MAKE ANOTHER \nVIDEO OF SKITZO........ SO PLZZZZZ THUMBS UP!'
p1694
aS'hahaha'
p1695
aS'@1:32 My name is boob but you can call me hanate \nwakuzushiteriyakisusukihadoseihadokai..........'
p1696
aS'skitzo cool they shoud make a show about you :P'
p1697
aS'*everyone thinking seriously,, serious muzic iz playing* hanate: Mai name \nboob Ryan: ughh... LMAOOO'
p1698
aS'ryan is tho only normal one...wait no, hes all of em XD'
p1699
aS'but you can call me \nHanate-wakuso-shiseo-tadashite-teriyaki-suzuki-honda-civic XD'
p1700
aS'This will be an AWSOME sieries'
p1701
aS'reginaaaa!!!!! and hanateeeeeeeeeee!!!'
p1702
aS'my name B00B'
p1703
aS'Hilurios'
p1704
aS'rejayna!! boob hehehe.. nice names u got there,, kim kardashians babys name \nis North right.. hehehhmmmmmmmmmmmmmm'
p1705
aS'Talk About Introductions! Please Check Out My Very First Video Guys! :p'
p1706
aS'my name BOOB'
p1707
aS'What do you guys think?........... My name Boob'
p1708
aS'No my name boob you name bob'
p1709
aS'They used names from the original How to Be videos! ^^'
p1710
aS'i like the asain one XD'
p1711
aS'Skitzo Christmas'
p1712
aS"i couldn't stop laughing in all the Skitzo Videos agree? AHAHAHA"
p1713
aS'have you noticed that hanta was kiking a pikachu'
p1714
aS'where do you come up with these names there really funny?!!! XD '
p1715
aS'My name boob................boob\xe2\x80\xa6:\xe2\x80\xa6\xe2\x80\xa6boob'
p1716
aS'@me16739 i got in trouble for doin that '
p1717
aS'Press 5 and stay 2 secs then press 6 :))'
p1718
aS'haha'
p1719
aS'I love skitzo!!!!'
p1720
aS'"Question! if his namee is boob can i Be Regina?" LMAOO! I <3 this ishh! :P'
p1721
aS'Ryan has split personality x)'
p1722
aS'My name Boob :"D'
p1723
aS'I love how he has teriyaki in his name XD'
p1724
aS'holy crap oi wanna mary this guy....audrey<3'
p1725
aS' why is his name boob '
p1726
aS'No my name is boob!!!!!!!!!!:)'
p1727
aS'HAHAHAHAHAHAH! i laughed my assss off when that guy with accent started \ntalking.'
p1728
aS'@KittyCat1320 no not rly...I LIKE CEREAL '
p1729
aS'The awkward moment when the two top rated coments are by the same user.'
p1730
aS'@me16739 plz film it and put it on youtube'
p1731
aS'@me16739 you gotta record it yo'
p1732
aS'His names boob or bob??!:D'
p1733
aS'why the heckis the guys name boob ?'
p1734
aS'LOVE......... THIS '
p1735
aS"This video is old and yet i still laughed....alot :} You're LEGIT Ryan!! :D"
p1736
aS'do another skitzo!!'
p1737
aS'@FullOfCzarcasm ya ik'
p1738
aS'what do u guys think? *music* *long pause* my name boob XD'
p1739
aS'@R3QuicK u just get a lot of likes i guess'
p1740
aS'thumbs up if you want ryan higa to make another Skitzo!'
p1741
aS'I was drinking milk while i watched this and i laughed so hard, that milk \ncame out if my nose!!!! Lol :)'
p1742
aS'My Name Is Boob (:'
p1743
aS'face hero my name boob but u can call me hanate something something teryaki \nsome thing hondacivic okayyyyyyy '
p1744
aS'Nice to meet you; Boob hanatewukusisiontotashiteriyakisuzukihondacivic...'
p1745
aS'Dear Ryan can you make more skitzos'
p1746
aS'and combine it all into one awesome show. what do you guys think? *dramatic \nmusic* ...my name Boob'
p1747
aS"@joipoiroc I'll try. Just need somebody to film it"
p1748
aS'omg this is funny stuff!!!'
p1749
aS'#boob'
p1750
aS'Yes, indeed they will D:'
p1751
aS'Hi my name is Regina but you can call me Regina.'
p1752
aS'Hahaha boob lolz'
p1753
aS'This is a weird q to ask but do u kno doraemone?'
p1754
aS'Lol "is that boogers'
p1755
aS'"my name.........BOOB"'
p1756
aS'this is gay'
p1757
aS'@gunnarw132 your momma is gay'
p1758
aS'Haha ryan is soo Funny'
p1759
aS'"What. You trying to rush me Dawg! You think this is some sort of race! You \nracist Dawg! You racist! Nah, I am just playing, go ahead!" If I get 40 \nthumbs up. I\'ll say that in front of the whole class! To my teacher!'
p1760
aS'"You ain\'t gettin\' under this!" "Under what?" "Under my umbrella" *Holds up \nlamp* *WTF Face* "That\'s a lamp!" "What? You think you\'re an umbrella \nexpert now?"'
p1761
aS"lol in Hanate's name I heard Honda Civic"
p1762
aS'Awesome!!!!!!!'
p1763
aS'TEAM HANATE!!!!!!!'
p1764
aS'Suspenseful music and then...My name boob. LOL!!!:)'
p1765
aS"'QUESTION!' 'WHAT REGINA?!' 'If he's boob can I be reGINA?' 'NO!' 'WHY \nNOT?!' 'YEAH WHY CAN'T SHE-' ITS MY NAME I CAN CHANGE IT 'WHENEVER I--' 'My \nname Boob.'"
p1766
aS'After every chinese name he says honda civic.... Lmfaaaa'
p1767
aS"my name's gina :)"
p1768
aS'Ryan *FACEPALM*'
p1769
aS"@erictuan1 lol..... i'll hv some else record!......"
p1770
aS'LOOOL derp face at 2:07'
p1771
aS'lol 1:33 is the best part'
p1772
aS'My name boob. Uhhhhh....'
p1773
aS'XD luv u RH'
p1774
aS'When will you make another Skitzo?'
p1775
aS"If you ever wondered why these videos are called Skitzo it's from the word \nskitzophrenia or sometimes called schizophrenia,a mental illness with \nsymptoms such as multiple personalities,explaining why Ryan Higa plays \nmultiple characters in these videos.But that's just my opinion, it doesn't \nmean it's true."
p1776
aS'2 year anniversary!!'
p1777
aS" i heard him say but you can call me \n'hanatewakusasitweotawakisasachiteriakisasukihondasivic.' xD"
p1778
aS'hanate lmao'
p1779
aS'Hanate is so funny XDD'
p1780
aS'My name Boob.'
p1781
aS'QUESTION! " if his name is Boob, and i be regyna??" lmao'
p1782
aS"i like hanate's sneeze!!"
p1783
aS"I can't believe he acted 4 people and made it look real ._."
p1784
aS"Regina: If he can be Boob can I be Regina? R-Dizzle: That's Tight... WTF"
p1785
aS'R-Dizzle supports this -------> SWAG Something We Asians Got xD'
p1786
aS'Hanate : Aaro everbady R-Dizzle : What ? Hanate : My name is boob R-Dizzle \n: *boob ?* Hanate : But you can call me Hanate wakuso shiseo tadashite \nteryaki suzuki honda civic okaaaay Ryan : Okay , lets . R-Dizzle : Wait , \nyour name is boob ? LoL hahaha '
p1787
aS'my name is boob hahaha'
p1788
aS'BLAHHH'
p1789
aS'@Awesomeairon9 u suck'
p1790
aS'dude this is so old i watch you when i was 7-8'
p1791
aS"XD 'my name boob' 'question!' 'yes regina' 'if his name is boob can i be \nregaina?' 'thats tight!''I know right!' cracks me up every time!"
p1792
aS"if he's boob can i be regIna? <3333 "
p1793
aS'u just do that cause you want likes '
p1794
aS'@me16739 i supported u but u better record the video :)'
p1795
aS'My name Boob!'
p1796
aS"regna: if he's boob can i be rigina HAAAAAAAAAAAAAA "
p1797
aS'LOOOL derp face at 2:06'
p1798
aS'2:00 laughed my ass off button.'
p1799
aS'halarious '
p1800
aS'-Epic thinking music-........ My name Boob!'
p1801
aS'Why does Hanate speak good english in How to be a ninja video but not in \nhere?'
p1802
aS'hanate wakuso shiseido tadashite teriyaki suzuki honda civic'
p1803
aS'-I Was Saying This Skit In Class And My teacher Heard My Say regine ( \nVagina) And The Wholle classs laughed and so did the teacher ! :DD'
p1804
aS'Why you so funny??'
p1805
aS"@Awesomeairon9 So...? What's the big deal? do I get a gift or something?"
p1806
aS'how you gonna tell hanate how say his own name'
p1807
aS'i love how he makes his vids all alone lol'
p1808
aS'Regena: i dont like it when puppies noses are wet. becuz when its wet, what \nis that? Is that boogers or is that water? what is that? hahahahahaha !!! \nlmfao'
p1809
aS'" ok that\'s enough , i didn\'t gather all of you here so you could come and \nchange your names " hahahahahahahha '
p1810
aS'under my lamp-brella '
p1811
aS'hey whats the name of the song thats running in the back?'
p1812
aS'Boob is a pretty sick name....'
p1813
aS'Love this boob bob boob bob boob bob'
p1814
aS'I LOVES'
p1815
aS'regina:hi im regina but you can call me regina ryan:(wonders that its the \nsame '
p1816
aS'BOOB'
p1817
aS'Also 8 =)'
p1818
aS'r dizzle:but you can call me ridizzle ryan:are you done? r dizzlewhat you \ntryin to rush me DOG ryan:no no r dizzle:do you this kind of race races \nstart do RASINS! ryan:no i swear i was just r dizzle:na im just messin with \nya............ ahahahahahaha ryan wimpy so wimpy and the part whwen do \nraces start do RASINS! hahahaha super watch in at 0:47'
p1819
aS'what is the song / jingle @ 2:58 ??? Is it on iMovie ???'
p1820
aS'hahahaha regina is so funny! :D'
p1821
aS'isnt thst right? thats right isnt that right? my name is boob '
p1822
aS'i love regina :D she so funny lol ::DD'
p1823
aS'I like how when they were arguing Hanate kept saying boob. xD'
p1824
aS"Funny I luv the TEEHEE 's"
p1825
aS"Pause at 2:54. There's a ring on his left hand. 0.0 "
p1826
aS'@1:38 '
p1827
aS'mah name boob'
p1828
aS'2:03 Bob'
p1829
aS'................ drizzle'
p1830
aS'my name is regina but you can call me regina \nloooooooooooooooooooooooooooooooooooooooooooooool'
p1831
aS"i like huntea's cough xD"
p1832
aS'theres so manny funny thing in this but i dont want to name them all ahahaa \nif his name is boob can i be regine !! aha '
p1833
aS"My name's Boob ."
p1834
aS"I am sick of all the top comments being either: Thumbs ups if your watching \nthis in 2011! Or Try to press shift and like my comment! Seriously can't \npeople comment things that will actually help to make videos better and not \njust random rubbish to get more likes! ITS NOT ALL ABOUT THE LIKES!!"
p1835
aS'my name boob lololol'
p1836
aS'It should have been hanate, r-dizzle, and dead, because i killed it'
p1837
aS'rejayna,bub,and r dizzle with a hizzle rizzle'
p1838
aS'i watched this like 10 times and laughed every time......'
p1839
aS'my name boob..?...hahahahah'
p1840
aS'ryan:so what do you think -music- boob:my name boob'
p1841
aS'@rockettqueen88 I wanted to like that. But i dont wanna mess up the 69 \nlikes xD'
p1842
aS"I was thinking of adding some gangster, and a little bit of ninja with a \nlittle bit of.................\xe2\x80\xa6\xe2\x80\xa6.......stupid and combine it in one to make \na series so who's in.............. My name Boob!!!"
p1843
aS'"yo wassup guys my name is R\'dizzle" "ok R\'di-" "fo shizzle my nizzle" \n"alright, R\'dizzle fo-" "off the hizzle" *WTF face* "than-""drizzle" ... \n"but you can call me R\'dizzle" "are you done?" "what, you trying to rush \nme, dawg?" "no,no" "think this some kind of race?" "no,I-" "you racist \ndawg, you racist?" "no i swear, I was just trying-" "nah I\'m just playin, \ngo ahead" *WTF face again* my favorite part =D '
p1844
aS'omg - yeah'
p1845
aS'Haha, bob or is there another o in there?'
p1846
aS'@Transformerds it meas Skitzo'
p1847
aS'2,536 people are boobs '
p1848
aS'hai guys my name is Regina, but you can call me Regina '
p1849
aS'bghgxdjgvnxdf '
p1850
aS"I can't stop laughing! :)))))"
p1851
aS'I luv Regina! "Hi my name is regina but u can call me regina". Ryan: \n*confused look* Regina: "I like rainbows,sunshine and puppies! But I don\'t \nlike when puppies noes or wet I mean like r those boogers or water like way \nis that! " lol regina hahaha so funny!'
p1852
aS'@BratzIZ ROTFLOL'
p1853
aS'pause at 2:38, her face, LMFAOO XD'
p1854
aS'My name boob'
p1855
aS"OMG I FRIGGIN' LOOOVE REGINA!!!!!!!! OMGGGGG"
p1856
aS'Lmfao ur so funnnny'
p1857
aS'you racist dog you racist! '
p1858
aS'Regina: QUESTION! If his name is boob, can i be RegIna?????'
p1859
aS'my name boob'
p1860
aS'continuely press 4, BOOGERS!'
p1861
aS"THIS IS ONE OF MY FAVORITE NIGAHIGA VIDEO :') Its soooo funny!"
p1862
aS'the okaaaiii hanate says has become a major joke at our school XD'
p1863
aS'isnt that right. my name boob lol '
p1864
aS"It's so funny no matter how many times I watch it! >.< "
p1865
aS"I can't find the ytf"
p1866
aS'His name is Boob?'
p1867
aS'Hi Ryan!'
p1868
aS'LMBO my name is boob what he say? bob ya thts wut i said boob xD'
p1869
aS'ta ta ta ta hanate:my name boob'
p1870
aS'\xe2\x96\xac\xe2\x96\xac\xe2\x96\xac\xe2\x96\xac\xe2\x96\xac\xe0\xae\x9c\xdb\xa9\xe0\xae\x9c\xe2\x96\xac\xe2\x96\xac\xe2\x96\xac\xe2\x96\xac\xe2\x96\xac\xef\xbc\xb4\xef\xbc\xa5\xef\xbc\xa5\xef\xbc\xa8\xef\xbc\xa5\xef\xbc\xa5\xe2\x96\xac\xe2\x96\xac\xe2\x96\xac\xe2\x96\xac\xe2\x96\xac\xe0\xae\x9c\xdb\xa9\xe0\xae\x9c\xe2\x96\xac\xe2\x96\xac\xe2\x96\xac\xc2\xad\xc2\xad\xc2\xad\xc2\xad\xc2\xad\xe2\x96\xac\xe2\x96\xac '
p1871
aS'Hanate= Boob Regina=Virgina LMAO >.<'
p1872
aS'I love this oh so much'
p1873
aS'hi my name is regina. but, you can call me regina. ryan *confused face* <3'
p1874
aS'but the real reason i brought you all here becasue i wanna start a series \nwith all of you you no bring alittle gangster in the picture maybe a little \nninja and alittle.............. stopid? and combine them all into one into \none awesome show what do you guys think?..................my name boob.. \nTEEHEE'
p1875
aS'i was drinking coca cola while hanate was about to introdouce him self and \nwhen he said boob i spit all the cole on the screen :) i am serious.......'
p1876
aS'"if his name is boob, can i be ragina"? HAHAHA'
p1877
aS'My names is R-Dizzle Okay thank you R---- Fo Shizzle My Nizzle Alright \nR-Dizzle Fo--- Off the Hizzle Thank------- Drizzle.'
p1878
aS'my name boob'
p1879
aS'My name is actually boob.... lol jks'
p1880
aS'My name boob (lol)'
p1881
aS'(hfghfhgjjg) my name boob (bgdgdgdhhhff) boob (hdggdhffjjjjh) boob lol'
p1882
aS'My Name Is Hanate Wakuso Shishe Tadashit Teriyake Suzuki Honda Civic Try \nSaying That 5 Times 3x Fast.'
p1883
aS'"If his name is boob can I be reg-ina?" "Thats TIGHT" clever.....'
p1884
aS'Lmfao'
p1885
aS'I literlally fell out of my chair!!!!!!! xD '
p1886
aS'@NudgeRules hahahaha ikr'
p1887
aS'my dad told me not to name my kid gina or regina cuz some places they \npronounce it like vagina xD'
p1888
aS'LOL U ARE SO FUNNY!!!!'
p1889
aS'1:58 r-dizzle: "thats right!" regina: "isn\'t that right?" hanate: "MY NAME \nBOOB" HAHAAH!! LOLZ XD'
p1890
aS'r dizzle fo shizzle my nizzle .... Drizzle'
p1891
aS'who else is a little freaked than ryan can act like a girl that \nwell???????? *_*'
p1892
aS'ragina...'
p1893
aS'Hanate :D *thumbs up*'
p1894
aS'yo wassup guys my name is r-dizzle, for shizzle my nizzle, off the hizzle, \ndrizzle'
p1895
aS'Hanate de just said teriyaki XD'
p1896
aS'thumps up if you think that hanates smile is funny'
p1897
aS'On 2:59 is Regina eating something or shes just doing it?'
p1898
aS"what was that clip from reginas cutaway? cutaway: Regina: I said you aint \ngetting under this. R-Dizzle: Under what? Regina: Under my umbrella. \nR-Dizzle: That's a lamp. Regina: So what you think your some kind of \numbrella expert now? "
p1899
aS'*epic music* hanate: mi names boob ryan: *aw sh*t*'
p1900
aS'YOU RASCIST DOG?? To funny '
p1901
aS'my name boob.. LOL'
p1902
aS'my friend and i are gonna be ragina&boob for halloween.'
p1903
aS"Hey yo! My name is actually Regina! XP I'm freakin serious. This is like, \nmaking me wanna change my name XD But I love this!"
p1904
aS'My name boob'
p1905
aS'My name BOOB!'
p1906
aS'if you want soething done right, (awesome comedy) do it yourself. :D'
p1907
aS'nice name, boob...'
p1908
aS'My name is regina, but you can call me regina ! hahahaa'
p1909
aS'I miss when Ryan used to post bids alot more.'
p1910
aS'Herro everybody my name is BOOB. But u can call me Hanate Wakuso Shiseo \nTadashite Teriyaki Suzuki Honda Civic.'
p1911
aS'THIS GUY IS A GENIOUS'
p1912
aS'this is my first one LOVED IT'
p1913
aS'lmao bo back to 2:07 and pause'
p1914
aS'Okkkaayyy'
p1915
aS'2.54-ryan makes a wish lol'
p1916
aS'You RACIST? XD'
p1917
aS"@aqmar101 why dont you take ur bullshit and go spam somone else's page you \nretarded bastard. stop acting like a fucking child"
p1918
aS'Pause at 2:07.. LOLOLOLOL Durp.'
p1919
aS'my name boob B-) '
p1920
aS'@YouCupcake she said ragina not vagina'
p1921
aS'boob '
p1922
aS'my name boob! LOL '
p1923
aS"Regina- If his name's boob, can I be vagina? Haha"
p1924
aS'Yes Regina? If his name is Boob, can I be Re gina? Thats tight! '
p1925
aS'If someone LOL s you, put IHTOASMTIWDY Or, I hate that overused acronym so \nmuch that I will destroy you.'
p1926
aS'@MrMarissen duh'
p1927
aS'click 5'
p1928
aS'WHAT IS THAAT??? LMAOOOOO Okaaaaay? '
p1929
aS'@000000funny That guy havs more O___o he dosent make videos he just talks \nshit ABOUT them >=o'
p1930
aS'boob '
p1931
aS'Boob, No he Means Bob. No Boob XD'
p1932
aS'I CANT STOP LAUGHING XD'
p1933
aS"Isn't hanate from the first video ever?"
p1934
aS'You have to be pure GENIUS to be this stupid!!! Love watching NigaHiga \nvideos!'
p1935
aS'@000000funny no nigahiga sux and rwj is the most suscribed channel of all \ntime... so suck on that nigahiga fans!'
p1936
aS'BITCH MAKE ANOTHER SKITZO VIDEO OR IMMA BUST YOUR ASS'
p1937
aS"if you watch how to be ninja, you'll notice the two ninjas in the dvd were \nnamed 'bob' and hanate' RYAN YOU'RE A GENIUS!"
p1938
aS'2530 people are named boob'
p1939
aS'NOT R-DIZZLE, ITS R DIZZLE FO SHIZZLE MY NIZZLE OFF THE HIZZLE.DRIZZLE. XD '
p1940
aS'r-dizzle* :P'
p1941
aS'who sometimes 4gets that regina is accually ryan'
p1942
aS'Hey guys, my name is Regina..but You can call me regina. LOL!'
p1943
aS'"YOU THINK THIS SOME KIND OF RACE?!?!" "No...I-" "YOU RACIST DOG YOU \nRACIST!?!?!?" LOL XD'
p1944
aS'Them hanta'
p1945
aS'"What is that?!" I found that way too funny xD'
p1946
aS"@000000funny so. thats not gonna change anything. who cares. write \nsomething that matters like ''make moar accounts and subscribe to \nnigahiga''."
p1947
aS'Dear Ryan, Can you do how to take you T-shirt off really really slowly? :P '
p1948
aS'Herro everybody my name is boob'
p1949
aS"'My name Boob' xD At the end, that was so funneh!"
p1950
aS'regina:thats right boob:my names boob. lmfao'
p1951
aS"I <3 Ryan's shirt c:"
p1952
aS'hanate: herro everybady r-dizzle: what? '
p1953
aS'Everyone arguing** Hanate: Boob. LOOOOL '
p1954
aS'teriyaki suzuki honda civic i lovee but u can call me boob hahahaha '
p1955
aS'My name bob'
p1956
aS'arent asian girls supposed to be super smart!?!?'
p1957
aS'Question? If his name is boob can I be regyna?'
p1958
aS'no my name boob! '
p1959
aS'haha funny boob'
p1960
aS"1:05 - 1:08 is't that JUST like real life? dumb girls talk, stupid horny \nguys pretend to listen"
p1961
aS'Ryan: So what do u guys think? dramatic music Hanate aka Boob: My name Boob \nTEEHEE:D'
p1962
aS'my name boob!'
p1963
aS'1:33 I almost pissed myself at the look on R-Dizzles face when he said his \nname was Boob!!!!'
p1964
aS'@FirstStep2Foreva and dumb :D'
p1965
aS'SO FUNNY XD!'
p1966
aS'I LOVE HANATE LOL.'
p1967
aS'I WANT MORE SKITZOS! '
p1968
aS'Hi you can call me hanate wakuso shiseo tadashite teriyaki suzuki honda \ncivic My dad is boob and my mom is regina but with a v.im Boob jr. '
p1969
aS'That random flying ninja kick on pikachu was funny as hell XD hahaha'
p1970
aS'banana '
p1971
aS'I LOVE REGINA! :D'
p1972
aS'Mah naim Boob. ur argumint 1s invalid.'
p1973
aS'"If his name is Boob then can my name be Ragina?"'
p1974
aS'HANATE FTW'
p1975
aS'Suuuuuuuuppppper Nice'
p1976
aS'u racist dog u racist.....no i mean....naa man its all good '
p1977
aS'Love hanate and regina!!'
p1978
aS'@SuperGirl5516 im giving u advise from experience.'
p1979
aS'@heartycat its bub ! '
p1980
aS'if his name is bob can I be ragina yo thats tight tight....... ragina is \ntight....... '
p1981
aS'HSUAHSUHAUIHEYWGHEYAWHUISHAUIDJIEJRUIQWHEUHWYEGHAYSHUAHUHAUHEAUHSUHAUSHUAHSUAHSUHAUHASYAUSWHUAYSHAUYSHAUSHAUHSUAHSUASHUHUAIHSUIDHSUIHDUSHAUAHSUHAUSHAUSHUHAUSHAUHSUAHUSHAUSHUASHUAHSUAHUSHAUHSUAHSUAHSUHAIUSHAUSHAUH'
p1982
aS'Wait ur name is boob?!?!?! Lol'
p1983
aS'Me higa'
p1984
aS'more skitzo!!!!!!!!!!!!!'
p1985
aS'My name bob'
p1986
aS'aaro everybaady my name is boob but you can call me Hanate wakuso shisheo \ntadashite teriyake suzuki honda civic okaayyy......LOL!!'
p1987
aS'2013 kitzo acctually DID bring me here, no wonder people asked for more \nskitzo :D'
p1988
aS'"my name is boob, but you can call me hanate wakuza shdijajknkjfhrsfiru \nteriyaki suzuki honda civic no kaaaa....." LOL :DDD'
p1989
aS'My nam boob'
p1990
aS"Why doesn't Ryan make any more Skitzo videos? D: Make more!"
p1991
aS'Ur skitzo should do like AA or anger mngment meeting!'
p1992
aS'"If his name boob can i be RegIna?" "das\' TIGHT!" "I know right?" Me when I \nfirst watched it: ??? hehe? Me now: .....ohhh.......'
p1993
asS'time'
p1994
ctime
struct_time
p1995
((I2009
I10
I22
I13
I17
I39
I3
I295
I-1
t(dtRp1996
sS'id'
p1997
VDUe6aOnSJBE
p1998
s.