(dp1
S'title'
p2
VBEST DANCE CREW
p3
sS'url'
p4
Vhttp://www.youtube.com/watch?v=gCu-6OH35a8&feature=youtube_gdata_player
p5
sS'image'
p6
Vhttp://i.ytimg.com/vi/gCu-6OH35a8/0.jpg
p7
sS'comments'
p8
(lp9
S'Anyone know what the misic is beginning at 0:12?\xef\xbb\xbf'
p10
aS'Like if u watched this a long time ago and now ur watching it again\xef\xbb\xbf'
p11
aS'The Drake\nSit at the bottom of the stairs \nAnd not move\xef\xbb\xbf'
p12
aS'I like the worm on dry land\xef\xbb\xbf'
p13
aS'Like if you are reading this comment *sarcasm* \xef\xbb\xbf'
p14
aS'I always lose it at the no hand stand and at the worm at dry land... :D\xef\xbb\xbf'
p15
aS'Hahaha\xf0\x9f\x90\xa2\xef\xbb\xbf'
p16
aS'0:23 is the human hand supost to do that?\xef\xbb\xbf'
p17
aS'What the song\xef\xbb\xbf'
p18
aS'0:23 WTFML is wrong with his had? XD\xef\xbb\xbf'
p19
aS'Inchworm not slug\xef\xbb\xbf'
p20
aS'I already know how to do a moonwalk\xef\xbb\xbf'
p21
aS'cool\xef\xbb\xbf'
p22
aS'Omg when he was doing the moon walk I was like damn those are some skinny \nlegs\xf0\x9f\x98\x82\xef\xbb\xbf'
p23
aS'Yep, funny guys are hot!\xef\xbb\xbf'
p24
aS"Your arching your back In a handstand and you suck at doing a cartwheel I'm \na professional gymnast but I'm not in da Olympics\xef\xbb\xbf"
p25
aS"I can do that when I'm little!\n\xef\xbb\xbf"
p26
aS'That cat do\xef\xbb\xbf'
p27
aS'hhHHAHAHAHAHAH OLD RYAAAANN AJAHHAHAA\xef\xbb\xbf'
p28
aS'Like if ur watching this in 2014\xef\xbb\xbf'
p29
aS'whats the name on that song at the end\xef\xbb\xbf'
p30
aS'where is tha TEEHEE ;(\xef\xbb\xbf'
p31
aS'WHERE WAS THE TEE HEE\xef\xbb\xbf'
p32
aS'Can you really do a handstand\xef\xbb\xbf'
p33
aS'count me in guys!\xef\xbb\xbf'
p34
aS'HAHA!LOVE IT! \xef\xbb\xbf'
p35
aS'Dear Ryan...\n\xef\xbb\xbf'
p36
aS'Wait, he didnt say TEEHEE at the end!!! \xef\xbb\xbf'
p37
aS'I can do the turtle only that at least u can do a handstand im impressed \xef\xbb\xbf'
p38
aS'No teehee?\n\xef\xbb\xbf'
p39
aS'You are so funny!!!\xef\xbb\xbf'
p40
aS'wtf lol\xef\xbb\xbf'
p41
aS'where do i sign\xef\xbb\xbf'
p42
aS'lol @ the turtle\xef\xbb\xbf'
p43
aS'first ever video i watched of ryan \xef\xbb\xbf'
p44
aS'I died at the "worm on dry land" move :)))\xef\xbb\xbf'
p45
aS'I want to learn the whale on dry land move\n\xef\xbb\xbf'
p46
aS'Awesomee\xef\xbb\xbf'
p47
aS'Thanks to this video, I actually remembered what Quest Crew was.... and how \ndisgusting their dance crew was back then when they won Season 3 of ABDC. \nAh, when watching ABDC used to be a thing a few years back..... those where \nsome good times. Asians can tear shit up when it comes to dancing.\xef\xbb\xbf'
p48
aS'Ahh back when video responses were a thing...\xef\xbb\xbf'
p49
aS'coincidencely the song ryan used here is now my school bell.... Uhm \xef\xbb\xbf'
p50
aS'guys...why did i love ryan\'s dancing way more than the breakdancing badass \nguy? also, "the slug" move showed his butt off way too well\xef\xbb\xbf'
p51
aS'Lol\xef\xbb\xbf'
p52
aS'MUSIC??!??!?!!?? With the guitar??!!!\xef\xbb\xbf'
p53
aS"Please subcribe to me i don't know howto spell channel in a very young DJ \nonly in 7th grade\n\xef\xbb\xbf"
p54
aS"ryan's ass looks really good in this, especially when he's doing the \nslug... just saying...\xef\xbb\xbf"
p55
aS'PEACE. *hits chest* Ow!\xef\xbb\xbf'
p56
aS'Made me laugh \xf0\x9f\x98\x80\xef\xbb\xbf'
p57
aS'00:28 killing the nae nae before it was created\xef\xbb\xbf'
p58
aS'zWOOSDDFOFKFK\nI wanna join ur crew i can do the turtle and moonwlh?\xef\xbb\xbf'
p59
aS'a worm on dry land\xef\xbb\xbf'
p60
aS'SO FUNNY\xef\xbb\xbf'
p61
aS'im can do all of that\xef\xbb\xbf'
p62
aS'I am a preliminary championship irish dancer.\xef\xbb\xbf'
p63
aS'I can do the turtle lol am I in\xef\xbb\xbf'
p64
aS'i can do moonwalk,handstand,babyfreeze and hip hop\xef\xbb\xbf'
p65
aS'What no teehee?\xef\xbb\xbf'
p66
aS'I Wish I Could Join But This Was Made, Like,  4 Years Ago\xef\xbb\xbf'
p67
aS'Hahahhahahahahahahahaha\xef\xbb\xbf'
p68
aS'Pause at 1:40\xef\xbb\xbf'
p69
aS'I like your videos and I think there funny\n\xef\xbb\xbf'
p70
aS'That guitar music is from the guitar in Woozworld if im right >_<\xef\xbb\xbf'
p71
aS'This guys weird but cool\xef\xbb\xbf'
p72
aS'0:25\xef\xbb\xbf'
p73
aS'My move: lay down in bed and mess up the sheets while you snore.... its \ncalled OMFG IM TIRED GO AWAY AND NEVER COME BACK or Oitgaancb.. :P\xef\xbb\xbf'
p74
aS'No teehee\xef\xbb\xbf'
p75
aS'whats the song?\xef\xbb\xbf'
p76
aS'Hahahaa i died laughing at the slug \xef\xbb\xbf'
p77
aS'omg 0:55 I thought they were actually his feet and legs lol\xef\xbb\xbf'
p78
aS'I like the way he turns towards camera\xef\xbb\xbf'
p79
aS'Its unbelievable how much he looks like kagawa.\xef\xbb\xbf'
p80
aS'One of his funniest. Dear Ryan, I hope you will always be as animated as \nthis. <3\xef\xbb\xbf'
p81
aS'No teehee! UMG\xef\xbb\xbf'
p82
aS"The Whale and The Slug, ahahahahahahahaha! It's too much\xef\xbb\xbf"
p83
aS'The turtle \xf0\x9f\x98\x82\xef\xbb\xbf'
p84
aS'its called dope :)\xef\xbb\xbf'
p85
aS'What was the music used during the breakdancing parts ?\xef\xbb\xbf'
p86
aS'U forgot the tee her\xef\xbb\xbf'
p87
aS'really can I be apart of best crew\xef\xbb\xbf'
p88
aS'Coooooooooooool\xef\xbb\xbf'
p89
aS'I can do the dance of the gay with the red hair and am 8\xef\xbb\xbf'
p90
aS'My first vid :)\xef\xbb\xbf'
p91
aS'Do the purge\xef\xbb\xbf'
p92
aS'What about twerking!?\xef\xbb\xbf'
p93
aS'zoolander!!!!\xef\xbb\xbf'
p94
aS'DEAR RYAN YOU DID NOT SHOW \nVICTOR DOES MOVES\xef\xbb\xbf'
p95
aS'The Slug is so accurate\xef\xbb\xbf'
p96
aS'how do u join the crew LOL\xef\xbb\xbf'
p97
aS'It looked like he Brock his elbow\xef\xbb\xbf'
p98
aS'One of his funniest. Dear Ryan, I hope you will always be as animated as \nthis. <3\xef\xbb\xbf'
p99
aS'lol THE TURTLE WS EPIC \xef\xbb\xbf'
p100
aS"ah...the goof ol' video response times\xef\xbb\xbf"
p101
aS'i can do the last one so can i join\xef\xbb\xbf'
p102
aS'How do I join?\xef\xbb\xbf'
p103
aS'HAHAHAHAHAHAHA\xef\xbb\xbf'
p104
aS'You forgot the teehee\xef\xbb\xbf'
p105
aS"Worm on dry land! HAHAHAHAHAHAHA I'M DEAD!\xef\xbb\xbf"
p106
aS'That is so bad ass (not\xef\xbb\xbf'
p107
aS'I want to be in the "BEST CREW" :D\xef\xbb\xbf'
p108
aS'i know how to really do a 1 handstand but i live in Estonia (far from \namerica) so i cant join ur crew\xef\xbb\xbf'
p109
aS'Sadly I only have 7999.0$ q_q\xef\xbb\xbf'
p110
aS'I love you! You make me laugh everyday \xef\xbb\xbf'
p111
aS'This was the first NigaHiga video saw in 2010\xef\xbb\xbf'
p112
aS'Victor Kim!!!\xef\xbb\xbf'
p113
aS'THERE WAS NO TEEHEE!!!!!! NOOOOOO\xef\xbb\xbf'
p114
aS'whats the song on victor kims vid\xef\xbb\xbf'
p115
aS'No teehee?\xef\xbb\xbf'
p116
aS'I tried doin the worm on dry land....not the best idea if you want to slam \nyourself on the bed and end up with one hell of a headahe..X.X\xef\xbb\xbf'
p117
aS'Lololool ikr\xef\xbb\xbf'
p118
aS'dang biceps *o*\xef\xbb\xbf'
p119
aS'*your\xef\xbb\xbf'
p120
aS'No teehee!! :(\xef\xbb\xbf'
p121
aS'i can do swipes\xef\xbb\xbf'
p122
aS'lol idk y but im really attracted to him XD \xef\xbb\xbf'
p123
aS"Lol he's not doing the moonwalk right even with his hands:D\xef\xbb\xbf"
p124
aS'Why did he not say TEEHEE at the end..... WTF\xef\xbb\xbf'
p125
aS'Hi\xef\xbb\xbf'
p126
aS'lol\xef\xbb\xbf'
p127
aS'Hey ryan can you teach me how to do the no handstand?\xef\xbb\xbf'
p128
aS'The turtle lololololol\xef\xbb\xbf'
p129
aS'Thumbs up if you think he should wear this outfit more often! O.O\xef\xbb\xbf'
p130
aS'Ryan r u google+\xef\xbb\xbf'
p131
aS'What. :p\xef\xbb\xbf'
p132
aS'you missed the teehee\xef\xbb\xbf'
p133
aS'Which song is it from part 0:48 to 0:51?\xef\xbb\xbf'
p134
aS'you forgot the TEEHEE!\xef\xbb\xbf'
p135
aS'I want to join\n\xef\xbb\xbf'
p136
aS'"... you\'re dance move" LOL\xef\xbb\xbf'
p137
aS'Worst dancer ryan \xef\xbb\xbf'
p138
aS'Lamps lol 00:39\xef\xbb\xbf'
p139
aS"Hey, I know it's really hard to get noticed on Youtube these days, so if \nyou could check out our channel, we post horse mask related videos, so if \nyou like those kinds of videos, be sure to check us out! Thanks!\xef\xbb\xbf"
p140
aS'nice dance moves nigahiga\xef\xbb\xbf'
p141
aS'LOL! this STILL makes me laugh <3\xef\xbb\xbf'
p142
aS'Turtle and whale were the best\xef\xbb\xbf'
p143
aS'Lol\xef\xbb\xbf'
p144
aS'Whoo yay asian people! Nigahiga/ryan you r great\n\nBtw Dear Ryan,\nCan u be a chef?\xef\xbb\xbf'
p145
aS'I can do the 3 dance!\xef\xbb\xbf'
p146
aS'Lmao\xef\xbb\xbf'
p147
aS'The camel toe\xf0\x9f\x98\x82\xf0\x9f\x98\x82\xf0\x9f\x98\x82\xf0\x9f\x98\x80\xef\xbb\xbf'
p148
aS'I can really\xef\xbb\xbf'
p149
aS'where,s teehee\xef\xbb\xbf'
p150
aS"8,000 bucks a week for dance moves I already know how to do?!\n\n\nI'm in! XD\xef\xbb\xbf"
p151
aS"The slug part thing was like... he's twerking while licking the floor!\xef\xbb\xbf"
p152
aS'umm uh uh uh uh ummm ah uh no uhhhhhhhh!! I NO! wait no no no ok got it \ni-its the\n                                           jump back on ur hands,back and \njump forward hip hop move\xef\xbb\xbf'
p153
aS'The greatest move in this video was " A WORM ON DRY LAND"!!! HAHAHA\nMan it almost killed me with laughter\xef\xbb\xbf'
p154
aS'my favorite was the turtle\xef\xbb\xbf'
p155
aS"I'm an expert at the turtle\xef\xbb\xbf"
p156
aS'I can do the moonwalk.\xef\xbb\xbf'
p157
aS'I love victor kim\xef\xbb\xbf'
p158
aS'i can almost 10 meter long headslides \xef\xbb\xbf'
p159
aS'Theres no teehee!\xef\xbb\xbf'
p160
aS'Is that you dancing \xef\xbb\xbf'
p161
aS'Ryan I know you can dance way better than that \xef\xbb\xbf'
p162
aS'The turtle...................XD\xef\xbb\xbf'
p163
aS'I could do 0:11 to 0:14, bang my head on the floor and go the he hospital.\xef\xbb\xbf'
p164
aS'The windshield wiper\n\xef\xbb\xbf'
p165
aS'lol xD\xef\xbb\xbf'
p166
aS'"You\'re" dance moves? Lol whatever :)\xef\xbb\xbf'
p167
aS"He uploaded this video on my b-Day\n(I'm 11)\xef\xbb\xbf"
p168
aS'Where is your cat nowwww\xef\xbb\xbf'
p169
aS'LOL\xef\xbb\xbf'
p170
aS'just wondering how would you go about making a video response with the new \nyoutube...\xef\xbb\xbf'
p171
aS'Hilarious!!!! Literally crying with laughter!\xef\xbb\xbf'
p172
aS' I always laugh at this video\xf0\x9f\x98\x86\xf0\x9f\x98\x86\xf0\x9f\x98\x86\xf0\x9f\x98\x86\xf0\x9f\x98\x86\xf0\x9f\x98\x86\xef\xbb\xbf'
p173
aS'I knew that was his hand!\xef\xbb\xbf'
p174
aNaS'Lol\xef\xbb\xbf'
p175
aS'I like the end it was funny\xef\xbb\xbf'
p176
aS'lol I like the worm on dry land\xef\xbb\xbf'
p177
aS"I work on a little dance but I can't join sorry\n\xef\xbb\xbf"
p178
aS'U forgot the "TEEHEE" :OOOO\xef\xbb\xbf'
p179
aS'The slug :D\xef\xbb\xbf'
p180
aS"I DON'T CARE WHAT YEAR IT IS NOW, BUT YOU ARE SO ADORABLE. *_*\xef\xbb\xbf"
p181
aS'Hahaha\n\xef\xbb\xbf'
p182
aS"I would but\xe2\x80\xa6 it's to late I do dance somewhere else, sorry!\xf0\x9f\x98\xa2\xef\xbb\xbf"
p183
aS'I Do dance, but wish to join! JK\xef\xbb\xbf'
p184
aS'4,349  cannot dance XD\xef\xbb\xbf'
p185
aS"ryan you're so cute\xef\xbb\xbf"
p186
aS'My favorite dances were the camel toe, the turtle, the whale and the slug. \nTeehee!\n\xef\xbb\xbf'
p187
aS"I'm afraid that Rayn wi\xc4\xbe get more than 7 miljard auditions...\xef\xbb\xbf"
p188
aS'2:03 hahahahahaha\xef\xbb\xbf'
p189
aS'THE SECOND TIME IT LOOKED LIKE HIS ELBOW WAS BROKENEEEEEEEDEEWWWWWWW\n\xef\xbb\xbf'
p190
aS'Did anyone else laugh at the end :D \xef\xbb\xbf'
p191
aS'End tho\xef\xbb\xbf'
p192
aS'the no stand and the turtle were the best.\xef\xbb\xbf'
p193
aS'but..but..the teehee :,(\xef\xbb\xbf'
p194
aS'Love the turtle\xef\xbb\xbf'
p195
aS'I like how ryan did every "dance move" terrible then did a perfect \nhandstand lol\xef\xbb\xbf'
p196
aS'The end was the best xD\xef\xbb\xbf'
p197
aS'That guy is a good dancer\xef\xbb\xbf'
p198
aS'The turtle Hahaha!\xef\xbb\xbf'
p199
aS'I like turtle\xef\xbb\xbf'
p200
aS'hahhaha omg literally spit out my water when u said wat Best crew stood for \nlol\xef\xbb\xbf'
p201
aS'I would never join that crew no offense\n\xef\xbb\xbf'
p202
aS'Funny\xef\xbb\xbf'
p203
aS"Um... I'm good\xef\xbb\xbf"
p204
aS'TeeHee?\xef\xbb\xbf'
p205
aS'the turtle LOL :D\xef\xbb\xbf'
p206
aS'LMAO :P\xef\xbb\xbf'
p207
aS"Can't stop laughing!! XD\xef\xbb\xbf"
p208
aS'Umm guys this is not nigahiga xD\nThis guy is Victor Kim..\nWTF how do some of you u not know that?..\xef\xbb\xbf'
p209
aS'umm i can most likely only do the turtle xD\xef\xbb\xbf'
p210
aS'TeeHee\xef\xbb\xbf'
p211
aS'YOU FORGOT THE AWESIME TEEHEE!!!!!!!!!!!!!!!!!!!!!!!!!!!!!!!!!!!!!!!!! :-$\xef\xbb\xbf'
p212
aS'U forgot the teehee\xef\xbb\xbf'
p213
aS'I love Victor Kim... His voice is always smooth and sexy...wish he would \nmake more videos... He has been gone for a long min. \xef\xbb\xbf'
p214
aS'OMG no teehee.\xef\xbb\xbf'
p215
aS"I'm joining automaticity\xef\xbb\xbf"
p216
aS"The Slug = Snailing.\nAnd I got a dance move where.....I do something like this, hard to describe\nKneeling-Crouch with your hand in front, spin your whole body while taking \nyour other hand to the floor to maintain balance, and its like Chun-Li's \nSpinning Bird Kick, except no one's flying. Its dangerous.\xef\xbb\xbf"
p217
aS'"Peace!\xe2\x9c\x8c\xef\xb8\x8f" *smacks himself* "ahh!"\xef\xbb\xbf'
p218
aS'ohhhhhnooooooo no teehee?\xef\xbb\xbf'
p219
aS"what's the song at 0:48 - 0:51 please tell me\xef\xbb\xbf"
p220
aS'Where is your TeeHee part Ryan?I guess you forgot :(\xef\xbb\xbf'
p221
aS'I can do the last dance\xef\xbb\xbf'
p222
aS'The cat is so cute\xef\xbb\xbf'
p223
aS"this is the first nigahiga's video i watched :D\xef\xbb\xbf"
p224
aS"'The slug' move was hilarious\xef\xbb\xbf"
p225
aS'Quest crew awesome\xef\xbb\xbf'
p226
aS'hahah wtf you have passion when talking lol\xef\xbb\xbf'
p227
aS'worm on dry land. haha!\xef\xbb\xbf'
p228
aS"#youcan'tdance\xef\xbb\xbf"
p229
aS'OMG you are HILARIOUS Ryan! xD\xef\xbb\xbf'
p230
aS'Your an awesome dancer!!!\xef\xbb\xbf'
p231
aS'dear Ryan can you be the best racer\xef\xbb\xbf'
p232
aS'do back flip 306 im 9 years old can you do that \n\xef\xbb\xbf'
p233
aS'Dear, Ryan can you do the cinnamon challenge\xef\xbb\xbf'
p234
aS'1:50 I thoguht it said Victor Krum lol\xef\xbb\xbf'
p235
aS'i just realized there is no TEEHEE!?!? \xef\xbb\xbf'
p236
aS'no teehee? :(\xef\xbb\xbf'
p237
aS'Hey love this check out this dope beat http://t.co/RuxYmdEvHY\xef\xbb\xbf'
p238
aS"I want to be you're gf in dancing.plz im 19\xef\xbb\xbf"
p239
aS'Bumblebee Extreme Step Team... worm on dry land :X\xef\xbb\xbf'
p240
aS'Dear, Ryan can you do the cinnamon challeng\xef\xbb\xbf'
p241
aS'Dear, Ryan can you do the cinnamon challenge\xef\xbb\xbf'
p242
aS'I can do a flare, windmills, and turtles (the real kind) btw y no tehee!\xef\xbb\xbf'
p243
aS'I can definitely dance like the last one!\xf0\x9f\x98\x82\xf0\x9f\x98\x82\xef\xbb\xbf'
p244
aS'lol\xef\xbb\xbf'
p245
aS'what about da te he\n\xef\xbb\xbf'
p246
aS"It's nigahiga\xef\xbb\xbf"
p247
aS'nice !\xef\xbb\xbf'
p248
aS'De worm on dry land lol\n\xef\xbb\xbf'
p249
aS"OMG ITS AN ANAGRAM FOR\nDANCE PLACE WHO BADASS'S CAN RAVE KIDS :OOOOOO!!!!! \xef\xbb\xbf"
p250
aS'Dear ryan\nCan regina dance? On "her" head?\xef\xbb\xbf'
p251
aNaNaS'an earthworm on a dry land ???? lol !!!! \xef\xbb\xbf'
p252
aS'"Leave a video response of you\'re dance move!" ._.\xef\xbb\xbf'
p253
aS'Check out this video on YouTube:\xef\xbb\xbf'
p254
aS"Hey thurr! I'm about to restart my youtube channel and I've put a lot of \nwork into it so far, and I'd really appreciate it if you could check out my \nshort videos, thanks! :)\n\n(And No, they're not porn, for those of you pervs out there! Lol)\xef\xbb\xbf"
p255
aS'No Teehee?'
p256
aS'tee-hee???'
p257
aS'i wish i could forget the slug...'
p258
aS'no hand stand!!!!!!! LOL '
p259
aS"ho is Rave?? Can't U U'r own name! I'ts Ryan xD (It was a joke)"
p260
aS'oh s***'
p261
aS'whaa the song called when the guy in red is break dancing'
p262
aS"What's the name of the music in the first break dance scenes? "
p263
aS"God. I'm so very jealous of my neighbor at present. He's been available \nconstantly. Then again, he's managed to get a part-time model to declare to \nhim she has fallen deeply in love with him in under a month. How can that \nbe thinkable? He informed me he tried the Cupid Love System (Google it!) I \nwish someone amazing said that to me... I've never seen him so content. \nKinda makes me feel bad."
p264
aS'I want to know how to do the slug lol'
p265
aS'No tehee'
p266
aS'Can u make a cupcake but make it wrong.Like dont'
p267
aS'is it really hard to do?'
p268
aS'No teehee!?!?!?'
p269
aS'your* '
p270
aS'Whrs d teehee'
p271
aS'I am not a dance guy i am actually a gamer '
p272
aS'im so done'
p273
aS"A worm on dry land!!! I can't stop laughing!!! hahahahahahahahaha!!!"
p274
aS"I can't. :( LOL"
p275
aS'potato sack bananna pancake'
p276
aS"The beginning is copying zoolander isn't it?"
p277
aS'The do nothing move best move ever!!!!'
p278
aS'Lol * your'
p279
aS'"Leave a dance move from YOU\'RE"'
p280
aS'wat about jerk?! '
p281
aS"that's because he isn't Ryan, he is Rave"
p282
aS'that whas the best danc crew comercial ever i laughed so much on the worm \non dry land and were is the TEEHEE the video sucks with noTEEHEE i want \nanother one please'
p283
aS"O my gosh it's just like zoolander"
p284
aS'i also wanna learn the no hand stand '
p285
aS"Really did not have to say we'll teach you to dance like a p***"
p286
aS'Me 2'
p287
aS'The Slug craked me up xD'
p288
aS"I'll join"
p289
aS'the determination in his face when he does the moon walk '
p290
aS'dear ryan, can u be a beatboxer?'
p291
aS'Hey, if you have a chance check out my channel^.^ you might enjoy it thanks \n^.^'
p292
aS'Hey u didnt do teehee'
p293
aS'LOL'
p294
aS'Dear Ryan can you make an army of your awn styled minions '
p295
aS'Turtle!! And worm on dry land!!!! Hahahahaha'
p296
aS'Dear ryan can u cook'
p297
aS'lol he said "you\'re dance move" you are DANCE MOVE RYAN REALLY lol just \nkidding Ryan ily'
p298
aS'0:40 that cat is SO FUCKING CUTE!!!!!'
p299
aS'That head slide was.... Unexpected.'
p300
aS"Where's the TEEHEE??"
p301
aS'I miss that cat :('
p302
aS'I can dance bad ass like'
p303
aS"To the people wondering why the teehee isn't here it's because this is one \nof the really old videos. K bye"
p304
aS'Omg !! This video soo funny'
p305
aS"What's The Name Of The First Song ?"
p306
aS"After being on YouTube for 2 years now, I know how much hate people can \ngive to me when reading these kinds of comments but maybe someone may be \nnicer. My dream is to be an actor and i like to dance in public, but i cant \nget in performing school, and i just got 1,443 subs, which is pretty \nimpressive to me, but I'll never get noticed with these numbers. If someone \nwould have the heart just to give this a thumbs up and spend all of 30 \nseconds watching a vid, it would mean the world. Thank you all"
p307
aS'Hi'
p308
aS"And we'll teach YOU! To dance like a pussy...cat"
p309
aS'that cat is cute !'
p310
aS'the last part is funny peace uhn.. 2:05'
p311
aS'D-trix ? yess!!'
p312
aS"*your. YOU STUDIED NUCLEAR MEDICINE! ... I guess grammar isn't really \nessential for that :p"
p313
aS'The slug, the turtle, the whale and the worm on dry land had me gasping for \nair and trying to dance XD'
p314
aS'That cat.'
p315
aS'1:48 **your'
p316
aS"TEEHEE... Fine we'll do it for you... TEEHEE"
p317
aS'worm on dry land...priceless '
p318
aS'OMG u can dance!'
p319
aS'WHAT THE CAT?'
p320
aS"I've looked over most of the replies on here however I feel it's a \nfirst-rate vid. My cousin simply would like to get outstanding with women. \nHe uncovered a shit load from Master Attraction. (Google it.) The help and \nadvice relating to picking up girls at clubs in those emails through that \nwebsite got got him his very first fucks in 4 long years. I became \ndispleased however considering that I heard them all. Grrrr."
p321
aS'Do epic dance moves'
p322
aS'l*l bumblebee extreme step team hahahah'
p323
aS'Hi'
p324
aS'Dear Ryan,can you play defense of the ancient or DOTA'
p325
aS'how did you dance like that'
p326
aS"Where's the teeheee"
p327
aS'Is Dominic a good dancer?'
p328
aS'NO TEEHEE? '
p329
aS"I'm a gymnast"
p330
aS'This was posted on my 9th b-day!'
p331
aS'loved the turtle'
p332
aS'Lol'
p333
aS'Bumblebee Extreme Step Team LOL Bzzzzzzzzz! '
p334
aS'teehee means like lol.... wait what???? TEEHEE'
p335
aS'YES PLEASE DO'
p336
aS'TEEHEE'
p337
aS'Lol the end xD'
p338
aS'dear ryan can u be a chef and what would u make :)'
p339
aS'Damn i think Ryan has the best moves ever man like damn LIKE DAMN DAM-N'
p340
aS'OH MY GOD 0:11!!!! THATS MY DANCE STUDIO!!!!!!!'
p341
aS'No teeheee how could he'
p342
aS'i like quset crew thou'
p343
aS'Dear Ryan, can you feed your lamp?'
p344
aS'hell ya! :D'
p345
aS'no TEEHEE :('
p346
aS'where is TEEHEE?? n i luved the cat.. <3'
p347
aS'Do you own an Android or Apple device? Follow the instructions below for \nfree e-gift cards*! 1. Enter tinyurl .com /amazon4ever (or scan my QR code) \nin your Android/Apple web browser. 2. Install any app (Sponsors) and leave \nit open for 30+ seconds. 3. After 30+ seconds, close the app and reopen \nyour web browser to redeem an e-gift card of your choice! Visit the \nTwitter/Facebook pages for PROOF of legitimacy before LYING (POS) about \nviruses. *Amazon, iTunes, PSN, XBL, PayPal (direct), +9 others!'
p348
aS'Notice the song track sounds like moonwalk moonwalk'
p349
aS"Well I can do a handstand a cartwheel a cartwheel with one hand or none umm \nand pretty much yeah I can't think of what else lol..."
p350
aS'Teehee is no more'
p351
aS"0:40 look at the cat's face "
p352
aS'I love you victor kim!!!!!!!!! 3'
p353
aS'Dear Ryan, Can you get a barbie doll and BURN IT TO DEATH???!!!'
p354
aS'cheete'
p355
aS'teehee?'
p356
aS'TURTLE FUNNIEST'
p357
aS'Why are we called the Best crew? Uh DUH . BUMBLEBEE EXTREME STEP TEAM'
p358
aS'Jess face u r stupid he started it in 2006'
p359
aS'the slug...lol'
p360
aS'Satisfaction not guaranteed. $8000 a week. Random person... "I want to \ndance like a cat!" A few days later, "I danced like a dog." Proof of no \nsatisfaction.'
p361
aS'mmm, victor at the beginning he is so yumm'
p362
aS"The cat's ssooooooo cuuuuuttteee!!! ;3"
p363
aS'Wheres the TEEHEE'
p364
aS'B.E.S.T CREW'
p365
aS'1:48 your*'
p366
aS'Awww the cat'
p367
aS'I love the SLUG :PP'
p368
aS'Good back ;)))'
p369
aS'grammar nazi allert!'
p370
aS'lol the turtle '
p371
aS'Lol slug'
p372
aS'No TEHEE?'
p373
aS'Ever heard of jump style dance? It should be easy for you,Ryan!'
p374
aS'whose cat is that?'
p375
aS'dang he is good'
p376
aS'LOL'
p377
aS'worm on dry land omfg'
p378
aS"no tee hee's"
p379
aS'the music is from garage band'
p380
aS'Dear Ryan, can you do a gymnastics routine?'
p381
aS'Bumble Bee Extreme Step Team!!'
p382
aS'The slug!! LOL '
p383
aS'Good moves!!!'
p384
aS'make a video about the cat :D'
p385
aS'15 million views'
p386
aS'Hahahahah a the turtle'
p387
aS'Ya make a dance battle. See if u could win!!!! Which u will!'
p388
aS'Haha I love the dry warm dance haha'
p389
aS'Yeah I can dance badass'
p390
aS'That guy who was doing the handstand and sliding on his head......it sort \nof looked like he broke his arm at on point........it looked gnarly.......'
p391
aS'Hella epic dance crew :P'
p392
aS'I doubt it.'
p393
aS'AND THATS WHAT YOUR GONNA LEARN FROM "RAY PEACE" "RAPIST" Your awesome \nNigaHiga'
p394
aS':)'
p395
aS'I can moonwalk,spongebob,and helicopter'
p396
aS'No TeeHee? :o'
p397
aS'for one moment i tought that he really can do the head spin :D '
p398
aS'no hands move the best move ever hhhhhhhhhh :D '
p399
aS'My dance move is the no hand stand'
p400
aS'1:27 - 1:29 thats what she saw'
p401
aS':D'
p402
aS'No sir, im from the future. 2069 to be exact.'
p403
aS'00:39 cat so cute'
p404
aS'Dear ryan, Can you be bruce lee? :)'
p405
aS'Hi'
p406
aS'Dear Ryan, can you be Justin Beiber '
p407
aS'Teehee?'
p408
aS'0:28 epic dance moves '
p409
aS'Funny'
p410
aS"It's not a dance, it's breakdance"
p411
aS'VictorKim is so cool,damn epic........xD!!!!!!!yo Victor,gotta teach me one \nof those moves yo'
p412
aS'Were do i sine up xD'
p413
aS"I did the slug at 2 years old and now I'm in Africa... I was adopted :0"
p414
aS'Best part- Worm on dry land. Hahaha'
p415
aS"LOL Pause at 1:21. I'm sorry but that's just hilarious! Love you, Ryan!"
p416
aS'WHERES THE TEHEE'
p417
aS'"We\'ll make u dance like a pussy.....cat!"'
p418
aS'a worm on dry land was my favorite'
p419
aS'wait so.... the virus is free?'
p420
aS'teehee teehee teehee'
p421
aS'Those were the best dance moves :D'
p422
aS'Lllllllllllllppppllllpppplllpppplllpppppp'
p423
aS'Where the fuck is the TEEHEE '
p424
aS'The whale lmfao'
p425
aS'Your*'
p426
aS'IS IT A BIG FREAKING DEAL??? HE FORGOT THE TEEHEE OK... ALL OF HIS VIDEOS \nHAVE A TEEHEE EXPECT THIS ONE'
p427
aS'K3man365 its called the jellyfish'
p428
aS'How does he do it?'
p429
aS'I am dance move?'
p430
aS'the cameltoe XD '
p431
aS'I would lol if I was not sick!:('
p432
aS'I like the turtle better~ lol'
p433
aS'WWhat happened to the cat?'
p434
aS"its because that's RAVE and not RYAN HIGA"
p435
aS'MAPOTI'
p436
aS'What about the teehee'
p437
aS'Your*'
p438
aS'nice pic, lol '
p439
aS"I've watched this before and I've only noticed it now. 1:49 your*"
p440
aS'And the cartwheel, handstand, one stand stand, the worm lol'
p441
aS'The slug ahaha'
p442
aS'0:29 HAHA!!!'
p443
aS'Wow the snail'
p444
aS'The slug looks like a inch worm...'
p445
aS'wow. you can dance ryan ........ I mean RAVE ! '
p446
aS'Its called the Jackhammers.'
p447
aS'U swag'
p448
aS'Hallo'
p449
aS'i though he was about to say a inch-worm then the the slug'
p450
aS'TEEHEE?'
p451
aS'Im in'
p452
aS'Tahah worm on dry land :"o'
p453
aS'pore?'
p454
aS'd-trix?'
p455
aS'no teehee???'
p456
aS'teehee not included lame'
p457
aS'awesome \\m/ '
p458
aS'The'
p459
aS'Did I miss the TEEHEE?'
p460
aS'Omg that was amazing!'
p461
aS'Did the turtle the 1st time like a boss'
p462
aS'To make you happy here TEEHEE :D'
p463
aS'THE TURTLE!hahaha'
p464
aS'Did you get pong because he dances like you'
p465
aS'Definitely want to learn that turtle move '
p466
aS'You forgot the TEEHEE....'
p467
aS'The moon walk tho...'
p468
aS'Can you be ajak ass'
p469
aS'First video of his I ever watched..'
p470
aS"Android and Apple users only! Get free iTunes, Steam, Amazon, PSN, or XBL \ngift codes straight from your Android or Apple device! 1. Open up the web \nbrowser on your Apple/Android device -> go to tinyurl .com /itunes4ever 2. \nInstall an app and keep it open for 30 seconds. 3. Open the web browser \nagain to redeem and receive one of the previously mentioned $10 ($20 for \nSteam and PSN) gift codes of your choice! I've already received $40 worth \nof Steam gift codes this week!"
p471
aS"What's the song at 0:13"
p472
aS'Weres TEEHEE'
p473
aS'NO TEEHEE!'
p474
aS'Rhe slug'
p475
aS'wt no TEEHEE?'
p476
aS'NO TEEHEE D: NOOOOOOOOOOOOOOOOOOOOOOOOO!'
p477
aS'OO-'
p478
aS'O-O'
p479
aS'Dear Ryan, continue BEST crew'
p480
aS'HOLY POOOOOOOOOOOOP '
p481
aS'no teehee? '
p482
aS'no teehee ? ;p'
p483
aS'Worm on dry land LawL'
p484
aS'No Tehee'
p485
aS'Aww cute cat u got there :3'
p486
aS'WORM ON DRY LAND! XD '
p487
aS'His vector king the awesome dance. Go on quest crew and u will see him and \nhis crew'
p488
aS'I made me crack up'
p489
aS'Like if you re-watch the Quest Crew episodes on ABDC!!!!!'
p490
aS"Funny how there's 15 million views and no top comment yet."
p491
aS"I didn't know you had a cat Ryan? "
p492
aS'fuck yea ryan'
p493
aS'TEEHEE'
p494
aS'Love that cat'
p495
aS"IS YOUR BIRTHDAY A BIG FREAKING DEAL? YOUR FAMILY FORGOT YOUR BIRTHDAY \nOK... EVERY OTHER YEAR YOU HAVE A BIRTHDAY EXCEPT THIS ONE. Yea, that's how \nit feels when we don't get a TEEHEE."
p496
aS'haha the cartwheel'
p497
aS'I know right! how did he do that!'
p498
aS'VICTOR!!!!'
p499
aS'no TEEHEE? '
p500
aS'the turtle is my favorite haha!'
p501
aS'Lol'
p502
aS'He forgot to say teehee'
p503
aS'The CamelToe!! CX'
p504
aS'dear ryan, can u explain to me wats up with popular fake people'
p505
aS'*ehem* where is the TEEHEE?!'
p506
aS'The whale is cool'
p507
aS'Hey check out our channel if you like duct tape wallets'
p508
aS'I want to join'
p509
aS'Lol'
p510
aS'WHAT HAPPENED TO THE TEEHEE!! You killed me!!'
p511
aS'I could of sworn it said Viktor Krum'
p512
aS'Sorry my sister did that'
p513
aS'when he was doing the moonwalk, i thought he used his legs'
p514
aS'1:48 Leave a video response of you are dance move? :D'
p515
aS'he picked dtrix \xe2\x99\xa1'
p516
aS'To end it I say teehee'
p517
aS'Love the whale :)'
p518
aS'i:51 wtf '
p519
aS'the no hand stand is too hard can you teach me'
p520
aS'2:05 pussy...cat'
p521
aS'Lol the turtle'
p522
aS"Damn the first part I'd really good"
p523
aS'i cartwheel perfect cause im a gymnast'
p524
aS'Wow ryan i love ur dance moves in this video their so funny i played those \nmoves one hundred times'
p525
aS'weres the teehee'
p526
aS'No TeeHee :('
p527
aS'No TEEHEE this time?'
p528
aS"Make a cake but make it wrong like don't CPU from"
p529
aS'aweee 0:40'
p530
aS'Lmao The Slug But Wat Bout The. .. \xe2\x9c\xa8TeeHee\xe2\x9c\xa8'
p531
aS'Hi is cute'
p532
aS'Lolololololololololololol Lolololololo Lolololol'
p533
aS'you spelled virus wrong'
p534
aS'Like if your pee-pees and/or hoo-hoos function properly! '
p535
aS'Hahaha'
p536
aS'whats the song at 0:15'
p537
aS"The Slug & the Turtle Dance are pretty cool.. oh, this No Handstand needs \nlot of practise it's so difficult but I keep on tryin' thank you, Ryan! ;) \n:D"
p538
aS'Lol'
p539
aS'what was that beat called the one with victor kim!'
p540
aS'i can do the NO HANDSTAND !'
p541
aS'No TEEHE!'
p542
aS'Cool moves!'
p543
aS'this is the best crew:) one hand stand :) haha'
p544
aS'"Meaow =3 ? " *meep as Niga hold me up*'
p545
aS'OH DEAR GOD!! HE FORGOT THE TEEHEE!!! WHYYYYY!!! '
p546
aS'worm on dry land sounds legit.'
p547
aS'He forgote to said teehee'
p548
aS'Dominic is the best dancer in the world no wonder him and his crew got \nthrough to americas best dance crew'
p549
aS'baby freeze'
p550
aS'The worm on dry land is the best!!! Crazy!!!'
p551
aS'bro IDONTWANTTOLIVEONTHISPLANTANYMORE at least nigahiga has armpit hair \nunlike U cause u r still a baby and proves U ARE A PUSSY teheeeee '
p552
aS'i can do a one-cartwheel. a proper one.'
p553
aS'teehee?'
p554
aS"Wow, unnecessary rudeness! Sorry I didn't waste my time going back and \nwatching all his vids for a silly ending! Either way, who cares about the \nteehee? That's not the point of the vid..just thought it was stupid that \nEVERYONE was commenting about that instead of the video..SMH.."
p555
aS'peace hits chest and mones like a girl lol '
p556
aS"first video of your's that i watch XD"
p557
aS"I don't know how to dance but i always do the Slug when i said to my mom i \ndon't want go to school!"
p558
aS"Nigahiga's video quality changed.. his sense of humor became better. he got \nmore famous.. but one thing never changed..... HIS EPIC ARMPIT HAIR :D "
p559
aS'No teehee'
p560
aS'Head slide. No teehee'
p561
aS'No-Hand Stand!'
p562
aS'I can break dance'
p563
aS'Head stand cartwheel'
p564
aS'RYAN CAN U MAKE A VIDEO OF U VS D-TRIX!! SO WE CAN SEE WHO GOTS THE B.E.S.T \nCREW MOVES!!! :D'
p565
aS'I CAN DO NO HAND SIT! LIKE IF YOU CAN!'
p566
aS'Lol'
p567
aS'Dop lol'
p568
aS'oh hell no'
p569
aS'HAHAHAHHAHAHAHAHA the ending and the moonwalk'
p570
aS'i dance like ryan'
p571
aS'i know 2 ryans ryan higa and [give you a hint his name starts with a r and \nends with a s'
p572
aS'I live next to Ryan ima go tmorow'
p573
aS'the cameltoe had me cracking up!!!! '
p574
aS'No TeeHee?? :('
p575
aS'his cat wore a little hoodie!!'
p576
aS"I can't even do a cartwheel..."
p577
aS'he looks like J-Z'
p578
aS'1:48 *your :D'
p579
aS"Holy CRAP! Vincent's AWESOMAZING!"
p580
aS'dear ryan can u make an awesome halloween costume from scrap??? lol'
p581
aS'A worm on Dry Land'
p582
aS'U should addition for so you think you can dance'
p583
aS'dear ryan can u be ball and then a lamp and then jump on a ball while ur a \nlamo'
p584
aS'Your So Stupid He Did Start The Teehee in 2009 So Shut Up.... -.- '
p585
aS'how do i sign up'
p586
aS'look back at 40'
p587
aS'U no nigahiga where is the teehee'
p588
aS'This is the second video without a TEEHEE...'
p589
aS'i won talwnt show with my crew and plus 1st place. I know robot, \nflexiability,hip hop, break dance, and\xe2\x80\xa2\xe2\x80\xa2\xe2\x80\xa2\xe2\x80\xa2\xe2\x80\xa2\xe2\x80\xa2\xe2\x80\xa2\xe2\x80\xa2\xe2\x80\xa2\xe2\x80\xa2\xe2\x80\xa2\xe2\x80\xa2\xe2\x80\xa2\xe2\x80\xa2\xe2\x80\xa2\xe2\x80\xa2\xe2\x80\xa2\xe2\x80\xa2\xe2\x80\xa2\xe2\x80\xa2\xe2\x80\xa2\xe2\x80\xa2\xe2\x80\xa2\xe2\x80\xa2taut dance'
p590
aS'ahahhaha poor cat! lol 0:39'
p591
aS'Dear Ryan can you sing like an anime character'
p592
aS'Dam bro you got skills'
p593
aS'The butt shake'
p594
aS'LMFAAOO CAMELV'
p595
aS'No TEEHEE'
p596
aS'NO TEEHEE? Are you sick?'
p597
aS' Um no TEEHEE'
p598
aS'Turtle. :D'
p599
aS'I can acually do the moon walk! And head spin!'
p600
aS"Ryan's dance"
p601
aS'TEEHEE'
p602
aS'Was that Ryan in the binnging'
p603
aS'The Third one ! I knew how to do that !'
p604
aS'Put in a teehee'
p605
aS'What about the teehee???'
p606
aS'A worm on dry land also looks like a fish in dry land XD'
p607
aS'Peace oww'
p608
aS'I have a pussy cat...'
p609
aS'A worm on dry land. LOL'
p610
aS"HERE ARE 2 REASONS 1. they only put a tehee at the end if they think it's \nfunny enough 2. TEEHEE is maybe only used in later video's "
p611
aS'the cameltoe :)'
p612
aS'The worm on dry land. That made me fucking laugh! HAHAHA!'
p613
aS'i hate ur moves you idiot :-)'
p614
aS'Fuk u youtube hatets go die'
p615
aS'the cameltoe???? '
p616
aS'The Whale Was My Favorite. '
p617
aS'LOL AT THE END! Peace ugh'
p618
aS'Pleas learn me the turtle!!!!!! :-)'
p619
aS'Yu are funny all of you videos make me laugh'
p620
aS'No teehee?'
p621
aS'YAY!!Only 8,000 dollars a week!!'
p622
aS"YAY 8000 dollars. I'll take two like if you want it "
p623
aS'daer ryan,can you milk a cow?'
p624
aS'pussy...cat lol'
p625
aS'i know right '
p626
aS'we have...detected a MAPOTI.'
p627
aS'The end lol!!!!!! He sounded like a girl in pain'
p628
aS'Omg he was sliding on his head omgg!!!'
p629
aS'this is so funny'
p630
aS'lol most of ur vids are getting 0 dislikes :D'
p631
aS'1:48 MAPOTI, but your*'
p632
aS'The bunny'
p633
aS'I love your moonwalk you have to teach me that'
p634
aS'Dear Ryan can u be a spider-man'
p635
aS'dear ryan can you do gentleman?'
p636
aS'im just kidding dude chill out'
p637
aS'look up quick dance to good vibrations.'
p638
aS'I think my hamster did the worm on dry land....'
p639
aS"The word hella must be a word only Asians use I've only heard Asian use it \nbut I love it and I love asians"
p640
aS'Dear Ryan, can you do the craziest, wackiest, most coolest move ever, \nplease do it for me!'
p641
aS'PEACE! ( hits own chest) OW!'
p642
aS'TEACH ME THE TURTLE!!! :DDD'
p643
aS'Lmaooo'
p644
aS'Can I join BEST CREW '
p645
aS"he's looking for BEST crew..so no TEEHEE xD due to the no handstands :P"
p646
aS'I tought I would never see an episode without a teehee'
p647
aS'Your*'
p648
aS'The worm on dry land killed me.=)))))) '
p649
aS'your*'
p650
aS'dear ryan can you make a video about evil celery '
p651
aS'I can dance like the last example! I can get in >:D!'
p652
aS'The no hand stand XD'
p653
aS'You made the music with garageband!'
p654
aS'I can do this ))'
p655
aS'I think he didnt cartwheel very good was because if he did, he would hit \nthe barbeque grill with his leg.'
p656
aS"I've seen that white cat like 3 times out of like all his 150 videos LOL"
p657
aS'You should do parkour'
p658
aS"WOW, hahahaha, you're creative! :P "
p659
aS'i could probably do the third one'
p660
aS'Nice handstand...Impressive my favorite was the turtle'
p661
aS'Do the worm dance'
p662
aS'i want to learn the snail'
p663
aS'AWESOME'
p664
aS'lol'
p665
aS'That was the best SO FUNNY!!!'
p666
aS'chile'
p667
aS'0:30 that shirt has been around forever'
p668
aS'its off garageband'
p669
aS"Chris Stuckmann's theme?"
p670
aS'0:52 DAT ASS!'
p671
aS'whats the title of the song?'
p672
aS'For a second there i thought said Viktor Krum and i was like omg omg viktor \nkrum can dance XD'
p673
aS'whats the music at the end someone tell me pls '
p674
aS'I LOVE Quest Crew TO bad D trix left'
p675
aS'Yah fail your cartwheel'
p676
aS'after 13 years of hard core training I finally mastered the turtle'
p677
aS'Damn I taught him that hilarious'
p678
aS'LOL the moonwalk!!'
p679
aS'do the harlem shake WHY NO HARLEM SHAKE? even i can do really realistic \nstowmotion sounds'
p680
aS'Best dance! SHUT UP! JK'
p681
aS'The TURTLE!!!'
p682
aS"What's the song"
p683
aS'THE WORM ON DRY LAND XD'
p684
aS'what happened to the teehee'
p685
aS'No TEEHEE?'
p686
aS'Do moon walk and harlem shake. Together'
p687
aS'what happened to the teehee? :OOO'
p688
aS'Seriously, where does he come up with ideas for his videos, their really \nfunny.'
p689
aS'Dear Ryan, make a dance battle. :)'
p690
aS'WTF, watch ur vids til midnyt, so addicting ! Haha video chat wiiid me? \n--asiaaan ""'
p691
aS"where's my teeehee? :("
p692
aS'woo i have one of the most liked comments plz like this one too'
p693
aS"I'm a sick dancer look at my vids I would love to dance and meet u"
p694
aS'Dear Ryan, can you be Justin Bieber or Drake?'
p695
aS'Do the lasso!'
p696
aS'Who else noticed the background music that was from Apple Loops on \nGarageBand?'
p697
aS'The turtle!!!!!!!!!! LOL'
p698
aS'Dear Ryan, can you eat a burger in 0.000001 seconds'
p699
aS'I want to learn the no handstand! XD'
p700
aS'The no-handstand was impressive :D'
p701
aS'MOM SIGGN ME UP NOW!!!'
p702
aS'ohhh fancy..'
p703
aS'Wtf'
p704
aS"where' my teehee "
p705
aS'but im to pore '
p706
aS'you have muscles?!'
p707
aS'TEEEEEEEHEEEEEEE? '
p708
aS'I can do the whale'
p709
aS"MUST JOIN BUT AIN'T ALLOWED TO SHOW FACE.... CRAP!"
p710
aS'hhhhhhhhhhhhhhhh so so hilarious i loved the turtle one hhhhhhh actually i \nloved them all !!!! hhhhhhhh ><" SDXD XD XD '
p711
aS"Can't dance"
p712
aS'The turtle LOL'
p713
aS'Lmao the cat'
p714
aS'Dear Ryan, can you do magic?'
p715
aS'I could do the last dance really good'
p716
aS'the worm on dry land lol '
p717
aS'NNNNNNNNNNNNNNNNNNNNNNNNNNNNNNNNNNNNNNNNNNNNNOOOOOOOOOOOOOOOOOOOOOOOOOOOOOOOOOOOOOOOOOOOOOOOOOOOOOOOOO \nTEEHEE!!!!!!!!!!!!!!!!!!!!!!!!!!!!!!!!!!!!!!!!!!!!!!!!!!!!!!'
p718
aS"That was the most attractive slug I've ever seen!!! Hahaha lol luv these \nvideos"
p719
aS'No tehee'
p720
aS'No way this was uploaded 3 years ago, I remember when it was first cam out!'
p721
aS'$8,000 a week! !!!!?????? Oki :D lovey0u'
p722
aS'Haha the camel toe XD xpxpxp'
p723
aS'Hahahahahaha the turtle xDDDDD'
p724
aS'No teehee :('
p725
aS'can u really do all those moves'
p726
aS'Enroll me now!!'
p727
aS'i knew there was something fishy about the legs in the moonwalk'
p728
aS'TEEHEE......'
p729
aS'LOL the moon walk'
p730
aS'like a boss 1:26'
p731
aS'I am disappointed no TEEHEE :('
p732
aS"This was posted on my mom's birthday"
p733
aS'The turtle xD'
p734
aS"00:39 Ryan's cat is so cute. Especialy with jacket"
p735
aS'I made a song like that'
p736
aS'My friends and I said that this video is the BEST'
p737
aS'Awesome!!'
p738
aS'Hilarious dance moves... the slug lol'
p739
aS'Ah the old days...'
p740
aS'What about teehee'
p741
aS'My favourite is the worm on dry land :D'
p742
aS'no vid responses XD'
p743
aS'The first video'
p744
aS'wow no spamming on the first 10 comments!'
p745
aS'TEEHE'
p746
aS'awwwww no teehee ?? :( '
p747
aS'Had me on the floor'
p748
aS'HAHAH LAST PART FTW'
p749
aS'What is a slug, turtle, no handstand, and the whale those are not even moves'
p750
aS'Funny'
p751
aS'Peace...'
p752
aS'What no TEEHEE? RYAN U DISSAPOINT ME'
p753
aS'I can do all of that'
p754
aS'I wanna join The Best Crew, cause I dance just like Ryan.'
p755
aS"no lol I was surprised that nigahiga made a mistake. But that doesn't \nchange one bit of his AWSOMENESS."
p756
aS'no teehee? :('
p757
aS"i just can't stop laughing ><"
p758
aS'Oh come on n9 tehee'
p759
aS"After being on YouTube for 2 years now, I know how much hate people can \ngive to me when reading these kinds of comments but maybe someone may be \nnicer. My dream is to be an actor and i love to dance in public, but i cant \nget in performing school, and i just got 1,300 subs, which is pretty \nimpressive to me, but I'll never get noticed with these numbers. If someone \nwould have the heart just to give this a thumbs up and spend all of 30 \nseconds watching a vid, it would mean the world. Thank you all"
p760
aS'worm on dry land LOL'
p761
aS'look at the date'
p762
aS"I dance funnier than a penguin playing a banjo. It's kinda sad"
p763
aS'without *'
p764
aS'WTH LOL xD The Cameltoe. Awkward. I was watching this video while eating. '
p765
aS'lmfao'
p766
aS'Can someone please tell me what the name of the music is? '
p767
aS'lol wheres teehee???'
p768
aS'I really love the worm =))))'
p769
aS'You are awsome :D'
p770
aS'Teehee'
p771
aS'NO TEEHEE?'
p772
aS'PEACE! Oww XD'
p773
aS'luv the turtle'
p774
aS'I noticed you are using GarageBand loops'
p775
aS'I bet everyone fell for the moon walk'
p776
aS'WOW!!! He can really dance.......lol.'
p777
aS'Forgot the teehee'
p778
aS'Victor Kim!!!!!! Yay!!!'
p779
aS"That's a decent price."
p780
aS'Aww I wanna join!'
p781
aS'Lol'
p782
aS'FUCK OFF you cancerous shithole.'
p783
aS'GT:Slabbadoo'
p784
aS'worm on the dry land that was hilarious '
p785
aS'My dance move is top raving! Lol'
p786
aS'the ryan dance was kinda hard for me'
p787
aS'I almost have the turtle dance down'
p788
aS'What happened to teehee.'
p789
aS'I like the slug'
p790
aS'..standing ovation and applause! TEEHEE '
p791
aS'Dear Ryan can you make a worst crew'
p792
aS'Pause at 0:40 heehee SO CUTE'
p793
aS'*came'
p794
aS'dear ryan, can you milk a cow?'
p795
aS'you forgot the teehee'
p796
aS'The whale is so COOL! XD'
p797
aS'Yeah best crew!'
p798
aS'THE SLUG!'
p799
aS'no teehee?'
p800
aS'How can I get that music?'
p801
aS'no teehee'
p802
aS'Whats the track at 0:12?'
p803
aS'I Danc Like The Turtle Lol'
p804
aS'he didn`t forget the TEHEEE. he was too busy dancing to remember. which \nmeans he forgot'
p805
aS'The ending was adorable'
p806
aS'Dosing is louder than his voice'
p807
aS'Go slug'
p808
aS'Thumbs up if you less than three Top Raving!'
p809
aS"1. NO TEE HEE! 2. The ending was just funny 3. I felt like there needed to \nbe a '3' TEE HEE"
p810
aS'OMG you forgot TEEHEE'
p811
aS'I CAN DANCE BETTER THAN ALL YA '
p812
aS'Dat ass doe.'
p813
aS'Cool moves'
p814
aS'The music was from garage band'
p815
aS'Dear Ryan, how many shirts can you put on?'
p816
aS'hey ryan can u do at least one not funny how to vid???'
p817
aS'Best move; the turtle'
p818
aS'Gangnam style'
p819
aS'OW REEEEAAAALLLYYYYYYYYYY????????????'
p820
aS'No teehee?!?'
p821
aS'The turtle'
p822
aS'BUTTER'
p823
aS'Sweet'
p824
aS'peace! *punch chest* Ahh! Ryan being Ryan'
p825
aS'i started laughing my ass off at the turtle omgggg'
p826
aS'1:48 um, am I the only one whom notices he used the wrong your? Anyways; \nyour*'
p827
aS'The end'
p828
aS'Shave.'
p829
aS"They used the wrong your/you're at the end."
p830
aS"that's good to hear, robert downey jr."
p831
aS'00:55 LOL!!!!'
p832
aS'Narutooooooooooooooooooooooooo!'
p833
aS'Omg... He forgot the teehee!!!!'
p834
aS'Where is teehee'
p835
aS'The Camel Toe TEEHEE '
p836
aS'Omg I love naruto'
p837
aS'Wait! WHERE IS TEEHEE?!'
p838
aS'song ? '
p839
aS'Dear Ryan, can you be a unicorn?'
p840
aS'"The Turtle"'
p841
aS'0:24 awsome'
p842
aS'hes flippin awesome '
p843
aS'ITS FAKE NO TEEHEE'
p844
aS"Ryan.. where's that cat now??? "
p845
aS'ikr'
p846
aS'OH DEAR GOD! ITS THE END OF THE WORLD!!!'
p847
aS"they are friends and are in the ytf together :) check out she's a beach \nfrom nigahiga ;)"
p848
aS'no likes here.'
p849
aS'So funny'
p850
aS'No teehee? :(:( '
p851
aS'peace ahhh!'
p852
aS"I'M A TURTLE ! HAHA ! You killed me ! "
p853
aS'Pff Dude, please I can dance the turle since my birth'
p854
aS"Hey bro these vids are awesome you've even inspired me to make my own vids"
p855
aS'No, I was watching this in 2090'
p856
aS'AWSOME!!!!!!!!!!!!!!!!!!!!!!! '
p857
aS'teehee?'
p858
aS'Haha'
p859
aS"this guy is so much talented he shouldn't waste his talent only on youtube \nhe is should participate in some movies "
p860
aS"And we'll teach you how to dance like a pussy Cat"
p861
aS'Damn...this was made 3 years ago, and BEFORE he even had 2 million \nsubscribers...time goes by so fast.'
p862
aS'Thats pretty cool,,'
p863
aS'what is the music/song at 0:11'
p864
aS'Lol'
p865
aS'I can do the no handstand!'
p866
aS'your*'
p867
aS'What song is that in the beginning (at 0:12)'
p868
aS'haha the slug'
p869
aS'Jason Chen did the slug. Omgzers.'
p870
aS'Nice rave'
p871
aS'the moonwalk is harder then it looks'
p872
aS'IM LOVING THIS . MOON WALK TOo<3'
p873
aS'Why are we called best team, daaah Bumblebee extreme step team!'
p874
aS'Funny worm on dry land lol'
p875
aS'I HAVE FINALLY MASTERED THE SLUG!!!! :D'
p876
aS'I did the hanstan and accidently did a front hand SPRING!!!!!!!!!!!'
p877
aS'8000 dollars a week thats a good deal :) '
p878
aS'Yo videos hella funny'
p879
aS'Cool bro XD'
p880
aS'you forgot the TEEHEE '
p881
aS"I would pay to learn The Slug, it's too much hardcore for me :/"
p882
aS'The Joe'
p883
aS"I'm doing the no handstand"
p884
aS'Omg I thought those were his real feet'
p885
aS'Aww no TEEHEE thing at the end :('
p886
aS'some of those moves reminds me of me, trying to go home after going out and \nhave a "few" drinks'
p887
aS'Teehee ?'
p888
aS'There was no teehee! You bastard'
p889
aS'no teehee?'
p890
aS'stop at exactly at 1:23'
p891
aS'no TEEHEEE??? :('
p892
aS"ABD DON'T U FORGET...the slug..."
p893
aS'Hahahahahahahahahahahhahahahahahhahahah!!!!!!!!!!!!'
p894
aS'What song did you use in the first one? '
p895
aS'you didnt say teehee'
p896
aS'So did the turtle'
p897
aS'lol 0:38'
p898
aS'What was the music that he used at 0:25? '
p899
aS'I love all your videos'
p900
aS'Victors got a boner lol'
p901
aS'NO TEHEE?!? D:'
p902
aS'TEEHEE...:)'
p903
aS'Wat no teehee'
p904
aS'i love the way u do ur hand stand...oh and u have a fat butt...juss \nsayin..i love u ryan'
p905
aS'i can dance like the third one...'
p906
aS'No TEEHEE?'
p907
aS'awesome!!! '
p908
aS'The turtle is kinda cute'
p909
aS'all you *ssholes that dont like him suck'
p910
aS'OH RYAN <3 '
p911
aS'TEEHEE???'
p912
aS'i loved the turtle'
p913
aS'there was no teehee'
p914
aS'Worm on dry land <3 Just laughed so hard :)) '
p915
aS'i love the slug! '
p916
aS"I'm successfully doing the No-Hand Stand right now! "
p917
aS'I died at the turtle'
p918
aS'best worm dance ever '
p919
aS'Lolzzz ......I luv the turtle'
p920
aS'Lol'
p921
aS'Turtle! Ahahah died'
p922
aS'TEEHEE!'
p923
aS"I like him I'm not an asshole"
p924
aS'Why does he call himself rave if his name is Ryan'
p925
aS'Hater!!!!'
p926
aS'VICTOOOR,,, +_+ '
p927
aS"I've been practicing my worm on dry land."
p928
aS'BACK HANDSPRING!!!'
p929
aS'Racist'
p930
aS'I like the slug'
p931
aS'Teach me plz!!!'
p932
aS'The turtle!!'
p933
aS'TEEHEE RIGHT'
p934
aS"ummm. i didn't hear a 'teehee' at the end? what is this?"
p935
aS'That was hilarious'
p936
aS'this is my favorite video of all time...for now '
p937
aS'Pro'
p938
aS'Quest Crew is dope'
p939
aS'*Your'
p940
aS'Good'
p941
aS'where the teehee '
p942
aS'At the end ryan hit his self in the chest'
p943
aS'ya'
p944
aS'RIP TEEHEE'
p945
aS'I can do the handstand and the headstand for real'
p946
aS'no fucckin TEEHEE '
p947
aS'worm on dry land was my favorite'
p948
aS'HOW?!'
p949
aS'LOL. The worm on dry land looked like an actual worm on dry land'
p950
aS'The Turtle!!! XD'
p951
aS'calm down. seriously what the hell.'
p952
aS'Ryan, u should see my videos'
p953
aS'so plz talk '
p954
aS'Where is teehee'
p955
aS'why such a huge name'
p956
aS'best'
p957
aS'LMFAAAOOOO SLUG AND TURTLE!!!'
p958
aS'Funny'
p959
aS'Lol the moon walk!! I love re watching his old videos!'
p960
aS'where is "teehee"?'
p961
aS'the slug'
p962
aS'Dear Ryan, If you had one day to live, what would you do?'
p963
aS'Victor Kim is beast!'
p964
aS'I like the slug and the turtle'
p965
aS'"not only will we teach you the moves you know"... -.-'
p966
aS'@T-ae yeon but we dont want free virus'
p967
aS'I can dance like the third example. XD'
p968
aS'A Worm on Dry Land'
p969
aS'i want to learn the turtle xD'
p970
aS'Mostly the turtle...'
p971
aS'Lol the moon walk'
p972
aS'ohh i thaught him that'
p973
aS'2:04 i taught both of you that'
p974
aS'the slug hahahahhhaXD'
p975
aS'LOL ....'
p976
aS'I almost peed this is so funny'
p977
aS"Leave a video response of YOU'RE dance move? Really Ryan?"
p978
aS"where's TEE HEE "
p979
aS'nice butt Ryan :D'
p980
aS'I can dance like this'
p981
aS'i can do a thing which is a like a handspring mixed with a round off'
p982
aS'the slug!! LOLOLOL '
p983
aS'i have successfully mastered the turtle '
p984
aS"me too hahaha that's exactly what I'm doing now xD"
p985
aS'haha great vid.....WEIRD QUESTION TIME!how old r u?'
p986
aS'Great handstand buddy!'
p987
aS'The camel toe and the worm on dry land is my favorite! LMAO'
p988
aS'*your'
p989
aS'i have successfully mastered the slug'
p990
aS'Teach me how to doggie'
p991
aS'i love turtle and the slug '
p992
aS'Dear Ryan can u do one soccer trick'
p993
aS'Im Down Show You Some Break Dance Moves!! ;D'
p994
aS"there's no TEEHEE thumbs up if im right"
p995
aS'Ryan teach me to dance bad-ass like'
p996
aS'lol you forgot the tee hee... Epic vid'
p997
aS'im start to work on my worm on dry land lmao that was funny!! '
p998
aS"I'm good at moon walk"
p999
aS'Weidoe'
p1000
aS'No Teehee...?'
p1001
aS'I mean ur friend'
p1002
aS'The slug and tirtle were definately the best :) xx'
p1003
aS'Peace...ohhhhh.'
p1004
aS'i can dance bad ass like'
p1005
aS'Windmill whoot'
p1006
aS"0:26 It's too hard to do those moves.."
p1007
aS'Oh my god..I really laughed on the worm on dry land part..it is so funny, \nbest dance move ever made xD'
p1008
aS'You gotta put up some vids on how to do those'
p1009
aS'You Rave !!! Awesome video'
p1010
aS'yuck'
p1011
aS'No Tehe!!!!!!!! I wanna sign up'
p1012
aS'brs'
p1013
aS'No TEEHEE!?!?! '
p1014
aS'i know right!!!!!!!!! '
p1015
aS'The no handstand haha '
p1016
aS'Moon walk'
p1017
aS'nooo teehee ahhhhhhhhhhhhhhhhhhhhhhhhhhhhhhhhhhh'
p1018
aS'Dear Ryan Do the Harlem shake'
p1019
aS'I love dancing'
p1020
aS'Name of the song at the beginning? '
p1021
aS'NO TEEHEE!!!!!'
p1022
aS'I did the turtle at my school dance. CD And the Slug. :-)'
p1023
aS'I didnt know best crew vids began here. I thought the first one was the \naudition vid with kevjumba and friends.'
p1024
aS'Wht the hell 0,o thts was wierd at the first but its sooo funny love ur \nvideo'
p1025
aS'NO TEHE !!!!!!\xc2\xa1!!!!!\xc2\xa1!!!!'
p1026
aS'the turtle.best dance move ever!'
p1027
aS'Step 1: buy mac Step 2: go on garage band Step 3: Look for Acustic Picking \nStep 4: Drag it to the time line Step 5: Loop it Step 6: Share to iTunes'
p1028
aS'he forgot to do TEEHEE NOOOOOOOOOOOOOOOOOO'
p1029
aS'dear Ryan Harlem shake'
p1030
aS'The worm on dry land XD'
p1031
aS'*your ..sorry I had to xD'
p1032
aS'ok, can i join?'
p1033
aS'i pst on myself watching this xD '
p1034
aS'Can you so me how to get a girl'
p1035
aS'I\'ve seen this plenty of times, and I JUST noticed "leave you\'re best..." \nWHY RYAN? WHY!?'
p1036
aS'The turtle yea'
p1037
aS'its youtube er'
p1038
aS'NO TEEHEE?!!?!'
p1039
aS'This is the first video I watched from you. <3'
p1040
aS"hahahahaha I so wanna be in your academy xD...btw wow victor's great!"
p1041
aS'LOL the pussy cat looks funny! xD'
p1042
aS"I didn't hear Teehee."
p1043
aS'TEEHEE'
p1044
aS'The Cartwheel The Handstand The One Handstand The No Handstand The Cameltoe \nThe Whale The Worm The Worm On Dry Land (And Who Could Forget) The Slug'
p1045
aS'NO TEEHEE and im great at the no hand stand'
p1046
aS"Exactly i was wondering the same thing. That's a Nigahiga trademark!"
p1047
aS"There's little lamp at 0.32 (:"
p1048
aS'Haha the moon walk'
p1049
aS'Haha worm on dry land LMFAO'
p1050
aS"Dont ever do a video with the ' TEEHEE ' haha funny bloke"
p1051
aS'Love the turtle'
p1052
aS'Who can dance like badass like!!'
p1053
aS"That's actually how I cartwheel"
p1054
aS'nah ah!! The slug is way better!! '
p1055
aS'no teehee :( '
p1056
aS'The cameltoe wtf'
p1057
aS'BS DANCING I LOVE DA SLUG I CAN DO IT NOW :D'
p1058
aS'Whats the song name? '
p1059
aS'bad ass has I can teach you the fart'
p1060
aS'Your*'
p1061
aS'I can dance like a hipster does that count'
p1062
aS'The slug is my fav Lmao'
p1063
aS'I can do the 2 feet-stand. (Its really hard!)'
p1064
aS'Glasgow?'
p1065
aS'Lmao the slug = Dat Ass!! XD'
p1066
aS'lol turtle'
p1067
aS'My best dance move is the pufferfish.'
p1068
aS'I can the no-handstand! It is hard but .... u have to learn it! O_o'
p1069
aS"Don't hate, congradulate.."
p1070
aS'*Viktor'
p1071
aS'haha, the turtle'
p1072
aS'Is Ryan Higa in the quest crew?????'
p1073
aS'IN MY HEART'
p1074
aS'umm h has hair uder his arms lol XDDDD'
p1075
aS'TeeHee? '
p1076
aS'A worm on dry land :-)'
p1077
aS'Lol'
p1078
aS'1:27 Dat ass! :D '
p1079
aS'Were do you live in Glasgow'
p1080
aS'HEED ME STEED!'
p1081
aS'Am i the only one who tried to do the Slug?'
p1082
aS'You are doing the moonwalk all wrong slide with your heels then snap to the \ntip toe then copy with the other foot.'
p1083
aS'the no hand stand looks to hard for me to do'
p1084
aS'I paused at 1:21'
p1085
aS'i can dance like that'
p1086
aS'Haha!'
p1087
aS'I can do the no handstand !!!!! BAWSSSSSSSS thats it'
p1088
aS'TEEHEE!!!'
p1089
aS'Funny'
p1090
aS'No teehee why'
p1091
aS'maybe he forgot :)'
p1092
aS'dear Rian, can you dance Gentleman '
p1093
aS'the slug :)'
p1094
aS'after all these years I still laugh my ass of at this...'
p1095
aS'speaking of teehee he forgot the teehee!!!!!'
p1096
aS'Yeah i can dance like that 0:25-0:33'
p1097
aS'For the record I know that is not what he said at all.'
p1098
aS'cool . '
p1099
aS'WHHAATT?!?!?! He didn\'t have a "TEE HEE" at the end of the video!!!!'
p1100
aS'Pin drop'
p1101
aS'lmao at the turtle and worm on dry land dance moves!!'
p1102
aS'@Abe Nguyen. I think its Rave. Not Ray.'
p1103
aS'LOL!! '
p1104
aS"after 2 years of practising, I've finally mastered the Turtle."
p1105
aS'the last part ..! xD Haha'
p1106
aS'NO TEEHEE!!/?!'
p1107
aS"*YOUR IT SHOULD SAY YOUR NOT YOU'RE ASKJDHBEUFHHE (Grammar nazi)"
p1108
aS'fuaaaaaa '
p1109
aS'what song is that?'
p1110
aS'who can forget the slug?'
p1111
aS'Whers the TEEHEE?!!? '
p1112
aS'no teehee? '
p1113
aS'funny but no teehee :( '
p1114
aS'U lied U can dance'
p1115
aS'TEEHEE'
p1116
aS'his handstand was actually really good. U GO RYAN'
p1117
aS'lol at last part'
p1118
aS'hahaha lol'
p1119
aS'AHEM.. *YOUR'
p1120
aS'The turtle lmfao'
p1121
aS'i guess he wants us to do the teehee part ok, TEEHEE'
p1122
aS'what is that song victor kim always uses to dance?'
p1123
aS'Such a great dancer'
p1124
aS"I'm going there"
p1125
aS'the turtle'
p1126
aS'Where is the teehee'
p1127
aS'"Leave a video response for you\'re dance move"? excuse me? I think it \nshould be YOUR dance move'
p1128
aS'victorvictorkim is his youtube channel'
p1129
aS'Teehee?'
p1130
aS'ive got a video of me dancing.'
p1131
aS"I can't believe there is no teehee"
p1132
aS'lmfao the one handstand'
p1133
aS'I agree with henry Turpin WERE IS THE TEEHEE?????!!!'
p1134
aS'The head thing made me gasped......btw....TEEHEE?'
p1135
aS'Pussycat!!!!!! :-)'
p1136
aS'Bumblebee Extreme Step Team!'
p1137
aS"it's at 2:08 !"
p1138
aS'no teehee??'
p1139
aS'Nice butt xD'
p1140
aS'no teehee '
p1141
aS'that was funny!'
p1142
aS'There is no TEEHEE:('
p1143
aS'Anyone notice there was no teehee!'
p1144
aS'i can dance good '
p1145
aS'Moon walk'
p1146
aS'nope..'
p1147
aS"haha, i don't even know how to do the cartwheel."
p1148
aS'Lol'
p1149
aS'Do a Windwell'
p1150
aS'Plz watch my vids at untouchablebot3000'
p1151
aS'thats hilarious !!!'
p1152
aS'What is the song where the guy is dancing'
p1153
aS'you forgot the teehee'
p1154
aS'The slug dance is too hard'
p1155
aS'Love the turtle'
p1156
aS'your cat us sooooooooooooooooooooooooo cute!!!!!!!!!!!!!!'
p1157
aS'best move is the Bernie and the light bulb'
p1158
aS'Search 112kurtis and watch me'
p1159
aS"Can't live without the tehehe"
p1160
aS'Do you have to be asian because those little guys can dance'
p1161
aS'ahhahahaha'
p1162
aS'How do you do a handstand'
p1163
aS'Love it worm on dry land!'
p1164
aS'Aaaaaaah he forgets the TEEHEE'
p1165
aS'The no handstand. (/.\\)'
p1166
aS'That cat is so cute :}'
p1167
aS'no teehee?'
p1168
aS'OMG... i had a school project and i used the SAME hook as the one u used... \nBEFORE i watched this video'
p1169
aS'I can do that!!!!!'
p1170
aS'The worm on dry land made me laugh like crazy'
p1171
aS'I can do the glider,headspin,moonwalk,triple flip you name it Ryan by the \nway no teehee'
p1172
aS"omg...I don't think there was one second where I DIDN'T laugh!!! \nomg...think I grew a six pack from laughing O_O *snicker* dammit! \nmust...stop...laughing!!"
p1173
aS'No teehee?? '
p1174
aS'where the TEEHEE ?'
p1175
aS'I carnt dance like that but my cousin can look up how to catch a bus in \nsydeny and'
p1176
aS'Best crew i agree teehee xDDD '
p1177
aS'Can u watch my audition?'
p1178
aS'The no handstand! Tehe! :D'
p1179
aS'The slug!'
p1180
aS'Omg. Sean, Kevin, Victor, and Ryan are hooottttt!!!'
p1181
aS"After being on YouTube for 2 years now, I know how much hate people can \ngive to me when reading these kinds of comments but maybe someone may be \nnicer. My dream is to be an actor and i like to perform, but i cant get in \nperforming school, and i just got 885 subs, which is pretty impressive to \nme, but I'll never get noticed with these numbers. If someone would have \nthe heart just to give this a thumbs up and spend all of 30 seconds \nwatching a vid, it would mean the world. Thank you all"
p1182
aS"That's my cousin and his friends"
p1183
aS'Dudes, its just a fucken teehee get over it'
p1184
aS'TEEHEE.'
p1185
aS'The first one'
p1186
aS"this is one of the funniest videos i've seen in a long time."
p1187
aS'I gottem all except for the turtle... So hard'
p1188
aS'The Turtle.'
p1189
aS'drum asshole'
p1190
aS'no Teehee :s ?'
p1191
aS'Bumblebee Extreme Step Team! haha '
p1192
aS'i can dance like the past option.hahaha'
p1193
aS'Acturally themprangers are'
p1194
aS'No teehee'
p1195
aS'iz not that person who slap a pickle and said STFU. abd then watched \nwatched this'
p1196
aS"=APPLE AND ANDROID MOBILE DEVICES ONLY= Do you shop on Amazon or iTunes? If \nyes, follow the instructions below for a free TEN DOLLAR e-gift card of \nyour choice for Amazon or iTunes! I. Open your MOBILE (iOS/Android) web \nbrowser and go to tinyurl .com\\giftAMAZON II. Install any app and keep the \napp open for at least 30s to receive credit III. Open your web browser \nagain to pick a TEN DOLLAR e-gift card for Amazon or iTunes I have two \nAndroid devices so I've already redeemed 2x Amazon gift cards!"
p1197
aS"I'll come!"
p1198
aS'HE FORGOT TEEHEE. :;'
p1199
aS'worm on dry land! :D'
p1200
aS'1:49 your* :-P'
p1201
aS'Tee Hee'
p1202
aS'Dude u got some freakin moves man'
p1203
aS'are you Korean? i am! '
p1204
aS'but wait... this video is 3 years ago and you mean u learn this since 2000?'
p1205
aS'Dear Ryan- Twerk'
p1206
aS'Dear Ryan I really like your videos especially the one where ur imitating \nturtle and slug....May be u can imitate another animals in your own way'
p1207
aS'You made my day!'
p1208
aS'on-handstand lol '
p1209
aS'Lol me too '
p1210
aS"Bro u can't dance stop dancing"
p1211
aS'Haha you wont loose my subscription'
p1212
aS'lol'
p1213
aS'Seems legit ....'
p1214
aS'The whale XD'
p1215
aS"it's nice :)"
p1216
aS'No teehee ? You r dead to me ..'
p1217
aS'Worm on dry land'
p1218
aS'4,221 people forgot the slug'
p1219
aS'what happened to the TEEHEE????????????????'
p1220
aS'OmG hahahahaha hahahahaha'
p1221
aS'Dear ryan could u do gangnam style'
p1222
aS'no teehee? '
p1223
aS'the end was the best haha :D'
p1224
aS'the turtle gets me every time /(. .)/'
p1225
aS'The turtle :DDD'
p1226
aS'U r handsome guy:)'
p1227
aS'Lol i lov nigahiga o_O'
p1228
aS'Da bes move is shiting lol'
p1229
aS'i mean handstand'
p1230
aS'Sexy slug'
p1231
aS'Ian from Smosh in his vacation video for his Ian Is Bored series had that \nshirt that has the play button with er on it'
p1232
aS'i from hawaii foreals ryan your awesome '
p1233
aS'NO TEEHEE??!!'
p1234
aS'Dildo move'
p1235
aS'i can do the no Hindust'
p1236
aS'Da fu($'
p1237
aS'The moonwalk :D'
p1238
aS'i wanna learn the turtle '
p1239
aS"best dancin' video ever!!! "
p1240
aS'Where are the try outs'
p1241
aS'The no handstand =)))))))))))'
p1242
aS'Ryan, you looked so young in this video (:'
p1243
aS'peace *smack* uhh *girly sounding*'
p1244
aS'a worm on dry land lololol'
p1245
aS'i can headslide '
p1246
aS'Dear Ryan a you die jk'
p1247
aS'TEEHEE!!!'
p1248
aS'Where\'s "TEEHEE"?!?!?!!!'
p1249
aS'you saw it BIT*H'
p1250
aS'No teehee!!!!!!'
p1251
aS'that cat should be mine!!!! xD '
p1252
aS"Why is it such a big deal that there's no TEEHEE???!!! "
p1253
aS"i can't get my butt out of the chair when i watch RYan.."
p1254
aS'what is the name of the song that victor kim dances on ?'
p1255
aS'no TEEHEE???'
p1256
aS'I can do that jump move he did at the begging blind folded and my hands \ntied behind my back'
p1257
aS'Did the teehee for you hahaha'
p1258
aS'Wait... You have a cat?'
p1259
aS'Like a Pussy... cat '
p1260
aS'what the hell man you forgot the TEE HE!what is wrong?i have that thing \nhappen too sometimes.'
p1261
aS'You suck at doing the moon walk'
p1262
aS'and well tech you to dance like a pussy... cat lol'
p1263
aS"YOU SHOULD'VE DONE DTRIX AND VICTOR TOGETHER DOING FREESTYLE!!! D: Quest \nCrew <3 Best Crew <3 "
p1264
aS'MAHMOUD IS WRONG! TOBY IS COOL BUT RYAN IS THE ASIAN, EPIC, X-TREME MAN!'
p1265
aS'NOOO TEEHEE :,('
p1266
aS'How?'
p1267
aS'pussy..cat looooool'
p1268
aS'Best crew everrr=))'
p1269
aS'i know right?! '
p1270
aS'no teehee:-!'
p1271
aS'No "TEEHEE"?! WHAT?!! *rage mode engaged*'
p1272
aS'Dude you are awesome at danceing'
p1273
aS'that white kitty is cute O_O'
p1274
aS'@jonathan abellana yea xD'
p1275
aS'the slug...'
p1276
aS'I called :D'
p1277
aS'*ladeys'
p1278
aS'Has anyone here heard of the Jabbawockeez? c:'
p1279
aS'I want to learn the worm on dry land I could get all the ladys'
p1280
aS'Love it may I join ahahahahahah:-)'
p1281
aS"that kitty is really cute! is it ryan's?"
p1282
aS'i can do a backflip corkscrew'
p1283
aS'O...Mah.....Gawd YOU FORGOT THE TEEHEE!!!!!!!!!!'
p1284
aS'the turtle looool'
p1285
aS'Dude...Love your dance...XD '
p1286
aS'the CAMELTOE LOLOLOLOLOLOL '
p1287
aS'Hey my name is Kim'
p1288
aS'Haha lol one handstand hahahahaha'
p1289
aS'The dude is sick'
p1290
aS"Hahahaha, HEY! He didn't do the Tee-Hee! :'("
p1291
aS'I see your hands'
p1292
aS'peace...ahhhh'
p1293
aS'you forget to say teehee at the ending, lol :D'
p1294
aS'Head spin lol'
p1295
aS'he can really dance like that?'
p1296
aS'Where is TEEHEE? :/'
p1297
aS'Where do I sign up? o.O'
p1298
aS'Well I do a flip sideways then a windmill come back up and a one headstand'
p1299
aS'lol his face during "the turtle" TEEHEE!'
p1300
aS'1:49 you spelled "your" wrong! It\'s the END OF THE WORLD.'
p1301
aS'are all the positions filled? o.o i can do the worm xD'
p1302
aS'NO TEEHEE...??? But Why ?..'
p1303
aS'\xe2\x9d\xa4\xe2\x9d\xa4\xe2\x9d\xa4\xe2\x9d\xa4\xe2\x9d\xa4\xe2\x9d\xa4\xe2\x9d\xa4\xe2\x9d\xa4\xe2\x9d\xa4\xe2\x9d\xa4\xe2\x9d\xa4\xe2\x9d\xa4\xe2\x9d\xa4\xe2\x9d\xa4\xe2\x9d\xa4\xe2\x9d\xa4\xe2\x9d\xa4\xe2\x9d\xa4\xe2\x9d\xa4\xe2\x9d\xa4\xe2\x9d\xa4\xe2\x9d\xa4\xe2\x9d\xa4\xe2\x9d\xa4\xe2\x9d\xa4\xe2\x9d\xa4\xe2\x9d\xa4\xe2\x9d\xa4\xe2\x9d\xa4\xe2\x9d\xa4\xe2\x9d\xa4\xe2\x9d\xa4\xe2\x9d\xa4\xe2\x9d\xa4\xe2\x9d\xa4\xe2\x9d\xa4\xe2\x9d\xa4\xe2\x9d\xa4\xe2\x9d\xa4\xe2\x9d\xa4\xe2\x9d\xa4\xe2\x9d\xa4\xe2\x9d\xa4\xe2\x9d\xa4\xe2\x9d\xa4\xe2\x9d\xa4\xe2\x9d\xa4\xe2\x9d\xa4\xe2\x9d\xa4\xe2\x9d\xa4\xe2\x9d\xa4\xe2\x9d\xa4\xe2\x9d\xa4\xe2\x9d\xa4\xe2\x9d\xa4\xe2\x9d\xa4\xe2\x9d\xa4\xe2\x9d\xa4\xe2\x9d\xa4\xe2\x9d\xa4\xe2\x9d\xa4\xe2\x9d\xa4\xe2\x9d\xa4\xe2\x9d\xa4\xe2\x9d\xa4\xe2\x9d\xa4\xe2\x9d\xa4\xe2\x9d\xa4\xe2\x9d\xa4\xe2\x9d\xa4\xe2\x9d\xa4\xe2\x9d\xa4\xe2\x9d\xa4\xe2\x9d\xa4\xe2\x9d\xa4\xe2\x9d\xa4\xe2\x9d\xa4\xe2\x9d\xa4\xe2\x9d\xa4\xe2\x9d\xa4\xe2\x9d\xa4\xe2\x9d\xa4\xe2\x9d\xa4\xe2\x9d\xa4\xe2\x9d\xa4\xe2\x9d\xa4\xe2\x9d\xa4\xe2\x9d\xa4\xe2\x9d\xa4\xe2\x9d\xa4\xe2\x9d\xa4\xe2\x9d\xa4\xe2\x9d\xa4\xe2\x9d\xa4\xe2\x9d\xa4\xe2\x9d\xa4\xe2\x9d\xa4\xe2\x9d\xa4\xe2\x9d\xa4\xe2\x9d\xa4\xe2\x9d\xa4\xe2\x9d\xa4\xe2\x9d\xa4\xe2\x9d\xa4\xe2\x9d\xa4\xe2\x9d\xa4\xe2\x9d\xa4\xe2\x9d\xa4\xe2\x9d\xa4\xe2\x9d\xa4\xe2\x9d\xa4\xe2\x9d\xa4\xe2\x9d\xa4\xe2\x9d\xa4\xe2\x9d\xa4\xe2\x9d\xa4\xe2\x9d\xa4\xe2\x9d\xa4\xe2\x9d\xa4\xe2\x9d\xa4\xe2\x9d\xa4\xe2\x9d\xa4\xe2\x9d\xa4\xe2\x9d\xa4\xe2\x9d\xa4\xe2\x9d\xa4\xe2\x9d\xa4\xe2\x9d\xa4\xe2\x9d\xa4\xe2\x9d\xa4\xe2\x9d\xa4\xe2\x9d\xa4\xe2\x9d\xa4\xe2\x9d\xa4\xe2\x9d\xa4\xe2\x9d\xa4\xe2\x9d\xa4\xe2\x9d\xa4\xe2\x9d\xa4\xe2\x9d\xa4\xe2\x9d\xa4\xe2\x9d\xa4\xe2\x9d\xa4\xe2\x9d\xa4\xe2\x9d\xa4\xe2\x9d\xa4\xe2\x9d\xa4\xe2\x9d\xa4\xe2\x9d\xa4\xe2\x9d\xa4\xe2\x9d\xa4\xe2\x9d\xa4\xe2\x9d\xa4\xe2\x9d\xa4\xe2\x9d\xa4\xe2\x9d\xa4\xe2\x9d\xa4\xe2\x9d\xa4\xe2\x9d\xa4\xe2\x9d\xa4\xe2\x9d\xa4\xe2\x9d\xa4\xe2\x9d\xa4\xe2\x9d\xa4\xe2\x9d\xa4\xe2\x9d\xa4\xe2\x9d\xa4\xe2\x9d\xa4\xe2\x9d\xa4\xe2\x9d\xa4\xe2\x9d\xa4\xe2\x9d\xa4\xe2\x9d\xa4\xe2\x9d\xa4\xe2\x9d\xa4\xe2\x9d\xa4\xe2\x9d\xa4\xe2\x9d\xa4\xe2\x9d\xa4\xe2\x9d\xa4\xe2\x9d\xa4\xe2\x9d\xa4\xe2\x9d\xa4\xe2\x9d\xa4\xe2\x9d\xa4\xe2\x9d\xa4\xe2\x9d\xa4\xe2\x9d\xa4\xe2\x9d\xa4\xe2\x9d\xa4\xe2\x9d\xa4\xe2\x9d\xa4\xe2\x9d\xa4\xe2\x9d\xa4\xe2\x9d\xa4\xe2\x9d\xa4\xe2\x9d\xa4\xe2\x9d\xa4\xe2\x9d\xa4\xe2\x9d\xa4\xe2\x9d\xa4\xe2\x9d\xa4\xe2\x9d\xa4\xe2\x9d\xa4\xe2\x9d\xa4\xe2\x9d\xa4\xe2\x9d\xa4\xe2\x9d\xa4\xe2\x9d\xa4\xe2\x9d\xa4\xe2\x9d\xa4\xe2\x9d\xa4\xe2\x9d\xa4\xe2\x9d\xa4\xe2\x9d\xa4\xe2\x9d\xa4\xe2\x9d\xa4\xe2\x9d\xa4\xe2\x9d\xa4\xe2\x9d\xa4\xe2\x9d\xa4\xe2\x9d\xa4\xe2\x9d\xa4\xe2\x9d\xa4\xe2\x9d\xa4\xe2\x9d\xa4\xe2\x9d\xa4\xe2\x9d\xa4\xe2\x9d\xa4\xe2\x9d\xa4\xe2\x9d\xa4\xe2\x9d\xa4\xe2\x9d\xa4\xe2\x9d\xa4\xe2\x9d\xa4\xe2\x9d\xa4\xe2\x9d\xa4\xe2\x9d\xa4\xe2\x9d\xa4\xe2\x9d\xa4\xe2\x9d\xa4\xe2\x9d\xa4\xe2\x9d\xa4\xe2\x9d\xa4\xe2\x9d\xa4\xe2\x9d\xa4\xe2\x9d\xa4\xe2\x9d\xa4\xe2\x9d\xa4\xe2\x9d\xa4\xe2\x9d\xa4\xe2\x9d\xa4\xe2\x9d\xa4\xe2\x9d\xa4\xe2\x9d\xa4\xe2\x9d\xa4\xe2\x9d\xa4\xe2\x9d\xa4\xe2\x9d\xa4\xe2\x9d\xa4\xe2\x9d\xa4\xe2\x9d\xa4\xe2\x9d\xa4\xe2\x9d\xa4\xe2\x9d\xa4\xe2\x9d\xa4\xe2\x9d\xa4\xe2\x9d\xa4\xe2\x9d\xa4\xe2\x9d\xa4\xe2\x9d\xa4\xe2\x9d\xa4\xe2\x9d\xa4\xe2\x9d\xa4\xe2\x9d\xa4\xe2\x9d\xa4\xe2\x9d\xa4\xe2\x9d\xa4\xe2\x9d\xa4\xe2\x9d\xa4\xe2\x9d\xa4\xe2\x9d\xa4\xe2\x9d\xa4\xe2\x9d\xa4\xe2\x9d\xa4\xe2\x9d\xa4\xe2\x9d\xa4\xe2\x9d\xa4\xe2\x9d\xa4\xe2\x9d\xa4\xe2\x9d\xa4\xe2\x9d\xa4\xe2\x9d\xa4\xe2\x9d\xa4\xe2\x9d\xa4\xe2\x9d\xa4\xe2\x9d\xa4\xe2\x9d\xa4\xe2\x9d\xa4\xe2\x9d\xa4\xe2\x9d\xa4\xe2\x9d\xa4\xe2\x9d\xa4\xe2\x9d\xa4\xe2\x9d\xa4\xe2\x9d\xa4\xe2\x9d\xa4\xe2\x9d\xa4\xe2\x9d\xa4\xe2\x9d\xa4\xe2\x9d\xa4\xe2\x9d\xa4\xe2\x9d\xa4\xe2\x9d\xa4\xe2\x9d\xa4\xe2\x9d\xa4\xe2\x9d\xa4\xe2\x9d\xa4\xe2\x9d\xa4\xe2\x9d\xa4\xe2\x9d\xa4\xe2\x9d\xa4\xe2\x9d\xa4\xe2\x9d\xa4\xe2\x9d\xa4\xe2\x9d\xa4\xe2\x9d\xa4\xe2\x9d\xa4\xe2\x9d\xa4\xe2\x9d\xa4\xe2\x9d\xa4\xe2\x9d\xa4\xe2\x9d\xa4\xe2\x9d\xa4\xe2\x9d\xa4\xe2\x9d\xa4\xe2\x9d\xa4\xe2\x9d\xa4\xe2\x9d\xa4\xe2\x9d\xa4\xe2\x9d\xa4\xe2\x9d\xa4\xe2\x9d\xa4\xe2\x9d\xa4\xe2\x9d\xa4\xe2\x9d\xa4\xe2\x9d\xa4\xe2\x9d\xa4\xe2\x9d\xa4\xe2\x9d\xa4\xe2\x9d\xa4\xe2\x9d\xa4\xe2\x9d\xa4\xe2\x9d\xa4\xe2\x9d\xa4\xe2\x9d\xa4\xe2\x9d\xa4\xe2\x9d\xa4\xe2\x9d\xa4\xe2\x9d\xa4\xe2\x9d\xa4\xe2\x9d\xa4\xe2\x9d\xa4\xe2\x9d\xa4\xe2\x9d\xa4\xe2\x9d\xa4\xe2\x9d\xa4\xe2\x9d\xa4\xe2\x9d\xa4\xe2\x9d\xa4\xe2\x9d\xa4\xe2\x9d\xa4\xe2\x9d\xa4\xe2\x9d\xa4\xe2\x9d\xa4\xe2\x9d\xa4\xe2\x9d\xa4\xe2\x9d\xa4\xe2\x9d\xa4\xe2\x9d\xa4\xe2\x9d\xa4\xe2\x9d\xa4\xe2\x9d\xa4\xe2\x9d\xa4\xe2\x9d\xa4\xe2\x9d\xa4\xe2\x9d\xa4\xe2\x9d\xa4\xe2\x9d\xa4\xe2\x9d\xa4\xe2\x9d\xa4\xe2\x9d\xa4\xe2\x9d\xa4\xe2\x9d\xa4\xe2\x9d\xa4\xe2\x9d\xa4\xe2\x9d\xa4\xe2\x9d\xa4\xe2\x9d\xa4\xe2\x9d\xa4\xe2\x9d\xa4\xe2\x9d\xa4\xe2\x9d\xa4\xe2\x9d\xa4\xe2\x9d\xa4\xe2\x9d\xa4\xe2\x9d\xa4\xe2\x9d\xa4\xe2\x9d\xa4\xe2\x9d\xa4\xe2\x9d\xa4\xe2\x9d\xa4\xe2\x9d\xa4\xe2\x9d\xa4\xe2\x9d\xa4\xe2\x9d\xa4\xe2\x9d\xa4\xe2\x9d\xa4\xe2\x9d\xa4\xe2\x9d\xa4\xe2\x9d\xa4\xe2\x9d\xa4\xe2\x9d\xa4\xe2\x9d\xa4\xe2\x9d\xa4\xe2\x9d\xa4\xe2\x9d\xa4\xe2\x9d\xa4\xe2\x9d\xa4\xe2\x9d\xa4\xe2\x9d\xa4\xe2\x9d\xa4\xe2\x9d\xa4\xe2\x9d\xa4\xe2\x9d\xa4\xe2\x9d\xa4\xe2\x9d\xa4\xe2\x9d\xa4\xe2\x9d\xa4\xe2\x9d\xa4\xe2\x9d\xa4\xe2\x9d\xa4\xe2\x9d\xa4\xe2\x9d\xa4\xe2\x9d\xa4\xe2\x9d\xa4\xe2\x9d\xa4\xe2\x9d\xa4\xe2\x9d\xa4\xe2\x9d\xa4\xe2\x9d\xa4\xe2\x9d\xa4\xe2\x9d\xa4\xe2\x9d\xa4\xe2\x9d\xa4\xe2\x9d\xa4\xe2\x9d\xa4\xe2\x9d\xa4\xe2\x9d\xa4\xe2\x9d\xa4\xe2\x9d\xa4\xe2\x9d\xa4\xe2\x9d\xa4\xe2\x9d\xa4\xe2\x9d\xa4\xe2\x9d\xa4\xe2\x9d\xa4\xe2\x9d\xa4\xe2\x9d\xa4\xe2\x9d\xa4\xe2\x9d\xa4\xe2\x9d\xa4\xe2\x9d\xa4\xe2\x9d\xa4\xe2\x9d\xa4\xe2\x9d\xa4\xe2\x9d\xa4\xe2\x9d\xa4\xe2\x9d\xa4\xe2\x9d\xa4\xe2\x9d\xa4\xe2\x9d\xa4\xe2\x9d\xa4\xe2\x9d\xa4\xe2\x9d\xa4\xe2\x9d\xa4\xe2\x9d\xa4\xe2\x9d\xa4\xe2\x9d\xa4\xe2\x9d\xa4\xe2\x9d\xa4\xe2\x9d\xa4\xe2\x9d\xa4\xe2\x9d\xa4\xe2\x9d\xa4\xe2\x9d\xa4\xe2\x9d\xa4\xe2\x9d\xa4\xe2\x9d\xa4\xe2\x9d\xa4'
p1304
aS'Dear ryan, can you go to the futre'
p1305
aS'Lolz the worm on dry land was my fav! XD Lolz i was lmao!'
p1306
aS'the turtle LMAO'
p1307
aS'Hey Ryan! Which country where you born in?'
p1308
aS'This is the first video I saw from nigahiga'
p1309
aS'The Cameltoe'
p1310
aS'turtle XDXD'
p1311
aS'no teehee ????'
p1312
aS'The cameltoe!! HAHAHAHA'
p1313
aS'You guy are awesome keep going for it and keep the videos coming whoo "fist \npump'
p1314
aS'he forgot thehe '
p1315
aS'OMG..u really can dance!'
p1316
aS'hahahaha '
p1317
aS'So when do i start teehee'
p1318
aS"Aren't worms already on land, don't you mean fish? Love you Ryan :D"
p1319
aS'He has me dying laughing...why is he not in movies. ?'
p1320
aS'yes for TeeHee'
p1321
aS'No teehee?'
p1322
aS'dude your dope man'
p1323
aS'teehee'
p1324
aS'Hahahahaha'
p1325
aS'i started grin at 0:26! xD'
p1326
aS'ryan ,you are so funny!! I laugh so hard'
p1327
aS'ok the user shuunit did pretty good '
p1328
aS"I used not to like you because the girl I love watches your video like \nevery week, but now I can't stop laughing and be your fan hahah"
p1329
aS'LMAO the turtle '
p1330
aS'I ACTUALLY FELL DOR THE MOONWALK!!'
p1331
aS'What happened to the teehee he does at the end??'
p1332
aS"the handstand. The one handstand... The no handstand!!! so funny and it's \nmy favorite part in the video"
p1333
aS'man i wish i can dance like Ryan'
p1334
aS"That's a offence to turtles"
p1335
aS'Dear Ryan, can u be funny.???.'
p1336
aS'omg. luv u victor kimmmmmm!!!!!!! 0:15'
p1337
aS'no TEEHEE :('
p1338
aS'Queens Undefeated Extreme Step Team thats quest crew'
p1339
aS'did anyone else notice the shirt hes wearing when he dances at 0:26? player \nlol'
p1340
aS'1:06 he still had his shoes off lol'
p1341
aS'i tried the worm in dry land and it was so FUN!!!!!! '
p1342
aS'That was Victor Kim of Quest Crew xD'
p1343
aS'\xf0\x9f\x98\xb1omg'
p1344
aS'Hey anyone else been watching then since there first video? The good ol \ndays.'
p1345
aS'suck it '
p1346
aS'Ikr'
p1347
aS'After thirteen years I have finally mastered the turtle'
p1348
aS'I want to join best crew'
p1349
aS"He's good at handstands"
p1350
aS'Wtf! U make me subscribe! I hate to admit, but I do like it! A lot actually!'
p1351
aS'No teehee :('
p1352
aS'Dam that guys a good dancer'
p1353
aS'No need for the p*** part'
p1354
aS'Gay'
p1355
aS'Slug - da best'
p1356
aS'Brainy: i wanna join! Me: ummm who arr you? Both of us: your so cool man!'
p1357
aS'my favorite is a worm on dry land :D'
p1358
aS'pussy girl'
p1359
aS'OMG!!! THE SLUG!!!!! teach me the ways...,.'
p1360
aS'are u a virgin '
p1361
aS'LMAO the Slug!!! '
p1362
aS"lol ryan's ass looks so good when hes doing the slug ."
p1363
aS'I love watching nigahiga'
p1364
aS'Where was the "TEEHEE"?! '
p1365
aS'i could do the no hand hand stand sleeping!'
p1366
aS'hey ryan,im pretty good at top raving so....will i be able to join ur crew ?'
p1367
aS'wat... '
p1368
aS'Where is the TEHE?'
p1369
aS'where can i sign up'
p1370
aS'where is that dance place'
p1371
aS'Lol,,'
p1372
aS'The turtle <3 '
p1373
aS' we will tech you to dance like A PUSSY '
p1374
aS'I actually, literally and physically laughed Out Loud!!!'
p1375
aS'My cat died'
p1376
aS'Can anyone find the grammar error at 1:48'
p1377
aS'i cant do no hand handstand only one hand hand stand'
p1378
aS'I wanna join'
p1379
aS'and you hot '
p1380
aS'I could join!!!'
p1381
aS'kitty! 0:39'
p1382
aS'He forgot the TEHEE!'
p1383
aS'so where do i sign up?'
p1384
aS'U forgot the Teehee'
p1385
aS'The slug.. ^^ lol'
p1386
aS'Wait... No Teehee? I feel so Empty...'
p1387
aS'Turtle!! Hahaha!'
p1388
aS'i can do the no-handstand with 2 hands and broken knees'
p1389
aS"Do a video for it. I don't belive you"
p1390
aS'Stop yourself.'
p1391
aS'@RisaFirePrincess me too...haha'
p1392
aS"The dance ' A Worm On Dry Land '. Was the 'best'"
p1393
aS'Bumblebee Extreme Step Team! Lol'
p1394
aS'garageband LOL'
p1395
aS'camel toes again.'
p1396
aS'Hey Ryan, TAKE ME WITH YOU!!! PUT ME IN TO YOUR DANCE CREW!! Lol'
p1397
aS'yr good!'
p1398
aS'*Your'
p1399
aS'lol'
p1400
aS'Oh a shotgun slug i could use one'
p1401
aS'TEEHEE ? '
p1402
aS'ryans dance was way better'
p1403
aS"That was fantastic content. I found this because my mate became a \nlady-magnet - and he's overweight He began getting chicks magically. I was \nastonished. He acted as if it was normal for quite a while. Then he told me \nwhen he was wasted on Tequila. He mentioned he learned from the Jake Ayres \nMaster Attraction Formula. Google it if you wish to learn about it... He is \non a date today with a beautiful girl... Lucky fucker! "
p1404
aS'i want to join '
p1405
aS'You buff'
p1406
aS"the turtle!!! it's so much like my tortoise hahahaha"
p1407
aS'LOL '
p1408
aS'Dear Ryan, do you like unicorns ? :3'
p1409
aS'Dear Ryan, Can you be a dancer'
p1410
aS'I CANT DO THE NO-HAND STAND!!!'
p1411
aS'i love the way he says "HELLA EPIC DANCE CREW" ... idk y... i just do'
p1412
aS"After being on youtube for 2 years now, I know how much hate people can \ngive to me when reading these kinds of comments but mabye someone may be \nnicer. My dream is to be an actor and i like to perform, but i cant get in \nperforming school, and i just got 579 subs, which is pretty impressive to \nme, but I'll never get noticed with these numbers. If someone would have \nthe heart just to give this a thumbs up and spend all of 30 seconds \nwatching a vid, it would mean the world. Thank you all"
p1413
aS'I got moves too.....look me up'
p1414
aS'Clever, clever XD'
p1415
aS'I love you.'
p1416
aS'omg ur ending is fucking funny!!!! can i spread this through out my school? \n:)'
p1417
aS'the sluuuug'
p1418
aS'song at 0:11 ...Ritmo de Noche - Alberto Garc\xc3\xada L\xc3\xb3pez'
p1419
aS'where is the TEEHEE !? '
p1420
aS'the turtle... THE AWKWARD TURTLE FROM WONG FU PRODUCTIONSS!!!! :D'
p1421
aS'The turtle and the slug xD '
p1422
aS'the turtle haha '
p1423
aS'FUNNY STUFF!!'
p1424
aS'Where is the teehee./:'
p1425
aS'8,000 bucks a week lol'
p1426
aS':o the slug is the best move EVER XD'
p1427
aS'The ending is epic :D'
p1428
aS'Lol the turtle!'
p1429
aS'dtrix made a same video didnt he?'
p1430
aS'The end cracked me up!!!!!! Ahahahaha!!!!! Ryan: PEACE. *thumps chest* ow!'
p1431
aS'Quest crew.. I miss you guys (D-trix, Ryan, Victor, Hawk others... ): ...'
p1432
aS'lol '
p1433
aS'You sir, you rock'
p1434
aS'Dear Ryan can you do a video where you show of your true dancing abilities?'
p1435
aS'The slug!!!! Favorite part'
p1436
aS'it came out like 3 months ago!!'
p1437
aS'LOL Worm in dry land xD'
p1438
aS'dude I love his dancing!'
p1439
aS'Maybe I can be apart of ....BEST CREW'
p1440
aS'not hating but i culd use his head as a mop on my floor lol..... jk badass \nmove tho '
p1441
aS'The slug looked SO RONG!!!!!!!!!!!!!'
p1442
aS'Man that guys a pro.'
p1443
aS'WOW RYAN IS A PERFECT DANCER'
p1444
aS'One does not simply watch just one nigahiga video.'
p1445
aS'XDD Worm on dry land'
p1446
aS'Wow and I thought Dtrix was better'
p1447
aS'Ryan Y U No TeeHee?!?!'
p1448
aS'Haha his shirt says play er'
p1449
aS'Lol'
p1450
aS'Where is the tehee!!'
p1451
aS'.30 cute hahahhaha lol'
p1452
aS'I like wen he hit his chest at the end'
p1453
aS'you speak japanese?'
p1454
aS'Omg the turtle is hilarious'
p1455
aS'Look'
p1456
aS'Wish I could dance like Victor Kim'
p1457
aS'Awsome!!!! '
p1458
aS'OMG The Turtle hahahahaha '
p1459
aS'@TheZypher47 darkhammers? It that the same shit is jackhammers?'
p1460
aS"The Turtle :)) I'm gonna do that in my Spring Dance for sure :))"
p1461
aS"I'LL JOIN!!!... without paying $8,000 a week "
p1462
aS'like.a.gay:!!!!!!! :p '
p1463
aS'Leave a video response of *YOUR* dance move! Love you Ryan, but fix your \ngrammar ;)'
p1464
aS'No teehee? '
p1465
aS"So when's the next Best Crew video?"
p1466
aS"It's Victor King I tot???"
p1467
aS'hey ryan i dance just like you'
p1468
aS'i know right. i was just stood up thinking how im even going to attempt it.'
p1469
aS'TO DANCE LIKE A PUSSY - cat.'
p1470
aS'the no hand stand!! i rock at that!!!!!!!!!!!!'
p1471
aS'haha'
p1472
aS"The Slug I'am gonna do it in our Dance Night. "
p1473
aS'lmfao dude ur so funny.... and cute!'
p1474
aS'lol i wanna be in best-crew! :DD'
p1475
aS'OMG YOUR CAT IS MY DREAM CAT :3'
p1476
aS'I can do the real turtle..'
p1477
aS'Great handstand!'
p1478
aS'That Cat is so cute and fluffy! :) '
p1479
aS"Ugggg two years and I still can't do the worm on dry land!!!"
p1480
aS'No teehee?!?!'
p1481
aS'!!!!! CATTTTTTTTTT!!!!'
p1482
aS'like worm on dry land haha xx'
p1483
aS'The best damce.move was the jump at :30'
p1484
aS"I'm bein honest I've tried to do the turtle Nd its hard !!!!!"
p1485
aS'lol i like it wow'
p1486
aS'It\'s so hard to do the "The No-Hand Stand"'
p1487
aS"BBOY !!! :) my brother's a bboy"
p1488
aS'1:49 Your*'
p1489
aS'the turtle was killing me!! XD'
p1490
aS'no TEEHEE in the end :))?'
p1491
aS'The turtle I hard to do.'
p1492
aS'His handstands actually pretty good XD'
p1493
aS'Scams? YEAH!'
p1494
aS'Hnice'
p1495
aS'LOL'
p1496
aS'TeeHee'
p1497
aS'no tehe?'
p1498
aS'I thought victor was ryan.'
p1499
aS'haha. no respnses. '
p1500
aS'I can do the handstand and backward roll'
p1501
aS'2:06 Hahahahahaha xD'
p1502
aS'I can do the third kind of dance and the slug. I can also do the porky, \nporkys are turkeys and ponies mixed together and the sound like a a turkey \nand ind witha horse noise'
p1503
aS'Dude u r soooo funny! I love u soooo much ur videos just make my day! :)'
p1504
aS'LOL'
p1505
aS'Nice'
p1506
aS'i like it so much you rock'
p1507
aS'I can probalby dance as good as the third scene 0:08'
p1508
aS'awww kitty soo big and cute! '
p1509
aS'NO TEEHEE?! '
p1510
aS'1:06 WTF?'
p1511
aS'I c a n d o t h e m o o n w a l k !'
p1512
aS'you forgot TEEHEE'
p1513
aS'i can do the no hand stand'
p1514
aS'Lol raves dance place for kids who can dance bad-ass like! Lmao'
p1515
aS'Capoeira...'
p1516
aS'Imagine worm on dry land in ABDC'
p1517
aS'I need to know how to do the turtle'
p1518
aS'What No Teehee? '
p1519
aS'there was no TEEHEE??'
p1520
aS'xD i was laughing my butt off when I saw the slug ^ ~ ^ hehe'
p1521
aS'Moonwalk is my fav haha'
p1522
aS'lmbo'
p1523
aS'WTF Victor can dance, sing, act, play about a million instruments..... i \nfeel so untalented'
p1524
aS'0:55-0:57 I thought he was doing it lol'
p1525
aS'worm on dry land OMG.:-):-):-)'
p1526
aS' No no not at all.........kinda'
p1527
aS'omh HAHHAHAH <33'
p1528
aS"You need to stop swearing in your videos. Swearing doesn't make your videos \ncooler"
p1529
aS'Holly crab I love your dance!!!'
p1530
aS'no teehee'
p1531
aS'Yall should do a flash mob!!!'
p1532
aS'Love it'
p1533
aS'i like the dance on 00:28'
p1534
aS'LFMAO 1:07'
p1535
aS"is it bad that i memorized ryan's dance?"
p1536
aS'the slug THATJUSTBLEWMYMIND i never thought of that! shame on me'
p1537
aS'Can you fly '
p1538
aS'I only can handstand and one handstand'
p1539
aS'The TURTLE is the best dnac emove of all!'
p1540
aS'No TEEHEE?'
p1541
aS'SOng? '
p1542
aS'for me it is the worm on dry land '
p1543
aS"@RitaPortugirl It isn't a song, its a short beat. Go to garage band, choose \nloops, and search Acoustic Noodling."
p1544
aS'hmm .... TEEHEEEEEEEE '
p1545
aS'Your* dance move, sorry i had to correct that'
p1546
aS'love it '
p1547
aS'What about the TEE HEE'
p1548
aS'who the guy tha break dance in the begaining'
p1549
aS'The moonwalk is easy...'
p1550
aS'Oh my God I want learn the turtle dance'
p1551
aS'@:03'
p1552
aS'WOW!! u r a good dancer ryan... :D'
p1553
aS'So Fun'
p1554
aS'NO TEEHEE'
p1555
aS'worm on dry land. LOL'
p1556
aS"i cn do darkhammers, n crickets :) but i kno, no one gives a fuck -.-'"
p1557
aS'NO TEEHEE!!!!!!!!!!!!!!!!!!!!!!!!!'
p1558
aS'hahahaha worm on dry lawnd hahahaha'
p1559
aS'lol i think he meant to do that XD'
p1560
aS'i need the teehee '
p1561
aS'i have a cat that looks just like that, her name is Lucy'
p1562
aS'Your awesome'
p1563
aS'lol'
p1564
aS'LMAO'
p1565
aS"he actually didnt do any of those beginning bboy set's victor king did it "
p1566
aS'did someone realized Ryan used the wrong "your"?'
p1567
aS'seriously who is the owner of that cat?! so cuteeee'
p1568
aS"fcuk, why would i wanna learn that basic stuff but it's funny tho ."
p1569
aS'a worm on dry land is the best :D'
p1570
aS"$ 8,000 a week I'm in :)"
p1571
aS'You crack me up'
p1572
aS"The whale. I can't even. So perfect."
p1573
aS'Lol the worm on dry land made my stomach hurt'
p1574
aS"um...whoever spammed this....maybe u should have looked at their videos \nfirst...cause they're real....they just want to be more known & posting it \non one of the most FAMOUS you tuber will attract more attention although... \nthey're not the best....still.. "
p1575
aS'awsome'
p1576
aS'I c-walk, checkout my channel :)'
p1577
aS'Haha lmao ur so great hah lols'
p1578
aS'the no hand -stand !! '
p1579
aS'Lol'
p1580
aS'my classmate can do all of those moves and my classmate is kinda the \nyonguest in the class'
p1581
aS'lol!!!'
p1582
aS'Dear ryan can u be a black ops zombie'
p1583
aS'0:50 his face XD'
p1584
aS'PIECE!... uaahh XD'
p1585
aS'Dear ryan can u do a free run? '
p1586
aS'B.E.S.T.'
p1587
aS'xD'
p1588
aS"WHERE'S THE TEE HEE"
p1589
aS'they are probably little kids who dont know what a spam is :D'
p1590
aS'And I thought smosh was funny!!'
p1591
aS'I\'m going to go to the public today and perform "The worm on dry land" \ndance in front of everyone'
p1592
aS"Where's my favourite TEEHEE ?!? XD"
p1593
aS'aww he forgot to say teehee at the end'
p1594
aS'the dry worm was awesome! I tried but i failed. Until I realized my dog was \nlaying on me so it counted as 8kg more.'
p1595
aS'the worm on dry land da best!!!!!!!!!!!!!!!!lmao'
p1596
aS'slug xD '
p1597
aS'your!'
p1598
aS'i can allmost do an areal (no handed cartwheel but not like his no handed \nhand stand a sideways flip)'
p1599
aS'Dear Ryan, can you get your crew on ABDC?'
p1600
aS'Pussy cat'
p1601
aS'Wow u are very talented!!!! But 8000 a week ur hilarious :P By the way I \nlike ur moonwalk and no hand stand'
p1602
aS'make a vid of u guys being cats of "how to be a cat" X3i thought the slug \nwas the caterpillar..'
p1603
aS'HILARIOUS!!'
p1604
aS'best dance video from youtube :D p.s.: i love the turtle ;)'
p1605
aS'I can SOO dance bad ass'
p1606
aS"1:48 you made a mistake you're is suppost to be your lol "
p1607
aS'no teehee!'
p1608
aS'No TEEHEE :('
p1609
aS'Hahaha the turtle'
p1610
aS'Love you Ryan!'
p1611
aS'Lol'
p1612
aS'THUMBS UP IF HE GOT YA AT THE MOONWALK'
p1613
aS'mannnn I LOVEEEE YAAA! marry me! xD'
p1614
aS'I dance like Ryan :D'
p1615
aS'i love nigahiga '
p1616
aS"Noo there's no TEEHEE"
p1617
aS'i think 0:29 is the best.'
p1618
aS'kthis is so funnyy'
p1619
aS'Dear Ryan,'
p1620
aS'i can dance like that '
p1621
aS'Victor Kim is a beast.'
p1622
aS'A Worm on Dry Land XD'
p1623
aS'No TEEHEE?'
p1624
aS'I\'m expert in "A worm on dryland". '
p1625
aS'1:47 your*'
p1626
aS'HAHAHHA'
p1627
aS'TEEHEE '
p1628
aS'He didnt do teehee >:l '
p1629
aS'a worm on dry land xD'
p1630
aS'why are Asians the best dancers??'
p1631
aS'best moment even "0:54 - 1:04" :D:D'
p1632
aS'Teehee?'
p1633
aS'Bad dancer'
p1634
aS"Imeant dear Ryan can you 'PLEASE' do the gangman style.? ^__^"
p1635
aS'0:49 Thats SO FUCKING HARD TO BALENCE ON, I hit my head when i just stand \non it'
p1636
aS"where is rave's cause i suck at dancing"
p1637
aS'Turtle example at 1:41'
p1638
aS'gasp! no TEEHEE!! '
p1639
aS'i think the best move is the slug THE BEST!! '
p1640
aS'What is that song?! Bob'
p1641
aS'The Turtle xD'
p1642
aS'a worm on dry land xD'
p1643
aS'dear ryan, do u know how to dance '
p1644
aS'TEEHEE! now there is a teehee '
p1645
aS'THE TURTLE WAS FROM SPONGEBOB WHEN THEY WERE DOING DANCE AUDITIONS :D'
p1646
aS'The turtle and the worm on dry land are my fav... and O.o hand stand is \nimpressive... :P...Victor Kim is amazing !! '
p1647
aS'kk cool cool'
p1648
aS'this is a serious video'
p1649
aS'this is fucking grea.'
p1650
aS'no '
p1651
aS'I FORGOT THE SLUG!!!! NOOOOOOOOOOOOOO!!!!'
p1652
aS'LOL browsing from your old videos! STILL AWESOME DUDE!!!'
p1653
aS'hey where is teehee'
p1654
aS'wheres the sprinkler but more important wheres the TEEHEE??'
p1655
aS'I know how to dubstep (a little)'
p1656
aS'i wanna learn the worm on dry land *_*'
p1657
aS'i thought the cameltoe was a gangster pose'
p1658
aS'Where the fuck i TeeHee?!?!'
p1659
aS'Best crew dancing is my style of dancing :P'
p1660
aS'hand stand :)'
p1661
aS'he did this for fun dumbass'
p1662
aS'lol this is FUNNY'
p1663
aS'wow you are bumblebee extreme step team crew kim! '
p1664
aS'Gotta love the ending c:'
p1665
aS'ryan i want your pussy..cat!! pleeeeeease ^_^ '
p1666
aS'Gangnam Style!!!!!!!!!!!!!!!'
p1667
aS'0:40 kitty!'
p1668
aS'Hahaha the worm on dry land!'
p1669
aS'Dear Ryan,Can you do gangnam style?'
p1670
aS'That cat is freaking ADORABLE'
p1671
aS'seriously.......T_T '
p1672
aS'go rave!!!!!'
p1673
aS'pause at 0:31 XDDD'
p1674
aS'I would love to be part of the BEST CREW xD'
p1675
aS'Omg i did belive that the moonwalks was real i was like whaaaat when i \ndidnt saw that he used his hands ;PP'
p1676
aS'i could do the seizure'
p1677
aS'"you\'re best move"? YGS!'
p1678
aS'Poop. I just said that cuz I wanted to but the video was funny.'
p1679
aS'lol whale on land xDD'
p1680
aS"I'M A SICK DANCER !!!!!!!"
p1681
aS"that was the funniest thing i've ever seen !! i swear !! plus, 'm from \nFrance, and i can understand everything you say which is really good !! so \nkeep going, make us laugh!!! "
p1682
aS'Ryan, want to join my team, it is called the helicopter crew and you will \nlearn how to do the helicopter'
p1683
aS'dear ryan, can you do gangnamstyle like PSY? '
p1684
aS'the moves you did that i like was the turtle and the moon walk lol \n8,00000000000!!!'
p1685
aS'Dear Ryan, Can you introduce us to your cat?'
p1686
aS'U should do the Gang Nam Style on the Best Crew. That is what will actually \nmake u the best of the best'
p1687
aS'And you suck dick.'
p1688
aS'TEEHEE!!! suck officialness'
p1689
aS'mauhahaa!! '
p1690
aS'He forgot his Teehee D:'
p1691
aS'dear ryan, can you make a song'
p1692
aS'And that is why i cant break dance...'
p1693
aS'No teehee?'
p1694
aS'you should stop your dancing carear '
p1695
aS'Damitt rayan you awesooooom'
p1696
aS'No, i should do it... TEEHEE!'
p1697
aS'Teehee'
p1698
aS'I want to Sigh up'
p1699
aS'Tandraya ohhh baby cooloo kevirta ver kalakamumy saiy untyeskin unanyo seei \nmenyour ver!!!'
p1700
aS'TEEHEE????'
p1701
aS'The turtle and worm on dry land...lolxD'
p1702
aS'Whale x)!!!'
p1703
aS'LMAO!'
p1704
aS'no TEEHEE '
p1705
aS'A worm on dry land !!!!!'
p1706
aS'teehee?'
p1707
aS'why are we called the best crew? uh duh Bumblebee extreme step team!'
p1708
aS'The slug !!'
p1709
aS'Yeaa , BBOY!!'
p1710
aS'hey where the teehee'
p1711
aS'worm on dry land.......'
p1712
aS'why are u sweating when u barely.. okay nevermind'
p1713
aS"I'll be in you dance crew,just call me at 555-nerds-go-crazy"
p1714
aS'what no teehee???? wut kinda messed up world IS this'
p1715
aS'i wacth all of ur vids and i check evryday for a viiiiddddd!!!!!!!!! '
p1716
aS'go watch "Why Selena Broke Up With Justin " by nigahiga'
p1717
aS'i really whant to join your dance crew i will make a video of me danceing '
p1718
aS'AHAHAHAHAH 0:27'
p1719
aS'victor king is dancing the first'
p1720
aS'OMFG LMFAO THE TURTLE '
p1721
aS'This was very stupid & thought it was real i guess this was like a joke. \nYou fooled me on the moonwalk & thought he really did it with his feet nice \none lol'
p1722
aS'Ryan looks like Jin Kazama :3'
p1723
aS'there was no ,.. "TEEHEE" en th end ,.. '
p1724
aS'Love the turtle!'
p1725
aS'Haha love the vid!'
p1726
aS'I should join!! Lolz!!'
p1727
aS'I don\'t mean to be a grammar freak. But 1:48, it should be "your dance \nmove" instead of "you\'re dance move". THIS REALLY BOTHERS ME.'
p1728
aS'omg i love the guy with the red highlights super sexy<3'
p1729
aS'4,153 people are jealous of their dance moves. .____.'
p1730
aS'a worm in dry land make lol so hard.'
p1731
aS'i thought him that PEACE oww....'
p1732
aS'victor king! '
p1733
aS'Haha love the vid!'
p1734
aS'i love to dance and what happed to the teehee'
p1735
aS'y didnt u use ur friend who is the dude on ABDC, you know, the judge'
p1736
aS'1:09 <3 '
p1737
aS'whale was the best XD'
p1738
aS'lol stop it XD you made me laughed too much XD'
p1739
aS'i want the white cat at @0.40 !'
p1740
aS'Whats with the Worm on dry land? Its so hilarious.'
p1741
aS'I love quest crew!!!!!!!!'
p1742
aS'0:15 Epic Headslide !'
p1743
aS'Ryan has cooler moves. =))))'
p1744
aS'dear ryan die '
p1745
aS'joining this dance crew'
p1746
aS'this video is 3 years old already..? wow i feel old..'
p1747
aS'Funny!!!!!!!'
p1748
aS"hi can i say that nobody really reads these things. even i didn't, i just \nskipped straight ahead to reply to you. anyway what i'm saying is maybe u \nshould just try commenting funny things for top comment so people might \njust check out ur channel. and just keep posting videos! even if only like \nthree people watch them cuz when Ryan started out nobody watched him \nREMEMBER?? and he didnt go around spamming everywhere.. ok not trying to be \nmean. i'm just saying."
p1749
aS'Wow best dance crew ever!:)'
p1750
aS'"Worm on dry land" & "Slug" almost killed me....super LOL'
p1751
aS'Woah'
p1752
aS'Lol!'
p1753
aS'i want to learn the slug'
p1754
aS"HE DIDN'T SAY TEEHEE!!!"
p1755
aS'Hahahahahahahahahahahahahahahahahahahahahahahahahahahahahahahahahahahahahahahahahahahahajahahahahahahahahaahahahahahahahahahahahahaa'
p1756
aS'The cartwheel,no handstand,one handstand fail,and the cameltoe fails made \nme laugh and slug killed it awesome work. Ryan team Ryan all the way'
p1757
aS'I can do the dance moves at the end and im a girl'
p1758
aS'PEACE! ow '
p1759
aS'*your'
p1760
aS'a worm on dry land'
p1761
aS'if i was a turtle i can do better than that dance only slowly'
p1762
aS'GANGNAM STYLE :D'
p1763
aS'having a nigahiga marathon ^_^'
p1764
aS'woah man, woah.'
p1765
aS"no teehee? :'("
p1766
aS'I want to do the handstand :O'
p1767
aS'the slug looks pretty hard'
p1768
aS'A Worm on Dry Land, i think i can do that .. LOL'
p1769
aS'The whale the worm or worm on dry land XD'
p1770
aS'i taught u how to spell taught'
p1771
aS'THE SLUG'
p1772
aS'I loled so bad when he did the turtle.'
p1773
aS'I swear the slug made me laugh so hard'
p1774
aS'Teach me... The turtle.'
p1775
aS'i will make it on the crew i will make a video of me danceing for you '
p1776
aS'Dang victor got moves'
p1777
aS'no teehee in this video :o'
p1778
aS'No Teehee?!?!?!'
p1779
aS'OMFG WHERES THE TEEHEE?!?!?'
p1780
aS'sometimes im rubbing myself with vaseline then i can slide on the ground \nlike a slug...'
p1781
aS"and we'll teach you to dance like a pussy... cat"
p1782
aS"where's the teehee"
p1783
aS'no teehee'
p1784
aS'lol'
p1785
aS'I like the gangnom stile moves'
p1786
aS'Psh I could do what Victor did at 1:55 in my sleep'
p1787
aS'Lol! A worm.on dry land is the best ever dance step! XD'
p1788
aS'LOOL XDDD'
p1789
aS'lmfao the cameltoe!!!!!!'
p1790
aS'shave ur fkng under arms man!! disgusting!!! ewwwww!! '
p1791
aS'where is the teehee '
p1792
aS'Bumblebee Extreme Step Team!'
p1793
aS'The spongebob'
p1794
aS'no teehee?'
p1795
aS'The end looooool "aahhh"'
p1796
aS'the turtle, lol'
p1797
aS'PEASE oww'
p1798
aS'Was there a Teehee?'
p1799
aS'No Teehee? :('
p1800
aS'dear ryan can you be an cos player? '
p1801
aS'Hello everyone, I know that no one likes spam but please check out my \nchannel everyone! Me and my friends have worked so hard to get everything \ntogether, and its starting to not be worth it. It is our absolute dream to \nbecome a youtube star! So please check out our channel, and even if you \ndont want to subscribe, tell friends about us, just take a minute to at \nleast give us a chance to make our dreams happen and so we can grow our \nchannel! Thanks everyone, have a good one!'
p1802
aS'you are amazzzzzing!!!!!!!!!!!! <3'
p1803
aS'*whispers* $8,000 a week'
p1804
aS'The turtle . . . . hahahah '
p1805
aS'The Camel toe is my favorite!!!!'
p1806
aS'i can do the worm on dry land ... can i still join ??? :p'
p1807
aS'you forgot the TEEHEE :o :('
p1808
aS'Nice player shirt. '
p1809
aS'GO TURTLE!!!!!!!!!!!!!! :)'
p1810
aS'@andy rice'
p1811
aS'WHERES THE TEHEE!!??'
p1812
aS"NO TEEHEE!! NOW I'M MISERABLE !!! I NEED TEEHEE !!"
p1813
aS'PEACE uhhhh'
p1814
aS'The whale always makes me laugh for some reason! XD'
p1815
aS'piece awwuwww!!!!!!!!!!'
p1816
aS'its toast'
p1817
aS'asians got talent man'
p1818
aS'What is the name of the song when they dance?? thx'
p1819
aS'i taught him that '
p1820
aS'im asian'
p1821
aS'LOOL THE TURTLE ONE '
p1822
aS'you are soo funny!!! <3 <3 ^^ i wanna dance like that guy'
p1823
aS'Poetato crew.'
p1824
aS'very funny '
p1825
aS'a worm in dry land,,,HAHAHAHAHAHAH'
p1826
aS'jajajajajajajajajajajajajajajajajajajajajajajajajajajajaj'
p1827
aS'Leave a video response of you are best moves? Come on Ryan, I thought you \nwent to college. Your mom goes to college.'
p1828
aS'huh '
p1829
aS'teehee... TEEEEHHEEEEEEE???????? \nMNEWJUHFLBHJGCeksacfgm,zbj,v9hgerbfcjugvbfrjhbvgjrehbkhfc'
p1830
aS'Your*... Seriously this is great, though. '
p1831
aS'worm on dry land . hahahahaha'
p1832
aS'1:27 called cockroach dance ryan '
p1833
aS"I have been greeting my dance partner with that B-E-S-T move for 2 years \nnow. He hates it, but it's awesome."
p1834
aS'The Slug is the BEST !!'
p1835
aS"i can dance like victor but not sure about ryan's dance moves ryan's moves \nare pretty freaking epic"
p1836
aS'whats the song or theme at the beginning with the guitar '
p1837
aS'LMAO'
p1838
aS'man the turtle is so badass... :)'
p1839
aS'The whale. '
p1840
aS"He's a good dancer"
p1841
aS'I died at the turtle lol XD'
p1842
aS'anyone notice that the dancing background music is acoustic noodling 2 on \ngarage band?'
p1843
aS'Ryan, You have a really nice ass! xD'
p1844
aS'He was dancing pretty good though.'
p1845
aS'a worm on dry land !!! Ahaha !! i cant stop laughing !! XD LOL'
p1846
aS'HI HIGA , YOU HAVE FIGHT WITH HULK ? '
p1847
aS'awww the cats so sweet =)'
p1848
aS'ha lmao i didnt know my comment had 28 likes >.>'
p1849
aS"... dance like this ? *badass break dancer* or like this ? *badass break \ndancer again* or like this ? *ryan's dance* I was literaly dying on the \nfloor"
p1850
aS'WHERES THE TEEHEE'
p1851
aS'Lawls'
p1852
aS'TEHEE Eh? '
p1853
aS'And who can forget the slug-_-'
p1854
aS'victor king '
p1855
aS'"OOH! I taught him that!"'
p1856
aS'I think I died after seeing the dry worm on land move'
p1857
aS'Victor and Ryan <3'
p1858
aS'1:28 dat ass'
p1859
aS'i LOL so hard'
p1860
aS'a worm on dry land and the camel toe were the best xD'
p1861
aS"U don't have bad ass dance moves"
p1862
aS'ME.NEED.TEEHEE!!!!!!!!'
p1863
aS'I can windmill'
p1864
aS'The slug..lmao I love it!!!(x'
p1865
aS'And yet you choose Kevjumba....'
p1866
aS'What is the name of the song at the end ?'
p1867
aS'The camel toe lololol XD'
p1868
aS'all your videos are soo funny I like the moon walk Kevin Jumba is awesome \ntoo! '
p1869
aS'i mastered every thing but the turtle!!!!!!! DX its true he is a master at \ndance! XD'
p1870
aS'no teehee? NO TEEHEE? NO FREAKIN TEEHEE?! WHAT IS THIS?!?!'
p1871
aS"oh ryan, you're very funny but 'you're best dance moves' means 'you are \nbest dance moves' :/"
p1872
aS'worm on dry land...life=complete'
p1873
aS'whats BEST stand for?'
p1874
aS'Me need TEEHEE!! '
p1875
aS'dude relax he must have forgotten..................after all he has a crew \nnow '
p1876
aS'peace ow lol'
p1877
aS'i love your turtlee move.! (/.\\) '
p1878
aS'the turtle move!!! I LIKE THAT'
p1879
aS'0:51 Did anyone notice the chair was tied to something? (ORANGE ROPE) '
p1880
aS'freeze! '
p1881
aS'haha'
p1882
aS'daer ryan can you mine'
p1883
aS'OMFG HAHAHHA'
p1884
aS'I remembered when I search for Breakdancing crew 2 year ago and found \nthis.And I thought it was a real thing.'
p1885
aS'I wanna learn how to do the Worm On Dry Land'
p1886
aS'the turtle :DDDDD'
p1887
aS'I like your moves.'
p1888
aS'Bumblebee extreme step team'
p1889
aS'The No handstand xDDDD'
p1890
aS'0:26 is the best dancing moves ever'
p1891
aS'aw man this still makes me fall on the floor '
p1892
aS'He forgot the "teehee" lool'
p1893
aS'Awesome head slide <3'
p1894
aS'lol i laughed so loud when he did that worm on dry land!!!'
p1895
aS'My fav is a worm in dry land'
p1896
aS'Hahah the moon walk'
p1897
aS'Was still waiting for the moment where he corrects that "you\'re" into \n"your".'
p1898
aS"Where's raves"
p1899
aS'PEACE AHH'
p1900
aS'I LOVE the cameltoe'
p1901
aS'O:'
p1902
aS"1:48 There is a spell mistake!! It says ''You're'' when it's supposed to \nsay ''Your''!!"
p1903
aS'1:37 STEP TEAM?!?! your cool bro.'
p1904
aS'wat about plank?'
p1905
aS'Ryan is so tanned here.'
p1906
aS'Me and my lil bro laghft r freken heads off'
p1907
aS'Hahahh you make me laugh :P'
p1908
aS"What's the song played when victor Kim is bboying?"
p1909
aS'Lol u u r too funny! :-)'
p1910
aS'i like the end! lol.'
p1911
aS'i can dance nr.3 like a badass :D '
p1912
aS'i Can Do .. THE NO HANDSTAND!'
p1913
aS'ajajajajajajajja la tortuga'
p1914
aS'dear ryan can u be a gay ninja'
p1915
aS'Best video on youtube'
p1916
aS'i sleep in the slug posititon'
p1917
aS'freeze, 6-step, and swipe'
p1918
aS'Your comment makes no sense... -__-'
p1919
aS'Woah.. I CAN JOIN YOUR CREW.. I DANCE LIKE THAT 0:26'
p1920
aS'the turtle one was the best . omg i love you xD'
p1921
aS'ryan well once again LOL HAHAHAHAHAHAHAHHAHAHAHAHAHAHA '
p1922
aS'i knew something was off in the moon walk hahaha'
p1923
aS'1:48 *Your.'
p1924
aS'I know that thats Victor but its nu ryan you bitch '
p1925
aS'Peace! *Aauhh'
p1926
aS'The TURTLE! '
p1927
aS"It takes getting used to though. You'll get the hang of it."
p1928
aS'i <3 u ! ahahaha ^_^ i cant stop laughing ^_^ thank you sooo much!!'
p1929
aS'bravo, bravo very funny'
p1930
aS"ryan wrote you're instead of your at the end .. fuck"
p1931
aS'the turtle and the slug lmao!!!!@! '
p1932
aS'wats the beat called, when victor kim starts dancing/'
p1933
aS'lol the worm on dry land was funny'
p1934
aS'I wish I could dance like Victor but I suck at every move.'
p1935
aS'Dat epic head slide'
p1936
aS'ROFL'
p1937
aS'Your *'
p1938
aS'Worm on dry land XD'
p1939
aS'Epic funny as hell and nice dance moves lol'
p1940
aS'0:14 Thats not you. 0:24 Thats you.'
p1941
aS"I'm a leader not a follower unless it's dark but fucking shit you go in \nfirst"
p1942
aS'hell no..xDD'
p1943
aS'xD'
p1944
aS'NO TEEHEE???'
p1945
aS'i dont think so.. xD '
p1946
aS'"THe no hand stand." LMAO'
p1947
aS'Cat'
p1948
aS'The No Handstand! hella funny :-)'
p1949
aS'My favorite was the moonwalk xD LMFAO'
p1950
aS'@Hendra Maryanto sup'
p1951
aS'I can dance like the third dance..'
p1952
aS'the turtle was too epic.'
p1953
aS'he sucks at danceing '
p1954
aS'*dancing'
p1955
aS'O__o he forgot the teehee :('
p1956
aS'No teehee'
p1957
aS'the turtle lol'
p1958
aS'Ther is one move...only an expert can pull off...(suspence)...its calld \nthe......fap'
p1959
aS'Cute cat'
p1960
aS'DID HE JUST SWEAR!'
p1961
aS'dear ryan, will you be Jenna Marbles?'
p1962
aS'lol i luv da : ow. at the end'
p1963
aS'How can he possibly do the turtle!'
p1964
aS'A worm on dry land xD'
p1965
aS'NO TEEHEE'
p1966
aS'Pause 00:40 cute cat'
p1967
aS'i fell for the moonwalk... I can dance like a pussy. Cat'
p1968
aS"I couldn't stop laughing!!! Haha!!! bumblebee extreme step team!!! Love \nit!!!"
p1969
aS'Um I can do the bAby freeze,moonwalk and cartwheel and ima girl c:'
p1970
aS'can you make a cat dance?!'
p1971
aS'YEAH NO SHIT. THATS THE POINT.'
p1972
aS'WHAT\xef\xbc\x81\xef\xbc\x81\xef\xbc\x81\xef\xbc\x81'
p1973
aS'Disco'
p1974
aS'Lol the turtle x]'
p1975
aS'funny as shit'
p1976
aS'FOR THE SIMPLE PAYMENT OF (8.000$ a week)'
p1977
aS'2:05 is pretty funny also Peace oh!'
p1978
aS'I like the turtle.'
p1979
aS'Not cool cool dude'
p1980
aS'I wish I saw this vid when it came out!! I was 30 lbs lighter and would \nhave killed to meet you. XD'
p1981
aS'What no TEEHEE? Noooooooooooooooooooooooooooooooo! Huh ive liked anyway'
p1982
aS'whats the name of the song that they are dancing to? '
p1983
aS'This Dance is called top raving LOL'
p1984
aS'I was sold on the turtle'
p1985
aS'you are super sexy '
p1986
aS'I LOVE THE CAT AT 0:40 '
p1987
aS'whats the tune/song at 00:13? '
p1988
aS'@Funnypant'
p1989
aS'Zulender... :D'
p1990
aS'Did anyone else notice that the handstand was actually legit? '
p1991
aS'Omg camletope hahahaha'
p1992
aS"XDDDD' "
p1993
aS'PEECE! OWW =('
p1994
aS'The No-Handstand best ever ^^XD'
p1995
aS'luckyyyy!'
p1996
aS'Dear Ryan can you act like shelly caboomba'
p1997
aS'The turtle'
p1998
asS'time'
p1999
ctime
struct_time
p2000
((I2010
I2
I1
I6
I42
I53
I0
I32
I-1
t(dtRp2001
sS'id'
p2002
VgCu-6OH35a8
p2003
s.