(dp1
S'title'
p2
VMovies In Minutes - Twilight
p3
sS'url'
p4
Vhttp://www.youtube.com/watch?v=goix7jFXD9Q&feature=youtube_gdata_player
p5
sS'image'
p6
Vhttp://i.ytimg.com/vi/goix7jFXD9Q/0.jpg
p7
sS'comments'
p8
(lp9
S'like if your watching in 2014\xef\xbb\xbf'
p10
aS'I wish ryan and tarynn were still together :( they were such an adorable \ncouple!\xef\xbb\xbf'
p11
aS'I died at the baseball part with sean\xef\xbb\xbf'
p12
aS'These are absolute CLASSICS!\xef\xbb\xbf'
p13
aS'Who else agrees he has to bring this series back?\xef\xbb\xbf'
p14
aS"What i don't understand is that when ryan does videos like this how \npewdiepie and smosh have more subscribers than he does\xef\xbb\xbf"
p15
aS'Does she actually say mermaid in the film?\xef\xbb\xbf'
p16
aS'no teehee??\xef\xbb\xbf'
p17
aS'A mermaid omfg \xf0\x9f\x98\xad\xef\xbb\xbf'
p18
aS'My man, Nigahiga. Lol\nThis was funny as hell. Lol\xef\xbb\xbf'
p19
aS'Are you climbing tree again Edward !! LLLOOL\xef\xbb\xbf'
p20
aS'is that girl his ex girlfriend?\xef\xbb\xbf'
p21
aS"ohgod i can't stop laughing\xef\xbb\xbf"
p22
aS'Me!\xef\xbb\xbf'
p23
aS'0:53 Those special effects tho...\xef\xbb\xbf'
p24
aS'omg loved it :)\xef\xbb\xbf'
p25
aS'i never realized that this was really holarious 6 years ago\xef\xbb\xbf'
p26
aS"It's time\xef\xbb\xbf"
p27
aS'where was Jacob!?!?!? XD the car part was genius! \xef\xbb\xbf'
p28
aS'When he pushed her \xf0\x9f\x98\x82\xf0\x9f\x98\x82\xf0\x9f\x98\x82\xef\xbb\xbf'
p29
aS"Like if you're watching in 2014 :)\xef\xbb\xbf"
p30
aS'O_o mermaids are so scary...\xef\xbb\xbf'
p31
aS'"Can I come with you?"\n"No, you\'re too fat"\nI lost it :\')\xef\xbb\xbf'
p32
aS'Do a movie in minutes of pirates of the carribean\xef\xbb\xbf'
p33
aS"Tim Enos is a brilliant Alice :'D\xef\xbb\xbf"
p34
aS'Ah the memories\xef\xbb\xbf'
p35
aS'Funny, but Ashley Greene is fucking hot sorry if your reading this babe\xef\xbb\xbf'
p36
aS'Who is the chick?\xef\xbb\xbf'
p37
aS'This was 5 years ago...\xef\xbb\xbf'
p38
aS'Foetus Ryan awwww xD \xef\xbb\xbf'
p39
aS'Dear Ryan, \nCould you please bring back Movies In Minutes?! :D\xef\xbb\xbf'
p40
aS'I still laugh everytime XD \xef\xbb\xbf'
p41
aS'This was some oddness \xef\xbb\xbf'
p42
aS'its time \xf0\x9f\x98\x82\xf0\x9f\x98\x82\xef\xbb\xbf'
p43
aS'i was waiting for teehee\xef\xbb\xbf'
p44
aS'I miss the old Ryan Higa\xef\xbb\xbf'
p45
aS'Ryan as a vampire sexiness\xef\xbb\xbf'
p46
aS"It sounds like Muse's Supermassive Black Hole during the baseball part\xef\xbb\xbf"
p47
aS'I miss those guys, what ever happened to them?\xef\xbb\xbf'
p48
aS'Awesome\xef\xbb\xbf'
p49
aS'IT"S TIME! Sniffs asz, "You brought a snack." I still get chuckles in\xef\xbb\xbf'
p50
aS'dear ryan can do shuffling\xef\xbb\xbf'
p51
aS'This is funny!!!!!! Lol\xef\xbb\xbf'
p52
aS"I don't even like the Twilight movies, but I would love to find the kid who \nmade this and lightly slap him in the face and hope while he contemplates \nthe slap....he realizes he should never attempt comedy, and the world will \nbe a better place. I am not trying to hate, but perhaps give teaching, auto \ndetailing, or some other form of time consumption. Not this...just not \nthis.\xef\xbb\xbf"
p53
aS"I've never seen the movie does this really happen or something similar\xef\xbb\xbf"
p54
aS'I love you \xef\xbb\xbf'
p55
aS'I miss these videos in Hawaii\xef\xbb\xbf'
p56
aS"Secret revealed: Tarynn Nago, playing the part as Bella, and Ryan Higa as \nEdward, were boyfriend and girlfriend. <3\nThat is why I've came back to watch this video.Anyone interested to see \ntheir prom pictures? ;D\xef\xbb\xbf"
p57
aS'Was she your old gf\xef\xbb\xbf'
p58
aS'The old videos are always the best :)\xef\xbb\xbf'
p59
aS"Alice's face :)\xef\xbb\xbf"
p60
aS'Edward are you climbing trees again? \xf0\x9f\x98\x82\xf0\x9f\x98\x82\xf0\x9f\x98\x82\xf0\x9f\x98\x82\xef\xbb\xbf'
p61
aS'A toy car seriously\xef\xbb\xbf'
p62
aS'Kocak anjiir aslinya! This is even better than the real movie hahaha\xef\xbb\xbf'
p63
aS'Still my favorite spoof!!! <3\xef\xbb\xbf'
p64
aS'Lolololololol\xef\xbb\xbf'
p65
aS'Where are all the old people from your old videos?? \xef\xbb\xbf'
p66
aS'Wow, old video\xef\xbb\xbf'
p67
aS'The first I watched this was 3rd grade\xef\xbb\xbf'
p68
aS'Narh Im sorry the baseball seen is hilarious I am actually dead thats \nexactly what happened\xef\xbb\xbf'
p69
aS'Ahahaha so relatable wit boys\xef\xbb\xbf'
p70
aS'HAHA SO FUNNY\xef\xbb\xbf'
p71
aS'Dat version of Supermassive Black Hole doe\xef\xbb\xbf'
p72
aS'Wonder if he still talks to her\xef\xbb\xbf'
p73
aS'Dear Ryan, can you do Breaking Dawn II?\xef\xbb\xbf'
p74
aS'Ryan, you look so cool as a vampire, can you consider on doing a real movie \nof you playing a vamp role?\xef\xbb\xbf'
p75
aS'its so quiet and bad but i love it \xef\xbb\xbf'
p76
aS'Did anyone else laugh really hard at the purple nirple thing\xef\xbb\xbf'
p77
aS'a mermaid really? wow just wow\xef\xbb\xbf'
p78
aS'A mermaid\xef\xbb\xbf'
p79
aS'This video is on my birthday e\xf0\x9f\x98\x82\xef\xbb\xbf'
p80
aS'Bring this series back !!!!!!!! pleaseeeeeee Ryan !!!\xef\xbb\xbf'
p81
aS'Im sorry but this was one of his stupid vids\xef\xbb\xbf'
p82
aS'Aww these old videos.. Good memories \xef\xbb\xbf'
p83
aS'1:45 - 2:33 i died ahhahah :D\xef\xbb\xbf'
p84
aS"But I'm strong enough to do this\nGrhhhh\xef\xbb\xbf"
p85
aS'Aww the good old days movies and minutes were my first youtube videos I \never watched\xef\xbb\xbf'
p86
aS'OH EM GEEEEE!!! This was sooo funnyyy XD\xef\xbb\xbf'
p87
aS'teehe... where are you?\xef\xbb\xbf'
p88
aS'This old camera, Tim Enos(where is he anyways), and MySpace. I miss these \nso much. xD\xef\xbb\xbf'
p89
aS'"what am I? Say it out loud!"\n"a mermaid"\xef\xbb\xbf'
p90
aS'still a better love story than twilight\xef\xbb\xbf'
p91
aS'First video I watched on YouTube \xef\xbb\xbf'
p92
aS'This made me sad :( time sure as hell flies\xef\xbb\xbf'
p93
aS'holy crap how did this get 23million views?\xef\xbb\xbf'
p94
aS"IT'S TIME\xef\xbb\xbf"
p95
aS'LMAO it just gets me every time when he pitches the ball \xef\xbb\xbf'
p96
aS'I laughed so hard on the baseball scene! XD\xef\xbb\xbf'
p97
aS'What app or whatever do you use to make more than one of your self and to \nmake your videos \xef\xbb\xbf'
p98
aS'I laughed so hard\xef\xbb\xbf'
p99
aS'Can you do a video with Tim again!!??\xef\xbb\xbf'
p100
aS'Girl is gorgeous.\xef\xbb\xbf'
p101
aS'Lol I understood sort of cause I read the book\n\xef\xbb\xbf'
p102
aS"2:33 I can't even \xf0\x9f\x98\x82\xef\xbb\xbf"
p103
aS'OMG hahahahahaha I love his videos.\xef\xbb\xbf'
p104
aS'lol ur awesome ryan\xef\xbb\xbf'
p105
aS'Hilarious!\xef\xbb\xbf'
p106
aS"Whoops. Ignore the first question. \nI didn't know there was a HP one........ \nO.o\xef\xbb\xbf"
p107
aS'The awkwardness XD \xef\xbb\xbf'
p108
aS'1:53 its time LMFAO\xef\xbb\xbf'
p109
aS'haha she called him a mermaid\xef\xbb\xbf'
p110
aS'AW MOM NOT ON FRONT OF BELLA!\nLol\xef\xbb\xbf'
p111
aS'What am I?\nA mermaid.\nWhat?\nA mermaid.\nXD\xef\xbb\xbf'
p112
aS'lmaOOO ! like if you saw this video 2014\xef\xbb\xbf'
p113
aS'Omg....Mermaid....\xef\xbb\xbf'
p114
aS'Its time\xef\xbb\xbf'
p115
aS'I remember watching this when it first came out lul\xef\xbb\xbf'
p116
aS'Not reaaaly funny\xef\xbb\xbf'
p117
aS"Nigahiga has come so far (':\xef\xbb\xbf"
p118
aS'Idk why but did anyone else die at 2:53\xef\xbb\xbf'
p119
aS'Dear ryan, can u be a dog ?\xef\xbb\xbf'
p120
aS'still better love story than twilight oh wait\xef\xbb\xbf'
p121
aS'Omg, I remember watching these with my cousins at their house :D.\xef\xbb\xbf'
p122
aS'Ryan look super handsome in this video. Loving it.\xef\xbb\xbf'
p123
aS'Instead of going back to prevent some world problems he goes to be with a \n16 year old girl. Why?\xef\xbb\xbf'
p124
aS'being a new subscriber, its amazing the difference between the digital \nquality if this vid compared to his new ones\xef\xbb\xbf'
p125
aS"you don't have a teehee at the end.\xef\xbb\xbf"
p126
aS'Still better love story than twilight.\xef\xbb\xbf'
p127
aS'OMG my baby bro started acting this out while it was playing too cute\xef\xbb\xbf'
p128
aS'How i started watching ryan..\xef\xbb\xbf'
p129
aS'Omggg 2009\xef\xbb\xbf'
p130
aS'THE FUCKING TOY CAR I CANT\xef\xbb\xbf'
p131
aS'Oops I meant trailer\xef\xbb\xbf'
p132
aS'I lost it at mermaid hahahah\xef\xbb\xbf'
p133
aS'OMFG I laughed so much.\xf0\x9f\x98\x82\xf0\x9f\x98\x82\xef\xbb\xbf'
p134
aS'Man...feeling nostalgic. \nGood old nigahiga videos. \xef\xbb\xbf'
p135
aS"I'm probably the first person this year to comment on this video. This is \nmy purpose\xef\xbb\xbf"
p136
aS'do you trust me? yes. AHHHH!!\xef\xbb\xbf'
p137
aS'OMG LOL\xef\xbb\xbf'
p138
aS'TARYNN WHERE U BEEN\xef\xbb\xbf'
p139
aS'Aww mom, not in front of Bella \xf0\x9f\x98\x82\xf0\x9f\x98\x82\xf0\x9f\x98\x82\xef\xbb\xbf'
p140
aS"3:36 Lmaooooooo I'd be cracking up too  hahahah\xef\xbb\xbf"
p141
aS'What do you use to make more than one of your self and to make your videos \xef\xbb\xbf'
p142
aS'this video has 23,232,332 views. haha \xef\xbb\xbf'
p143
aS'This is the BEST version of twilight.\xef\xbb\xbf'
p144
aS'the ratchet fan though\xef\xbb\xbf'
p145
aS"It's time.\n\nHolysh*t face! why I just recently notice this channel HAHA hilarious\xef\xbb\xbf"
p146
aS'soooooooooooooooooooooo funny\xef\xbb\xbf'
p147
aS'Best Twilight parody imho.\xef\xbb\xbf'
p148
aS'I actually like both\xef\xbb\xbf'
p149
aS'Ryan, will you do Harry potter in minutes? Or Naruto?\xef\xbb\xbf'
p150
aS'But still.... a better story than twilight... No wait... This Is Twilight!!\xef\xbb\xbf'
p151
aS'New movie Twiasians.\xef\xbb\xbf'
p152
aS'The awkwardness XD \xef\xbb\xbf'
p153
aS'this version of twilight is better then the real version\xef\xbb\xbf'
p154
aS'"say it out loooooouuuuuuud"\xef\xbb\xbf'
p155
aS'lol i love how he made fun of the baseball scene\xef\xbb\xbf'
p156
aS"Well *I* learned something today. \nApparently 1 human year equals 1.13 years for mermaids. So if you meet a \nmermaid that is 25, they're actually 28 years old.\n\n....yeah. I'm bored ok.\xef\xbb\xbf"
p157
aS'3:50 constipated manly scream \xef\xbb\xbf'
p158
aS'still better love story than twilight...\xef\xbb\xbf'
p159
aS'Even he was just role playing I like the bad Ryan better: ))\xef\xbb\xbf'
p160
aS'ryan is the best vampire ever <3\xef\xbb\xbf'
p161
aS'Chinlight zone !\xef\xbb\xbf'
p162
aS'"what are you, say it out loud"\n"a mermaid"\nlol\xef\xbb\xbf'
p163
aS'FUCKING AWESOME (compare to the original)\xef\xbb\xbf'
p164
aS"One of Higa's classics... ahhh, memories.\xef\xbb\xbf"
p165
aS'Even he was just role playing I like the bad Ryan better: ))\xef\xbb\xbf'
p166
aS'1:54 she ugly as beep hahaha\xef\xbb\xbf'
p167
aS'still a better love story than...oh.\xef\xbb\xbf'
p168
aS'HAHAHA I can never get over "Helga\'s" pitching roflmao\xef\xbb\xbf'
p169
aS'hahaha a mermaid!\xef\xbb\xbf'
p170
aS'this was hilarious\xef\xbb\xbf'
p171
aS'hhahahahahahahahahahahaahahhaahahhaah you are so funny \xef\xbb\xbf'
p172
aS'Ur friends with all these hot girls. (Luck)\xef\xbb\xbf'
p173
aS'Prefer these videos to his new ones tbh\xef\xbb\xbf'
p174
aS"I love watching these old videos.. At least he is still very funny unlike \nsmosh. I haven't found smosh really funny lately in my opinion. \xef\xbb\xbf"
p175
aS"It's time.............LOL\xef\xbb\xbf"
p176
aS'I like how most of his friends are Asian--- XD\xef\xbb\xbf'
p177
aS'oh come on i like twilight \n.........................................................................................\xef\xbb\xbf'
p178
aS"IT'S TIME\xef\xbb\xbf"
p179
aS"Why was Ryan pushing the makeup things toward Belle? And why was Belle \npacking water guns in her backpack? I don't understand.\xef\xbb\xbf"
p180
aS'Twilight is this old? :D xD\xef\xbb\xbf'
p181
aS'old as hell\xef\xbb\xbf'
p182
aS'MERMAID lol\xef\xbb\xbf'
p183
aS'OMG this was soooooooo FUNNYYYYYYYYYYYY\xef\xbb\xbf'
p184
aS"All of the comments as are from 5 months ago :'( \xef\xbb\xbf"
p185
aS'Still watching this in 2014\xef\xbb\xbf'
p186
aS'Hahaha! This could be the preview!\xef\xbb\xbf'
p187
aS'Hahaha never laughed so hard!!\xef\xbb\xbf'
p188
aS'You would have made a much better Edward.\xef\xbb\xbf'
p189
aS'The one that act like Emmet he is so cute\xef\xbb\xbf'
p190
aS'in 2014 omg\xef\xbb\xbf'
p191
aS'\n\n\xef\xbb\xbf'
p192
aS'Like if you are watching in 2014.\xef\xbb\xbf'
p193
aS'i love twilight but this is hilarious LOL\xef\xbb\xbf'
p194
aS'Hhh funny \xef\xbb\xbf'
p195
aS'Its time. LMFAO hate twilight love nigahiga\xef\xbb\xbf'
p196
aS'what the hell is this..........\xef\xbb\xbf'
p197
aS'2:12 whatever happened to that dude pitching!? Wait you know what, we \nhardly even see any of them in this video instead of RYAN!\xef\xbb\xbf'
p198
aS'F*** that its so f****** amazing ^^\xef\xbb\xbf'
p199
aS'OH MY GWARD LMAO XDD his face!! 1:54\xef\xbb\xbf'
p200
aS'dat face!\n3:55\xef\xbb\xbf'
p201
aS'That girl is hot \xef\xbb\xbf'
p202
aS' #tehee  love you #ryanhiga\xef\xbb\xbf'
p203
aNaS"Watching this 5 years ago :D x') its funnier than i remember :pp\xef\xbb\xbf"
p204
aS'Amazing\xef\xbb\xbf'
p205
aS'Back when Tarynn and Ryan were still together\xef\xbb\xbf'
p206
aS'Man I love ur videos\xef\xbb\xbf'
p207
aS'This made me laugh for like a year oooo shit \xef\xbb\xbf'
p208
aS'Hahahah: ))\xef\xbb\xbf'
p209
aS'I seriously miss these hilarious home made videos and kind of enjoy it more \nthan the HQ highly edited videos Ryan has been making.\xef\xbb\xbf'
p210
aS'man that brod damn.\xef\xbb\xbf'
p211
aS"I can't believe this was posted over five years ago. I remember laughing my \nass off when I first saw the video right after it was uploaded.\xef\xbb\xbf"
p212
aS'Dear, Ryan please make a real life minecraft \xef\xbb\xbf'
p213
aS'They look ugly\n\xef\xbb\xbf'
p214
aS'Man, I miss Tim Enos ): He made the best Helga...\xef\xbb\xbf'
p215
aS"This was the old crew, Taryn, Ryan, Tim, and Sean. Now it's Will, Greg, \nDerek, Sean, And Ryan.. lol\xef\xbb\xbf"
p216
aS'Tim kicks sooo high! Haha\xef\xbb\xbf'
p217
aS'"What am I say it ,a mermaid" ha ha\n\xef\xbb\xbf'
p218
aS'lol....   :D nice car ryan   :)\xef\xbb\xbf'
p219
aNaS"can i come too?.......naw,..your'e too fat\xef\xbb\xbf"
p220
aS'I wonder what ever happened to Tim and the rest of the old crew\xef\xbb\xbf'
p221
aS'hahahahaha ur too fat!\xef\xbb\xbf'
p222
aS'First nigahiga video I watched, just as funny today c:\xef\xbb\xbf'
p223
aS'" what am i, say it out loud!!!!" \n"Your ... A mermaid \xf0\x9f\x90\xac" \n"\xf0\x9f\x98\x8e" \xef\xbb\xbf'
p224
aS'That motivated me to watch twilight. :)\xef\xbb\xbf'
p225
aS'Team jakeup\xef\xbb\xbf'
p226
aS'I miss the genuineness :) \xef\xbb\xbf'
p227
aS"It's actually quite accurate! lol\xef\xbb\xbf"
p228
aS'Lol the end\xef\xbb\xbf'
p229
aS'Wait, Twilights a movie? I thought it was a documentary on some tragic \nevent.\xef\xbb\xbf'
p230
aS"She's hot\xef\xbb\xbf"
p231
aS"Lol that's the twilight alright lol\xef\xbb\xbf"
p232
aS'LOL!!!!!! mermaid real and the baseball pitcher i sure it is hella funny\xef\xbb\xbf'
p233
aS'I love this \xef\xbb\xbf'
p234
aS'say it out loud?? "A MERMAID" ..............    I nearly died ...laughing.. \nYou did a really good job Ryan................\xef\xbb\xbf'
p235
aS'0:28 lmao\xef\xbb\xbf'
p236
aS'no pack?!\xef\xbb\xbf'
p237
aS'the car scene must of been expensive to shoot!!!!\xef\xbb\xbf'
p238
aS'I love ryan can follow me on insta gram @ainialer\n\xef\xbb\xbf'
p239
aS'Was funny when I first watched this years ago and continues to be till \ntoday :D \xef\xbb\xbf'
p240
aS'ur a mermaid!!!!!!!!!!!!! hahahaha\xef\xbb\xbf'
p241
aS'"your faster than the others" part the the blooper of it is too hilarious!\xef\xbb\xbf'
p242
aS'Way better!!!!! \xef\xbb\xbf'
p243
aS'STILL A GREAT MOVIE...LOL XD\xef\xbb\xbf'
p244
aS'Dear ryan, can you be a ash? (POKEMON)\xef\xbb\xbf'
p245
aS'Not he pushed cologne to her that was boggest.lol\xef\xbb\xbf'
p246
aS'Mermaid c;\xef\xbb\xbf'
p247
aS'I LOVED twilight....but this was HILARIOUS\xef\xbb\xbf'
p248
aS'does that mean you watched twilight ?\xef\xbb\xbf'
p249
aS'1:52\nLOL\xef\xbb\xbf'
p250
aS'A mermaid XD\xef\xbb\xbf'
p251
aS'looks alot better than the original\xef\xbb\xbf'
p252
aS'Dude, no TEEHEE? U dissapoint me ryan.\xef\xbb\xbf'
p253
aS"Watch, watch! Lemme troll on you for a second........how come both James \nand Edwards reflections showed when they were up against the mirror even \nthough vampires reflection supposedly don't show~? XDDDDDD JK! Love you \nRyan! Keep up the good work! Look how far you've come!\xef\xbb\xbf"
p254
aS'Still a better love story than...\nNever mined.\xef\xbb\xbf'
p255
aS'whats up with that throw. and the wig. But that car part was..lol\xef\xbb\xbf'
p256
aS'the car part still cracks me up \xef\xbb\xbf'
p257
aS'The car part tho\xef\xbb\xbf'
p258
aS'still better love story than .. ok this sound really wrong now\xef\xbb\xbf'
p259
aS'merman*\xef\xbb\xbf'
p260
aS'Awe mom not in front of Bella! cx\xef\xbb\xbf'
p261
aS'I love himmmm\xef\xbb\xbf'
p262
aS'a mermaid..lol.iloveur videos.\xef\xbb\xbf'
p263
aS"Where did Tim Enos go? i haven't seen him for years\xef\xbb\xbf"
p264
aS'smelling armpit and the fart is the good part haha\xef\xbb\xbf'
p265
aS'Awesome,I like it.No one deserves to call you f**** asian\xef\xbb\xbf'
p266
aS'lol\xef\xbb\xbf'
p267
aS'O my glob RYAN U LOOK AWESOME IN THAT MAKEUP\xef\xbb\xbf'
p268
aS'Watch this without sound it looks so retarded\xef\xbb\xbf'
p269
aS'at a 1:44 he is touching he boob lol\xef\xbb\xbf'
p270
aS'Tim Enos was the most amazing actor I swear\xef\xbb\xbf'
p271
aS'A mermaid! Lol\xef\xbb\xbf'
p272
aS'lol mermaid\xef\xbb\xbf'
p273
aS'Hahahahahahahahahaj awesomeeeee!!!\xef\xbb\xbf'
p274
aS'i knew she was going to say mermaid i said merdaid at exatly the sAME TIME \nAS her\xef\xbb\xbf'
p275
aS'*cries*\xef\xbb\xbf'
p276
aS"You've gone such a long way\xef\xbb\xbf"
p277
aS'Your a mermaid ;D lol \xef\xbb\xbf'
p278
aS'OMG so true its better then the original\xef\xbb\xbf'
p279
aS'Dear Ryan are you a gay ? \xef\xbb\xbf'
p280
aS'Soo many memories\xef\xbb\xbf'
p281
aS'Edward is a stalker he watches her sleep!!!!!!!!!!!!!!\xef\xbb\xbf'
p282
aS'3:52-3:56 i laughed may ass out\xef\xbb\xbf'
p283
aS'Pause at 1:54 haha \xef\xbb\xbf'
p284
aS"you're a mermaid Ryan, YOU'RE A MERMAID\xef\xbb\xbf"
p285
aS'No your to fat\xef\xbb\xbf'
p286
aS"HAHAHHA still laughing omg can't stop\xef\xbb\xbf"
p287
aS'A MERMAID LOL\xef\xbb\xbf'
p288
aS"Omg I laughed so hard when Bella said 'a mermaid' cuz I was expecting her \nto say vampire xD\xef\xbb\xbf"
p289
aS'So ryan your a "MERMAID" ? Tee-Hee !!!\xef\xbb\xbf'
p290
aS'a mermaids\xef\xbb\xbf'
p291
aS'She said a fucken mermaid lolo\xef\xbb\xbf'
p292
aS'Fetus aahaha\xef\xbb\xbf'
p293
aS'So amazing !!!\xef\xbb\xbf'
p294
aS"that's why i dont like watching ryan clips it me laugh till i cry\xef\xbb\xbf"
p295
aS'I watched this a million times because I love your videos.\xef\xbb\xbf'
p296
aS'Lol the vampire baseball game... Love this video...\xef\xbb\xbf'
p297
aS'its time XD\xef\xbb\xbf'
p298
aS'Dear Ryan: can I climb the free with u?\xef\xbb\xbf'
p299
aS'01:53 MADE ME BURST OUT LAUGHING\n\xef\xbb\xbf'
p300
aS'Mom:EDWARD,ARE CLIMBING TREES AGAING?\n\nEdward:AAH MOM NOT IN FRONT OF BELLA\xef\xbb\xbf'
p301
aS'Still better than the actual movie...\xef\xbb\xbf'
p302
aS'And still better than the REAL Twilight\xef\xbb\xbf'
p303
aS'lol a mermaid\xef\xbb\xbf'
p304
aNaS'Luv this lol\xef\xbb\xbf'
p305
aS"IT'S TIME! :D)\xef\xbb\xbf"
p306
aS'You forgot to make Bella look high.\xef\xbb\xbf'
p307
aS'Still a better love story than twil....HOHOHOOHOJOHOJ WAIT!!!\xef\xbb\xbf'
p308
aS'Better than twilight in every way. Luv this.\xef\xbb\xbf'
p309
aS'"No your too fat."\xef\xbb\xbf'
p310
aS'i cried so hard at ITS TIME xD\xef\xbb\xbf'
p311
aS'I   Hate Twlight but Iike  this.\xef\xbb\xbf'
p312
aS'hahahahah \xef\xbb\xbf'
p313
aS'You guys have to make more of these videos. These are hilarious\xef\xbb\xbf'
p314
aS'THIS IS PRIS LESS LMFAO!!!!!!!!!\xf0\x9f\x98\x82\xef\xbb\xbf'
p315
aS'hahah the minnie car!\xef\xbb\xbf'
p316
aS'LOL at the bloopers. your friend is hilarious\xef\xbb\xbf'
p317
aS'her: a mermaid.\nhim: WHAT?\xef\xbb\xbf'
p318
aS'she hav more expressions than the real bella...\nTEEHEE\xef\xbb\xbf'
p319
aS'Casually puting water guns in her bag.\xef\xbb\xbf'
p320
aS'lol "aww mum not in front of bella " \'you want to watch me climb this \ntree....can i come with?.......no ur too fat"\xef\xbb\xbf'
p321
aS'haha! 1:53 to the end!\xef\xbb\xbf'
p322
aS'Or the vampire diaries\xef\xbb\xbf'
p323
aS'So you did watch tiwlight! Lol haha\xef\xbb\xbf'
p324
aS'Twiright\xef\xbb\xbf'
p325
aS"I wasn't expecting that but found it funny when she called him a mermaid. \nlol good video. \xef\xbb\xbf"
p326
aS'The intro music sounds like Metroid Prime\xef\xbb\xbf'
p327
aS'Years later, 1:53 still cracks me up\xef\xbb\xbf'
p328
aS'I laughed so hard =))\n<3\xef\xbb\xbf'
p329
aS'Shit XD I meant to say TIM not Sean haha\xef\xbb\xbf'
p330
aS'THIS IS PRISLESS LMFAO!!!!!!!!!!\xf0\x9f\x98\x82\xef\xbb\xbf'
p331
aS'ITS TIME\xef\xbb\xbf'
p332
aS'hHhahhahhahaahha\xef\xbb\xbf'
p333
aS'I scared my friend cause I laughed out loud but then I showed here and she \ndid the same\xef\xbb\xbf'
p334
aS'crush\xef\xbb\xbf'
p335
aS'I tried watching Twilight, and this is still better than the real thing. \xef\xbb\xbf'
p336
aS'Still a better love story than.... crap.\xef\xbb\xbf'
p337
aS'Old but gold!\xef\xbb\xbf'
p338
aS'Lol\xef\xbb\xbf'
p339
aS"You're faster than the others!\nYou're faster than the others!\nYou're faster than the others!\nYou're faster than the others!\n\nRyan is SOO cute when he laughs xDD\xef\xbb\xbf"
p340
aS'lol its exactly like the movie\xef\xbb\xbf'
p341
aS'2:02 - Wow, perfect K-pop pitching.\xef\xbb\xbf'
p342
aS'Too fantastic!!!\xef\xbb\xbf'
p343
aS'dat pitch doh \xef\xbb\xbf'
p344
aS'pause at 2:51 and look a ryans face\xef\xbb\xbf'
p345
aS'Posted on my b day\xef\xbb\xbf'
p346
aS'Asian Version of twilight  xP\xef\xbb\xbf'
p347
aS'L.O.L\xef\xbb\xbf'
p348
aS'Dont mean to sound like im desperate for views but im doing an experiment \non sleeping basically i wont sleep and upload a detailed video on how i \nfeel every 20 hours or so you guys should check it out on my channel.\xef\xbb\xbf'
p349
aS'It makes me fell sorry for them knowing that they had to watch this movie \nto make this....\xef\xbb\xbf'
p350
aS'I forgot how funny this is xD\xef\xbb\xbf'
p351
aS'clasic\xef\xbb\xbf'
p352
aS"'a mermaid' LOL\xef\xbb\xbf"
p353
aS'Sadly, the film would have been BETTER this way.\xef\xbb\xbf'
p354
aS'"MOM NOT IN FRONT OF BELLA!!!" xD\xef\xbb\xbf'
p355
aS'Plz do doctor who\xef\xbb\xbf'
p356
aS':D great ...how can I forgot that I saw this only few years ago :D\xef\xbb\xbf'
p357
aS'Lol the make up though\xef\xbb\xbf'
p358
aS"'your too fat' lol\xef\xbb\xbf"
p359
aS'hahaha i remember the first time i watched this! soooo funny!\xef\xbb\xbf'
p360
aS'LOLLLLLLLLLLL\nCOOOOOOL BRO\xef\xbb\xbf'
p361
aS"This is the first Youtube video I've ever seen.  Lol\xef\xbb\xbf"
p362
aS'hey ryan she is your ex right \xef\xbb\xbf'
p363
aS'Super ;-)))\xef\xbb\xbf'
p364
aS'Dat purple nurple at the end O.o\xef\xbb\xbf'
p365
aS'LOL\xef\xbb\xbf'
p366
aS'Ahh I missed old videos like these.....\xef\xbb\xbf'
p367
aS'A mermaid funny\xef\xbb\xbf'
p368
aS'I kept replaying the part when Sean goes "It\'s time..." \nI laughed so fucking hard!!!! XD \xef\xbb\xbf'
p369
aS"1:53 hahaha i can't stop laughing to that\xef\xbb\xbf"
p370
aS'Sucky\xef\xbb\xbf'
p371
aS'Hahahahaaa LOLzzz :)\xef\xbb\xbf'
p372
aS'wow im missing tarynn\xef\xbb\xbf'
p373
aS'i am tina\xef\xbb\xbf'
p374
aS'AHAHA I LOVE YOU RYAN\xef\xbb\xbf'
p375
aS'dear ryan, are you a mermaid?\xef\xbb\xbf'
p376
aS'"Can I come with you!?! :D "\n"No, your too fat.."\xef\xbb\xbf'
p377
aS'the man driving that yellow car is tiny!\xef\xbb\xbf'
p378
aS'What did I just watch\xef\xbb\xbf'
p379
aS'Haha out lowd\n\xef\xbb\xbf'
p380
aS'100% accurate, other than this was way better\xef\xbb\xbf'
p381
aS'I love twilight but lol\xef\xbb\xbf'
p382
aS'dude, could you make movies in minutes hunger games?\xef\xbb\xbf'
p383
aS'omg! watching this in 2013...\xef\xbb\xbf'
p384
aS'No your to fat xD\xef\xbb\xbf'
p385
aS'all these years ive watched this, at 1:13, i alwaysthought she said \nkrakenherolin but now that i listen to it again i hea crack and heroine\xef\xbb\xbf'
p386
aS'XD \xef\xbb\xbf'
p387
aS'ITS TIME !!!!!!!!!!\xef\xbb\xbf'
p388
aS'rlllyyyyy coooll ...............i smiled d whl tym... :D. ryan i luv yur \nvideos.\xef\xbb\xbf'
p389
aS'Mermaid!!! Lol!\xef\xbb\xbf'
p390
aS'He Made Me #Hate Twilight >.<\xef\xbb\xbf'
p391
aS'i like the part when the guy in 2.21 runs and also that whe the guy hit the \nball they were all serching for it it made me laugh for and 1 hour no \nkiding!!!\xef\xbb\xbf'
p392
aS"He's a mermaid \n\xef\xbb\xbf"
p393
aS'I fucking still laugh my ass off at this 4 years or so later\xef\xbb\xbf'
p394
aS'Hahaha\xef\xbb\xbf'
p395
aS'2:40 is the best\xef\xbb\xbf'
p396
aS'ha ha  tis shit is funny lol\xef\xbb\xbf'
p397
aS'OMG xD\xef\xbb\xbf'
p398
aS'Funniest parody of the Twilight movies I have seen. He kept pushing those \nperfume bottles to her. LOL. I wish he pushed a bar of soap also.\xef\xbb\xbf'
p399
aS'SO OLD :D\xef\xbb\xbf'
p400
aS'nipple twister\xef\xbb\xbf'
p401
aS"Do another one of these.. they're really funny\xef\xbb\xbf"
p402
aS'i laughed \xef\xbb\xbf'
p403
aS'SUGOII !!!! RYAN\xef\xbb\xbf'
p404
aS'i wonder if they are still friends\xef\xbb\xbf'
p405
aS'a mermaid!!! XD XD\n \xef\xbb\xbf'
p406
aS'YOU BROUGHT A SNACK!!!\xef\xbb\xbf'
p407
aS"I've read the book and everything goes the same but u forgot kissing...\xef\xbb\xbf"
p408
aS'2:53 LOL\xef\xbb\xbf'
p409
aS'That actually sums up twilight haha. Team Harry Potter and Hunger Games!\xef\xbb\xbf'
p410
aS'Lol\xef\xbb\xbf'
p411
aS'I keep repeating the nipple part its so funny\xef\xbb\xbf'
p412
aS'wow. you look so good in Edward makeup. haha\xef\xbb\xbf'
p413
aS'And they have a reflection\xef\xbb\xbf'
p414
aS'Awkward....but still funny xD\xef\xbb\xbf'
p415
aS'HES A MERMAID!!!\xef\xbb\xbf'
p416
aS'Baseball scene is hilarious \xef\xbb\xbf'
p417
aS'2:30 hhaha\xef\xbb\xbf'
p418
aS'NIPPLE TWIST\xef\xbb\xbf'
p419
aS'This I remember, was the first video I ever watched, instantly subscribed \nfrom then till now\xef\xbb\xbf'
p420
aS'i love you nigahiga\xef\xbb\xbf'
p421
aS'2:48 Impossibruuuu\xef\xbb\xbf'
p422
aS'OMG hilarious\xef\xbb\xbf'
p423
aS'Dat Face Doe \xef\xbb\xbf'
p424
aS'i cant stop laughing at this guy 1:53\xef\xbb\xbf'
p425
aS'I love ur vidos!!!!\xef\xbb\xbf'
p426
aS'Omg I remember watching this like 3 years ago. xDD This brings back so many \nmemories.\xef\xbb\xbf'
p427
aS'this is better than the actual movie\xef\xbb\xbf'
p428
aS'You sound Canadian...\xef\xbb\xbf'
p429
aS'Lol\xef\xbb\xbf'
p430
aS'Wow. This is reeeeaaallly OLD! OMG. At first I thought the video quality \nwas not as good as your new vids..on purpose. And the date uploaded: Jan \n21, 2009...\xef\xbb\xbf'
p431
aS'LOL! Awesome!\xef\xbb\xbf'
p432
aS'it lied it was more than a minute \xef\xbb\xbf'
p433
aS'i cant beileve that was free its probably one of the the best things on \nyoutube in a long time\xef\xbb\xbf'
p434
aS"Ahh haven't watched this in years but still funny.\xef\xbb\xbf"
p435
aS'So funny\xef\xbb\xbf'
p436
aS'mermaid kkkkkkkkkkk\xef\xbb\xbf'
p437
aS'MERMAID ULTIMATE NIPPLE TWIST!!\xef\xbb\xbf'
p438
aS'seems legit...\xef\xbb\xbf'
p439
aS'Ryan is a very attractive Edward ;)\xef\xbb\xbf'
p440
aS'I love his old videos. I was wondering where those friends of his are now.\xef\xbb\xbf'
p441
aS'"Ur pale and u suck blood..."\n"Wat am I? Say it"\n"A tampon"\xef\xbb\xbf'
p442
aS"This is the very first video of Ryan I saw, I was about 12 years old (I'm \n18 now and I'm still a huge fan^^), and I've just rewatched it and realized \nthat Tim's camera was off when he was filming Bella **useless comment**\xef\xbb\xbf"
p443
aS'Lol\xef\xbb\xbf'
p444
aS'2:10 is awesome\xef\xbb\xbf'
p445
aS'HAHA!! So funny\xef\xbb\xbf'
p446
aS'nigahiga can you do hentai kamen?\xef\xbb\xbf'
p447
aS'Lol funny\xef\xbb\xbf'
p448
aS'+RobertTheViolinist shut the fuck up asshole\xef\xbb\xbf'
p449
aS"She's sooooo pretty :3\xef\xbb\xbf"
p450
aS'01:53-01:54ITS TIME xD\xef\xbb\xbf'
p451
aS'A mermaid hilarious \n\xef\xbb\xbf'
p452
aS'Dear Ryan, can you dress up as a mermaid? \xef\xbb\xbf'
p453
aS'I keep repeating the niple part its so funny\xef\xbb\xbf'
p454
aS'LOL NURPLES\xef\xbb\xbf'
p455
aS'"What Am I say it say it loud"\n"a Mermaid."\nBest WTF moment.\xef\xbb\xbf'
p456
aS'Better than the original \xef\xbb\xbf'
p457
aS'Mini car O_O \xf0\x9f\x98\xa4\xf0\x9f\x98\xa4\xf0\x9f\x98\xa4\xf0\x9f\x98\xa4\xf0\x9f\x98\x8f\xf0\x9f\x98\x8f\xf0\x9f\x98\x8f\xf0\x9f\x98\xac\xf0\x9f\x98\xac\xf0\x9f\x98\x81\xf0\x9f\x98\x81\xf0\x9f\x98\x81\xf0\x9f\x98\x81\xf0\x9f\x98\x82\xf0\x9f\x98\x82\xf0\x9f\x98\x82\xf0\x9f\x98\x82\xf0\x9f\x98\x82\xf0\x9f\x98\x82\xf0\x9f\x98\xb1\xf0\x9f\x98\xb1\xf0\x9f\x98\xb1\xf0\x9f\x98\xb1\xf0\x9f\x98\xb1\xf0\x9f\x98\x82\xf0\x9f\x98\x82\xf0\x9f\x98\x82\xf0\x9f\x98\x82\xf0\x9f\x98\x82\xf0\x9f\x98\x82\xf0\x9f\x98\x82\xef\xbb\xbf'
p458
aS'You can see the camera in the background\xef\xbb\xbf'
p459
aS'do the hunger games\xef\xbb\xbf'
p460
aS"This clip is fairly fascinating. In my opinion it'll help lots of people. \nHave you checked out Wise Women Workings yet? I came across it about 6 \nmonths ago. Since that time I've gone on a dates with a lot of glamorous \nwomen. Look it up on google and see whether Wise Women Workings may change \nyour game.\xef\xbb\xbf"
p461
aS'o mom not in front of bella\xef\xbb\xbf'
p462
aS'This is better den the original.\xef\xbb\xbf'
p463
aS'I ship you and that chick that was "Bella" =))\xef\xbb\xbf'
p464
aS"lol watch this please ha ha ha ha ha i can't stop laughing\xef\xbb\xbf"
p465
aS'Sooo cute!!!\xef\xbb\xbf'
p466
aS"''It's time'' His face though omg\xef\xbb\xbf"
p467
aS'If their vampires why are they in the sun\xef\xbb\xbf'
p468
aNaS'Still a better love story than the original.\xef\xbb\xbf'
p469
aS'You and tarynn make a cute couple\xef\xbb\xbf'
p470
aS"Alice's/ James' expressions omg i couldnt stop laughing :'D\xef\xbb\xbf"
p471
aS'Better than the love story\xef\xbb\xbf'
p472
aS'xD\xef\xbb\xbf'
p473
aS'http://youtu.be/goix7jFXD9Q\xef\xbb\xbf'
p474
aS'Who am I?\nA Mermaid.\nWait what?\nA Mermaid.\n:-)\xef\xbb\xbf'
p475
aS'The Edward makeup is pretty cool\xef\xbb\xbf'
p476
aS'That was hilarious'
p477
aS'Damm thoe u so funny'
p478
aS'Edward: What am I? Say it! Say it out loud! Bella: A mermaid. LOL xD'
p479
aS'1:45 God shes so tiny under ryan higas arm!!'
p480
aS'No you are a liar, because I am a time traveler! I bet you feel like a \nmassive douche now! BTW: I have an iRock and 2000 B.C. was a year beeyatch.'
p481
aS'Nipple twist of doom death.'
p482
aS"Hahaahahah!I can't stop laughing watching this"
p483
aS'211 years old. daaaaaamn.'
p484
aS'No your to fat'
p485
aS'the baseball part just made my entire month '
p486
aS'your eyes remind me of Kim Hyun Joong :D'
p487
aS'lol! a mermaid xDD'
p488
aS'Nipple twist'
p489
aS'still better than twilight'
p490
aS'this is true'
p491
aS'hahaha tim enos <3'
p492
aS'XD'
p493
aS'lol ya...'
p494
aS'twist them niples'
p495
aS'hhhhhhhhhhhhhhhhhhhhhhhhhhhhhhhhh'
p496
aS'I thin this version is better than the original '
p497
aS'asian twilight. '
p498
aS"Whenever somebody says, 'It's time' I think about this movie."
p499
aS'Mermaid!????? Hahaahahaha xD lol!'
p500
aS'PERFUME!'
p501
aS'The guy in tha car had me rolling'
p502
aS'So much better than the original one'
p503
aS'How did you find my comment?'
p504
aS'NigaHiga is become an Asian Ghost :v'
p505
aS'Hahhahah way better than thr original'
p506
aS'its "say it say it out loud" "mermaid"'
p507
aS'HAHA SHE LITERALLY SMELLS SO HE GIVES HER A LOAD OF PERFUME!! XD'
p508
aS"Hannah fox Lu I'm the exact same"
p509
aS'lol 3:10 Edward: want to see me climb this tree? Bella:can i come too? \nEdward:no your to fat! LOL xD '
p510
aS'A mermaid :D'
p511
aS'Tarynn and Ryan <3'
p512
aS'You all are great and yes the mermaid line is just awesome. Keep putting \nyour parodies out there. Big thumbs up to you all'
p513
aS'No TEEHEE? '
p514
aS"She' still a better actress than Kristen Stewart."
p515
aS'at 3:44 u can see the camera in the miror'
p516
aS'Supermassive Black Hole by Muse'
p517
aS'I actually like Twilight, but this still made me laugh SO HARD.'
p518
aS'i like it, good work it was very funny and a cute Edward :-)'
p519
aS'Lol'
p520
aS"No I'm watching this in 5000 BC on my iSto- Nah just kidding xD"
p521
aS'pfff im watching this on my iWood'
p522
aS'No. But purple nurples can.'
p523
aS'i belive that was sarcasam too '
p524
aS"1:36 hahahaha i can't stop laughinglolooloolololol"
p525
aS'Well I never...'
p526
aS'Damn...the nipples twist can kill people?'
p527
aS'Nipples nice'
p528
aS"1:53 IT'S TIME!"
p529
aS'\xd0\xa7\xd0\xb5\xd1\x80\xd1\x82! \xd0\xa1\xd0\xbe\xd0\xbb\xd1\x8c\xd0\xba\xd0\xbe \xd0\xbb\xd0\xb5\xd1\x82 \xd1\x8d\xd1\x82\xd0\xbe\xd0\xbc\xd1\x83 \xd0\xb2\xd0\xb8\xd0\xb4\xd0\xb5\xd0\xbe \xd1\x85\xd0\x94 '
p530
aS'UUUUUUMMMMMMMMMMMM??????????????'
p531
aS'Twilight is one of the most demented movies in the world o.O'
p532
aS'a mermaid :'
p533
aS'make that 22'
p534
aS'a mermaid lol=)'
p535
aS"No I'm watching this on my computer in 2013 --_--"
p536
aS'Oh, I know that hahaha (no need to hate bro)'
p537
aS"She's pretty!"
p538
aS'MAPOTI (._. ) '
p539
aS'I think u should make a video of mexican Ppl or beatboxing'
p540
aS'Still better than twilight.'
p541
aS"Good day! I'm Austin.I did -25 lbs past two weeks.Go to hawght.so\\#nEoRP \nkZjMfRAGZKoiioe "
p542
aS'I love Twilight but seriously this was hilarious.'
p543
aS'this was a good one !! (y)'
p544
aS'Who is the girl?'
p545
aS'When i first watched this i literally (and when i say literally i really \nmean literally) peed my pants during the car crash scene'
p546
aS'better than the original, By A WHOLE LOT, i mean.'
p547
aS'how long have you been seventeen? -about fifteen years BRO AHAHA'
p548
aS'He is.'
p549
aS"Me as well. I've been bullied before. and your right, I hate people who \nbully."
p550
aS'These comments are coming only from attention whores, whore....'
p551
aS'turns out, if you reduce a full length movie down to 4 minutes, all the \nmain characters turn into asians.'
p552
aS"It's time!"
p553
aS'still a better love story than twilight'
p554
aS"No i'm watching this in 100 BC o my irock"
p555
aS'Ryan:WHAT AM I ? SAY IT OUT LOUD! GIRL: A MERMAID! ME:WTF'
p556
aS'A mermaid'
p557
aS'nigahiga is Japanese'
p558
aS'"No, your too fat " lol xD rofl'
p559
aS'Lol'
p560
aS'You stole me line!!'
p561
aS"and why i don't know any"
p562
aS'OMG your a mermaid!'
p563
aS'"tell me what i am..tell me outloud!" "...a mermaid" LOL'
p564
aS'LOL "Edward are you climbing trees again?" "Not in front of Bella!"'
p565
aS'Still a better love story than twilight... Oh wait'
p566
aS"It's time .\\/."
p567
aS'Lmao 3:54 xD'
p568
aS'Lol'
p569
aS'1:08 i would screamOMG THIS IS SOOOO INSTAGRAM'
p570
aS'1:02 ;)'
p571
aS'-____-'
p572
aS"She doesn't play a good bella. . . . . to pretty and her mouth isnt open \nall the time"
p573
aS'What am I? Say it! A MERMAID. Um................'
p574
aS"Were you about to say twilight is better for once? that makes sense since \nit's NigaHiga I guess.."
p575
aS'...lol wtf xD?! '
p576
aS'That guy kinda really looks like Emmett !! :O :P '
p577
aS'Hahahahaha'
p578
aS'LOLOLOLOLOLOLOL.'
p579
aS'if you like fantasy like twilight search: freefantasyandmore seeya'
p580
aS'Hahahahaha xD'
p581
aS"Who's she"
p582
aS'I have that fan!!!! 0:14'
p583
aS'The awkward lawn mower in the background :3'
p584
aS'1:25! owo'
p585
aS'XDDD A Mermaid.'
p586
aS'LMFAO AMAZING :D'
p587
aS'I miss shitty homemade YouTube<3 ha ha'
p588
aS'hahahahahaaaaa naa your too fat lmao!!!!'
p589
aS'A mermaid'
p590
aS'Wow lol'
p591
aS'Thumb nail looks like a porno '
p592
aS'2:47 you can see the camera in the mirror!'
p593
aS'Wow. Just as good as the movie.'
p594
aS'A mermaid!!!!! XD'
p595
aS'"What is that" had me rolling'
p596
aS'they look like the chinese version of bella and edward....in a way'
p597
aS'Wtf'
p598
aS'OMGGGG. I think i watched this video a longggggg time ago and now I can \nacross his new videos yesterday. what a coincky dink. '
p599
aS'i love you ryan, but this video .not one of your best, not that its not \nfunny or anything but, idk im a bad person. forget me.'
p600
aS'Edward the mermaid!'
p601
aS'Say it say it out loud A mermaid XD'
p602
aS'Ryan~~~~!!!!!!!!!! RYANNN~~~~!!!!'
p603
aS'for 1st time in my life i dont hear any teehee at the end of the video'
p604
aS'Where is TEE HEE? :D'
p605
aS'1 in the morning and im fucking lost in youtube... everytime '
p606
aS'What an original comment. -_-'
p607
aS'Like if your watching in 2013!!!'
p608
aS"After being on YouTube for 2 years now, I know how much hate people can \ngive to me when reading these kinds of comments but maybe someone may be \nnicer. My dream is to be an actor and i like to dance in public, but i cant \nget in performing school, and i just got 1,461 subs, which is pretty \nimpressive to me, but I'll never get noticed with these numbers. If someone \nwould have the heart just to give this a thumbs up and spend all of 30 \nseconds watching a vid, it would mean the world. Thank you al"
p609
aS"Can u style someone's hair?"
p610
aS'a mermaid seriously '
p611
aS"So unoriginal. I'm watching this on my iCoconut on a desert island."
p612
aS'I miss the old bloopers music'
p613
aS'teehee '
p614
aS'me too! '
p615
aS'hilarious'
p616
aS'its sarcasim ass hole'
p617
aS'mapoti'
p618
aS'Looks so diff o 2009 nice'
p619
aS"Fail, vampires don't have reflection... LOL"
p620
aS'Lol'
p621
aS'I like Twilight,No love it,And this is soo funny to me!!! :3 TEAM JACOB \nFOEVAZ!!!!'
p622
aS"She's Ryan's ex girlfriend :( I wish they would get back together <3"
p623
aS'Post this somewhere else please...'
p624
aS'Oh please do Pitch Perfect xD'
p625
aS'XD '
p626
aS'still better than the origanal twilight '
p627
aS'Yeah, I agree! ______ Your questions, answered. Check my channel out'
p628
aS"exept he's american"
p629
aS'everything is so similar. '
p630
aS"After being on YouTube for 2 years now, I know how much hate people can \ngive to me when reading these kinds of comments but maybe someone may be \nnicer. My dream is to be an actor and i like to dance in public, but i cant \nget in performing school, and i just got 1,555 subs, which is pretty \nimpressive to me, but I'll never get noticed with these numbers. If someone \nwould have the heart just to give this a thumbs up and spend all of 30 \nseconds watching a vid, it would mean the world. Thank you all"
p631
aS'Make that 6,335'
p632
aS'This is the better version of twilight!'
p633
aS'well of course it is better'
p634
aS'I mean music'
p635
aS'1:39 fcking hearth attack'
p636
aS'If I had a choice between the origional Twilight and this twilight... I \nwould buy this one.'
p637
aS'more like a successfull troll '
p638
aS"Hm... I didn't see a difference. "
p639
aS'Haha loved it'
p640
aS'Oh for fucks sake shut up Chris no one ever reads that shit'
p641
aS'i saw this video too :D'
p642
aS"A mermaid (':"
p643
aS'Like if you think he should be in the actual movie.'
p644
aS'Please do movies in minutes of the Hunger Games <3'
p645
aS"Ur faster than the others ' if u know what I mean'"
p646
aS'Still a better love story than twilight.. wait.....what?'
p647
aS'Oh my gosh! they should replace alice in the real twilight movie with this \nguy :)'
p648
aS'Better than twilight :D'
p649
aS'lol. love how he stopped the the little car. i laughed and my friends like \n"what?"'
p650
aS"thumbs up if your'e watching in 2013!"
p651
aS'The toy car was hilarious.'
p652
aS'lol wanna see me climb this tree can i come no your to fat haha lol'
p653
aS'HAWAIIIII'
p654
aS'"Everything is better than twilight" a couple years ago we were all "OMFG \nthe new movie is comming out!"'
p655
aS'I miss all his old friends :/'
p656
aS"What's the name of both musical?"
p657
aS"Lol i'm a mermaid"
p658
aS'Still a better love story than twighlight....'
p659
aS"Twilight and Baseball? Yep ... I'm going home ..."
p660
aS'that girl looks hot'
p661
aS"5 years later, and it's still funny"
p662
aS'Wanting to make it seem u drive a ferrari, but is actually an SUV, its not \nfunny, not even in comedy films'
p663
aS'Is that his girlfriend? '
p664
aS'the car !!! mermaid !! fight ! hahaha'
p665
aS'i think its sarcasm '
p666
aS'MDR '
p667
aS'A Mermaid. HAHA XD'
p668
aS'no duh dumbass'
p669
aS'better than the actual movie :)'
p670
aS'we need more movie in minutes'
p671
aS'god this brings back so many memories '
p672
aS'You can see the camera in the mirror at 2:47'
p673
aS"It's time lol"
p674
aS'but im strong enough to do THIS! BAHAHAHAHAH!!!!!!!!'
p675
aS'At 2:00 thats a weird way to throw a ball '
p676
aS"It's time *idiotface*"
p677
aS'2.53 nipple twist xD'
p678
aS'This is a long video!'
p679
aS'Could not stop laughing :D lol'
p680
aS'MERMAID. LOL '
p681
aS'this is actually disgusting x('
p682
aS"=APPLE AND ANDROID MOBILE DEVICES ONLY= Do you shop on Amazon or iTunes? If \nyes, follow the instructions below for a free TEN DOLLAR e-gift card of \nyour choice for Amazon or iTunes! I. Open your MOBILE (iOS/Android) web \nbrowser and go to tinyurl .com\\giftAMAZON II. Install any app and keep the \napp open for at least 30s to receive credit III. Open your web browser \nagain to pick a TEN DOLLAR e-gift card for Amazon or iTunes I have two \nAndroid devices so I've already redeemed 2x Amazon gift cards!"
p683
aS"idiot. it's called sarcasm... "
p684
aS'your MAPOTI'
p685
aS'no tehee'
p686
aS'lol '
p687
aS'Ryan ur fucking hot when u touch the mini car and there a close up'
p688
aS'This is a old video so dont complain..'
p689
aS'first asian girl i think is hot.......'
p690
aS'OMG the yellow car TOY CAR :P '
p691
aS'Ryan is a WAY better Edward than Robert Pat--whatever lol'
p692
aS'Dafuq am I watching'
p693
aS'Funny'
p694
aS'Paaaaahhaaaaahshhddahahahahahahaaa!!!'
p695
aS'Lol bloody nipples'
p696
aS'A mermaid :D'
p697
aS'1:05 he looks almost like robert.....aka edward cullen...'
p698
aS'Dear Ryan, Did animals listen to you? TEEHEE'
p699
aS'LOL... wkkwkwkw '
p700
aS'Nigahiga never gets old 3'
p701
aS'Lawl...Stopping the toy car. That should of been in the original movie tbh'
p702
aS'way better than the original'
p703
aS"aha haven't seen this in ages"
p704
aS'Still a better love story than- Oh wait'
p705
aS'YOU DON"T SAY?!'
p706
aS'1:06 you need a tan lol!'
p707
aS'Can you do percy jackson not a reader but heard it was good lol'
p708
aS'this is not a parody, this is a better and more improved version of \ntwilight '
p709
aS'a mermaid lol'
p710
aS'Lol'
p711
aS'dude...are you serious? we totally didn\'t know that he couldn\'t travel in \ntime and be on a fucking iRock! seriously "faze shots"...grow up -.-'
p712
aS'A MERMAID!!!! LOL'
p713
aS'( \xcd\xa1\xc2\xb0 \xcd\x9c\xca\x96 \xcd\xa1\xc2\xb0) '
p714
aS'1:44 Ryan is touching her boob 7u7'
p715
aS'LOL '
p716
aS'I miss Tim. :('
p717
aS'ouhhh alice de'
p718
aS'Oh wow!'
p719
aS'Hahaaha'
p720
aS'mermaid with bl0od sucking teeth'
p721
aS'I died laughing'
p722
aS'BEST TAKE ON SUPER MASSIVE BLACKHOLE EVER '
p723
aS'Nvm, lol.'
p724
aS'Yolo'
p725
aS'Shrlde'
p726
aS'hahahhah'
p727
aS'When i watched Twilight, i thought that it was just bloopers.'
p728
aS'HAHAHAHA OMG!!! BURST OUT LAUGHING AT 0:50!! Ps: Do check out this other \nvideo which is really funny! youtube.com/watch?v=zuy46axawiA'
p729
aS'his old girlfriend? '
p730
aS'Still better than the original.'
p731
aS'Way better then the actual movie'
p732
aS'D one for hunger games!'
p733
aS'love all these videos hes like kevin heart speaking of........... dear \nryan, would u say in the future ud like to be like kvin heart'
p734
aS"OH MY GOD I'M FUCKING LAUGHING MY ASS OFF HAHAHAHA LOVE THIS SO MUCH \nHAHAHAHA!"
p735
aS'im watching this in 2013 haha'
p736
aS'Oh my god...'
p737
aS'thats a little harsh'
p738
aS'faze shot was sarcastic. you are a dumbass'
p739
aS'loooool wtfudggee '
p740
aS'EPIC!!! :D '
p741
aS'So many views \xe2\x98\x85'
p742
aS'AAHAHAHAHA!!!!!!!!! I LOVE IT!!!'
p743
aS"There is finally something wrong with youtube .... every single dam vid. \nthat I have checked has zero dislikes. That can't be true, because the \nworld is just filled with haters. .........Funny video though :)"
p744
aS'if ya look closely... the yellow car is fake :O '
p745
aS'Stupid'
p746
aS'damn, you should have actually used the song "super massive black-hole- \nmuse" at there scene where "vampires play base-ball" .. '
p747
aS'Still a better love story then...oh wait'
p748
aS'1:53 I laughed my dick off hahahahahahahah'
p749
aS'MOVIES IN SECONDS- MOVIES IN MINUTES lol wtf'
p750
aS"Really we watched the same video??? How cool isn't that!"
p751
aS'Your faster than the others.... You are a mermaid. '
p752
aS'Word.'
p753
aS'do hunger games ! ! !'
p754
aS'the BEHIND THE SCENES was better than the real video .'
p755
aS'What am I? SAY IT OUT LOUD! A mermaid. NO!! I am a MerMan. Big difference.'
p756
aS'"You\'re faster than the others" "Teehee!"'
p757
aS'hahahaha LOL'
p758
aS'/watch?v=llyiQ4I-mcQ Its a version of Boom Boom Boom Boom by the Vengaboys, \nif that helps??'
p759
aS'whats the song at the bloopers? '
p760
aS'edwards asiam?'
p761
aS'heheheh...'
p762
aS'A mermaid.'
p763
aS'so cooooool '
p764
aS'2:54 pause it and be scarred for life'
p765
aS'LOVED IT'
p766
aS'Lol'
p767
aS'ryan would make a better edward than edward himself TEAM RYAN ;D XD'
p768
aS'a MERMAID HAHAHAHAHAHAHAHHAHAHAHAHAHH LOL'
p769
aS'still a better story then the real twilight'
p770
aS'ITS TIME!!'
p771
aS'xD Ryan :O do the parody of K-pop please xdd or you have it yet?O.o <3'
p772
aS'I used to watch this cause I liked twilight but now I watch it caused \nnigahiga :D'
p773
aS'His face is... xDDDD SO WHITE!'
p774
aS'What am I. Say it. Say it out loud. A mermaid. Lol'
p775
aS'1:53 its time xD'
p776
aS'The intro music scared me'
p777
aS'not funny i hate twilight though'
p778
aS'whats with all the suspencion marks?!'
p779
aS'wrong truck also...ruins it..just cause'
p780
aS"You're welcome :D"
p781
aS'Japanese'
p782
aS'u were actually hoping to get 38 likes too? tehee'
p783
aS"Ryan's waaaaay hotter than Pattison"
p784
aS'ryan ive been watching your videos since I was in 2nd grade haha you never \nlose your creativity keep going'
p785
aS"You're too fat. Lol"
p786
aS'Lol he stopped a little yellow toy car'
p787
aS'What happened to tarynn?'
p788
aS'I feel bad for you, you had to watch this movie to make a parody'
p789
aS'edward is 32 in this vid? '
p790
aS'im on my iSlab'
p791
aS'MAPOTI'
p792
aS'He forgot the tee hee'
p793
aS'You too?'
p794
aS'Still a better love story than Twili-- ...wait.'
p795
aS'What the hell was that'
p796
aS'no im watching it in 2003'
p797
aS'People with common sense.'
p798
aS'2:53 nipple twist !!'
p799
aS' i miss helga'
p800
aS'MAPOTI'
p801
aS'U in Future, wow im in 20 BC on my IStone 6 the past is AWESOME'
p802
aS'omg the bloopers ahahhaha'
p803
aS'Do The Hunger Games :D'
p804
aS"WELL...i'm watchin this in the year 1023 B.C on my iStone 4s"
p805
aS"no, your a tampon, he's white, thin and sucks up blood "
p806
aS"Lol. i'm watching it on my Iphone 647 S "
p807
aS'Exactly so much better than the actual one '
p808
aS'XDXD '
p809
aS'thumbs up if you want him to make a movie in minutes of the hungar games!'
p810
aS"This Edward's way hotter. :D"
p811
aS'I agry with you 2000the wolflover'
p812
aS'Still a better love story than twilight.'
p813
aS'toy car '
p814
aS'Oh my gawd'
p815
aS'Lol this is actually twilight'
p816
aS'I never realized how stupid the baseball scene was lol'
p817
aS"=APPLE AND ANDROID MOBILE DEVICES ONLY= Do you shop on Amazon or iTunes? If \nyes, follow the instructions below for a free TEN DOLLAR e-gift card of \nyour choice for Amazon or iTunes! I. Open your MOBILE (iOS/Android) web \nbrowser and go to tinyurl .com\\giftAMAZON II. Install any app and keep the \napp open for at least 30s to receive credit III. Open your web browser \nagain to pick a TEN DOLLAR e-gift card for Amazon or iTunes I have two \nAndroid devices so I've already redeemed 2x Amazon gift cards!"
p818
aS'Lol I hate twilight but I loved this'
p819
aS'I think Faze shots is trying to be sarcastic.'
p820
aS'better'
p821
aS'1:40 killed me xD'
p822
aS'i missed that bloopers theme, its been a while n.n '
p823
aS'lmfaoaooooo ! '
p824
aS'Hahahah ryan has to have a reunion with these guys and make a video. \nespecially the guy who always wears the wigs!'
p825
aS"I don't get what the baseball thing was about"
p826
aS'"ITS TIME." Died xD'
p827
aS'At 3:56 constipated'
p828
aS"LOL I thought that there was a TEEHEE written on the guy's belly xD"
p829
aS"Edward Cullen/Ryan Higa: You're gonna need these."
p830
aS'The girl is really skinny'
p831
aS'The baseball scene is my favouriteXD'
p832
aS'Lol. Pressing nipples!'
p833
aS'YOU ARE THE HOTTEST ASIAN I HAVE EVER SEEN EVER I SWEAR IM NOT EVEN JUST \nSAYING '
p834
aS'Tarynn is so pretty!'
p835
aS'The first video I watched from Ryan was monkey jump or was it monkey tag \nwell he deleted it now D:'
p836
aS'a mermaid LOL!!'
p837
aS'that yellow car I sweet where can I buy one......OH!! nevermind :3'
p838
aS'A MERMAID!!!'
p839
aS'Still a better history than twilight... oh wait... '
p840
aS'I died'
p841
aS'2:57 I thought it is TEE HEE'
p842
aS'I died when I saw the female baseball player XD '
p843
aS'Better than the original'
p844
aS'2:55 was.......... was..........TOO FUNNY '
p845
aS'this the best out of seven'
p846
aS'uhmm...what '
p847
aS':('
p848
aS"Where is that guy, who doesn't even wear shirts when it snows?"
p849
aS"So many clueless peasants on Youtube, it's annoying."
p850
aS'MAPOTI'
p851
aS'was Tarynn actually his ex?'
p852
aS'and it is still an epic video'
p853
aS'Mermaid LOL'
p854
aS'sorry 2069'
p855
aS'Exactly how it happened'
p856
aS'lol dude you manage to stop that car!! Subsbribed, we need more heroes!'
p857
aS'Its time XD'
p858
aS'nipple twist 2:52'
p859
aS"His ex.. Aaawwww. They're so cute"
p860
aS"No! I'm Watching It In 3057 On My IPhone 647"
p861
aS'HAHAHAHAHAHA OMG XD I LOVE YOU XD'
p862
aS'Huhhh, just fuck off already...'
p863
aS'No oggas showing it to me on his galaxy star 3'
p864
aS'lol xD'
p865
aS'Sick of cliches, but this is still a better love story than twilight. It \nreally is.'
p866
aS'Hahahahahahahahahahahahahahahaha'
p867
aS'Mermaid?'
p868
aS'"It\'s time" made me laugh so much ^^'
p869
aS'so how do you feel now stupid and sensitive or just extremely retarded I \nthink both '
p870
aS'make that 6,334.Wait, what are you talking about??'
p871
aS'Lmao so funny!!'
p872
aS'At the beginning he looks like glen from the walking dead'
p873
aS'This is the GREATEST twilight-related thing EVER made <3'
p874
aS"Dear Ryan, All your videos are great, and when I go to America, I'm coming \nto find you. love your number one British fan. "
p875
aS'Lol i wish in the real movie edward gave James a purple nurple (nipple \ntwist)'
p876
aS"Dear ryan! Can you. Follow one if lady gaga's music video"
p877
aS"I love how Tim always plays a girl's role."
p878
aS'im on an old ryan higa video spree, next is ninja melk... :)'
p879
aS'A mermaid'
p880
aS' a parte da "Alice" levantando a perna kkkkkkkkkkkkkkkkkkk'
p881
aS'WTC?! Alice! Nooo! Alice! '
p882
aS'Dude that girl is fricken skinny '
p883
aS'"Can I come with you?" "No, you\'re too fat" '
p884
aS'"but im strong enough to do this!" XD'
p885
aS'nipple twister ahaha'
p886
aS'^LOL.'
p887
aS'Somehow I knew someone was going to comment that...'
p888
aS'Are u afraid no do u trust me no rarw aaaahhh'
p889
aS'his eyebrows O_O '
p890
aS'Subscribe! If u guys are readin this. Then what "Agent of Secret Stuff". \nSooooo freakin funny'
p891
aS'ryan: what em i say it loud girl: a mermaid'
p892
aS"paranormal\xef\xbb\xbf accounts\xef\xbb\xbf\xef\xbb\xbf are evidence\xef\xbb\xbf demons\xef\xbb\xbf exist,every case has an \ninterdimensional\xef\xbb\xbf approach-using deception as an\xef\xbb\xbf effective \nconstraint..demons mimic\xef\xbb\xbf the deceased promoting s\xc3\xa9ances-talking\xef\xbb\xbf to the\xef\xbb\xbf \ndead,they\xef\xbb\xbf\xef\xbb\xbf also\xef\xbb\xbf mimic alien-grays,ufos\xef\xbb\xbf and\xef\xbb\xbf\xef\xbb\xbf bigfoot\xef\xbb\xbf worldwide\xef\xbb\xbf \npromoting\xef\xbb\xbf secularism,they'll use\xef\xbb\xbf any shapeshifting deception\xef\xbb\xbf\xef\xbb\xbf steering\xef\xbb\xbf \nmen\xef\xbb\xbf\xef\xbb\xbf away\xef\xbb\xbf\xef\xbb\xbf from\xef\xbb\xbf the bible..to\xef\xbb\xbf analyze demonic\xef\xbb\xbf accounts check the \nplaylist on\xef\xbb\xbf my\xef\xbb\xbf channel. "
p893
aS'Twilight Asian version'
p894
aS"if you were from the future, wouldn't your profile pic be a little better \nquality than 16-bit?"
p895
aS'"It\'s time." I always crack up at that bit xD'
p896
aS'Can I get likes for nothing? '
p897
aS'woah, that dude kinda looks like emmett'
p898
aS"What they make tailor last net ugly but he's not"
p899
aS"It's time :)"
p900
aS'hahahaha, oh so good!'
p901
aS"LOL nope, I'm in 300BC watching a 0.2p video on my RockBook Pro. You mad?"
p902
aS'This is just strange...'
p903
aS'Woho for bloopers!'
p904
aS'this is so funny'
p905
aS'Lololol!!! This is hilarious'
p906
aS'Lol'
p907
aS"'its time!' hahaha"
p908
aS'MOOMMMMM NOT IN FRONT OF BELLA!'
p909
aS'i almost disliked, then i figured it must b old'
p910
aS'Still better than actual Twilight.'
p911
aS'The girl actually looks amazing'
p912
aS'When this channel used to be good'
p913
aS'Check out the HillyWood show on youtube! You wont regret it!'
p914
aS'A mermaid xD'
p915
aS'It was a toy car haha'
p916
aS'LOL cried laughing!!! Very Funny!! o/'
p917
aS'better than the original :3'
p918
aS"I shouldn't make assumptions, but generally people who WATCH youtube videos \nhave eyes."
p919
aS'"Edward are you climbing trees again!" hahahaha XD'
p920
aS"LOL, dude you're full of vibes, keep on making vids."
p921
aS'not funny'
p922
aS'this is better twilight video they ould sell '
p923
aS'Twilight Asia'
p924
aS'Shut up'
p925
aS'Luv it'
p926
aS'Nawwww ryan and taryn were dating just like Edward and bella'
p927
aS'I meant "whatch" it not "what" it'
p928
aS'Lmfao, Tim is such a dedicated actor, I love him'
p929
aS"Android and Apple users only! Get free iTunes, Steam, Amazon, PSN, or XBL \ngift codes straight from your Android or Apple device! 1. Open up the web \nbrowser on your Apple/Android device -> go to tinyurl .com /itunes4ever 2. \nInstall an app and keep it open for 30 seconds. 3. Open the web browser \nagain to redeem and receive one of the previously mentioned $10 ($20 for \nSteam and PSN) gift codes of your choice! I've already received $40 worth \nof Steam gift codes this week!"
p930
aS'U right !! ;)'
p931
aS'His comment was sarcasm too !!!!'
p932
aS'Omg Yes!!! xDD'
p933
aS'lol ryan just squeezed his nipples'
p934
aS'needs more mouth breathing and less emotion (lol) xD'
p935
aS'Why you have cow face?'
p936
aS'Mapoti'
p937
aS'sarcasm'
p938
aS'Thats too many Powder'
p939
aS'this is sh*t'
p940
aS'NARUTOOOOOOOOOOOOOO'
p941
aS'dear ryan can u play the game subway surfer'
p942
aS'LOLOLOL I LOVE 1:43 ALICEEE HHAHAA'
p943
aS'"Its time" lol his face'
p944
aS"nah you're too fat.... haha... "
p945
aS'Is that your sister?'
p946
aS'EDWARD ARE YOU CLIMBING TREES AGAIN!??!?!?'
p947
aS'this is funnier then heck lol amazing '
p948
aS'Hahahahaha 0:50'
p949
aS"How the heck did that got top comment, OH MY GAWD I'M AWESUM"
p950
aS'Edward: Are you afraid ? Bella: No Edward: Can you trust me? Bella: Yes. \n..... Edward: BLARGH! Bella: AAH! LOLZ ! XD !!! '
p951
aS'The giggles. They fill me. -Trauma Tize'
p952
aS'Ryan look kinda hot just saying'
p953
aS'ryan: what am i? say it out loud girl: a mermaid then me : hahaha!'
p954
aS'The toy car part was great I laughed so hard XD !'
p955
aS"Edward!!!!! Are you climbing trees again??!!!!! HAHAHAHAHA oh I'm choking"
p956
aS'Teehee! '
p957
aS"I can't stop laughing even though i have been watching this over time!! \nSometimes when you're tired or no mood , best time is to watch your video!"
p958
aS'are you afraid? no...AH'
p959
aS'was that really rean mom'
p960
aS'Ediward Than what am I say out loud belle a mermaid'
p961
aS'from 3:53 to 3:56 am i the only one who envisioned big capitalized bold \nwhite letter that flashed across the screen reading "SEXY BEAST"'
p962
aS'That Girl need to take a bath first before she come to the class... hahaha \n<3 <3 '
p963
aS'LOL like the begining '
p964
aS'cool '
p965
aS'Very true but why post this message here ?'
p966
aS"Hahahahaha 1:39 I can't stop laughing :)"
p967
aS'its being a troll dumbass'
p968
aS'Oh god im laughing so hard right now XD'
p969
aS'1:28 WHAT AM I SAY IT SAY IT OUT LA-UD HHAHAHAHAH'
p970
aS'make that 6,327 Teehee'
p971
aS'Actual movie sucks'
p972
aS'THERE ARE TWILIGHT FANS!?!'
p973
aS'Merna mora how did u do that'
p974
aS'I miss Tarynn :('
p975
aS'got owned by kami badly'
p976
aS'MAKE THAT 12 AAHAHHAHA TEEHEE'
p977
aS'uhh... twilight is better '
p978
aS'1:53 :P'
p979
aS'>actually added muse even though they are too good for twilight \n*insta-scribes*'
p980
aS'Still a better love story than Twilight...... wait.'
p981
aS'Hilarious!'
p982
aS'lol'
p983
aS'Perfect!'
p984
aS"I remember when I was like 14 and I was showing this to all my friends. \nGood times. Thankyou for brightening people's days for years now."
p985
aS'2.53 NIPPLES PINCH'
p986
aS'ITZ TYEMM'
p987
aS'MAPOTI MAPOTI MAPOTI'
p988
aS'whats the music at the end?'
p989
aS'This is the real version. Lol'
p990
aS'please, if your going to post on a video, let it be about the video. if \npeople want to check your channel, they will.'
p991
aS'LMAO'
p992
aS'MAPOTI MAPOTI MAPOTI'
p993
aS'this was so retarded...but surprisingly in a good way'
p994
aS'omg, these ppl r sooooo hot'
p995
aS'A MERMAID!?!?! LMAO'
p996
aS'MAPOTIMAPOTIMAPOTIMAPOTI'
p997
aS'M- Most A - Annoying P - People O - On T - Teh I - Internet Happy, troller?'
p998
aS'is it "want a snack" or "what is that"? at 2:32'
p999
aS'never gets old :)'
p1000
aS"Now I know that everyone sees these messages all the time on YouTube \nbecause of how many people want to make videos nowadays and want to be big, \nand I didn't believe it when I read it on other growing channels spam \ncomments, but when they said it was hard to grow, they weren't joking. No \nmatter how different you are. All I ask is for whoever is reading this? to \ncheck my channel and give feedback, and maybe subscribe and help make my \nchannel grow, and I'll subscribe back..Thank you so much."
p1001
aS'That car lol'
p1002
aS'MERMAID , BHAHAHA'
p1003
aS'What does "MAPOTI" mean ? :d'
p1004
aS' ???????????????????????????????'
p1005
aS'uh...'
p1006
aS'awsomeometor : 1000000000/10'
p1007
aS'The car crash bit was hilarious'
p1008
aS'Most Annoying People On The Internet= MAPOTI. This word was created by Ryan \nNiga (the guy in the video)... \n/watch?v=Tkm5K2fu0AI&list=UUSAUGyc_xA8uYzaIVG6MESQ&index=3'
p1009
aS"I mean don't"
p1010
aS'No your to fat lol'
p1011
aS':) :\\ :( '
p1012
aS"in the thumbnail it looks like you're just about to ass rape her"
p1013
aS'No, 1300 BC on my iRock.'
p1014
aS'I Watched this a loong time ago befor i even knew Ryan,how cool :) '
p1015
aS'lol Who is "we"? '
p1016
aS'LOL Nope! You sir are an attention whore/ MAPOTI.'
p1017
aS'TEEHEE'
p1018
aS'Omg where is Tim now?'
p1019
aS'1:54 "It\'s TIME!" HAHAHA that shit made me laugh so hard!'
p1020
aS'The special effects are amazing!!! '
p1021
aS'"what am i? say it" \'a Mermaid\''
p1022
aS'if this was actually the Twilight trailer.. I would pay to watch the \nmovie.. even if the original movie sucks donkey balls.. '
p1023
aS'But..... it is Twilight?'
p1024
aS'Lol I love this'
p1025
aS'pobs his bst vid! xD lmfao'
p1026
aS'LOL'
p1027
aS'This is the first nigahiga video I watched'
p1028
aS'dat girl is hot'
p1029
aS'Laugh out loud! This is absolutely hilarious..'
p1030
aS'LOL so funny'
p1031
aS'a mermaid '
p1032
aS'A mermaid.'
p1033
aS'mermaid :) better than the original story'
p1034
aS'Whos the girl'
p1035
aS"Why did he cover her eyes when ''his mom'' asked if he was climbing trees \nagain "
p1036
aS'he wasnt borned you dumbass '
p1037
aS'??? this video is... four years old...'
p1038
aS'fucking thumb whore'
p1039
aS'MAPOTI'
p1040
aS'Lol big fan'
p1041
aS'FAKE! She had facial expressions'
p1042
aS"I'm watching it in 2057.. I can time travel. :D"
p1043
aS'MERMAID'
p1044
aS'0:47...A water gun!...'
p1045
aS'And they still have bloopers? Ow man. XD'
p1046
aS'LOL ^_^'
p1047
aS"Nop. I'm watching this in america."
p1048
aS'awsome'
p1049
aS'I love these old videos! -3'
p1050
aS'no...im watching this in year 0...i just tweeted the birth of jesus on my \nistone'
p1051
aS"Waaaah!! I've watched this before I really knew who is Ryan Higa! <3"
p1052
aS"I love this but the only thing I don't like is the bleeding nipples at the \nend"
p1053
aS'Twilight advertising on the side of the video! XD'
p1054
aS'Like if you think League of Legends is a good game.....'
p1055
aS'Ha ha....wow you are so funny...'
p1056
aS'A Mermaid... lol XD'
p1057
aS'Lol the toy car'
p1058
aS'How about no.'
p1059
aS'Twilight was such a terrible movie'
p1060
aS'I like how he throws the ball I literally spat rice all over my screen.'
p1061
aS'Bro fist Pewdie sent me'
p1062
aS'cuz his sisters have to be his friends'
p1063
aS'thumbs up if your watching this in 1892'
p1064
aS'Lmafo'
p1065
aS'Better than the original'
p1066
aS'Ryan- Who am I? Say it OUT LOUD Girls- ur... A mermaid Ryan-wat? .....R u \nafraid Girl-no Ryan -screams in her face'
p1067
aS'Teehee'
p1068
aS'"It\'s time" DAT FACE!'
p1069
aS'SAY IT OUT LOWD'
p1070
aS'hahahhaha '
p1071
aS'i Lovely it man'
p1072
aS'This is pretty accutare'
p1073
aS'oh well close enough XD'
p1074
aS'0:54 - 1:00 xD'
p1075
aS"Ryan I don't know if you are reading this but if you are then I just wanted \nto tell you if you can do a parody of all the twilight movies and combind \nthem in to one?"
p1076
aS'that was surprisingly awkward'
p1077
aS"is that ryan's gf? she is very pretty! "
p1078
aS'(-_-)"'
p1079
aS'hey ryan, give me the number of the girl and ill give you a like :D'
p1080
aS'ofcourse...a mermaid who wouldnt see that'
p1081
aS'Ryan is HAWT! '
p1082
aS'Nipple grab lol old but gold'
p1083
aS'Funny very funny'
p1084
aS'man why do u have so many hot asian friends'
p1085
aS'too'
p1086
aS'No ur to fat XDDD'
p1087
aS'theres always that one person who says "like if you\'re watching this in..." \nand that one who makes fun about it :D'
p1088
aS'T of Vella'
p1089
aS'Do hunger games!!!!! Plzzzzz'
p1090
aS'what is this facebook?? '
p1091
aS'Lol hilarious!!!!!!!'
p1092
aS'Im gonna die hahahhahhahaha'
p1093
aS'From Vampire Sucks lol'
p1094
aS'XD'
p1095
aS'i just upload a new comedy video check it out hope you will like it'
p1096
aS'2:58 BWAHAHAHAH'
p1097
aS'Never seen twillight before but this one is probably better.'
p1098
aS'0:53 must watch'
p1099
aS'Better than the real movie'
p1100
aS'NO WAY !?!? DOES IT COME WITH FREE VIRUS TOO ! BEST DEAL YET !'
p1101
aS'Aww mum not infrony'
p1102
aS'I love Twilight but this is amazing! Haha'
p1103
aS'hi niples were bleeding :P lol'
p1104
aS'Funny How dare you not put more insult in to this abomination of a movie'
p1105
aS'what happen to tarynn and ryan?'
p1106
aS'Oh my god really!!??'
p1107
aS'Lol'
p1108
aS'Lmao!!!!!! Cute :))'
p1109
aS'eow'
p1110
aS'oh my god this is 2013? i thought we were is 1872'
p1111
aS'I think i will suffocate from laughing too much after posting this. Goodbye \nworld xoxo Halo'
p1112
aS'No your too fat'
p1113
aS'Movies in seconds: lord of the rings: ring-volcano'
p1114
aS'1:02 LOL'
p1115
aS"''you bought a snack'' that was really funny"
p1116
aS'the girl is fine af damn.'
p1117
aS"Noob. I'm watching it in 10 000 BC on my iStone"
p1118
aS'Movies in minutes - Iron Man 1 2 3 '
p1119
aS'Still a better love story than the Original Twilight!'
p1120
aS'1:54 He looks like Mr.Bean.'
p1121
aS'I think the guy at 1:57 is the funniest part of the whole video'
p1122
aS'Edward are you climbing the trees again? Not in front of bella xD!'
p1123
aS'Supermassive Black Hole by Muse'
p1124
aS'Ur awsome'
p1125
aS'lol he throws on the couch then like jumps on her and punches her'
p1126
aS'There is dislikes YouTube is bugging out.'
p1127
aS'OMG!! Ryan looks so hot!'
p1128
aS'ryan: "who am i? say it out loud" girl: "a mermaid" lol!'
p1129
aS"=APPLE AND ANDROID MOBILE DEVICES ONLY= Do you shop on Amazon or iTunes? If \nyes, follow the instructions below for a free TEN DOLLAR e-gift card of \nyour choice for Amazon or iTunes! I. Open your MOBILE (iOS/Android) web \nbrowser and go to tinyurl .com\\giftAMAZON II. Install any app and keep the \napp open for at least 30s to receive credit III. Open your web browser \nagain to pick a TEN DOLLAR e-gift card for Amazon or iTunes I have two \nAndroid devices so I've already redeemed 2x Amazon gift cards!"
p1130
aS'So original.'
p1131
aS'no your too fat lol'
p1132
aS"3:12 Edward: You wanna see me climb this tree? Bella: Can i come with you?! \nEdward: ...Nah you're too fat Bella: Oh.. LOL! "
p1133
aS"please tell me you're a troll"
p1134
aS'Yeah, Especially helga fawntanilla.'
p1135
aS'"What am I, say it out loud".... "a mermaid" XD'
p1136
aS"1:54 ''ITS TIME...'' Lmao"
p1137
aS'looool '
p1138
aS' the girl looks better than the original'
p1139
aS'R u from America?!'
p1140
aS'Yea, I especially like the girl at 2:01.'
p1141
aS'HEY... thank you '
p1142
aS'HAHAHAHA! I died!'
p1143
aS'Ryan makes an amazing creepy vamp'
p1144
aS'When he pitched I died'
p1145
aS'in deh car........ '
p1146
aS'alice looks wierd '
p1147
aS'2:51 LOL '
p1148
aS"*you're"
p1149
aS'a mermaid xD'
p1150
aS'can i come with you? no your to fat'
p1151
aS'Why does she put a water gun in her bag?'
p1152
aS'Funny vid! :D Well done!'
p1153
aS'hahaha'
p1154
aS'"what am I? say it! say it out loud! A mermaid" roflmaaaaaaaaaaaaaaaaooooo'
p1155
aS'Only I that think Alice was creepy?'
p1156
aS'Do a movie in minutes about that scary movie MAMA'
p1157
aS'SaveTheTwinkies!!!!!!!!!!!'
p1158
aS'im no racist but asians are ninjas! not pussy vampires'
p1159
aS'do you now what i am? a mermaid a what a mermaid are you afraid? lmao \nhahaha xD '
p1160
aS'FETUS RYAN OMFG I MISS THIS AND HOW HE WAS YOUNGER TOO. He was always hot \nLOL.'
p1161
aS'Hahaha funny'
p1162
aS'Haha.'
p1163
aS'Better than actual twilight 10/10 would watch again,'
p1164
aS"*makes a face* '... it's time.' BRB DYING"
p1165
aS'LMFAO'
p1166
aS'Ha ha'
p1167
aS"Best part i feel is at 1:53 thats right.... It's time (;!"
p1168
aS'Edward are you climbing trees again???'
p1169
aS'6,334 TEEHEE'
p1170
aS'1:26-1:33 lol, "say it out loud" "a mermaid"'
p1171
aS'can you be a mermaid?'
p1172
aS'Dear Ryan !! Can you make the man of steel movie :)))'
p1173
aS'@cmlowe23 I am dying to xD'
p1174
aS'Lol awesome'
p1175
aS'5027.....duh??'
p1176
aS'Gotta say.. Ryan, you make a very sexy Edward..'
p1177
aS'Rosalie...:D Is this Rosalie?:D:D Da fuq?!:D'
p1178
aS'A mermaid :DDD'
p1179
aS"like? this isn't facebook -_- "
p1180
aS'Hahaha'
p1181
aS'Hahaha!'
p1182
aS'Lol'
p1183
aS'1:53 LOLOL'
p1184
aS'A mermaid'
p1185
aS'SMOSH is more better!!!!!'
p1186
aS'AHAHAHAHAH edward, are you climbing trees again?? '
p1187
aS'what am i? say it! a mermaid! like what? then he scares her like what?'
p1188
aS'Nigahiga:What am I? Say it! Say it out loud! Me: She is gonna say \nvampire... Girl: A mermaid. Me:*laughing my ass off and making a wtf face* '
p1189
aS'Lol'
p1190
aS'1:53. BEST PART'
p1191
aS"Actually, I'm watching this in 2014. "
p1192
aS'A MERMAID'
p1193
aS"So I could be all cheesy and write how Ryan inspired me to make videos and \nstuff. But truth is I liked making videos way before I knew of him. And \nthey sucked. Really bad. So I deleted them all, and I'm trying to have a \nfresh new start. They might not be that good yet, but honestly which \nyoutuber started of with a blast? Anyways, please check out this first one, \nI didn't put much time into this one, but you know, it's something. \n/watch?v=u9jD3SoIkmU Lemme know watchu think! PLEASE!"
p1194
aS'no your too fat!'
p1195
aS'Lol'
p1196
aS'Eww'
p1197
aS'thats fucked up. you n her are both fucked up.'
p1198
aS'can make another video about free running'
p1199
aS'Ryan sure has some hot Asian female friends.'
p1200
aS"Watching this because they're showing Twilight On ABC Family."
p1201
aS'The girl at 1:53 is hot. LOL'
p1202
aS"Twilight was on today on ancient family they're replaying right now and I \nwatched this wen it first came out so funny lol"
p1203
aS'Is it just me or does the girl look like Promise Phan?'
p1204
aS'A mermaid'
p1205
aS'1:53 is what i came back to see haha'
p1206
aS'Lol'
p1207
aS'Who still watching in 2013 :D'
p1208
aS'El o el'
p1209
aS'XD'
p1210
aS'stahp '
p1211
aS'what '
p1212
aS'dear ryan can you make another movie in minutes video'
p1213
aS'i remember my friend showed me this video when it first came out <3 2013!!!'
p1214
aS'Lol the funniest one hahaha'
p1215
aS'ryah looks so gross with those whitey make up.lol.haha'
p1216
aS'watch?v=x9CPeTo237A'
p1217
aS'No, Im watching it in 2099 can you actually believe we have flying cars!! \nPlus my great great great grandmother lived in 2013 eww!!'
p1218
aS'wat happend to TEEHEE '
p1219
aS'TEEHEE! Good one!'
p1220
aS'by what stretch of the fucking imagination.'
p1221
aS'* * * few days ago my girlfriend told me she is tired n sleeping, after \nsometime my friend called me that she is enjoying with a guy.I went there \nand caught her red handed with that guy on bed..that bitch told me she dont \nwant me anymore.after what all i have done for her she dumped me for this \nguy.So in order to take revenge I have posted all her nude pics and her \nvideo. * visit: bitly.com\\gf-revenge (copy paste this in browser)* her \nFacebook Profile facebook.com\\annie.gracia.357 * * *'
p1222
aS'if u pess stop download it looks like he is watching her A** :D'
p1223
aS'wtf'
p1224
aS'best twilight movie ever :D'
p1225
aS'Wow you watched the video??'
p1226
aS'Still a better love story that tilight... the erivanal'
p1227
aS'A mermaid. WAT ? A mermaid. '
p1228
aS'haha that yellow car gets me every time'
p1229
aS'Teehee? '
p1230
aS'WOAH... is that sean from how to be ninja?'
p1231
aS'What a disgrace!'
p1232
aS'are you afraid of mermaids?'
p1233
aS'Pwahahahaha* hate autocorrect'
p1234
aS'ha ha ha funny'
p1235
aS'Ah, classic game of baseball. Love it!'
p1236
aS'you got that from vampires suck'
p1237
aS'twilight is the best movie *.*'
p1238
aS'No your too fat'
p1239
aS'sub and get it back'
p1240
aS'This is the Asian twilight ;)'
p1241
aS'2013'
p1242
aS"NO TEEHEE??:'("
p1243
aS'A mermaid XD'
p1244
aS'She is really pretty'
p1245
aS'2:01'
p1246
aS'Trollolololol'
p1247
aS'No teehee ?'
p1248
aS'On my Channel! Man Eats His Own Shit 2013 /watch?v=vbSG2i157CQ Girl Sucks \nHer Used Tampon /watch?v=spDqBWGzV50'
p1249
aS'The F----?'
p1250
aS'you should make marley his own videp '
p1251
aS'Can i come with you no your to fat LOL!!!'
p1252
aS'Too Fab.. :) '
p1253
aS'ULTIMATE TITTY TWISTER!!1!!!!1!!!4'
p1254
aS'A mermaid lololol'
p1255
aS'Wth funny'
p1256
aS'This make me love twilight. '
p1257
aS'Can you do Broke back Mountain? lmao'
p1258
aS'Jan.31, 2013:)'
p1259
aS'Lol'
p1260
aS"u forgot ''TEEHEE'' :("
p1261
aS"Yes i know , This is false !!! me too i'm not japenese and im waching \nnaruto !!! ^.^"
p1262
aS'wtf'
p1263
aS'1:39 i laughed so hard!!!'
p1264
aS'Say it. Say it out loud. Your a mermaid.'
p1265
aS'A mermaid xD'
p1266
aS'5:52-5:55 Wet myself'
p1267
aS'i got you top comment sooooo your welcome'
p1268
aS'make dhat 22 including you!!'
p1269
aS'Hahaha a mermaid'
p1270
aS'"Like" if you think there should be a "LOVE IT" button.'
p1271
aS'I think when he made this vid he ddnt know he will have 7,318,147 \nsubscribers 4 years later!! '
p1272
aS'Your too fat'
p1273
aS'lol xD still better then the original movie '
p1274
aS'He has already been in one!'
p1275
aS'lol'
p1276
aS'well who doesnt watch naruto xD'
p1277
aS'wish i had a hot asian girl lol'
p1278
aS'WHY'
p1279
aS'"edward are you climbing trees again?" :D'
p1280
aS'Back when there was no teehee'
p1281
aS"I lol'd so hard at the nipple twist xD"
p1282
aS'hahahahaha lmao better than the real movie xD'
p1283
aS'i miss the music at 3:35. good times'
p1284
aS"This couldn't be funnier! specially that guy at 2:02"
p1285
aS'HAHA!!! LOVED THIS!!!! Omg Alice\'s pitching, "It\'s time" and blooper of the \nscene "you\'re faster than the others" Priceless XD'
p1286
aS'And it still beat the original by 100,000,000%'
p1287
aS'Omg that is so sad'
p1288
aS'you have a new subscriber'
p1289
aS'Bella:A mermaid Edward:What? Lol'
p1290
aS'Still better than Twilight.'
p1291
aS'mermaid lol'
p1292
aS"My version twilight. A BIG FAT STINKING TURD IN A MOTHERFUCKIN' TOILET"
p1293
aS'I am a die-hard twi-hard but this was funny...!'
p1294
aS"Owh the good old days... =w= Youtube's subscribe button was yellow when I \nwatched this for the first time."
p1295
aS'ha ha ha'
p1296
aS'I miss this hehe'
p1297
aS'BEST BASEBALL EVER!!!!!!!!!!!! XD'
p1298
aS"The girl in this is ov's Asian, so of course she's gonna be prettier. I \nmean, most Asian girls normally are prettier than white girls."
p1299
aS'LOL XD'
p1300
aS'ROFL'
p1301
aS'Dear Ryan, can you make a movie in minutes - the hunger games'
p1302
aS'are u vietnamese?'
p1303
aS'Funny'
p1304
aS'still better than the original saga'
p1305
aS'Omg, thats EXACTLY how it happened. I mean, they litterally just summed up \nthe movie o.O'
p1306
aS'Like seriously... why do people miss out on Hetalia Xo'
p1307
aS'"What am I, SAY IT, SAY IT!" "A mermaid" LOL XD'
p1308
aS'my god forever favorite '
p1309
aS'awkward at first....'
p1310
aS'\xc4\xb0\xc5\x9fte en sevdi\xc4\x9fim film. Ben de vampir olmak isterdim, kurtadamlar ezik hac\xc4\xb1. \nSa\xc3\xa7\xc4\xb1m\xc4\xb1 da orda bi uzun sa\xc3\xa7l\xc4\xb1 vampir var ona benzesin diye uzatt\xc4\xb1yd\xc4\xb1m \xc3\xa7ok \nseviyorum. Here my favorite movie. I wish I could be a vampire, werewolves \nare suckerz. I got my hair longer because of a vampire in this movie. Cuz I \nLOVE VAMPIRESSSS.'
p1311
aS'Hes the only person that makes me actually laugh'
p1312
aS'that throw... hawt.'
p1313
aS"I remember when I saw this and didn't know what mermaid means...good times \n:)"
p1314
aS'lol'
p1315
aS'asian twilight'
p1316
aS'Love alice'
p1317
aS'MAPOTI!'
p1318
aS"DAMN SHE'S FINE"
p1319
aS'OMFG ,! the guy in the ponytails (x DEAD,'
p1320
aS'Does the trojan come with it or do i have to pay for it?'
p1321
aS'wtf??'
p1322
aS'Little car hahahahaha'
p1323
aS'Aha'
p1324
aS"you're*"
p1325
aS'What am i? Say it outloud!!'
p1326
aS'a mermaid...'
p1327
aS'Baseball part was the most hilarious part'
p1328
aS'Still a better love story than twilight.'
p1329
aS'I miss all these people );'
p1330
aS'Lmao'
p1331
aS'-.- lol'
p1332
aS'no teehee?'
p1333
aS'Damon Ryan... ;S Stop being so sexy!!'
p1334
aS'I love u NigaHiga !!!!'
p1335
aS'Please do hunger games!?'
p1336
aS'Omg wtf'
p1337
aS'Even Ian was (x '
p1338
aS'ryan makes the best parodies EVER !!!!!'
p1339
aS'That was great! You should do Game of Thrones! Do a Tyrion, Sansa, Cersei, \nand Jaime scene. '
p1340
aS"rosalie's pitching kills me"
p1341
aS'What the fuck auto correct. Damn Ryan. stop being so sexy!!!'
p1342
aS'0:19 RYANS EX XD'
p1343
aS'Its Time! I love that part'
p1344
aS'Hi tahnk you for reading my comment ont his video. :) I like tiniggahiga e \nvery much and think they make life worth living too. I have been working so \nhard with my uncles. I am almost 12 and a young lady . I want to make \nmovies very moch like niga higa, I love them. So I make funny ones too My \nuncles live with me and my dad at our house in Canada and my dayd bought me \na nice jvc camera and gave me a cord. My uncles are my dads brothers and \nthey help make the funny mocies. please'
p1345
aS'Hey ryan higa can u do the hunger games? '
p1346
aS'Purpl nurple!!! xD'
p1347
aS'...'
p1348
aS'Still a better love story than twilight....wait what?'
p1349
aS'0:55 That car scene reminds me of Infinite- The Chaser xDD'
p1350
aS'copy and paste this onto 3 other videos say heaven hell heaven hell then \nkiss your hand 5 times and look under your pillow'
p1351
aS"this has better quality than the movie it's self!"
p1352
aS'geht so'
p1353
aS'OMG THATS HILARIOUS!!!'
p1354
aS"I don't get it?"
p1355
aS'This is still better than twilight.'
p1356
aS'i know XD i was like DAFUG????'
p1357
aS'Hunger games are ok!'
p1358
aS'A mermaid'
p1359
aS'Ooooohhhhhh snap twilight jus got dissed by under me'
p1360
aS'of course you would suggest that XD i know a girl whos like Esther.. IM \nSCARED'
p1361
aS'"a mermaid" omg that made me laugh so hard hahahahaha '
p1362
aS'Were they mowing the lawn or something when they were in the driveway??'
p1363
aS'what? that girl was 15 at that time :O'
p1364
aS"He or she it's time face I lough sow loud with that hahahahaha"
p1365
aS'I apologize for the spaming, but I have a gaming channel and all I want is \nto promote him a little. :) So if you have the time and will to check out \nmy channel, please do it. :) I have a high quality video Gameplays and \nTutorials. And if you like it, you can to subscribe. :) Sorry one more \ntime! And thank you for your time. :)'
p1366
aS'Wtf mermaid?'
p1367
aS'This made my day XD'
p1368
aS'THAT CAR HAHAHAHAHAHAHHAHA'
p1369
aS'MAPOTI!!!!!'
p1370
aS'haa. she was so stinky he gave all those perfumes/colone.'
p1371
aS'ya3.. #DearRyan please do pitch perfect!'
p1372
aS'Wtf'
p1373
aS'Still better than Twilight....'
p1374
aS'lol wtf did i just watch '
p1375
aS'Still better than peanut butter'
p1376
aS'old but gold :D '
p1377
aS'Alice and James are the same people.'
p1378
aS'lol the ball they use at 1:54 looks like a tomato :3'
p1379
aS'you wanna see me climb this tree? yes, can i come with you? no you are to \nfat! hahah lol'
p1380
aS'haha it was a toy car'
p1381
aS'you are very funny with the videos..... '
p1382
aS'"You wanna see me climb this tree?" "Can I come with you?" "No, you\'re too \nfat." "Aw..." LOL.'
p1383
aS'mermaid ft eminem not afraid '
p1384
aS'What am i? A mermaid '
p1385
aS'you are cool.....'
p1386
aS'LOL it would be a dream come true if I were to do a video with u ryan'
p1387
aS'Better than the real movie haha'
p1388
aS'What am i? A MERMAID '
p1389
aS'PB&J is a better love than twilight!!'
p1390
aS'3:53-3:55 CONSTIPATION!!!'
p1391
aS'"its time" LOLOLOLOLOLOL'
p1392
aS'Your to fat lol'
p1393
aS'Make this happen.'
p1394
aS'A MERMAID LOOOOOOOOOOOOOOL'
p1395
aS'1:45 nigahiga is touching the girl`s boob... '
p1396
aS"A mermaid ? I just thinking that she probably says he's a gay. well, I \ndunno. 'cuz Edward sprakles ?"
p1397
aS'....gross.'
p1398
aS'did anyone else see the camera in the mirror? 2:49'
p1399
aS'Too hot too fast'
p1400
aS'Ryan plz can you do breaking dawn'
p1401
aS'No TEEHEE :('
p1402
aS'I love the way they make Alice lol'
p1403
aS'Twilight does not contain such a pretty lady.'
p1404
aS"*you're"
p1405
aS'Only just realized that Ryan and Tarynn were dating. Worst.stalker.ever -.-'
p1406
aS'Am I the only person wondering who the hot chick is?? '
p1407
aS'Lmfao'
p1408
aS'tee hee'
p1409
aS'the bloopers are the funst'
p1410
aS'IT IS BEST THAN ORIGINAL. '
p1411
aS"you're an idiot..."
p1412
aS'omg thumbs up all the way, i think i died from laughing too hard'
p1413
aS'like if you have watched this video 1000 times! '
p1414
aS'ROBLOX=robhee'
p1415
aS"Omg I just couldn't stop laughing. Your videos are halarious. You should do \nmore movies in minutes."
p1416
aS' i cant stop laughing i love this video'
p1417
aS'favorites- 198 \xd0\x9a !!!!!!!!!!!!!! like - 131 \xd0\xba comments- 109 \xd0\xba How so? Bought \nviews?'
p1418
aS'Supermassive Black Hole by Muse.'
p1419
aS'@Daniel Rincon she is Tarynn Nago I think its in the description...'
p1420
aS'what the hell are those bottles '
p1421
aS"I don't remember this with this dumb music in the...i can't say background \nbecause it's louder than the freaking people speaking."
p1422
aS'MERMAID! HAHAHAHAHAHHAAH!!!!!!!!!!!1 '
p1423
aS"It's time!"
p1424
aS'Co za asy mom Der totet'
p1425
aS'can u make a breaking dawn movies in minutes plzzzzz '
p1426
aS'Omg I could totally ride that yellow car'
p1427
aS'BUT I STONG ENOUGH to do this twist nippels '
p1428
aS'A mermaid? Lol'
p1429
aS'No, Ur too fat.'
p1430
aS'girls having huge muscles. LOLLL'
p1431
aS'At the end i giggled, but i have a cough so i ended up choking :)'
p1432
aS'Haha I love twilight ( I know I know everyone thinks it sucks) but haha \nthis was so funny!!!'
p1433
aS'Haha xD'
p1434
aS'how is she not afraid of a mermaid?'
p1435
aS'this is twilight stupid'
p1436
aS'17'
p1437
aS'a mermaid? lol'
p1438
aS'@1:44 look at his hand!!!! lool xD'
p1439
aS"Uh oh, someone's a Twilight fan..."
p1440
aS'U and jenna marbles should do a vid together'
p1441
aS'2:52 shoulda been in the movie xxxxxxxxxxx :P'
p1442
aS'omg, mr.Bean 1:54 '
p1443
aS'All your videos are so funny'
p1444
aS'you have funny videos '
p1445
aS"A MERMAID..LOL..CRYING OUT LOUD....:'-O"
p1446
aS'Stupid'
p1447
aS'EDWARD! are you climbing trees again? HAHA LOL!!!'
p1448
aS'A mermaid :))'
p1449
aS'noo your too fat '
p1450
aS'I remember me and my friend filming our own version of this when we were 10 \nyears old, we basically worshiped this video :3'
p1451
aS'This is way better than the movie'
p1452
aS'Still a better live story then the origanal'
p1453
aS'So fuuuuuuuuuuuuuunnnnnnnnny!'
p1454
aS'Save me Mermaid<3'
p1455
aS'If teilight was really like this id watch it c:'
p1456
aS'What the hell LMfAO'
p1457
aS'Water guns?'
p1458
aS'no teeheee?!'
p1459
aS"It's 2014... still watching :)"
p1460
aS'Lmao ummm'
p1461
aS'the bloopers are always my favorite part lol'
p1462
aS"Oh, I'm waiting so bad for the Breaking Dawn MIM version ><"
p1463
aS"Where's the TEEHE?:("
p1464
aS':|'
p1465
aS'Tell me about it...'
p1466
aS'"A mermaid" I laughed so hard XD'
p1467
aS'"wanna see me climb this tree" "can I come with u" "....no ur too fat" "oh" \nlol 3:08'
p1468
aS'No, nighiga is the same as smosh :D'
p1469
aS'Attention Apple Users ! Here is an easy way to get free iTune Gift Cards! \nSearch for FreeAppParty in your AppStore and download it ! After that, \nregister and type in nicholas5551 in the referral code section to gain 50 \nstarting points! All you need is 500 points and you get a $15 iTune Gift \nCard! Go back to main page, click the top left corner! "Party Treat" \nInstall any available application and play it for 30 seconds. Go back and \nredeem your points! You get around 100 points per game!'
p1470
aS'Thumps up if your here because you saw it on TV yesterday '
p1471
aS'but i see where your coming from. :) :) :) :) :)'
p1472
aS"Can i come? No you're too fat xD haha i lost it there"
p1473
aS'THAT WAS weird '
p1474
aS'u mean more than 6000'
p1475
aS"like if you're watching this in 2015."
p1476
aS'Hard to believe that 4 yrs ago I saw this... wow'
p1477
aS"The best twilight movie yet lol couldn't stop laughing"
p1478
aS"It's time... "
p1479
aS'wtf '
p1480
aS'LOOOOOOOOOOOOOOL'
p1481
aS'LOL OMG. This one has thrice more views than the real thing'
p1482
aS'still an overused vagina ur mom has!!!!'
p1483
aS'Movies in minutes the amazing spider man'
p1484
aS'omg ha ha i laughed so hard when that other vampire came in.'
p1485
aS'I watched this a few years ago, and only just now realised that this is \nnigahiga!!!'
p1486
aS'Haha, agreed :D'
p1487
aS"I think he should still put bloopers like that at the ends of his videos. \nThey're always so funny. xP"
p1488
aS'check out my channel please :D'
p1489
aS'Hahahaha xD'
p1490
aS'2:01 and 1:53 HHAHHHAHAHAHA'
p1491
aS'this was twilight, genius'
p1492
aS'god i miss helga so much'
p1493
aS"You're a mermaid!!!"
p1494
aS'Mermaid.......... Wow.. Just.. Wow..'
p1495
aS'omg try 3:56'
p1496
aS'still true'
p1497
aS'LOL, 02:52'
p1498
aS'LOL I LOVE ALICE!!'
p1499
aS'"Can I come with you?" "No. You\'re too fat." "Oh."'
p1500
aS'where is justin chon??'
p1501
aS'elly tran 0.o really :amazed:'
p1502
aS'Still over ragement overused comments'
p1503
aS'are they dating'
p1504
aS'still an overused comment ^^ over used ception :P'
p1505
aS'Oh my god i laughed really loud '
p1506
aS'OMG I JUST DIED LOL '
p1507
aS'Haahah a mermaid :D '
p1508
aS'1:53'
p1509
aS"After being on youtube for 2 years now, I know how much hate people can \ngive to me when reading these kinds of comments but mabye someone may be \nnicer. My dream is to be an actor and i like to perform, but i cant get in \nperforming school, and i just got 579 subs, which is pretty impressive to \nme, but I'll never get noticed with these numbers. If someone would have \nthe heart just to give this a thumbs up and spend all of 30 seconds \nwatching a vid, it would mean the world. Thank you all"
p1510
aS'This is so funny'
p1511
aS'creep'
p1512
aS'your tech is awesome...'
p1513
aS'2:01 '
p1514
aS'Make now you see me movie'
p1515
aS'make that 14 :)'
p1516
aS'beautiful actors,stupid movie!'
p1517
aS'RYAN! PLEASE DO THIS AGAIN WITH THE SAME PEOPLE BUT DIFFERENT MOVIE! '
p1518
aS'BC, or AC'
p1519
aS'\xe2\x9d\xa4\xe2\x9d\xa4\xe2\x9d\xa4\xe2\x9d\xa4\xe2\x9d\xa4\xe2\x9d\xa4\xe2\x9d\xa4\xe2\x9d\xa4\xe2\x9d\xa4\xe2\x9d\xa4\xe2\x9d\xa4\xe2\x9d\xa4\xe2\x9d\xa4\xe2\x9d\xa4\xe2\x9d\xa4\xe2\x9d\xa4\xe2\x9d\xa4\xe2\x9d\xa4\xe2\x9d\xa4\xe2\x9d\xa4\xe2\x9d\xa4\xe2\x9d\xa4\xe2\x9d\xa4\xe2\x9d\xa4\xe2\x9d\xa4\xe2\x9d\xa4\xe2\x9d\xa4\xe2\x9d\xa4\xe2\x9d\xa4\xe2\x9d\xa4\xe2\x9d\xa4\xe2\x9d\xa4\xe2\x9d\xa4\xe2\x9d\xa4\xe2\x9d\xa4\xe2\x9d\xa4\xe2\x9d\xa4\xe2\x9d\xa4\xe2\x9d\xa4\xe2\x9d\xa4\xe2\x9d\xa4\xe2\x9d\xa4\xe2\x9d\xa4\xe2\x9d\xa4\xe2\x9d\xa4\xe2\x9d\xa4\xe2\x9d\xa4\xe2\x9d\xa4\xe2\x9d\xa4\xe2\x9d\xa4\xe2\x9d\xa4\xe2\x9d\xa4\xe2\x9d\xa4\xe2\x9d\xa4\xe2\x9d\xa4\xe2\x9d\xa4\xe2\x9d\xa4\xe2\x9d\xa4\xe2\x9d\xa4\xe2\x9d\xa4\xe2\x9d\xa4\xe2\x9d\xa4\xe2\x9d\xa4\xe2\x9d\xa4\xe2\x9d\xa4\xe2\x9d\xa4\xe2\x9d\xa4\xe2\x9d\xa4\xe2\x9d\xa4\xe2\x9d\xa4\xe2\x9d\xa4\xe2\x9d\xa4\xe2\x9d\xa4\xe2\x9d\xa4\xe2\x9d\xa4\xe2\x9d\xa4\xe2\x9d\xa4\xe2\x9d\xa4\xe2\x9d\xa4\xe2\x9d\xa4\xe2\x9d\xa4\xe2\x9d\xa4\xe2\x9d\xa4\xe2\x9d\xa4\xe2\x9d\xa4\xe2\x9d\xa4\xe2\x9d\xa4\xe2\x9d\xa4\xe2\x9d\xa4\xe2\x9d\xa4\xe2\x9d\xa4\xe2\x9d\xa4\xe2\x9d\xa4\xe2\x9d\xa4\xe2\x9d\xa4\xe2\x9d\xa4\xe2\x9d\xa4\xe2\x9d\xa4\xe2\x9d\xa4\xe2\x9d\xa4\xe2\x9d\xa4\xe2\x9d\xa4\xe2\x9d\xa4\xe2\x9d\xa4\xe2\x9d\xa4\xe2\x9d\xa4\xe2\x9d\xa4\xe2\x9d\xa4\xe2\x9d\xa4\xe2\x9d\xa4\xe2\x9d\xa4\xe2\x9d\xa4\xe2\x9d\xa4\xe2\x9d\xa4\xe2\x9d\xa4\xe2\x9d\xa4\xe2\x9d\xa4\xe2\x9d\xa4\xe2\x9d\xa4\xe2\x9d\xa4\xe2\x9d\xa4\xe2\x9d\xa4\xe2\x9d\xa4\xe2\x9d\xa4\xe2\x9d\xa4\xe2\x9d\xa4\xe2\x9d\xa4\xe2\x9d\xa4\xe2\x9d\xa4\xe2\x9d\xa4\xe2\x9d\xa4\xe2\x9d\xa4\xe2\x9d\xa4\xe2\x9d\xa4\xe2\x9d\xa4\xe2\x9d\xa4\xe2\x9d\xa4\xe2\x9d\xa4\xe2\x9d\xa4\xe2\x9d\xa4\xe2\x9d\xa4\xe2\x9d\xa4\xe2\x9d\xa4\xe2\x9d\xa4\xe2\x9d\xa4\xe2\x9d\xa4\xe2\x9d\xa4\xe2\x9d\xa4\xe2\x9d\xa4\xe2\x9d\xa4\xe2\x9d\xa4\xe2\x9d\xa4\xe2\x9d\xa4\xe2\x9d\xa4\xe2\x9d\xa4\xe2\x9d\xa4\xe2\x9d\xa4\xe2\x9d\xa4\xe2\x9d\xa4\xe2\x9d\xa4\xe2\x9d\xa4\xe2\x9d\xa4\xe2\x9d\xa4\xe2\x9d\xa4\xe2\x9d\xa4\xe2\x9d\xa4\xe2\x9d\xa4\xe2\x9d\xa4\xe2\x9d\xa4\xe2\x9d\xa4\xe2\x9d\xa4\xe2\x9d\xa4\xe2\x9d\xa4\xe2\x9d\xa4\xe2\x9d\xa4\xe2\x9d\xa4\xe2\x9d\xa4\xe2\x9d\xa4\xe2\x9d\xa4\xe2\x9d\xa4\xe2\x9d\xa4\xe2\x9d\xa4\xe2\x9d\xa4\xe2\x9d\xa4\xe2\x9d\xa4\xe2\x9d\xa4\xe2\x9d\xa4\xe2\x9d\xa4\xe2\x9d\xa4\xe2\x9d\xa4\xe2\x9d\xa4\xe2\x9d\xa4\xe2\x9d\xa4\xe2\x9d\xa4\xe2\x9d\xa4\xe2\x9d\xa4\xe2\x9d\xa4\xe2\x9d\xa4\xe2\x9d\xa4\xe2\x9d\xa4\xe2\x9d\xa4\xe2\x9d\xa4\xe2\x9d\xa4\xe2\x9d\xa4\xe2\x9d\xa4\xe2\x9d\xa4\xe2\x9d\xa4\xe2\x9d\xa4\xe2\x9d\xa4\xe2\x9d\xa4\xe2\x9d\xa4\xe2\x9d\xa4\xe2\x9d\xa4\xe2\x9d\xa4\xe2\x9d\xa4\xe2\x9d\xa4\xe2\x9d\xa4\xe2\x9d\xa4\xe2\x9d\xa4\xe2\x9d\xa4\xe2\x9d\xa4\xe2\x9d\xa4\xe2\x9d\xa4\xe2\x9d\xa4\xe2\x9d\xa4\xe2\x9d\xa4\xe2\x9d\xa4\xe2\x9d\xa4\xe2\x9d\xa4\xe2\x9d\xa4\xe2\x9d\xa4\xe2\x9d\xa4\xe2\x9d\xa4\xe2\x9d\xa4\xe2\x9d\xa4\xe2\x9d\xa4\xe2\x9d\xa4\xe2\x9d\xa4\xe2\x9d\xa4\xe2\x9d\xa4\xe2\x9d\xa4\xe2\x9d\xa4\xe2\x9d\xa4\xe2\x9d\xa4\xe2\x9d\xa4\xe2\x9d\xa4\xe2\x9d\xa4\xe2\x9d\xa4\xe2\x9d\xa4\xe2\x9d\xa4\xe2\x9d\xa4\xe2\x9d\xa4\xe2\x9d\xa4\xe2\x9d\xa4\xe2\x9d\xa4\xe2\x9d\xa4\xe2\x9d\xa4\xe2\x9d\xa4\xe2\x9d\xa4\xe2\x9d\xa4\xe2\x9d\xa4\xe2\x9d\xa4\xe2\x9d\xa4\xe2\x9d\xa4\xe2\x9d\xa4\xe2\x9d\xa4\xe2\x9d\xa4\xe2\x9d\xa4\xe2\x9d\xa4\xe2\x9d\xa4\xe2\x9d\xa4\xe2\x9d\xa4\xe2\x9d\xa4\xe2\x9d\xa4\xe2\x9d\xa4\xe2\x9d\xa4\xe2\x9d\xa4\xe2\x9d\xa4\xe2\x9d\xa4\xe2\x9d\xa4\xe2\x9d\xa4\xe2\x9d\xa4\xe2\x9d\xa4\xe2\x9d\xa4\xe2\x9d\xa4\xe2\x9d\xa4\xe2\x9d\xa4\xe2\x9d\xa4\xe2\x9d\xa4\xe2\x9d\xa4\xe2\x9d\xa4\xe2\x9d\xa4\xe2\x9d\xa4\xe2\x9d\xa4\xe2\x9d\xa4\xe2\x9d\xa4\xe2\x9d\xa4\xe2\x9d\xa4\xe2\x9d\xa4\xe2\x9d\xa4\xe2\x9d\xa4\xe2\x9d\xa4\xe2\x9d\xa4\xe2\x9d\xa4\xe2\x9d\xa4\xe2\x9d\xa4\xe2\x9d\xa4\xe2\x9d\xa4\xe2\x9d\xa4\xe2\x9d\xa4\xe2\x9d\xa4\xe2\x9d\xa4\xe2\x9d\xa4\xe2\x9d\xa4\xe2\x9d\xa4\xe2\x9d\xa4\xe2\x9d\xa4\xe2\x9d\xa4\xe2\x9d\xa4\xe2\x9d\xa4\xe2\x9d\xa4\xe2\x9d\xa4\xe2\x9d\xa4\xe2\x9d\xa4\xe2\x9d\xa4\xe2\x9d\xa4\xe2\x9d\xa4\xe2\x9d\xa4\xe2\x9d\xa4\xe2\x9d\xa4\xe2\x9d\xa4\xe2\x9d\xa4\xe2\x9d\xa4\xe2\x9d\xa4\xe2\x9d\xa4\xe2\x9d\xa4\xe2\x9d\xa4\xe2\x9d\xa4\xe2\x9d\xa4\xe2\x9d\xa4\xe2\x9d\xa4\xe2\x9d\xa4\xe2\x9d\xa4\xe2\x9d\xa4\xe2\x9d\xa4\xe2\x9d\xa4\xe2\x9d\xa4\xe2\x9d\xa4\xe2\x9d\xa4\xe2\x9d\xa4\xe2\x9d\xa4\xe2\x9d\xa4\xe2\x9d\xa4\xe2\x9d\xa4\xe2\x9d\xa4\xe2\x9d\xa4\xe2\x9d\xa4\xe2\x9d\xa4\xe2\x9d\xa4\xe2\x9d\xa4\xe2\x9d\xa4\xe2\x9d\xa4\xe2\x9d\xa4\xe2\x9d\xa4\xe2\x9d\xa4\xe2\x9d\xa4\xe2\x9d\xa4\xe2\x9d\xa4\xe2\x9d\xa4\xe2\x9d\xa4\xe2\x9d\xa4\xe2\x9d\xa4\xe2\x9d\xa4\xe2\x9d\xa4\xe2\x9d\xa4\xe2\x9d\xa4\xe2\x9d\xa4\xe2\x9d\xa4\xe2\x9d\xa4\xe2\x9d\xa4\xe2\x9d\xa4\xe2\x9d\xa4\xe2\x9d\xa4\xe2\x9d\xa4\xe2\x9d\xa4\xe2\x9d\xa4\xe2\x9d\xa4\xe2\x9d\xa4\xe2\x9d\xa4\xe2\x9d\xa4\xe2\x9d\xa4\xe2\x9d\xa4\xe2\x9d\xa4\xe2\x9d\xa4\xe2\x9d\xa4\xe2\x9d\xa4\xe2\x9d\xa4\xe2\x9d\xa4\xe2\x9d\xa4\xe2\x9d\xa4\xe2\x9d\xa4\xe2\x9d\xa4\xe2\x9d\xa4\xe2\x9d\xa4\xe2\x9d\xa4\xe2\x9d\xa4\xe2\x9d\xa4\xe2\x9d\xa4\xe2\x9d\xa4\xe2\x9d\xa4\xe2\x9d\xa4\xe2\x9d\xa4\xe2\x9d\xa4\xe2\x9d\xa4\xe2\x9d\xa4\xe2\x9d\xa4\xe2\x9d\xa4\xe2\x9d\xa4\xe2\x9d\xa4\xe2\x9d\xa4\xe2\x9d\xa4\xe2\x9d\xa4\xe2\x9d\xa4\xe2\x9d\xa4\xe2\x9d\xa4\xe2\x9d\xa4\xe2\x9d\xa4\xe2\x9d\xa4\xe2\x9d\xa4\xe2\x9d\xa4\xe2\x9d\xa4\xe2\x9d\xa4\xe2\x9d\xa4\xe2\x9d\xa4\xe2\x9d\xa4\xe2\x9d\xa4\xe2\x9d\xa4\xe2\x9d\xa4\xe2\x9d\xa4\xe2\x9d\xa4\xe2\x9d\xa4\xe2\x9d\xa4\xe2\x9d\xa4\xe2\x9d\xa4\xe2\x9d\xa4\xe2\x9d\xa4\xe2\x9d\xa4\xe2\x9d\xa4\xe2\x9d\xa4\xe2\x9d\xa4\xe2\x9d\xa4\xe2\x9d\xa4\xe2\x9d\xa4\xe2\x9d\xa4\xe2\x9d\xa4\xe2\x9d\xa4\xe2\x9d\xa4\xe2\x9d\xa4\xe2\x9d\xa4\xe2\x9d\xa4\xe2\x9d\xa4\xe2\x9d\xa4\xe2\x9d\xa4\xe2\x9d\xa4\xe2\x9d\xa4\xe2\x9d\xa4\xe2\x9d\xa4\xe2\x9d\xa4\xe2\x9d\xa4\xe2\x9d\xa4\xe2\x9d\xa4\xe2\x9d\xa4\xe2\x9d\xa4\xe2\x9d\xa4\xe2\x9d\xa4\xe2\x9d\xa4\xe2\x9d\xa4\xe2\x9d\xa4\xe2\x9d\xa4\xe2\x9d\xa4\xe2\x9d\xa4\xe2\x9d\xa4\xe2\x9d\xa4\xe2\x9d\xa4\xe2\x9d\xa4\xe2\x9d\xa4\xe2\x9d\xa4\xe2\x9d\xa4\xe2\x9d\xa4\xe2\x9d\xa4\xe2\x9d\xa4\xe2\x9d\xa4\xe2\x9d\xa4\xe2\x9d\xa4\xe2\x9d\xa4\xe2\x9d\xa4\xe2\x9d\xa4\xe2\x9d\xa4\xe2\x9d\xa4\xe2\x9d\xa4'
p1520
aS"it's time!"
p1521
aS'A mermaid'
p1522
aS'most people guess stoner'
p1523
aS"This is soooo much better than the actual movie hahaha (and yes, I'm \nwatching this on 2013)"
p1524
aS'A mermaid'
p1525
aS'Lol'
p1526
aS'nah, he is a merman!'
p1527
aS'and what was this trying to prove?'
p1528
aS'And yet it is true every time...'
p1529
aS'NIPPLEEEEEEEE TWISTTTTTTTT LOL '
p1530
aS'Sooo??? Is that it?'
p1531
aS'he must be that strong XD Gyaahahaa~'
p1532
aS'I miss Tim!!'
p1533
aS"Hahaha, such a funny guy.Tells me how retarded people can be, by looking \nthumbs up. I'm tired of scums like on every fucking youtube video. Just \nleave internet, you're not funny."
p1534
aS'The girl is actually 100000000000000 times prettier than Kristen Stewart...'
p1535
aS'the scary thing is they kind of look like the real thing'
p1536
aS'Lol i love helga'
p1537
aS'a mermaid!!!! how true!!!!;)'
p1538
aS'I really think you should change your profile picture. o.O'
p1539
aS"bet you've never watched a twilight movie."
p1540
aS'1:20 Your a mermaid. Ryan:Are you afraid Girl:No Ryan:Do you trust me? \nGirl: Yes Ryan: RAH!'
p1541
aS'1:59 wth is that supposed to be alice'
p1542
aS'frosted tips'
p1543
aS'that even this is still a better love story than twilight'
p1544
aS'Why is Jacob damn ugly?'
p1545
aS'1:02 "You\'re incredibly fast, strong..." Me: AND GAYYY'
p1546
aS'Good to see that he knows real girls apart from his friends and himself \ndressing constantly as girls :D :D '
p1547
aS'1:41 LOLOLOL woowww all that perfume!!(((:::'
p1548
aS"Oh my gosh! I remember seeing this video when it was fairly new, but I \ndidn't know it was Ryan! :D"
p1549
aS'This was the first video i watched from ryan higa :))'
p1550
aS'Still an overused reply.'
p1551
aS'hahaaahaha i cryed watching this its hilarious'
p1552
aS'NOWAY!! YOU WATCHED THE VIDEO TOO???!!!'
p1553
aS'Ahah lol nice one and the baseball part the one throwing the ball isnt his \nleg suppose to go higher than his leg'
p1554
aS"Thumbs up if you're watching this in 2012! "
p1555
aS'This is really pathetic....because its still better than the actual \nmovie......'
p1556
aS'xD '
p1557
aS'but it is twilight! kinda'
p1558
aS'WTF'
p1559
aS"IT'S TIME still cracks me up "
p1560
aS'so funny, love him ^_^'
p1561
aS'She is so hot'
p1562
aS'Nigahiga has come a long way in their videos...'
p1563
aS'hey, you are not sparkling!'
p1564
aS'You do realize that they were also joking -_-'
p1565
aS'I like the baseball part XD'
p1566
aS'These vids never gets old'
p1567
aS'MOVIES IN MINUTES THE HUNGER GAMES'
p1568
aS'the outtakes! HAHA! "You\'re faster than the others..." "HIHIHI" "You\'re \nfaster than the others..." "HEHE" "You\'re faster than the others..." \n"HEHEHMMHEHAHHEH" :D'
p1569
aS"They didn't have the internet at that time you whore!"
p1570
aS'do the other guys '
p1571
aS'Could you PLEASE do a Mortal Kombat parody? '
p1572
aS'Better than the original. Love it.'
p1573
aS'No, im watching this on my iRock 2000 B.C'
p1574
aS'1:45 1 reson RYAN DINT TOUCH THE BOOBY and 2 reason RYAN IS SO HOTT'
p1575
aS'"Its Time"..'
p1576
aS'clinique happy FTW'
p1577
aS'What am I? Come on say it! ......... a mermaid?'
p1578
aS'NO TEEHEE? :) cmon!! :p'
p1579
aS"He's a mermaid xD"
p1580
aS"These videos are in his early years. He didn't start the Tee hee until \nlater."
p1581
aS'OMG YOU ARE A GENIUS!!!!!!!!'
p1582
aS"1:53 best part. i can't stop laughin... i think these videos are funnier \nthan the new ones... and ryan, we want to see that guy again...he's very \nfunny. contact him and make a video! haha"
p1583
aS'Twilight (the actual movie), was so stupid it was funny!'
p1584
aS'why dont they just kill bella and all the problems were dead :DD'
p1585
aS'what de hell lol'
p1586
aS'" Its time (\xe0\xb2\xa0\xe2\x95\xad\xe2\x95\xae\xe0\xb2\xa0)" Omg HAHAHA @1:53 '
p1587
aS'this video is so old but i stil love it '
p1588
aS'thumbs up movieparadeonline.co.nr'
p1589
aS'mum: edward are u climbing trees again? edward: oh mum not in front of \nbella LOL :3 '
p1590
aS'You got Edwards charactar right, hes a stalker and a creep'
p1591
aS'Aww mo not in front of Bella!!!!! LOLLOL '
p1592
aS'Now this is the kind of Team Edward I would support.'
p1593
aS'LOL'
p1594
aS'Lol 1:58'
p1595
aS'so original '
p1596
aS'1:53 !!! "It\'s time" hahaha'
p1597
aS'The first time I watched this, I laughed my ass off at the car part.'
p1598
aS'Best version of the film :D'
p1599
aS"I love Tarynn Nago but that doesn't stop me from liking bubzbeauty but I \nlove the scene where he stops the toy car, I think they only have one car \n(whoever's house it is)"
p1600
aS'Nipple twister'
p1601
aS'1:51 its time'
p1602
aS'check out my channel please :D'
p1603
aS'If you look closely you can tell thats not Robert Patterson'
p1604
aS'supermassive black hole but its in a different tune this one i think its \npiched '
p1605
aS'Mermaid'
p1606
aS'TAKE ME TO 2069, I WANNA COME!!!!!! please please pleeeeeeease????? can \npeople fly there?'
p1607
aS'the bloopers was insanely funny ^^'
p1608
aS'This is how I discovered him ^_^'
p1609
aS"Whatever happened to that Ryan's friend who played the bad guy? LOL He is \nHILARIOUS!!!"
p1610
aS'the character Rolanda was made AFTER nigahiga made this..., they (nigahiga) \nused the wig in videos before this'
p1611
aS"I'm a twilight fan but that is awesome"
p1612
aS'LMAO "eh no youre too fat" XD'
p1613
aS'Lol'
p1614
aS'Could you do Monty Python and The Wholy Grail? That would be the funiest \nthing ever'
p1615
aS'lol! '
p1616
aS'2:00 OHHH I miss MUSE'
p1617
aS'dude thank you its the best virus ever '
p1618
aS'I saw breaking dawn part2!!!!'
p1619
aS'"im strong enough to do this.." *pinched his nipples* lmao~ '
p1620
aS'The car cracked me up. '
p1621
aS'Okay that was amazing'
p1622
aS'The girl is so cute. :*'
p1623
aS'lol this is soo funnyy'
p1624
aS'what am i ?! say it , say it outloud ! a mermaid .a what ?a mermaid Lmfao'
p1625
aS'3:55 Big Daddy?'
p1626
aS'Awesome video'
p1627
aS'The twilight ppl...'
p1628
aS'what the hell '
p1629
aS'I never got the whole baseball scene why is that soo important?!'
p1630
aS'lol!'
p1631
aS'Yo this is funny'
p1632
aS"mine didn't have an ad."
p1633
aS'ITS TIME'
p1634
aS'Hahaha! Recap.'
p1635
aS"They have one asian actor... He's in the school crew man"
p1636
aS'I think 1:54 is hotter I mean dat face ;~;'
p1637
aS"haha yeah, but when do you ever see an asian in a substantial role that \nisn't stereotypical?"
p1638
aS'Lol a mermaid xD'
p1639
aS'seriously??!!!!! '
p1640
aS"Haih just watching a bunch of Nigahiga's old video and realize how much my \nidol has grown :')"
p1641
aS'Ammm....What about Justin Chon? He is in the movie :DD'
p1642
aS'i loved the video u r very talented and funny'
p1643
aS'yep seriously, im not a fan of twilight so.... never read a book or seen a \nmovie'
p1644
aS'BECAUSE THEY ARE RACIST '
p1645
aS'lol '
p1646
aS'my ad was for bambi'
p1647
aS'Love Ryan as Edward...'
p1648
aS'dafuq 2:53 ryan grabbed his...JK '
p1649
aS"awh she's really pretty"
p1650
aS'is anyone else on a old nigahiga video spree?'
p1651
aS'ITS TIME '
p1652
aS'JUSTIN CHON!!! :D as eric yorkie!!!'
p1653
aS'"You\'re faster than the others. BWAHAHAH!!"'
p1654
aS"lol that's what i was talking about XD"
p1655
aS'another cool song for Sunday lol'
p1656
aS"year's later he becomes friends with the asian kid and they all became \nmermaid unicorns"
p1657
aS'wow, original...you\xc2\xb4re just as much like whore as he is...'
p1658
aS'Lol edward are you climbing trees again aww mom not in front of bella'
p1659
aS'hahahaha \xe2\x98\xba'
p1660
aS'Nah I watched this show in 2000. (y)'
p1661
aS'Ha! That dude looks a lot like Emit! '
p1662
aS'Mom not in front of bella'
p1663
aS'Itsss ttiiimme hahaha his face'
p1664
aS'secret weapon, nipple twist'
p1665
aS'january 22 is mys sisters b day'
p1666
aS'MAPOTI'
p1667
aS'What am I? A mermaid! What? A mermaid!! LOL XD'
p1668
aS'This is very so Funny..!! >_< hahahaha the man who wearing the skirt.... \nhahaha '
p1669
aS'Sarcasm*'
p1670
aS'the guy dressed up as a girl:) soooooo funny lolololol'
p1671
aS'i would full price to watch this version'
p1672
aS'this was asmost as bad as the real thing :('
p1673
aS"1:52 Damn..... He's hot :P"
p1674
aS'LOL 3:15'
p1675
aS'It did... one. lol'
p1676
aS'I blocked the ads xD'
p1677
aS'I have ad block plus :) '
p1678
aS'funny how there both alike, crap.'
p1679
aS"Ads? I wasn't aware those still existed."
p1680
aS"They're also both bad for your health"
p1681
aS'ryan would make one smokin vampire...'
p1682
aS'isint that the girl who played taylor'
p1683
aS'i dont understand how this got 21,2 million views...its so.."???"....xD'
p1684
aS'My ad was for beer... makes sense.'
p1685
aS'...And?'
p1686
aS'I have to say is a vast improvement on Twilight movie. O_O'
p1687
aS'nice to watch'
p1688
aS'I like how you used a ferrari testerosa as a toy car, or was that a 348?'
p1689
aS'Did you speak japanese in the end'
p1690
aS'mine is beach boys '
p1691
aS'Yolo'
p1692
aS'1:53 lol'
p1693
aS'A moment of silence our brothers who are being forced to watch twilight...'
p1694
aS'Mine was the Nexus...'
p1695
aS'you & timm .... you just make me laugh till death !!!'
p1696
aS'Ad Block ftw'
p1697
aS'No shit! Thanks for stating the obvious.'
p1698
aS'Plus for both of them the preview looks way to good to be the actual song'
p1699
aS'Weird'
p1700
aS'Hungry?'
p1701
aS'Mine was nothing, adblock plus FTW.'
p1702
aS'lol this isnt even the real twiligt!'
p1703
aS'my ad was-...oh wait I have adblocker :trollface: '
p1704
aS'I wish Twilight actually had asian actors. I would actually watch the \nmovies.'
p1705
aS'i didnt get 1 '
p1706
aS'me too. I was confused at first when they were talking about ads. XD'
p1707
aS'LOL'
p1708
aS'It was...............'
p1709
aS'This reminds me of the days'
p1710
aS'Lol'
p1711
aS"I LOOOVE ALICE!!! x'DD"
p1712
aS'SAVE HER !!!!!!! from the mini car crash.. xD '
p1713
aS'1980'
p1714
aS'lol'
p1715
aS'I meant omg'
p1716
aS'First video!!!!'
p1717
aS'Ryan would be a much better Edward Cullen'
p1718
aS"See now if this girl played in the movie it'd be okay. She could have the \nacting skills of a 14 year old crack head and still be more appealing than \nStewart -.- "
p1719
aS'what do u know ... I cant even bear the 4 minutes version '
p1720
aS'haha the baseball scene was the best'
p1721
aS'do you keep in touch anymore ryan? '
p1722
aS'WTF! '
p1723
aS'03:36 I think he is faster than others :D'
p1724
aS"IT'S TIME."
p1725
aS'DAFAQ?!?! '
p1726
aS'Movies In Minute(S)'
p1727
aS"The sad part? It's fairly accurate.. Lol..."
p1728
aS'TWILIGHT: Gangnam style......oppa, oppa, oppa....\\'
p1729
aS'cool'
p1730
aS"Well when you view a video you're not going to know what happens in the \nvideo."
p1731
aS'Classic Nigahiga vids yo! With his hometown crew. Miss those days...'
p1732
aS'i could totally see that lol, he should'
p1733
aS" It's so funny :D"
p1734
aS'that was cool '
p1735
aS'i miss the rest of the gang =('
p1736
aS'0:38 Hs like pee-yew you stink get some perfume.'
p1737
aS'Hey Ryan you\'re featured in the "Twilight Saga: Spoofed" on my homepage! \n:oo =^_^= '
p1738
aS'Better than the actual movie.'
p1739
aS'how in the hell did this get 21 million views???'
p1740
aS'Better than the original. =D '
p1741
aS'lol the video ad before this was the trailer for the newest twilight. lmao.'
p1742
aS'The video is four minutes long.....'
p1743
aS"Great job,everyone. I'm glad you had fun with this, first and foremost. "
p1744
aS'I miss this bloopers music :D'
p1745
aS'Why aint NIGAHIGA A YOUTUBE PARTNER? '
p1746
aS'lol I love Twilight but this was funny'
p1747
aS'O_o wtf '
p1748
aS'that was completely stupid!!!!!!!'
p1749
aS"2:37 that's just a movie camera...."
p1750
aS"he is he's one of the main ones"
p1751
aS'Tarynn is hot!!!'
p1752
aS'A Mermaid xD'
p1753
aS'I miss this nigahiga :('
p1754
aS"but... as I know he doesn't know Japanese language ._."
p1755
aS'6031 poeple like twilight'
p1756
aS'this can never get old.. i love the face at "its time"'
p1757
aS"He's cute"
p1758
aS'Still a better - oh wait...'
p1759
aS"I'm dying at 2:01"
p1760
aS'Edward:U wanna see me climb this tree Bella:can i come with you Edward:no \nur too fat lololol'
p1761
aS'DO INCEPTION!'
p1762
aS'I want to meet you in real life nigahiga =D u fking rock '
p1763
aS'Hes face lol i cant breath'
p1764
aS"still watching this? You've been watching for 4 years straight. Get a \nfucking life and get some original comments please."
p1765
aS'owo he called be a very good edward heck he is better then rob lolz and owo \nhis face is pale but his hands are not XD'
p1766
aS'3:00 my thoughts: Still better than the original.'
p1767
aS'Edward are climbing trees again?? Oh mom not infront of Bella!!! XP hhaah \nlol'
p1768
aS'Lmaooo'
p1769
aS'Haha! I love this video! I hate Twilight so of course this is super funny! \n:)'
p1770
aS'2:35 Boy that escalated quickly'
p1771
aS'then there is a breaking dawn ad on the page '
p1772
aS'Do you trust me? Yeah. Bah! aahhh!'
p1773
aS'this is what should be on tv'
p1774
aS'LOL'
p1775
aS'Its time. Haha I laughed my ass off '
p1776
aS"Very well done possibly the best remake I've seen"
p1777
aS'So were Tarynn and Ryan "Together"? i\'ve watch his videos forever and never \nreally got if they were or not and inwonder if he looks back on these videos'
p1778
aS'died at the car crash.'
p1779
aS'Lol'
p1780
aS'i cant stop watching this scene 2:30 lmfao.'
p1781
aS'Anyone else flinch at the titty twister?'
p1782
aS'hahaha LOL the little car!!! this video is much more better than twilight...'
p1783
aS'Edward in this, is really Hot!! O///O'
p1784
aS'You guys are from Hawaii huh? Maui brah?! '
p1785
aS"It's makeup :P "
p1786
aS'DEATH BY TITY TWISTER'
p1787
aS'Dead XD'
p1788
aS'Stupid'
p1789
aS'"Eyydwad! Are you cliyymbing tree agayn?!" LOL. '
p1790
aS'lol'
p1791
aS'Incredibly "strong" XD'
p1792
aS'LOL. Filarious!'
p1793
aS'Its time. Hahahaha'
p1794
aS'make more of these.'
p1795
aS'hahahahhaha LOL'
p1796
aS'Its time'
p1797
aS'the pitcher at 2:00 omg so funny hahahaha'
p1798
aS'haha funny'
p1799
aS'no '
p1800
aS'I love twilight though ;)'
p1801
aS"Um No one really cares, but if Twilight hadn't been written then this would \nnever have been made!!!!"
p1802
aS"I've considered radioactive spiders, kryptonite, crack and \nheroin.........lol"
p1803
aS'lmfaoooo his version of Alice pitches like Carly Rae Jenson XD '
p1804
aS'xD idiot,..but high-larious :P'
p1805
aS'teehee? '
p1806
aS'like if your watching in 2013'
p1807
aS"lol, have you seen the movie? There's a baseball scene and this is pretty \naccurate. xD (search for twilight baseball)"
p1808
aS'i love the new vids just as much, but I miss these!'
p1809
aS'You face is so ahhh1!!! cuttie'
p1810
aS'oh siht she get a gun'
p1811
aS'...wait... this is twilight! O_O'
p1812
aS'I think... I came here to watch the bloopers hahahaha'
p1813
aS'"Edwaaard. Are you climbing trees again?" "Aww. Mom. Not in front of \nBella." XXXD'
p1814
aS'LOL'
p1815
aS'You laugh so much'
p1816
aS"1:52 it's time"
p1817
aS'Am I the only one that misses Tarynn, Tim, and Sean??'
p1818
aS'one of the all time best youtube vids. '
p1819
aS"Everything just makes me laugh! HAHAHA. A mermaid! No, you're fat. And he \ngave so much perfume to that Bella! LOLOLOL"
p1820
aS'up than 1:55 i love this scene <3'
p1821
aS'2:00 '
p1822
aS'ist great! :)'
p1823
aS'Okay wtf is up with this advertisement that keeps on showing up before all \nthe Nigahiga videos, me and my friend were singing loudly before the vid \nstarted like " I won\'t run, I won\'t fly, I will never make it by, without \ny-" all of a sudden "The American duck, a cherished bird..." and we both \nlook at each other like WTF. 8P'
p1824
aS'Edwaaard! Are you climbing trees again?! Mom! Not in front of Bella!'
p1825
aS'niple twistie!!!!!'
p1826
aS'Whoever hates this vid i will yell like a psychopath k :{p'
p1827
aS'Can u trust me? Yes *scares* *screams* lol'
p1828
aS'3:17 AC3 STYLE!'
p1829
aS'So funny!!!!! HAHA!! Luv it!! Keep making videos!!!'
p1830
aS'Still a better love story than twilight'
p1831
aS'rofl all that stuff he gave her on the table'
p1832
aS"Culi.... It's called makeup"
p1833
aS'Rofl'
p1834
aS'you should do MIM for the hunger games'
p1835
aS'she cant throw for shit but i love how she throws XD'
p1836
aS'How can you dislike this?'
p1837
aS'mdrr so funnnyyyyyy !!!'
p1838
aS'Lol no ur too fat'
p1839
aS'aww mom not in front of bella lol'
p1840
aS'"no ur too fat" lmfao love u ryan'
p1841
aS'Kjbffrih \nvdiuhfiuhdbbsfouhgnbiuhfvdnbviuhfnbhojvdsnbjkngdnbjnvdsnbkjnvfnoivdfjn \njjvfdn djv. Ngfdoihn vfdkjn. Ijfdovfdij. Fivshonifjdsnbjndvf vsijfdnvdkns \nihvfsnvoijnb \nsvojnbfijdnvijdsnfdskjnvfjeoanvjfdsnbjfjoifsdnvfdnvijfdsnjfdsnpijfdnv I \nseed nothing..........................................'
p1842
aS'mermaid?lol '
p1843
aS'looooooooool'
p1844
aS"it's a joke (retard) =='"
p1845
aS'No r too fat BAHAHAHAHAHAHAHAHAHA LOL'
p1846
aS'PNG funny video'
p1847
aS'LOL LOL hahahahaha!! awesome video than Twilight'
p1848
aS'Is funny'
p1849
aS'@TheComedianperson'
p1850
aS'BAHAHAHA at 2:30 he wipes his hand on his ass and sniffs it. I died'
p1851
aS'twitard... :P'
p1852
aS"I would agree. Except, it still is kinda funny...you know, in that it's \nundoubtedly true way."
p1853
aS'she said mermaid crak heroin'
p1854
aS'Hardest challange of all time:Try not to laugh'
p1855
aS'This never gets old no matter how many times I watch this <3 '
p1856
aS'I cried laughing'
p1857
aS'Yeah ! ^^'
p1858
aS'Haha this is brill!'
p1859
aS"3:35 Did you know he's faster than the others. "
p1860
aS'man sean must be really smart'
p1861
aS'i think its more then a minute '
p1862
aS"can't even get a real baseball, so Asian, love it"
p1863
aS'MERMAID hahahahhaha'
p1864
aS'dear ryan, can u make a breaking dawn parody of twilght '
p1865
aS'You remind me a bit of 2pm\xc2\xb4s teacyeon <3'
p1866
aS'2:54 LMFAO'
p1867
aS'this is madness =.= :))))))))))))'
p1868
aS'hhhhhhhhhhhhhhhhhhhhhhhhhhhhhhhhhhhhh'
p1869
aS'wht would happen is she actually got hit with a car?'
p1870
aS'ITS TIME! '
p1871
aS"who's the girl? she's cute! :)"
p1872
aS'hahaha sht funny...'
p1873
aS'DUH.'
p1874
aS'I just posted a comment calling you a bitch but I removed it because I saw \nyour video. I hate people who bully too.'
p1875
aS"you're*"
p1876
aS'mermaid??'
p1877
aS'Dear Ryan, are you a merman? '
p1878
aS'So..he tore his nipples off, and he died.. YEP! I love it. <3'
p1879
aS'still a better love story than the real twilight XD'
p1880
aS'Dear Ryan , could you make a " austin powers and goldmember " in movies in \nminutes..'
p1881
aS'I wanna watch this movie!!!=D'
p1882
aS'Dear Ryan, can you make a " Lord of the Rings" movies in a minute'
p1883
aS'Nigahiga and Smosh should make a Twilight parody movie, thats better then \nVampires Suck'
p1884
aS'nice?'
p1885
aS'He did that in one of his recent videos.'
p1886
aS'A mirmaid?'
p1887
aS'Baseball! 1:53'
p1888
aS'1:54 its time lol'
p1889
aS'impressively fast strong you need a tan XD lol'
p1890
aS'\xe5\x93\x88\xe5\x93\x88\xe5\x93\x88\xe5\x93\x88\xe8\x8e\xab\xe5\x90\x8d\xe7\x9a\x84\xe7\xac\x91\xe7\x82\xb9~'
p1891
aS'OMG i can\'t get over the Alice guy "IT\'S TIME" XD and the pitching lol'
p1892
aS'make that 6,334'
p1893
aS"YOU'RE A MERMAID"
p1894
aS'fck it... TEAM RYAN!!!'
p1895
aS'dafuq did i just watch'
p1896
aS'The first part of the sentence is haha jk ___________ Your questions, \nanswered. Check my channel out'
p1897
aS'dear ryan, can u make a "movies in minutes for breaking dawn"?? :)'
p1898
aS'Is it only me who thinks he looks like Glen from the Walking Dead at the \nstart of this? '
p1899
aS'1:05 he looks so accurate!'
p1900
aS'Dear Ryan, can you do racist people, ex. white person acting asian ormwhite \nperson acting black'
p1901
aS'Camera at 2:47!!!!'
p1902
aS'thumbs up if u hate people saying "Thumbs up if you\'re watching in 2013" or \nsomething like that.'
p1903
aS'Your a mermaid'
p1904
aS'Check out my channel for free Pc games!'
p1905
aS'you too make a cute couple <3 '
p1906
aS'Watchout! We got an ASSHOLE OVER HERE!!'
p1907
aS'bader213222 there ASIAN not chinese but there awesome!'
p1908
aS'LMAO! XD'
p1909
aS'i thout she wouldd say he was a unicorn thumbs up if you did to'
p1910
aS'he looks so old in this :o...lol dang and how old is he?? xD'
p1911
aS"'say what am i , say out .say it out loud..'' mermaid' MERMAID dafuq damn \nthat is so epic funny"
p1912
aS'wow they suk right they try too hard try out smosh every body i recomend it'
p1913
aS'Asian version of twilight'
p1914
aS'No your to fat'
p1915
aS'Lol he nerpled him'
p1916
aS'Can you make a video on how to shoot ninjas'
p1917
aS"The ''girl'' whoi threw the ball looks so fucking hilarious= = "
p1918
aS'a mermaid!! hahahah'
p1919
aS"Alice's bit when she throws the ball always cracks me up. "
p1920
aS'thumbs up for cupcakes!!!'
p1921
aS'A mermaid. xD'
p1922
aS'the girl is much prettier than kristen stewart '
p1923
aS'better than twilight LOL '
p1924
aS'LOL @ 2:01'
p1925
aS'"What am I? Say it! Say it out loud!" "A mermaid." "What?" "A mermaid." LOL \nXD'
p1926
aS'lol he lost his nipples '
p1927
aS'NEARLY 21 MILLION VIEWS'
p1928
aS'two'
p1929
aS'lol'
p1930
aS'HIM AND HER USED TO DATE!!!! aw'
p1931
aS'Lol XD This is sooo funny.'
p1932
aS'Lean come back'
p1933
aS'better then the real thing lol'
p1934
aS'lol funny video '
p1935
aS'hahahahahahahaha....'
p1936
aS"Thumbs up and check out my videos if you're still watching this on 2012! :)"
p1937
aS'LMAO wow... '
p1938
aS'no..ur too fat'
p1939
aS"IT'S TIME!"
p1940
aS'Lol the person who plays as james and alice is so funny'
p1941
aS'no , im watching this in 3463 when the dinosaurs have returned.'
p1942
aS'Stunts: Michael Bay '
p1943
aS'The guy who says "It\'s time" hahahaha, funny guuyy'
p1944
aS'Can I come with you No your too fat'
p1945
aS"IT'S TIME"
p1946
aS'this is so funny'
p1947
aS'What the heck'
p1948
aS"can i climb with you? no, you're too fat XD"
p1949
aS'(British Accent) Absolutely spot on,'
p1950
aS'aw mum, not in front of Bella! '
p1951
aS'Thu'
p1952
aS"Ryan's then-girlfriend Tarynn Nago"
p1953
aS'i like how you are asian '
p1954
aS'hahahahahahaha'
p1955
aS'still a better story than twilight ^^ '
p1956
aS'haha theyre all asian'
p1957
aS'i think i peed my pants LOOOOOOOOL'
p1958
aS'omg lmao'
p1959
aS'bella here is freaking hot'
p1960
aS'wanna see me climb this tree ? Sure , can i come!? NO YOUR TO FAT!'
p1961
aS'Now ur just making fun of alive I like Alice she tells visions yay !!!!!!'
p1962
aS'Lol literally'
p1963
aS'Lol'
p1964
aS'1:53 LMFAO'
p1965
aS'omg did she say mermaid?? lmao'
p1966
aS'i wonder if he can pull off Eragon?'
p1967
aS"1:54 is the best thing I've ever seen."
p1968
aS'I loved the part when he asked "Do you trust me?" and the girl said yes, \nthen he scared her. Hahaha GENIUS'
p1969
aS'lol! You Alice imitation! loved it!'
p1970
aS'Edward : Say it, say it out loud. Bella : A mermaid. -.- '
p1971
aS'LOOOOOOOOOOOOOOOOOL '
p1972
aS'press key #6'
p1973
aS'-Edward are you climbing trees again ? - Oh mom not in front of Bella! 3:28 \nWhat was the point of hiding her eyes , she heard everything , LOL '
p1974
aS'LOL...Bella stinks.........that is a good idea to give her scents and \ncosmetics.........hahaaaaaaaaaaaaaa'
p1975
aS'wow, you nerd. Get a fucking life'
p1976
aS'You know whats funny In harry potter Robert dies while the series is taking \nplace in 90/80 CONICDENCE I THINK NOT'
p1977
aS'i like the part after that'
p1978
aS'Lol the frigging toy car XD'
p1979
aS'I got that too. lol '
p1980
aS'Literally better then the movie.'
p1981
aS"can't stop laughing; these guys are awesome "
p1982
aS'Its time!!! Lol'
p1983
aS'Aladeen.'
p1984
aS"cool this was uploaded on 21st jan that's my birthday"
p1985
aS'It should have shown the part where his chest sparkles'
p1986
aS'Impossibly Unbelievable you are... and that stinky scene and car... LMFAO..'
p1987
aS'a mermaid?!'
p1988
aS'Nipple twist attack!!!'
p1989
aS'Dear Ryan, Why do you no longer make videos with Sean Fujiyoshi?'
p1990
aS'Wanna see me climb this tree can i come no ur to fat :O'
p1991
aS'Wait, so she dated him thinking he was a mermaid?? Haha!!'
p1992
aS"you'RE!!!!!!!!!!!!!!!!!!!!!!!!!!!!!!!!!!!!"
p1993
aS'Wow i remember the quality being better.. if 480 was HQ for me back then, \nthen i guess a lot of time has passed.'
p1994
aS'Mermaid really? Lmao'
p1995
asS'time'
p1996
ctime
struct_time
p1997
((I2009
I1
I22
I2
I56
I38
I3
I22
I-1
t(dtRp1998
sS'id'
p1999
Vgoix7jFXD9Q
p2000
s.