(dp1
S'title'
p2
VSkitzo - The PSA
p3
sS'url'
p4
Vhttp://www.youtube.com/watch?v=ibQtd-_wX8A&feature=youtube_gdata_player
p5
sS'image'
p6
Vhttp://i.ytimg.com/vi/ibQtd-_wX8A/0.jpg
p7
sS'comments'
p8
(lp9
S'In PSA, the P is not silent. The A is. ROFL!\xef\xbb\xbf'
p10
aS"I WANNA SEE HANATE'S PSA\xef\xbb\xbf"
p11
aS'HEY THAT WAS SHANE DAWSON AT THE END!!!!\xef\xbb\xbf'
p12
aS"RYANNNNNNN I KNOW YOU PROBABLY DON'T READ THE COMMENTS ON THIS VIDEO \nANYMORE. BUT IVE BEEN WATCHING YOU SINCE 2006!!!\xef\xbb\xbf"
p13
aS'Song name in Ryan\'s psa? Seriously no saying "Darude - Sandstorm" or any \nvariant\xef\xbb\xbf'
p14
aS'"You can\'t have sex before protection, or it will ruin your life. Because \nthen you\'ll have to make a baby, and you won\'t have the tools to take care \nof it."\xef\xbb\xbf'
p15
aS"Its amazing to see how much Ryan's imptoved since these vids !! :)\xef\xbb\xbf"
p16
aS'Time: 12:30 a.m.\nMe: Just one more....\nTime: 5:00a.m.\nMe: This is the last one! I swear, after this I will stop for the night....\nTime: 10:00a.m.\nMe: This is the very last....\xef\xbb\xbf'
p17
aS"The number doesn't work...\xef\xbb\xbf"
p18
aS'i think this is my 25th time watching this\xef\xbb\xbf'
p19
aS'Shane?\xef\xbb\xbf'
p20
aS'now im a smart!\xef\xbb\xbf'
p21
aS"R-Dizzle's was the best. \xef\xbb\xbf"
p22
aS'Omg this is so old \xf0\x9f\x98\x82\xf0\x9f\x98\x82\xf0\x9f\x98\x82\xf0\x9f\x98\x82\xef\xbb\xbf'
p23
aS'Hi ik ur probably not reading this but this has been my favorite vid since \nit came out \xef\xbb\xbf'
p24
aS"Dear Ryan: Make Hanate's PSA!\xef\xbb\xbf"
p25
aS'Aha Shanes in the video cx. Awesome. Also, Hanates PSA was never shown \n#ShowHanatesPSA\xef\xbb\xbf'
p26
aS'My favorite Higa video ever. \xf0\x9f\x98\x82\xef\xbb\xbf'
p27
aS'I like r-dizzels\xef\xbb\xbf'
p28
aS"R-Dizzle's made me crack up the most\xf0\x9f\x98\x82\xf0\x9f\x98\x82\xf0\x9f\x98\x82\xf0\x9f\x98\x82\xf0\x9f\x98\x82\xf0\x9f\x98\x82\xef\xbb\xbf"
p29
aS':O darn u autocorrect I meant to say sects\xef\xbb\xbf'
p30
aS'Shane Dawson!! Oh my god!!\xef\xbb\xbf'
p31
aS'r-dizzles psa is basically middle school health class...\xef\xbb\xbf'
p32
aS'hahaha i was looking for this vid because it makes me laugh so hard :3\xef\xbb\xbf'
p33
aS'hanate is really hilarious\xef\xbb\xbf'
p34
aS'Best song ever 10/10\xef\xbb\xbf'
p35
aS'got point !! haha\xef\xbb\xbf'
p36
aS'How dare you left Hanate out !\xef\xbb\xbf'
p37
aS'POOR HANATE!!! :c\xef\xbb\xbf'
p38
aS'shamwhoohoo 4:50 lol\xef\xbb\xbf'
p39
aS'omg shane dawson is the big boss? xD\xef\xbb\xbf'
p40
aS'( I meant sucks\xef\xbb\xbf'
p41
aS'Awesome\xef\xbb\xbf'
p42
aS"Regian's grammar is worse than myrammar lol\xef\xbb\xbf"
p43
aS'I like HANATE\xef\xbb\xbf'
p44
aS'THAT WAS SHANE RIGHT?!\xef\xbb\xbf'
p45
aS'2:25 play it at 2 speed. youre welcome.\xef\xbb\xbf'
p46
aS'What ever you do, YOU WILL DIE!! \n\nThat part was funny xD\xef\xbb\xbf'
p47
aS"Anyone else notice that little triangle between Ryan's eyebrows when he \nfrowns?\xef\xbb\xbf"
p48
aS'Sorrry sorry my dad rote that\xef\xbb\xbf'
p49
aS"I wanted to see Hanate's D: :3\xef\xbb\xbf"
p50
aS'Lol soooo cheesy xD\xef\xbb\xbf'
p51
aS'Shane!!! :)\xef\xbb\xbf'
p52
aS'Sucks\xef\xbb\xbf'
p53
aS'Ryan could you subscribe to me #mizaab Rahim\xef\xbb\xbf'
p54
aS"I'm going to die of laughter before I finish my Higa Marathon. I needed \nafter a horrible week. Thank you so much. :) \xef\xbb\xbf"
p55
aS"Love R-Dizzle's PSA!\xef\xbb\xbf"
p56
aS'Every one exept Ryan is a bich\xef\xbb\xbf'
p57
aS'That was beautiful'
p58
aS'sounds like deflating balloon '
p59
aS'Ooh shane was in it at the end \xef\xbb\xbf'
p60
aS"Aww... I wanted to see Hanate's\xef\xbb\xbf"
p61
aS" I only like this channel because I have ADHD and what's funny to my \nfriends don't get.\xef\xbb\xbf"
p62
aS"Regina and R-Dizzle's PSA was better\xef\xbb\xbf"
p63
aS'You deserve every one of your subscribers, and every single like!\xef\xbb\xbf'
p64
aS'I love hanate\xef\xbb\xbf'
p65
aS"I feel bad for laughing because this is kind of making fun of charity but I \ncan't stop laughing. \xef\xbb\xbf"
p66
aS' #teamhanate  \xef\xbb\xbf'
p67
aS'So gay\xef\xbb\xbf'
p68
aS'hahahaha! good joke Hanate!\xef\xbb\xbf'
p69
aS'I laughed so hard, I almost woke up my entire house. This is HILARIOUS!!!! \xef\xbb\xbf'
p70
aS'Shane\xf0\x9f\x98\xb1\xef\xbb\xbf'
p71
aS'Shane Dawson at the end made me laugh\xef\xbb\xbf'
p72
aS"What ever plus why r u writing a comment on this video if u know that he \ndoesn't look at these comments\xef\xbb\xbf"
p73
aS'Am I the only one who noticed that .... He has (or had) a MySpace account \xef\xbb\xbf'
p74
aS'Oh hey Shane cx\xef\xbb\xbf'
p75
aS'I\'ve been commenting lots lately, but its true what I say! I love your \nvideos, and I\'ve been watching since 2012 (constantly). I do remember my \nsister showing me "How to be Ninja" when I was 7. Now I\'m thirteen. It\'s \nreally cool how you\'ve been there for so long!\xef\xbb\xbf'
p76
aS'1980\xef\xbb\xbf'
p77
aS"you can tell this is really old because there's a link in the description \nto his MySpace \xf0\x9f\x98\x82\xf0\x9f\x98\x82\xf0\x9f\x98\x82 XD \xef\xbb\xbf"
p78
aS'So. It actually sounds like a deflating balloon. You know- psssss\xef\xbb\xbf'
p79
aS'Am I the only one who searched the PSA video link?\xef\xbb\xbf'
p80
aS'dear ryan can u make a.s.s. 2?\xef\xbb\xbf'
p81
aS'Call the number in the psa its a dating hotline\xef\xbb\xbf'
p82
aS'aww poor hinate lol\xef\xbb\xbf'
p83
aS'Shane dawson!\n\xef\xbb\xbf'
p84
aS'psssssssssssssssssssssssssssss\xef\xbb\xbf'
p85
aS"We never got to see Hanate's .... :(\xef\xbb\xbf"
p86
aS'Dear Ryan can you Marley?\xef\xbb\xbf'
p87
aS"dear ryan , show us Hanate's PSA !\xef\xbb\xbf"
p88
aS'You play with fire,you die,die,die!\xef\xbb\xbf'
p89
aS"Poor Hanate he didn't get to HIS PSA.\xef\xbb\xbf"
p90
aS'Holy fuck that was Shane dawson\xef\xbb\xbf'
p91
aS"It's awesome how Shane Dawson was on this!\xef\xbb\xbf"
p92
aS'THE ACHOO BLESS YOU THING GETS ME EVERY TIME YOU DONT UNDERSTAND\xef\xbb\xbf'
p93
aS'Shane lol\xef\xbb\xbf'
p94
aS'Ry\xc3\xa0n should do a collab with Shane.\xef\xbb\xbf'
p95
aS'WHAT!\xef\xbb\xbf'
p96
aS'WTF Ryan\xef\xbb\xbf'
p97
aS'I feel so bad for Hanate, I wanna see his. Ryan please make his!\xef\xbb\xbf'
p98
aS'lol Regina "Whats a psa"!!!!!!! XD\xef\xbb\xbf'
p99
aS'Make more skitzo!!!\n\xef\xbb\xbf'
p100
aS"Dear Ryan, can you make a video showing Hanate's PSA that was never shown?\xef\xbb\xbf"
p101
aS'Lol boob! \xef\xbb\xbf'
p102
aS'Ryan is so much cooler now!\xef\xbb\xbf'
p103
aS"I love your videos! P.S I know how you did that! The're all you! \xef\xbb\xbf"
p104
aS"Poor hanate got left out again... I'm with you dude #teamhanate\xef\xbb\xbf"
p105
aS'MORE!!!!!!!!\xef\xbb\xbf'
p106
aS'We can change their lives for life lol\xef\xbb\xbf'
p107
aS"I thought their PSAs were better than Ryan's, especially Hanate's.\xef\xbb\xbf"
p108
aS'Please make more of these Skitzo vids. They are really funny. Like if you \nagree.\xef\xbb\xbf'
p109
aS'when he sneezed i sneezed and thank you for the bless.\xef\xbb\xbf'
p110
aS'Shane Dawson :)\xef\xbb\xbf'
p111
aS'Boobs\xef\xbb\xbf'
p112
aS"I went to that website and it didn't work\xf0\x9f\x98\x88\xef\xbb\xbf"
p113
aS'best pisa evar\xef\xbb\xbf'
p114
aS'thats ok because you can use my shamwoohoo\xef\xbb\xbf'
p115
aS'Did ryan just throw his snot all over the camera lens?\xef\xbb\xbf'
p116
aS'i am a huge fan of nigahiga, i always watch his videos but this one is one \nof my favorites\xef\xbb\xbf'
p117
aS'SHANE!\xef\xbb\xbf'
p118
aS'\xf0\x9f\x98\x82\xf0\x9f\x98\x82\xf0\x9f\x98\x82\xf0\x9f\x98\x82\xf0\x9f\x98\x82\xf0\x9f\x98\x82\xf0\x9f\x98\x82\xf0\x9f\x98\x82\xf0\x9f\x98\x82\xf0\x9f\x98\x82\xf0\x9f\x98\x82\xf0\x9f\x98\x82\xf0\x9f\x98\x82\xef\xbb\xbf'
p119
aS'Shane Dawson sham woo hoo\xef\xbb\xbf'
p120
aS'Yes my bae was on here! Luv u Shane Dawson!!! ;)\xef\xbb\xbf'
p121
aS'OMG SHANE I DID NOT SEE THIS VIDEO EVER AND IT HAS SHANE?\xef\xbb\xbf'
p122
aS'Shamwoohoo! \xef\xbb\xbf'
p123
aS'More skitzo please!!!!\xef\xbb\xbf'
p124
aS"What was Hanaka's PSA???  0_o\xef\xbb\xbf"
p125
aS"Where is Hanate's PSA???\xef\xbb\xbf"
p126
aS"When you do drugs you will die! When you have sex you will die!\nWhen you don't recycle you will die! If you play with fire you'll die\nDie die!!!!\xef\xbb\xbf"
p127
aS"The skitzo's are soooooooooooooooo funny\n\xef\xbb\xbf"
p128
aS'Shane!\xef\xbb\xbf'
p129
aS'Ahhh Shane dawson \xef\xbb\xbf'
p130
aS".....\n(Ryan opens the door again) \nR-Dizzle: what, you're gonna yell at us again? \nRyan: no, I forgot my keys. \n*clinks keys* \nxD favorite part ever\xef\xbb\xbf"
p131
aS'THIS IS HILARIOUS xD\xef\xbb\xbf'
p132
aS"... we never got to see Hanate's PSA :(\xef\xbb\xbf"
p133
aS'I bet hanatas would of been amazing\xef\xbb\xbf'
p134
aS'01:36 weird face time!\xef\xbb\xbf'
p135
aS'What is the teehee? sorry guys im new fan here so please tell me \xef\xbb\xbf'
p136
aS'woaaah wasn\xc2\xb4t expecting shane there :D\xef\xbb\xbf'
p137
aS'Oh my gosh SHANE!! XD XD XD XD\xef\xbb\xbf'
p138
aS'Like this comment if you are watching this in 2014!\xef\xbb\xbf'
p139
aS'hello kids time to talk about secks\xef\xbb\xbf'
p140
aS'SHANEEEEEE!!!!! \xf0\x9f\x98\xb1\xf0\x9f\x98\x84\xef\xbb\xbf'
p141
aS'You told me to tell you the truth... As much as I love your videos.... WHAT \nTHE HELL WAS THAT!?\xef\xbb\xbf'
p142
aS'Pssssssssssssssssssssssss (~hanate face~)\xef\xbb\xbf'
p143
aS"well..\n1.poor Hanate :'(\n2. wasn't Ryan supposed to be the smart one?\n3. How do all these youtube celebs come in each other's videos???\xef\xbb\xbf"
p144
aS' #teamhanate  \xef\xbb\xbf'
p145
aS'SHANE\xef\xbb\xbf'
p146
aS'SHANE XDDD\xef\xbb\xbf'
p147
aS'2:24 that was awesome :D\xef\xbb\xbf'
p148
aS'LOL\nDA SHAMWOHO IS BACK\xef\xbb\xbf'
p149
aS"For anyone who says that they really wanted to see Hanate's Psa video, I \nthink it's the 'Shamwoohoo' video that Ryan made ages ago because of the \nending. Btw what did Regina mean by 'Oh oh, All this talk about Psa's, I \nthink I just got mine.' ???\xef\xbb\xbf"
p150
aS'Shanedawsontv and nigahiga were the best in this episode\xef\xbb\xbf'
p151
aS'I missed it will ruin you appetite ( life )\xef\xbb\xbf'
p152
aS'oh man the shampoowoo!! xD\xef\xbb\xbf'
p153
aS"Regina's PSA makes sense:\nYou can't have cookies(secks) until you have dinner(protection) or you'll \nend up having a dudu(baby) and you won't have the right tools \n\n\xef\xbb\xbf"
p154
aS'Shane?\xef\xbb\xbf'
p155
aS'who else called the number?\xef\xbb\xbf'
p156
aS'Shane.... LOL\xef\xbb\xbf'
p157
aS'I feel bad for Hanate sometimes. He didnt get a chance to show his LOL\xef\xbb\xbf'
p158
aS'SHANE!!!!!!!!\xef\xbb\xbf'
p159
aS'I really feel bad for Hanate not showing his own PSA. xD\xef\xbb\xbf'
p160
aS'He has to make more\xef\xbb\xbf'
p161
aS'I was pretending to do my homework while watching this, and broke out \nlaughing as my mom looked at me suspiciously.\xef\xbb\xbf'
p162
aS'SHANE DAWSON!\xf0\x9f\x98\x83 Lol\xef\xbb\xbf'
p163
aS'I wanted to see Hanate!\xef\xbb\xbf'
p164
aS'best skitzo ever. I love regina. She is my favorite. Good job ryan on it .\xef\xbb\xbf'
p165
aS"What was hanate's PSA?\xef\xbb\xbf"
p166
aS'this is the best skitzo ever\xef\xbb\xbf'
p167
aS'shane!!!! \xe2\x99\xa3\xe2\x99\xa533\xe2\x99\xa5\xe2\x99\xa5\xe2\x99\xa533\xef\xbb\xbf'
p168
aS'more skitzo!! XD\xef\xbb\xbf'
p169
aS'We all surely try to tjek the webside... :) \xef\xbb\xbf'
p170
aS'Omg dying of laughter\xef\xbb\xbf'
p171
aS"@renlolmer it's just like the normal teehee (like a funny chuckle, it's \nhard to explain) and Ryan likes to use it at the end of his videos.\xef\xbb\xbf"
p172
aS'this vid just keeps getting funnier\xef\xbb\xbf'
p173
aS'i love this\xef\xbb\xbf'
p174
aS'Hanate: Deflating balloon: You know like, Psssssssssssssssssss....\xef\xbb\xbf'
p175
aS'SHANE DAWSON?!???!!!!!!!!\xef\xbb\xbf'
p176
aS'Shane Dawson \xef\xbb\xbf'
p177
aS'I think hanates PSA was the shamwoohoo which is also a vid\xef\xbb\xbf'
p178
aS'YOU WILL DIE!\xef\xbb\xbf'
p179
aS'Well then , achoo, bless you\xef\xbb\xbf'
p180
aS"I've looked back on this video. I haven't seen it sine 2010 or 2011 and i \njust now realized that the person at the end is Shane Dawson. \xef\xbb\xbf"
p181
aS'Wat about cats\xef\xbb\xbf'
p182
aS"My favorite was Regina's the cookie really is like secks\xef\xbb\xbf"
p183
aS'Lol\xef\xbb\xbf'
p184
aS'Hanate psa\xef\xbb\xbf'
p185
aS'Funny\xef\xbb\xbf'
p186
aS"#DearRyan can you show the rest of hanatae's PSA from skitzo\xef\xbb\xbf"
p187
aS"Dear Ryan, please show us Hanate's PSA! \xef\xbb\xbf"
p188
aS'At 4:15 the middle of his eyebrows looks like a music note\xef\xbb\xbf'
p189
aS'1-800-He\xef\xbb\xbf'
p190
aS"When I first saw this I was like who's the dude with the weird hair? And \nI'm like whoaaa they knew each other??? \xef\xbb\xbf"
p191
aS"what about Hanate?\nDear Ryan, can you show us Hanate's PSA?\xef\xbb\xbf"
p192
aS"I want to see Hanate's PSA, pleases?\xef\xbb\xbf"
p193
aS"I didn't know who Shane Dawson was back then XD\xef\xbb\xbf"
p194
aS"EVEN NOW, I STILL WANT TO SEE HANATE'S PSA.\xef\xbb\xbf"
p195
aS'The phone number is out of service?\xef\xbb\xbf'
p196
aS"WHERE IS HANATE'S PSA!!!!!?????!!!!!\xef\xbb\xbf"
p197
aS'Seckhs?\xef\xbb\xbf'
p198
aS'"well then, ACHOO bless you\xef\xbb\xbf'
p199
aS"The teehee is Ryan's catchphrase, he has and always will do it!!! It is \nbeast!\xef\xbb\xbf"
p200
aS'Is Shane the big boss?\xef\xbb\xbf'
p201
aS' #teamhanate  \xef\xbb\xbf'
p202
aS'Shane!!!\xef\xbb\xbf'
p203
aS'omg!!! so funny\xef\xbb\xbf'
p204
aS'Funny!!!!\xef\xbb\xbf'
p205
aS'Shane!!!\xef\xbb\xbf'
p206
aS'Dear Ryan, can make a special Video featuring Regina?\xef\xbb\xbf'
p207
aS"SHOW HANATE'S VIDEO!!!!!!!\xef\xbb\xbf"
p208
aS'SHANE\xef\xbb\xbf'
p209
aS'i was reading the description and realized ryan had a "MySpace"\xef\xbb\xbf'
p210
aS'Shane dawson at the end ish\xef\xbb\xbf'
p211
aS'psa\xef\xbb\xbf'
p212
aS'Shane Dawson!! :) <3\xef\xbb\xbf'
p213
aS'Wat about cats\xef\xbb\xbf'
p214
aS'Aww hanata\xef\xbb\xbf'
p215
aNaS'More Skitzo!!!!!!!!! <3\xef\xbb\xbf'
p216
aS'1-800-HELP-THE-UHH-THE-THE-HELP-THE-CHILDREN-AnD\xef\xbb\xbf'
p217
aS'no it sounds like piss\xef\xbb\xbf'
p218
aS'i like r dizzle one\xef\xbb\xbf'
p219
aS'Lol Shane at the end was the best!!\xef\xbb\xbf'
p220
aS'Ren lolmer the teehee is just a thing that Ryan has a\xef\xbb\xbf'
p221
aS'R dizzle was the best\xef\xbb\xbf'
p222
aS'Just use my shamwoohoo! Lol\xef\xbb\xbf'
p223
aS'Regina\'s part actually made sense if you listen to it basically in \ntranslation she said " you shouldn\'t have sex before your ready, cause then \nyoull have a baby and wont have money to take care of it"\xef\xbb\xbf'
p224
aS'me too\xef\xbb\xbf'
p225
aS'Shane Dawson scarred the shit out of me \xef\xbb\xbf'
p226
aS'I like R-Dizzle 1 and Ryan ur bad\n\xef\xbb\xbf'
p227
aS'Should be stop poverty\xef\xbb\xbf'
p228
aS'Hanate should have won the contest\xef\xbb\xbf'
p229
aS'YOU WILL DIE\xef\xbb\xbf'
p230
aS'SHANE DAWSON\xef\xbb\xbf'
p231
aS'i like hanate the best\xef\xbb\xbf'
p232
aS'Yeah funny right\xef\xbb\xbf'
p233
aS'Shane!!!!\xef\xbb\xbf'
p234
aS'SHANE DAWSON!\xef\xbb\xbf'
p235
aS'SHANE!!!!!! :)\xef\xbb\xbf'
p236
aS'Shane!!!\xef\xbb\xbf'
p237
aS'Shane comes at the end\xef\xbb\xbf'
p238
aS'Hanate your the best! XD\xef\xbb\xbf'
p239
aS'How did shane dawson geti n there?\xef\xbb\xbf'
p240
aS'Hanata \xef\xbb\xbf'
p241
aS"Dear Ryan can you show us Hanate's PSA? XD\xef\xbb\xbf"
p242
aS'Ha ate\xef\xbb\xbf'
p243
aS'you know, like a deflating balloon...psssssssssssssss... XD\xef\xbb\xbf'
p244
aS'Lol drizzle\xef\xbb\xbf'
p245
aS'Shane!!!!!!!\xef\xbb\xbf'
p246
aS'Why hanate is like an idiot?\xef\xbb\xbf'
p247
aS"i wanted to see hanate's...\xef\xbb\xbf"
p248
aS'Lol'
p249
aS'Hanate is pretty inteligent'
p250
aS'OMG SHANE DAWSON!!!!!!!!!'
p251
aS'Shane'
p252
aS'Shane'
p253
aS'Lol'
p254
aS'Awe hanate!!!!!'
p255
aS'that was so inspirational it almost brung a tear to my eye '
p256
aS'Haha r-dizze is awesome! Like if your watching in 2013'
p257
aS'Dear Ryan can you be Shane Dawson??'
p258
aS'you know it sounds like a no'
p259
aS'Shane Dawson?!?!?!?!'
p260
aS'SHANEEEE !'
p261
aS'Shaaaneee\xe2\x99\xa5'
p262
aS'Shamwhohoo!'
p263
aS'Shane'
p264
aS'Is this the first one? I never realized he made these so long ago!'
p265
aS'did anyone else try to go to that website? '
p266
aS'Can u make more videos with shane dawson?'
p267
aS'what about hanantes PSA'
p268
aS'How did you get Shane Dawson'
p269
aS'SHANE??!! <3'
p270
aS'Whats a psa !!! LOL regina is so funny'
p271
aS'Oh really u can use my shamwoohoo hahaha'
p272
aS'If you have secks YOU WILL DIE!'
p273
aS"True story of how i became a Ryan fan: Some will say its a lie or for \nattention. But its not. I was extreamly depressed and i couldnt \nstop.crying....long story short. My best friend showed Me dear Ryan \nKlondike bar. Made me laugh so hard i just couldn't live with out him. \nThank you Ryan for lighting up my life"
p274
aS'U suck dancer0198 gfys'
p275
aS'Lol hanate!!'
p276
aS'Achoo....bless you!! HAHAHAHAHAHAHAHAHAHA!!'
p277
aS'SHANE!'
p278
aS'SHANE!!!!!'
p279
aS'I WANT TO SEE HANANTES PSA '
p280
aS'*the end*'
p281
aS'Shane Dawson!! <<3'
p282
aS"What about Hanate's video? He funny"
p283
aS'sham WHOOHOO'
p284
aS'Welcome back 360p Its was a while didnt expect you in 2013 :P'
p285
aS'TEE HEE! AGAIN!'
p286
aS'Hanate! <3 no homo'
p287
aS'O.O'
p288
aS"You know you're going crazy when Ryan's logic starts to make sense...."
p289
aS'i love skitzo!!!'
p290
aS'Poor hamate that happened to me at show and tell'
p291
aS'When i seen him i was like.. \nSSSSSSSSSSSHHHHHHHHHHHAAAAAAAAAAANNNNNNNNNEEEEEEEE!!!!!!!'
p292
aS'#teamhanate!!!!!'
p293
aS'I laughed so hard. Skitso is awesome!!'
p294
aS'XD Hanate! and the look on his face! XD'
p295
aS'Lol hi Shane!'
p296
aS'like if you tried to call \n1-800-STOP-THE-UHH-THE-THE-HELP-THE-CHILDREN-AND-DOGS-NOT-DIE..com '
p297
aS'Dear Ryan, can you make more Skitzo videos?'
p298
aS'Shane!'
p299
aS'like if you called'
p300
aS'Who else dueled the number'
p301
aS'Lol Shane was there xD'
p302
aS'When I called the number it wend me to a carribian cruusline and I got a \nfree 2 day cruise somehow'
p303
aS"Isn't Regina's PSA too inappropriate."
p304
aS'Who else found out about Ryan from watching these videos 2 years ago'
p305
aS'like if a dog came to your door in a tux saying will you draw my \nudders..TEEHEE!'
p306
aS'1-800-the-uh-the-the-help-the-children-and-dogs-not-die copy and paste '
p307
aS'\xe2\x9d\xa4\xef\xb8\x8fhanate'
p308
aS'shane LOL'
p309
aS'More skitso!!!!!!!!!!!!! Please'
p310
aS'WHEN U HATE SKITZO.. U DIE DIE DIE!!!'
p311
aS'I keep forgetting that all of them are played by Ryan...'
p312
aS'Shane'
p313
aS'this is the first i seen this and i immediately started laughing regina is \nsoooooooooooo funny omg i lol every body could hear me'
p314
aS'I do help starving people'
p315
aS"i really wanted to see hanate's... "
p316
aS'What happened when you dialled the number?'
p317
aS':0 SHAAAANNE!!! -3'
p318
aS"I WANT TO SEE HANATE'S!!!!!!"
p319
aS"awwww i wanted to see hanate's xDD"
p320
aS'SHANE!! Omg Hanate xDDD An inflating balloon! Haahahahaha'
p321
aS'Please make more skitzo'
p322
aS'I never got to see hantes :('
p323
aS'I dont get the p is not silent, the a is, please someone explain'
p324
aS'Shane dawson sucks.'
p325
aS"RDizzle's was the funniest...LOL!"
p326
aS'2:06 AWSOME XD'
p327
aS'HAHAHA ACHOOO'
p328
aS"Is this video made when Ryan Higa still wasn't a youtube sensation?"
p329
aS"dear ryan, don't listen to hana bidon"
p330
aS"I'M SURROUNDED! "
p331
aS"Dear Ryan, can you show Hanate's PSA?"
p332
aS'Just call 1800-STOP-THE-UHH-THE-THE-HELP-THE-CHILDREN-AND-DOGS-NOT-DIE,com'
p333
aS'Uh'
p334
aS'Lol shane!'
p335
aS'Haha teehe Shane'
p336
aS'shamwoohoo!'
p337
aS'lol shane haha'
p338
aS"regina's is kinda like rite :D "
p339
aS'hahha shane '
p340
aS'cool haha Ryans phone number hahahaha '
p341
aS'What the f$&k was that'
p342
aS'He says "Sham-woohoo" so that\'s what I think his PSA is.'
p343
aS'pssssssssssssssssssssssssssssssssssssssssssssssssssssssss'
p344
aS'Love your psa'
p345
aS'-ish'
p346
aS'I wonder if any one actually tried to go on that website in the end :) '
p347
aS'XD Shane!!'
p348
aS'Like this vids'
p349
aS'Hey I know this comment is in the past so you would know this now but the \npast comment that this is should be informed so HE DID!!! Wait, what is the \npoint of this comment?'
p350
aS'Shane'
p351
aS'MUST... RESIST... THE URGE... TO EAT!'
p352
aS'Dear Ryan, can you make more Skitzo?'
p353
aS'shane dawson yay.... :DD'
p354
aS'Teehee again.'
p355
aS'Shane dawson !! :))'
p356
aS'"Don\'t be ingnint, dog"'
p357
aS'LOL???? XD'
p358
aS'SHANE DAWSON!!!!!'
p359
aS'Laughed my ass off when e put his hand up than down, just the face he made \nXD'
p360
aS'It showed him on Halloween cooking rice...... TEEHEE! got rice?'
p361
aS'I am not kidding! I actually sneezed when Ryan was faking it! That was the \nweirdest thing ever!!'
p362
aS'SHANE DAWSON'
p363
aS'wtf was dat...xD'
p364
aS'Yay shane!'
p365
aS'WAS THAT PEWDIEPIE????'
p366
aS'Sham WOO HOO x'
p367
aS'shane dawson sucks '
p368
aS'LoL pussa'
p369
aS'Penguin Secret Agency'
p370
aS'SHANE DAWSON!!!!!!'
p371
aS'Ryan looks skinny playing Hanate'
p372
aS'Shane\xe2\x99\xa1\xe2\x99\xa1\xe2\x99\xa1\xe2\x99\xa1\xe2\x99\xa1\xe2\x99\xa1\xe2\x99\xa1\xe2\x99\xa1'
p373
aS'Shamehoooo'
p374
aS'Its ok you can use my sham-woo-hoo!'
p375
aS"Please Eat Now It's a Soup"
p376
aS'I called the # and it said that the number was unavailable'
p377
aS'SHANE DAWSON'
p378
aS'shane!'
p379
aS'Who else wrote down what Regina said about "secks"'
p380
aS'I saw the video of the samwoohoo'
p381
aS"I want to watch Hanate's PSA!!!"
p382
aS'I lik it'
p383
aS"Regina's made the most sense, R-Dizzle's was...straight-forward, and Ryan's \nwas overall confusing. I wanna see Hanate's!"
p384
aS'Trying to not laugh out loud in the library. ahahaha'
p385
aS'lol '
p386
aS'Then search up the "Sham-woohoo"'
p387
aS'SHAN DAWSON EPIC!!!!!!!!'
p388
aS'SHANE'
p389
aS'same here but my mom came into the room and i wasnt able to finish the \nsearch.'
p390
aS'i laughed so hard'
p391
aS'Was not pewds'
p392
aS'1:00 couldnt stop laughing'
p393
aS'He probably made something bout rice xD'
p394
aS'Vagina:WHAAAAAAAAAT'
p395
aS'THIS IS WHY I LOVE SHANE DAWSON!'
p396
aS'Shane!!!!'
p397
aS'Shane dawson'
p398
aS'regina is fucking dumbass'
p399
aS'Shane!!!'
p400
aS'I mean psa'
p401
aS'pssssssssssssssssssssssssssssssssssssssssssssssssssssssss'
p402
aS'I stay home. Cook rice'
p403
aS'you should love the video not shane'
p404
aS'I LOVE HANATE XD SO FUNNY'
p405
aS'SHANE DAWSON SHANE DAWSON SHANE DAWSON SHAN DAWSON I \xf0\x9f\x92\x97 SHANE DAWSON!!!!!!!!'
p406
aS'you will die LOOLZ '
p407
aS'Funniest thing Ryan does, skitsofri'
p408
aS"I miss skitzo's , I wish He'd do another one. Soon . "
p409
aS'4:39 My thoughts exactly.'
p410
aS'Shane Dawson!!!!!!!!'
p411
aS'i got a feeling it was about the ShamWOOHOO'
p412
aS'Poor Hanate <3'
p413
aS'Hanate have the best one'
p414
aS'*achoo...!* Bless you. . . XD'
p415
aS'I always lmfao at these vids'
p416
aS'\xe2\x86\x93\xe2\x86\x93\xe2\x86\x93 Thats awesome \xe2\x86\x93\xe2\x86\x93\xe2\x86\x93'
p417
aS'achoo, bless you'
p418
aS'psssssssssssssssssssssssss'
p419
aS'Corny but cool'
p420
aS'ShamWhooHoo'
p421
aS'I wish Ryan would make Skitzo again'
p422
aS'YOLO lmao lol r-dizzle'
p423
aS'hanate- forever alone '
p424
aS'Defrating Baroon ssssssssssssssssssssss......'
p425
aS'Shane dawson???'
p426
aS'Shawn dawnson'
p427
aS'4:40 it look like shane dawson'
p428
aS'Aww we never saw Hanates PSA'
p429
aS'defrating baroon xDDDDDDDDDDDDDDDDDD'
p430
aS'Who else actually tried to dial the number? XD'
p431
aS'SHANE DAWSON :)'
p432
aS'Ok we get it! Yes it was Shane! Now shut up! Lol'
p433
aS'shamwoohoo!'
p434
aS'hahahahaha ryan psa was gaaaay hahahahaha...omg shane dawson lol'
p435
aS'"If you have sex, YOU WILL DIE!" ...major Mean Girls moment... cx'
p436
aS'U should clash with shane dawson for a few vids!!!'
p437
aS'It sounds like a deflating balloon xD'
p438
aS"so if you don't wanna have a baby then just STOP EATING."
p439
aS'Old Shane<3'
p440
aS'He made a new one! :D Check it out it is so funny!'
p441
aS'shamwoohoo is hanate PSA '
p442
aS"what happened to Hanate's PSA?"
p443
aS'i searched up the website and its just merchandise.....'
p444
aS"u know. 'psssssssssssssssssssssssssssssssssssssss'. "
p445
aS"Well... in actuality he's surrounded by... himself. XD"
p446
aS'I checked out the website it rocks'
p447
aS"and then u realize those 'idiots' are Ryan himself"
p448
aS'please make more skitzos!!!'
p449
aS'google owns you tube now'
p450
aS'SHAMWOOOHOOO'
p451
aS'shane dawson all da way'
p452
aS'Shane!! :D'
p453
aS'Shane Dawson'
p454
aS'I wanted to see hanates, poor hanate didnt get to do his '
p455
aS'Shermz=Ryan Bigego=Regina Hineta=Pipito and R-Drizzle=Strange!!!!!'
p456
aS'ryan you know shane?'
p457
aS'I feel bad for hanate'
p458
aS'I actually called the number.... Nothing came up :('
p459
aS'shamwoohoo hahahaha that vid was crazy too! yay shane dawson hahaha'
p460
aS'Wow. All the names start with r besides 1...'
p461
aS'LOL. Terrorist,terrorist,terrorist, ... GOES BLACK ... boom...'
p462
aS'but hanate haha'
p463
aS'0.18 pasa lol'
p464
aS'No, she committed suicide. :"('
p465
aS"if you don't wanna have a baby then stop eating..? "
p466
aS'thats sooo funny '
p467
aS"Poor hanate, he didn't get to show his."
p468
aS'Funny Agree with Shane'
p469
aS"i wanted to see hanate's video"
p470
aS'uh huh... SHANE DAWNSON?'
p471
aS"Why you didn't showed what hanate made?, anyway I still love you , Ryan."
p472
aS'It is fake lol'
p473
aS'What was Hanate vid?'
p474
aS'achooo like aciu'
p475
aS'IT WAS...UH UNIQUELY DONE ryan. (stupid caps lock)'
p476
aS'Lol'
p477
aS'A wild Shane Dawson appeared! ...wow, that was nerdy. And lame. *skulks \naway*'
p478
aS'I respect you '
p479
aS"Aw, I wanna see Hanate's PSA >.<"
p480
aS'@pearlpurrincess, psa= public service announcement : an announcement to the \npublic that help them , it serves them, get it?'
p481
aS'1800 stop the uhhh the the stop the children and dogs not die .com IT MADE \nME PAY $1000 !!!!!'
p482
aS"It would've been really funny if they showed Hanate's at the end and it was \nactually super awesome."
p483
aS'Why is everybody saying how did he get shane dawson when hes clearly mucchh \nbetter than him!! How did shane dawson get him?'
p484
aS'an infrating barron *'
p485
aS'SHANE'
p486
aS'If you do drugs, then you will die! For real...'
p487
aS"I was thinking in Ryan's video it was like a ShaneDawson one because Shane \nalways looking away from the camera and then turning to look at the camera"
p488
aS'Teehee again'
p489
aS'Hanati show :-(:-('
p490
aS'Was that actually Shane!!!!!!!!!!!!!'
p491
aS'shane dawson! HES SO EPICCCCCCCCCCCCCCCCCC! SHANE DAWSON1 OMFG!'
p492
aS'OMG SHANEEE <3'
p493
aS'I bet hanates was gonna be how to be ninja.'
p494
aS'really ...who can handle this talent people...'
p495
aS'wheres aaron and blake '
p496
aS'Pssss'
p497
aS'Asian accent. '
p498
aS'Shane!'
p499
aS'#HANATEFOREVER'
p500
aS'I still want to see what hanate made.'
p501
aS'Lol ikr?'
p502
aS"wow ryan I didn't think that u wouldn't become one of them....calling us \nterrorists"
p503
aS'Wud does she mean by she got her PSA?'
p504
aS'It is the year 2056, Nigahiga is on Skitzo 1689'
p505
aS'Dear Ryan, please make a skitzo videooooooooo :o'
p506
aS'Hanate soooo cute 3'
p507
aS"Awwh i wanted to see Hanate's PSA"
p508
aS'poor hanate he didnt get to share his psa'
p509
aS'so, in psa, the p is not silent. the a is. so it sounds like deflating \nballoon. you know, pssssssss......... :)))))) hahaha hanate XD'
p510
aS'XDDDDDD owww i started to die when i saw Shane xDDD '
p511
aS'omg Shane Dawson yes'
p512
aS'Hanate bulls these miss swan faces'
p513
aS'SHANE is awsome '
p514
aS'Regina is so funny!'
p515
aS'u are great man '
p516
aS'Lol regina cracks me up'
p517
aS'You are awesome'
p518
aS'Ah Shane xD'
p519
aS'WOOHOO'
p520
aS'He was being serious...this is his serious...'
p521
aS'shane dawson!'
p522
aS'i acully called and it led me to an " illuminati stop "'
p523
aS'reginas psa is actually really smart XD'
p524
aS'shane!!!!!'
p525
aS"Aww I wanted to see Hanate's PSA. somebody show Hanate's some love!"
p526
aS'what is your point random as hell'
p527
aS'Awesome! Lol love all ur videos ryan'
p528
aS'#teamhanate!'
p529
aS'SHANE!!!'
p530
aS'So if dont want to have a baby stop eating! Me: o.o *puts cinnamon roll \ndown* ;-;'
p531
aS"I dont really get shamWOOHOO. What's it about?"
p532
aS'All that stuff about sex is true! cookies!'
p533
aS'This is funny'
p534
aS'SHANE!!!'
p535
aS'Bring this back!!!'
p536
aS"I want to hear Hanate's!"
p537
aS'Shane dawson !!!!!!!'
p538
aS"2:02 you can see through Ryan's head"
p539
aS'SHANE XD'
p540
aS'Ryan, why you so pretty lolol'
p541
aS'Shane'
p542
aS'Shamwoooohooooo!!!!'
p543
aS'Oh my god, you dont know how much i laughed when it said "Secks"'
p544
aS'I want to marry hanate! call me....'
p545
aS'Sham woohoo!!'
p546
aS'LMAO again with the shamWOOHOO!!!'
p547
aS'THE SHAM WOO HOO!!!!!'
p548
aS'Achooo, Bless you. _/\\_'
p549
aS'Shane my man.....'
p550
aS'A PSA is different than a period, last I knew.'
p551
aS'I called the number...'
p552
aS"wtf y u no show Hanate's D:"
p553
aS'what is PSA? lol!!!!!!!!'
p554
aS"Hanate's PSA is the sham Woohoo!"
p555
aS"I think that Hanate's one was gonna be really good."
p556
aS'That spelling gave me a cancer '
p557
aS'Shane Dawson'
p558
aS'sham WAHOOO!!!!!!!!!!!!!!!'
p559
aS'every thing in reginas psa was spelled so wrong'
p560
aS'I love Shane he made the hole vid'
p561
aS'its not hanata its hanate '
p562
aS'SHANE DAWSON!!!!!!!!!!!!!!!!'
p563
aS"Ryan's was the wierdest"
p564
aS'HI REGINA :D '
p565
aS'ryan! bring back skitzo for the sake of mankind!!'
p566
aS'I almost died laughing on the you will die thing.'
p567
aS'U will die!'
p568
aS'shamwoohoo! 4:50'
p569
aS'terrorists,terrorists,terrorists BOOM!'
p570
aS'What in the world'
p571
aS'regina is retarded ..... ryan has no patience....r-dizzle is a \ncriminal....hanate makes weird faces'
p572
aS'ryan where did you get the youtube shirt '
p573
aS'Shane in the end! hahahahahaa!!!! i love you guys!'
p574
aS'its a real site lol'
p575
aS'Shane Dawson yeah'
p576
aS'shane dawson!'
p577
aS'EVERYONE KNOWS THE P IS SILENT'
p578
aS'lol shane dawson '
p579
aS'Shane Dawson!'
p580
aS'hahahahahahahaahahahahahahahaha pms ?'
p581
aS'hahahha the face at 2:03'
p582
aS'Shane'
p583
aS'it stinks'
p584
aS"4:24 well that website doesn't exist "
p585
aS'Shane haha '
p586
aS"I like Ryan's speech"
p587
aS'SHANE DAWSON!'
p588
aS'wait .. what websites? '
p589
aS'SHANE DAWSON!!!!!!!! :*'
p590
aS"you don't have to list all the flaws all the characters have because I bet \nryan did it on purpose"
p591
aS'no it was shane dawson . '
p592
aS"So when is R-Dizzle's PSA being released as a single?"
p593
aS"I want R-Dizzle's song on iTunes"
p594
aS'Why was Shane Dawson at the end'
p595
aS'Shane Dawson cool'
p596
aS'Wa da fuq was that :)))))))))) '
p597
aS'SHANE DAWSON!'
p598
aS'All I see in the comments is Shane.'
p599
aS"i wanted to see hanata's PSA :("
p600
aS'Shane Dawnson!!!!!!'
p601
aS'I want a little bit more of this Ryan. Thumbs is u agree'
p602
aS'I wish I could c hanates'
p603
aS'I love Hanate! Lol'
p604
aS"What does the back of Ryan's shirt say?"
p605
aS'OMFG SHANEY'
p606
aS"i have always wanted to see hanate's PSA"
p607
aS'Really, Shane Dawson'
p608
aS'aww poor hanate :( lol'
p609
aS'Ps sound like peeing'
p610
aS'LOLOLOL the ending but so cute!! Lol the other ending again'
p611
aS'Stop the help'
p612
aS'Shane Dawson. lol'
p613
aS'Shamwoohoo! lmao'
p614
aS'lol shane dawson '
p615
aS'1-800-STOP-THE-UH-THE-THE-HELP-THE-CHILDREN-AND-DOGS-NOT-DIE dot c o m I \ndialed that number to support. :)'
p616
aS'lol secks is like cookies '
p617
aS'Check the credits on blackops 1 ryan higa is on it'
p618
aS'nice ending with shane XD'
p619
aS'thats how PSY was made psa psy makes sense like this if u agree!'
p620
aS'Oh my gosh! Shane!'
p621
aS"<3 R-Dizzle's PSA!!"
p622
aS'Yo come check me out im funny.. hey this is crazy but heres my chanel so \nsub-scribe maybe? '
p623
aS"Don't have sex you will get pregnant and die lol meangirls flash back"
p624
aS"year Shane and NigaHiga are friends check out shane's vlogs"
p625
aS'I miss skitzooo'
p626
aS'Hanate: PSA stands for public service announcement. Ryan: Thank you Hanate, \nplease tell them what that means. Hanate: Well, in PSA the p is not silent. \nRyan: Nope. Hanate: The a is. Regina and R-dizzle: Oh. Ryan: What? Hanate: \nSo it actually sound like defalting balloon. Ryan: How does it sound like \nanything like defalting a balloon? Hanate: You know, \nPPPPPPPPPSSSSSSSSSSSSSSSSSS'
p627
aS"Ryan, you shouldn't be talking to yourself like this, it unhealthy."
p628
aS'Ryan is selfish he never let hanates show his story'
p629
aS'bring back skitzo!!'
p630
aS"It's about the ShamWoohoo."
p631
aS"Ryan since you have a 2nd Channel can you post Hanate's PSA"
p632
aS'shane?? '
p633
aS"I WANNA HEAR HANATE'S PSA! Dear Ryan, can you show Hanate's PSA? (by that I \nmean show it or I will use this...lamp...)"
p634
aS"I've watched skitzo so many times that I don't look at these guys as a one \nperson anymore hahaha"
p635
aS"3:33 A simple way to solve all of those problems is an 'Edible Force Field \nBlanket'"
p636
aS'i want to see hanates story'
p637
aS'"What the fuck was that" lol Shane'
p638
aS'Ryan Yours v was the only good one that was showed'
p639
aS'Shane is PSA?'
p640
aS'Heh... It says MySpace in the description...'
p641
aS'shane and double TEEHEE THIS WAS AWESOME!!( >_<)!'
p642
aS'I totally just called the number DONT TELL ME ITS MOTHER FUCKING NOT IN \nSERVICE!'
p643
aS'YOU WILL DIE'
p644
aS'okay thanks :)'
p645
aS'Shaannnnneeee!!!!'
p646
aS'Lol Shane'
p647
aS'Shamwoohoo!!'
p648
aS'hes right (clubs sicken me) the teehees are all difrent!!!!! gasp '
p649
aS'hahahaha '
p650
aS'Hanitte is the best'
p651
aS'Lol. XD Shane Dawson.'
p652
aS'Lol, shane Dawson'
p653
aS'Shane'
p654
aS"I laughed so much at r-drizzle's xD"
p655
aS'RYAN, I FANGIRL ABOUT YOU EVERYDAY . YOU ARE SO FUNNY ! \xe2\x98\xaf'
p656
aS'what accent does hannate use?'
p657
aS'I like the second one '
p658
aS'You will , Die Die Die . LMFAOO !'
p659
aS'i called the number ryan gave me :D'
p660
aS'Dear Ryan, "what\'s a pisaw?"'
p661
aS'4:40 O_O'
p662
aS'Shane Dawsooon!!! :O '
p663
aS'Too*'
p664
aS'lady it sounds the same!!!0.0 '
p665
aS'I miss skitzos!!! #wewantskitzos'
p666
aS'instead of teehee it should have been TEE-shameless self-promotion-HEE'
p667
aS'PSA = pesar PSW = peswwhhwhwhwhwww'
p668
aS'all youtuber working together???'
p669
aS'achoo bless you'
p670
aS'shane dawson!'
p671
aS"We'll never know... TEEHEE :D"
p672
aS'Dont be ignint dog everybody knows the p is silent'
p673
aS'you know psssssssssssssssssssssssss. the wise words of Hanate'
p674
aS'SHANE DAWSON!!!'
p675
aS'i atually searched for 1-800-help-the-uhh-the-children-dogs-not-die'
p676
aS'I hate people like you, because you spam up famous videos. Get a real job \ninstead of this crap.'
p677
aS"I'm guessing it was the usefulness of the Sham-woohoo?"
p678
aS'shaneeeeeeee :D i love that guy.... i used to watch his vids 24/7/365 :D \nidk if ya know what that means :D but anyway.... Higa and Dawson... youtube \nlegends!!'
p679
aS"Haha that's ok because you can use my shamwahoo"
p680
aS'ShamWOOHOO.'
p681
aS'I wanted to see hanates story'
p682
aS'omg that ending XD'
p683
aS'they treat hanita like crap... LOL'
p684
aS'What does regina mean she just got her psa? She just made an actual GOOD \nshort film thingy whaever they made?'
p685
aS"wow ryan..... you've became one of them.... calling us terrorists.... ur \nmessed up dude"
p686
aS'Like deflating balloon.'
p687
aS'Yep.'
p688
aS'psssssss'
p689
aS"hahaha. Regina's somehow made sense."
p690
aS'ryan!! y u so funny?'
p691
aS'Omg..... SHANE! ! XD'
p692
aS'SHANE!!!!!!!!'
p693
aS'shane dawson!!!!!!!!!!'
p694
aS'i want more skitzo'
p695
aS'pissssssssssss'
p696
aS"We didn't get to see Honates! :("
p697
aS'You know Shane Dawson?'
p698
aS'terrorism? The same numbers of deaths due to terrorism are equal to how \nmany ppl in america die in bath tubs..'
p699
aS'who actually dialed the number'
p700
aS'Shane'
p701
aS'Hanate is hilarious'
p702
aS"What about hanate's vid?"
p703
aS'watched 100 videos in one day 49 to go and 35 left on his other channel but \ni already watched 5 of them so 35-5+49=79 more videos left to watch'
p704
aS'Hahaha'
p705
aS'Shane!'
p706
aS'make more of these vids '
p707
aS'LOL. '
p708
aS'Still laughing. no matter how many times i watch this. :) '
p709
aS'ahhhh shane!!!!!:D'
p710
aS'i love rigina '
p711
aS'i like it'
p712
aS'poor Hanate'
p713
aS'I love the conversations he has with himself'
p714
aS'2012 why poverty'
p715
aS'SHAMWOOHOO ! :)) hahaha !'
p716
aS'Without a doubt this is my favorite video'
p717
aS'SHANE!! :3'
p718
aS"YOU'LL DIE DIE DIE!!!!! XD"
p719
aS'"if you dont want to have a baby, then stop eating" I laughed so hard when \nshe said that. '
p720
aS'i was dying when Hanate was like "The P is not silent, the A is. So it \nsounds like a deflating balloon. \nPsssssssssssssssssssssssssssssssssssssssss!" XD'
p721
aS"I am so using Regina's psa in high school"
p722
aS'It was good till i saw shanes ugly and gay face. Fag.'
p723
aS'I love this so much x))'
p724
aS'"Actually, the A is silent, so it actually sounds like a deflating balloon. \nPssssssssssssssssssssssssssss."'
p725
aS'#TEAMHANATE'
p726
aS'Herro do rich peice :D'
p727
aS"I love Ryan's asian accent XD"
p728
aS'im actually curious to see Hanates PuhSah'
p729
aS'I miss this'
p730
aS'PSY! :)'
p731
aS"Dear Ryan, What was Hanate's PSA?"
p732
aS'Shane lulz'
p733
aS"he's gay"
p734
aS'Its Hanate.....Not Hamate'
p735
aS'Wtf R-Dizzle? xD'
p736
aS'Who is Shane Dawson..?'
p737
aS"i want hanate's psa NOW"
p738
aS'I love hamate'
p739
aS'u forgot to link their channels :) '
p740
aS'Shane Dawson omfg'
p741
aS'haha pewdiepie rite?'
p742
aS'Secks lol'
p743
aS'lol'
p744
aS'Was that Shane Dawson!!!'
p745
aS'Shane dawson'
p746
aS'Lol'
p747
aS'Then achoo....-dramatic pose- bless you'
p748
aS'Pssssssss Lol hahaaa'
p749
aS'Aciu'
p750
aS"i wana c Hanate's video :D "
p751
aS'shanwoohoo. Love that video'
p752
aS'Dear Ryan achoo! bless you...'
p753
aS'i watch skitzos over n over again!!!'
p754
aS"Its Dane Shawson!!!! Get it right!!!! If you didn't know smosh reference..."
p755
aS'Shane Dawson'
p756
aS'just use my Sham-WOOHOOO'
p757
aS'What Skitzo mean ago?'
p758
aS'inflating a balloon hahaahaha that cracked me up'
p759
aS'Hanate: so it kinda sound like deflating balloon Ryan: What? R-Dizzle & \nRegina: Oh! Okay Ryan: Waht?How does that sound like a deflating balloon? \nHanate: You \nknow...PSSSSSSSSSSSSSSSSSSSSSSSSSSSSSSSSSSSSSSSSSSSSSSSSSSSSSSSSSSSSS'
p760
aS'better run friend'
p761
aS'Shane!!!!'
p762
aS'achoo! bless you!'
p763
aS'I actually feel bad for hanatae. :( '
p764
aS'you can use my shamwhoooooo'
p765
aS'poor hanate never gets his chance'
p766
aS'THUMBS UP IF YOU LAUGHED CONTINOUSLY TILL THE END'
p767
aS'PSA PMS PSY why.'
p768
aS'dear ryan, How many licks would it take to get to the center of a tootsie \npop '
p769
aS'AHAHAHAHAH LMAO!!!!!'
p770
aS"R-Dizzle's PSA is da best"
p771
aS"what's a P-SA? haha lol REGINA"
p772
aS'dont play with fire u will dieeeeeee '
p773
aS'what dose Skitzo means ?'
p774
aS'psssssssssssssssssssssssssssssssssssssssssssssssssssssssssssssssssssssssssssssssssssssssssssssssssssssssssssssssssssssssssssssssssssssssssssssssssssssssssssssssssssssssssssssssssssssssssssssssssssssssssssssssssssssss'
p775
aS"Dear Ryan, what was Hanate's PSA?"
p776
aS'2:49 but weght i neva get 2 sho mine'
p777
aS'Best line in the video:"that\'s ok, because u can use my shamwoohoo~~!!" \nLMFAO!!!!'
p778
aS'I had to do a psa and i somehow convinced my teacher to let us watch this \nvideo XD then we got to regina\'s psa and she was like "ok nope nope nope"'
p779
aS'LOOOOOL'
p780
aS'i cant stop laughing!!! '
p781
aS"hanate's PSA was the shamwoohoo o.o"
p782
aS'I have been watching your videos for years!! Skitzos have to be my \nfavorite!! Ryan you need to make more they are hilarious!! Love you xx'
p783
aS'ya when has ryan not made us laugh'
p784
aS"He didn't mean to offend anyone. He just wanted others to understand, and \nat the same time give us a little laugh."
p785
aS'WUUUUUUUUUUUUUUUUUUUUUUUUUUUUUUUUUUUUUUUUUUUUUUT?'
p786
aS'[3:48] This moment looked so wrong.... :ifyouknowwhatimean:'
p787
aS'"If you don\'t want to have a baby, just stop eating!" LOL.'
p788
aS"I wanted to see hanate's psa."
p789
aS'*pakistan'
p790
aS'hahaha! 4:30-4:35'
p791
aS"I'm calling that number right now! :'("
p792
aS'I actually searched 1800stoptheuhhthethehelpthechildrenanddogsnotdie(dot)com'
p793
aS'HOLY CRAP I DIED LAUGHING...psssssssssssssssssssss'
p794
aS"Show us Hanate's PSA!!!"
p795
aS'Wooooo!!! Another funny video by my favorite youtubist! :D'
p796
aS'U must make more skitzo :)'
p797
aS"hey it's shane dawson"
p798
aS'The Shamwoohoo'
p799
aS'#Team Hanate'
p800
aS'If you like Shane Dawson you will DIE DIE DIE!!!! '
p801
aS'Omg shanneeeeeeeee'
p802
aS'Shane Dawson! :D'
p803
aS'PSY.... lol '
p804
aS"That's okay because you can use my ShamWoohoo!!"
p805
aS'sigh. always love niga higa <3'
p806
aS"I miss these. :'("
p807
aS'I miss these !!'
p808
aS'Poor hanate didnt get to show his video'
p809
aS'barroon xD'
p810
aS'in the title sequence when they show r-dizzles clip what video is that from?'
p811
aS'make more '
p812
aS"I WANNA SEE HANATE's PSA "
p813
aS'lol secks'
p814
aS'poor hanate '
p815
aS'What?! Fail grammar police...'
p816
aS'SHAMWOOHOO OMG BAHAHHAA.'
p817
aS'So Regina\'s "Secks" Video was like this: You can\'t have sex before \nprotection, or it will ruin your life, then you\'ll have to make a baby and \nyou won\'t have the tools to take care of it. So Regina\'s actually pretty \nsmart! '
p818
aS'I love ur videos they r awesome I could watch them all day long'
p819
aS'Regina:all this talk about PSA...i think i just got mine... Hanate:thats ok \nu can use my shamwohooo ROFL'
p820
aS'Regina is my fav'
p821
aS"Ryan: No, PSA is an acronym. Regina: What's that? R-Dizzle: You're gonna \nsay it's a dog? XDDDDD"
p822
aS'u just need a little this... ur boob. XD'
p823
aS'"Oh that\'s okay, you can use my ShamWOHOO!" Hahah XD I love Nigahiga <3 '
p824
aS'0:08-1:08 reminds me Of hetalia for some reason XD'
p825
aS"When you do drugs (drugs), you will DIE! If you have sex, you will DIE! If \nyou don't recycle then you will Die! You play with fire DIE DIE DIE xD "
p826
aS'Racist!'
p827
aS'aww dident get to see the one of them :('
p828
aS'Youre*'
p829
aS'more skitzo vidos'
p830
aS'funny how regina mispelled every word but abstinence o.O'
p831
aS'Regina knew how to spell by.'
p832
aS'Y U SO racist '
p833
aS"Regina's my favorite but her hair is a lil thirsty. thumbs up if u think \nthat he should make more skitzo shows!"
p834
aS'omg shane! lol'
p835
aS'need more skitzo videos they are funny.'
p836
aS'OMG the white guy before the 1st TEEHEE laughed so hard xDxD'
p837
aS'hanate is my favorite omfg'
p838
aS'You no... pssssssssssssssssssssssssss XD'
p839
aS"i wanted to see hamate's PSA"
p840
aS'The number you have to dial is: \n1-800-7867-843-844-843-843-4337-8432445-3736-263-3647-668-343.266 lol I \nworked it out all by myself!!!'
p841
aS'i liked it'
p842
aS'yes you are'
p843
aS'You can use my ShamWooHoo! LOL'
p844
aS'i like the japens'
p845
aS'Lol :)'
p846
aS'So psa = pms! Thank u Ryan! I needed some educating on the matter!'
p847
aS'what happened?'
p848
aS'Haha shanes hair'
p849
aS'Shane Dawson'
p850
aS'make more skitzo pls lmao haha '
p851
aS'Shane'
p852
aS'I wonder whats Hanate PSA is about '
p853
aS'1-800-stop-the-uhh-the-the-help-the-children-and-dogs-not-die'
p854
aS'Shane !!!!!!!!!!!!!omg love dis ahh lol'
p855
aS'DO MORE OF THIS PLZ!!'
p856
aS'I litteraly cried '
p857
aS'who dislikes this?'
p858
aS'Shaaaaaaaaaaaaaaannnnneeeee!!!!!! ^^'
p859
aS'Poor Hanate...'
p860
aS'he probably had it on shamwoohoo '
p861
aS'aww... what about hanate :C i wanna see his video'
p862
aS'Jesus Christ! I was joking! '
p863
aS"it's ok, you can use my shamWooHoo!!!"
p864
aS'SHANE DAWSON!!!!!!!!!!'
p865
aS'Your vid actually helped me:D'
p866
aS"I wonder what hante's video was about?"
p867
aS'Pause at 0.00 to see a really funny face'
p868
aS'can u make more skitzo videos...'
p869
aS'omg shane!!'
p870
aS'SHANE DAWSON!!!!!!'
p871
aS'hanate:in p.s.a the p is not silent ryan:(confident) Nope hanate:the a is! \nryan:wait what? hanate:so it kinda sound like deflatin ballon ryan:How is \nthat like deflating a balloon? hanate;Yu kno pssssssssssssss'
p872
aS'TEEHEE.....AGAIN-_-'
p873
aS"I was trying to sneeze but I kept laughing at Ryan's PSA And I lost it"
p874
aS'You can use my SHAMWOOHOO!'
p875
aS'"Don\'t be ingnick" lol'
p876
aS'stfu all of u not ryan '
p877
aS'It must be so hard for Ryan to act out all the characters! They r all Ryan \nand Regina is also Ryan but with his YouTube shirt rolled up'
p878
aS"I didn't."
p879
aS'fuck, that page is a fake '
p880
aS'Regina actually made a good point. Nice analogy.'
p881
aS'you can use my shamwoohoo! loved that part'
p882
aS'Make more skitzos.'
p883
aS'YOU WILL DIE'
p884
aS"Ryan help! I wanted to help you so I dialed \n1800786784384484384343578432445373626336476683431266 \n(1800helptheuhhthethehildrenanddogsnotdoe(dot)com) But it won't let me D:"
p885
aS'Haha shane dawson!'
p886
aS'IF YOU HAVE SECKS YOU WILL DIE!!!'
p887
aS"Oh that's OK because you can use my Sham woohoo... Teehee again"
p888
aS"three years on, i still think about what hanate's video... we never see it, \nwill we?"
p889
aS"It's 60"
p890
aS'She can spell abstinence but not sex :D'
p891
aS"awww.. but we never get to see hanate's PSA :("
p892
aS'Who else paused the video to try to figure out how many minutes 3600 \nseconds is?'
p893
aS"can't have sex before protection or else it will ruin your life and then \nyou will have to make a baby and won't have the tools to take care of it. i \ndo good?"
p894
aS'SHANE DAWSON I LOBE HIM TO THE BONE'
p895
aS'well u should try putting it in like this \n18004357843144537362633647668343368266 that should work ;D maybe 0_e'
p896
aS'that guy at the end scared me'
p897
aS"I want see Hanate's!"
p898
aS'dear ryan can u do helium gallenge '
p899
aS"Dear Ryan, what was Hanate's PSA?"
p900
aS"i laugh when hanate said he didn't showed mine i laugh so hard XD"
p901
aS'seriously i think i had a crush on regina'
p902
aS'1:00 couldnt stop laughing'
p903
aS'i wanna help '
p904
aS'At least Hanate is smart!!'
p905
aS'ahahah i saw shane dawson'
p906
aS'one question... what IS Hanates PSA?? We will never know! '
p907
aS'Me 2! '
p908
aS'ShampWooHoo! XD'
p909
aS"I bet if he would've shown it, Hanate's would've been the only legit PSA..."
p910
aS"Regina's PSA was hilarious! None of it made any sense. I'll feel bad for \nher when she has her first time lol! XD"
p911
aS'Really Regina? Secks! Secks = Cookeys! LOL'
p912
aS'the "A" is silent in "PSA" xD so it\'s "PSSSSSSSSSSSSS" sound of balloon ! \n-true story- ! xD i also love this ! " 4:20 " xD xD '
p913
aS'Achoo bless you not god bless you XD'
p914
aS'The first time I saw the way regina spelled sex I almost died I fell out of \nmy chair laughing I was laughing for an hour straight'
p915
aS"should have TEEHEE'S AT THE END OF EACH PSA"
p916
aS'Probably a great one :D'
p917
aS'cuz all u need is a little bit of this...boob bahahaha xD'
p918
aS'They all ways leave hanate out !'
p919
aS'SHANE!'
p920
aS'Wait *sneeze* bless you that tobuscus word!!!'
p921
aS'3600 seconds is 1 hour'
p922
aS"Ragina: Uh oh. All this talk about PSA...I think I just got mine.... \nHanate: Ah, that's okay because you can use my ShamWOOHOO!"
p923
aS'I feel bad for Hanate):'
p924
aS'ryans story was cool and you to boob'
p925
aS"Now I wonder what Hanate's PSA is."
p926
aS'OMG Shane'
p927
aS'ill feel free to be honest with u its that secks,shamwoohoo,and you will \ndie is better.thumbs up if u agree'
p928
aS'The Pusah!!'
p929
aS"still wondering what hanate's psa was...."
p930
aS'shane at the end'
p931
aS'Shane <3 but where is shananay'
p932
aS'you forgot play with fire=die'
p933
aS'1-800-STOP-THE-UHH-THE-THE-HELP-THE-CHILDREN-AND-DOGS-NOT-DIE . com LMAO'
p934
aS'his psa is samwoohoo '
p935
aS'what a psaw '
p936
aS'XDDD how could I not see this until now XDDD <3 Skitzo'
p937
aS'Shane Dawson!!!!!'
p938
aS"RYAN'S PSA IS COOL. "
p939
aS"I don't get R. Dizzle's logic on his PSA."
p940
aS'about rice lol '
p941
aS"regina's psa was hilarious!!!!! lol"
p942
aS'My eight year old cousin asked me "Keke? Why does the ninja have the same \nhair as the other guy?" I said cause there alike now leave..and she told \nher mom..i dont know why i commented this.....but yeah.....'
p943
aS"I wanna see Hanate's PSA! D:"
p944
aS"I thought that he came back to see Hanate's PSA!;))"
p945
aS'YEY!!! SHANE DAWSON!!! XD'
p946
aS'me too. i need to make a PSA about abused children, and i want to change \nthe wording a little bit. can I use it?'
p947
aS'Shane Dawson! OMG'
p948
aS'anyone miss nigahiga doing skitzos now'
p949
aS'pssssssss..ss.'
p950
aS'Lol'
p951
aS'Achoo Bless you lol'
p952
aS'I never got to see hantes:('
p953
aS'Shane!!!!'
p954
aS"Shane Dawson lol. What's more funny is someone thought he's pewdiepie"
p955
aS'DO ANOTHER SKITZO. MODAFUKA'
p956
aS'really Jonas Brothers '
p957
aS'my favorite show plz come out with a new episode '
p958
aS"Damn! I wanted to see Hanate's PSA!"
p959
aS'You know something similiar to ACHOO (Aciu) in Lithuanian means thank you.. \nYeah just random fact, ignore me haha.'
p960
aS'Boobs'
p961
aS'haha yeah...my bad, i heard it sorta after writing the comment... never \nmind :D but thanks for telling, anyways ;)'
p962
aS"you're welcome :P"
p963
aS'I remember watching this when I was like 10 and I didnt know what sex was \nlol'
p964
aS'Hanate FTW! :D'
p965
aS"it's like cookies >.<"
p966
aS'1:09 HAHAHAHAHAHAHAHA'
p967
aS'Lol I forgot Shane was in this! XD oh and *sneezes* bless you. Lol!!!!! XD'
p968
aS'initial-ism is an acronym'
p969
aS'only haters can dislike this...'
p970
aS'Shaaaane!!\xe2\x9d\xa4'
p971
aS'pssssssssssssssssssssss '
p972
aS'lol shane dawson'
p973
aS"You shouldn't have cookies before you have dinner or else you will have a \ndoodoo and you won't have the toilet paper to take care of it. (A.K.A. \nyoubefore you have dinner or else you will havea baby and you won't have \nthe tools to take care of it.) a"
p974
aS"Sex ed doesn't sound so bad the way regina explained it"
p975
aS'shane!!!!!!!!!!!!!! '
p976
aS'Shane.fucking. Dawson...i love you<3... oh! and you too Ryan <3^^'
p977
aS'the Shamwoohoo!!! LMAO'
p978
aS'Please make more skitzo I keep watching these over and over again cause \nthey are sooooooo funny'
p979
aS'he didnt have one'
p980
aS'I miss sean'
p981
aS"are you kidding me? :D PSA stands for Public Service Anouncement. It's even \nmentioned in the video! :D I think it's from 0:50"
p982
aS'I miss Skitzo ^^'
p983
aS'I went to 1800-stop-the-uhh-the-the-help-the-children-and-dogs-not-die.c om'
p984
aS'"When you do drugs, you will die" Me:...:('
p985
aS'That awkward moment when R-Dizzle made the best PSA '
p986
aS'Oh Hanate. '
p987
aS'WHAAAAAAAAAAAAAAAAAAATTTTTTTTTTTTTTT>.<'
p988
aS"It's an initial-ism, not an acronym. "
p989
aS'he diiiiiiiiiiid!!!!'
p990
aS'wwkwkkwkwk'
p991
aS'Nice call with Shane Dawson'
p992
aS"I thought Ryan's PSA was good. :)"
p993
aS'Dear Ryan, do you have a job'
p994
aS'Shane and two teehees!'
p995
aS'Shane ?'
p996
aS'just... WHAT is written on the back of your shirt??'
p997
aS"Regina's: After a few times of watching it, it actually makes sense! \nR-Dizzle's: LOL. Ryans: Again, LOL. Hanate's: I don't know. Unless... HIS \nWAS THE SHAM-WOOHOO!!!!!!"
p998
aS'LOOOOLLLLLLLLL PSA '
p999
aS'SKITSO RULEZ!!!!!!'
p1000
aS'Ryan: How Is It Anything Like A Deflating Balloon? Hanate: You Know.. \nPsssssssssssssssssssssssssss Regina: ~ Nods Head ~ R-Dizzle: ~ Nods Head ~ \nMe: ~ Dies Of Noise Sounding Like Peeing... ~ '
p1001
aS'dis guy is a genius '
p1002
aS'so do you think PSA and PMS is the same thing?'
p1003
aS'He made the shaamwoohoo!'
p1004
aS'I thought PSA stood for Penguin Secret Agency on Club penguin'
p1005
aS'hanate*'
p1006
aS'"oh well that\'s ok \'cause you can use my ShamWOOHOO!!!!"'
p1007
aS'XD Shane Dawson.'
p1008
aS'wuts a PU-SAH?'
p1009
aS'no YOUR the big boss of youtube not Shane Dawson!'
p1010
aS'Thumbs up if u actually called that number'
p1011
aS"Thats his japanese side...-___- Hana means flower in japanese so the base \nof Hanate's name is flower, i think thats kind of cute :) anyways, indians, \npakistani, saudi arabians, russians they are all asian sooooo yeahhhh....."
p1012
aS"so are all of these Ryan's different personalities? LOL"
p1013
aS'#teamhanate'
p1014
aS"I wanted to see Hanate's video"
p1015
aS'I laughted at the end wtf was that'
p1016
aS'Thats so fucking weird because you know how rdizzle is one of shanes \ncharacters ....so i was thinking of shane dawson and he popped out of the \nend!'
p1017
aS"ummm gangster ryan your ''you will die doesnt work'' i had sex last nite tho"
p1018
aS"Is this what happens in Ryan's mind? "
p1019
aS'lol his asian side is the best XD'
p1020
aS'I searched the website up... i feel dumb :('
p1021
aS'bring back the how to vids!!!'
p1022
aS"I Wanted To See Hanate's PSA"
p1023
aS'SHANE DAWSON!!'
p1024
aS'I dont know alot of japanese sooo yeah, dont send me hate replys! But Hana \nreally means flower O.o i should know, im an otaku.'
p1025
aS'i sometimes forget this is just ryan in the videos.- quote'
p1026
aS'my name boob... '
p1027
aS';o the link doesnt work RYAN HELP!!!'
p1028
aS'hahaha shane dawson not expecting that haha'
p1029
aS'@ 1:39 notice how she spells sex'
p1030
aS'After watching this a bunch of times I just realized the Shane was in it'
p1031
aS'SHANE!!!!!!!!!!!!!!!'
p1032
aS'How is it that she spells abstinence right?'
p1033
aS'SHANE!!!!!!!!!!!!!!'
p1034
aS'SHANE!!!!!!!!!!!!!!!!'
p1035
aS'"Speaking of PSA.. I just got mine." "Its ok, you can use my ShamWOOHOO!!" \n*died*'
p1036
aS'i stay home cook rice'
p1037
aS"STRANGE ISN'T IT??????"
p1038
aS'omg when he said that the others r not taking it seriously i tought his PSA \nwas going to be awesome ......well it was ...kind of LOL'
p1039
aS'if you have secks, you will die.'
p1040
aS'This...boob xD damn lol'
p1041
aS'You saw that part of the video too??? Amazing! -.-'
p1042
aS'Regina is my fav character!! and you too!! >.<'
p1043
aS'Shane Dawson!!! :D'
p1044
aS'lov lov lov lov lov this video i luv it so much and if anyone did not know \nthat nigahiga was playing as regina they would be crazyyyyyy btw'
p1045
aS'MORE SKITZO '
p1046
aS'Anyone try to go to that website?'
p1047
aS'lol Achoo....Bless You XDDD hahahahaha lawwwfsss'
p1048
aS'HAHAHAHA LOVE THE LAST PART ABOUT THE SHAMWOOHOO'
p1049
aS'Shane dawson'
p1050
aS'SHANE DAWSON!! Shamwhoo'
p1051
aS'Regina reminds me of a girl in my English class.'
p1052
aS'SHANE DAWSON!!!!!!!!!!!!!!!!!!!!'
p1053
aS'2:23 pretty much.'
p1054
aS'I have a feeling it is also about shamwoohoo!!!! '
p1055
aS'Facepalm at the end xS'
p1056
aS'Plzzz make more skitzos plzzzz'
p1057
aS'I feel sorry for Hanate... '
p1058
aS'yay shane dawson'
p1059
aS'Lol'
p1060
aS'ASIANS....'
p1061
aS'shane dawson?'
p1062
aS'if you have sex, YOU WILL DIE =)))))))'
p1063
aS'Hanate didn\'t really do the "woo hoo" right.. -o- its suppose to be \'sham \nWOO HOO!\' XD'
p1064
aS'OMFG SHANE DAWSON!! I FORGOT HE WAS IN THIS VID!!!!!!!!!!!!'
p1065
aS'what about hanates video???'
p1066
aS'LOL chill.'
p1067
aS'shane dawson! :D'
p1068
aS"wait, im so confused. wasn't hanates PSA about the Shamwoohoo. considering \nthe end?"
p1069
aS'i dont think anyone had told him that... ASIANS RULEEEE mybe...'
p1070
aS'Soo.. I am a true Nigahiga fangirl.xD Me and my step brother made bet about \nthis video.. He said Regina said "Stop eating cookies" and I said she said \n"Stop eating." I got to slap him!: D I am a true. Nigahiga,. Fangirl. :3 <3'
p1071
aS'Shane!!! '
p1072
aS'SHANE DAWSON!!'
p1073
aS"hanate's facial expressions and accent ftw"
p1074
aS'4:07 Real website LOL xP'
p1075
aS'Whaaaaaaaaaaaaaaaaaaaaaaaaaaaaaat haha regina lol'
p1076
aS'Do more skitzo'
p1077
aS'who r u?'
p1078
aS'his name is boob'
p1079
aS'whohoo! Shane D&& RyanH.'
p1080
aS'His was gonna be on the Sham Whoo Whoo :o'
p1081
aS'luv it 100 thumbs up '
p1082
aS"Thumbs up if u luved hanate's face at 1:09! \xee\x8c\xb0\xee\x8c\xb1\xee\x81\x9a\xee\x90\x8c"
p1083
aS'click 1, then 2, then 6, then 8 '
p1084
aS'Hanate is best.'
p1085
aS'Poor hanate! Lol'
p1086
aS'i literaly LOLed '
p1087
aS'Ctfu ! Sham-Woo-Hoo (: '
p1088
aS"i wanted to see hanate's :-("
p1089
aS'Is that actually the person who runs YouTube'
p1090
aS'THUMPS UP IF YOU WENT ON THAT WEBSITE'
p1091
aS"In gr6 we had to do psa's as well and I think Ryan's is the best"
p1092
aS'I miss Skitzo!'
p1093
aS'"All this talk about PSA... i think i just got mine" "Oh that\'s okay \nbecause you can just use my ShamWOOHOO" HAHAHAHAH'
p1094
aS'Never gets old .. Damn funny !!! XD'
p1095
aS'yeaaah I miss them! and Off the pill to :c '
p1096
aS'I love shane!!!!'
p1097
aS'HE HAS :D'
p1098
aS'Regina: "You guys...all this talk about psa well...I think I just got \nmine." Hanate: \'\' oh that\'s ok because you can use my shamWOOHOO."'
p1099
aS"I bet Hanate's video wS"
p1100
aS'Shaneeeeeeeeeeeeeeeee'
p1101
aS'MAKE MORE SKITZO VIDS'
p1102
aS'Lol shamwoohoo'
p1103
aS"Like if you actually searched up the 'link' Ryan gave us!"
p1104
aS'Shane fucking dawson.'
p1105
aS'Lol phone number'
p1106
aS'This just got ten times better because Shane was in it'
p1107
aS"I'm sad now, I really wanted to see Hanate's!!!"
p1108
aS'is that i type of dog, sz cantspll b4'
p1109
aS"Wish Ryan watched hanate's PSA :3"
p1110
aS'wow i didin"t know that niahiga new shane dawson '
p1111
aS"don't be ig'nt dawg.."
p1112
aS'no is an arium'
p1113
aS'Shane looks different in this video than he does now.'
p1114
aS'PSA stand fawr pubric survice annowcement'
p1115
aS'me!! p.s. F.S.H.'
p1116
aS'what about shane??'
p1117
aS'My name boob'
p1118
aS'Hanate never shared his!'
p1119
aS'Shannee!!!!'
p1120
aS'double tee hee? TEE-HEE-SOME!!'
p1121
aS'SECKS'
p1122
aS'WHATTTTTTTTTTTTTTTTTTTTTTTTTTTTTTTTTTTTTTTTTTTTTTTTTTTTTTTTTTTTTTTTTTTTTTTTTTTTTTTTTTTTTTTTTTTTTTTTTTTTTTTTTTTTTTTTTTTTTTTTTTTTTTTTTTTTTTTTTTTTTTTTTTTTTTTTTTTTTTTTTTTTTTTTTTTTTTTTTTTTTTTTTTTTTTTTTTTTTTTTTTTTTTTTTTTTTTTTTTTTTTTTTTTTTTTTTTTTTTTTTTTTTTTTTTTTTTTTTTTTTTTTTTTTTTTTTTTTTTTTTTTTTTTTTTTTTTTTTTTTTTTTTTTTTTTTTTTTTTTTTTTTTTTTTTTTTTTTTTTTTTTTTTTTTTTTTTTTTTTTTTTTTTTTTTTTTTTTTTTTTTTTTTTTTTTTTTTTTTTTTTTTTTTTTTTTTTTTTTTTTTTTTTTTTTTTTTTTTTTTTTTTTTTTTTTTTTTTTTTTTTTTTTTTTT????????????????????????LOL'
p1123
aS'channel mine is good'
p1124
aS'here, secks=cookies protection=dinner appetite=you life dudu=baby toilet \npaper=tools cant have cookies before dinner..it will ruin apetite cuz then \nu have to make a dudu and u wont have the toilet paper to take care of \nit...You cant have sex before protection or else it will ruin your life cuz \nthen u have to make a baby and you wont have the tools to take care of it. \n;)'
p1125
aS"I wonder what hanate's was....."
p1126
aS'You will die lol'
p1127
aS'Regina is retarded but no that is it!!:p'
p1128
aS':D'
p1129
aS'moar'
p1130
aS"Dear Ryan, I know it's been 3 years but can you plz!!!!!!! Show us hanate's \nPSA PLEASE!!!!!!!"
p1131
aS'Lol Shane I miss,yur old hair now yu cut it'
p1132
aS'shane and nigahiga <3'
p1133
aS"who here wants to see hanate' PSA soo bad"
p1134
aS"There is'nt i-800-stop-the-uhh-the-the-help-the-children-and-dogs-not-die. \ncom :("
p1135
aS'reginas shit is the youtube shirt rolled up LOL'
p1136
aS"Oh that's okay, you can use my Sham WOOHOO!"
p1137
aS'"achoo..... bless you!" rooofl XD'
p1138
aS'*facepalm*'
p1139
aS'Hey Ryan u should do skitzo fighting tournament R-dizzel v.s. Hanate'
p1140
aS'All it takes is a little bit of this...boob.'
p1141
aS'thumbs up if u tried typing in the number! : D'
p1142
aS'FUCK OFF MUSKETEERS U HAVE NO LIFE'
p1143
aS"sometimes,i forget it's only Ryan in the vid"
p1144
aS'Shane Dawson!!!!!!'
p1145
aS'"It only takes a little bit of this." He says as he makes a heart shape \naround his YouTube shirt.'
p1146
aS'Regina:Oh-no all this talking about PSA... I think I just got mine... \nHanate: Don\'t worry you can use my SHAMWOOHOO! *holds up piece of paper \nwith the saying of, "SHAMWOOHOO!*'
p1147
aS'PSA stand for pabrik sarvis announcemant :| '
p1148
aS'0:46 Hahahahahah Hanate xD'
p1149
aS"i wonder what hanate's psa is like o . o"
p1150
aS'if youare asian you sill die!!!!!!!!!!'
p1151
aS'SHANE!!!'
p1152
aS"omg i'm watching this maybe 20 times bus i still can't stop laughting"
p1153
aS'Dear Ryan- Can you be a bunch of Disney Princesses? :)'
p1154
aS"Even if ryan was serious about his PSA i would've laughed....is that wrong?"
p1155
aS'Dear Ryan, What happened to skitzo?!'
p1156
aS'"Don\'t be ingnonant, dog."'
p1157
aS'I loved the Shane part'
p1158
aS"Thumbs up if you're going through all of Ryan's videos to make sure you've \nseen all of them."
p1159
aS'omgomgomg yesss i pressed play all'
p1160
aS'awwwwww i feel bad for hanate he dident get to show his :,('
p1161
aS'I WHANA SEE HANATE VIDEO TOO!!!! DX ._.'
p1162
aS'I wanted to see hanetes... :('
p1163
aS'i love Hanate...every time i see the face he makes i laugh'
p1164
aS'Shane dawson :D'
p1165
aS'Secks'
p1166
aS'press 4. figure it out'
p1167
aS'it is shane'
p1168
aS'No it does sound like pee!'
p1169
aS'Thumbs up if you tried to call the number'
p1170
aS"I bet hanate would have kicked everyone else's ass with his video. Lol"
p1171
aS'LOL more skitzos!'
p1172
aS'Did anyone else type 1-800-STOP-THE-UHH-THE-THE-HELP-THE- \nCHILDREN-AND-DOGS-NOT-DIE into google???'
p1173
aS'Hanate never got his chance!!!'
p1174
aS"No, I'm watching this in 50 BC with Julius Cesar "
p1175
aS"Haha Regina: I think I just got my PSA The other guy who i don't know the \nname: you can use my shamwoohoo"
p1176
aS'Hanate: Wait! I never get to show mine! LOL!!!'
p1177
aS'@MrFastJarhead'
p1178
aS'I wanna see hantes it must be funny like last one lol... Ryan: So what did \nu do this Halloween hante? Hante: Stay at home cook rice!'
p1179
aS'Psssssssssssssssssssssssssssssssssssssssssssssssssssssss'
p1180
aS"I'm not"
p1181
aS'hanatai should have been like my name is boob when they where arguing lol \nnigahiga4life xDDD'
p1182
aS'If YOU DO DRUGS DRUGS YOU WILL DIE DIE WHEN U HAVE SECKS U WILL DIE IF U \nDONT RECYCLE U WILL DIE DIE IF U PLAY WITH FIRE FIRE U WILL DIE DIE DiE!!! \nR-Dizzle is such a good rapper'
p1183
aS'You know... Psssssssssssssssss...'
p1184
aS"Bob still didn't get to show his... I was kinda looking forward to it..."
p1185
aS'secks haha'
p1186
aS"Omg it's Shane!!! :D"
p1187
aS'I LOVE U SOOOO MUCH BUT SHANE DAWSON IS THE #1 PERSON I LOVE ON THIS PLANET \nHES THE FIRST IN MY HEART 3'
p1188
aS'Sham woohoo! Funny! :D'
p1189
aS'5 tings yooh shold no befour yu hahve secks'
p1190
aS'Pop'
p1191
aS'poop '
p1192
aS'No top comment? Come on guys all it takes is a little bit of this "<3..... \nboob"'
p1193
aS'It sound like deflating balloon! Psssssssssssssssssssssssssss! LOL!!'
p1194
aS"I want to see hanate video :'("
p1195
aS'Lol shane'
p1196
aS'Shane!!!!!!!!!!!!!!'
p1197
aS'Hanate!!!!!'
p1198
aS'his PSA was about ShamWOOHOO! '
p1199
aS'SHANE'
p1200
aS'4:38'
p1201
aS'Boo I hate last part but the sneeze achooo'
p1202
aS'@keep6moving2on I know.'
p1203
aS'secks lol :)))))'
p1204
aS"Hanate's psa was the best which was the shamWOOHOO. "
p1205
aS'ppppppppppssssss........'
p1206
aS' I LOVE THE DIE SONG'
p1207
aS'SHAAAAANE'
p1208
aS'Secks lol'
p1209
aS"daaarn i really wanted to see hanate's video"
p1210
aS'it took him 6 mins to come up with that '
p1211
aS'I love Hanate'
p1212
aS"I wanted to c hantes psa!!!!!!!!!'"
p1213
aS'aww poor hanate'
p1214
aS"It's ok, u can use my shamwoohoo"
p1215
aS'So.. shane dawson is the boss of YT?'
p1216
aS'It is not! Regina\'s psa or "puhsaw" was the best!'
p1217
aS'its ok u can use my ShamWhooo'
p1218
aS'no shit sherlock.'
p1219
aS'Tens of thousands or even hundreds of children get murdered............by \nthemselves.'
p1220
aS'Thumbs up if you tried to enter the link at 3:55'
p1221
aS'Lol is the site even real?'
p1222
aS'you came to say that '
p1223
aS'Reeves again'
p1224
aS'"All it takes is a little bit of this... boob!"'
p1225
aS'The you will die song is the best'
p1226
aS"@rfighter123 he makes really good videos and if you feel that way then fine \nbut you don't have to criticize sooooo yeah"
p1227
aS'i called that number a terrorist/hunger survivalist was at the end of the \nline.'
p1228
aS'pssssssssssssssssssssssssssssss'
p1229
aS'I dyed when Regina was like "All this talk about PSA, i think i just got \nmines!" and Hanete was like "Ah, thats ok because you can use my \nSHAM-WOO-HOO!" xD LMFAO.'
p1230
aS'Shane is Awesome!!!!!a,a'
p1231
aS'Yay shane Dawson'
p1232
aS'Shane Dawson :D but his voice changed'
p1233
aS"This is the first nigahiga vide I watched. (':"
p1234
aS'no'
p1235
aS'COOKEYZ'
p1236
aS"Regina's PSA was so funny and it made a lot of sense yet no sense at all."
p1237
aS'I found hanates psa .'
p1238
aS'When u do drugs, you DIE DIE DIE, when u have secks u DIE DIE DIE,play with \nfire, DIE DIE DIE! the end'
p1239
aS'HAHA SHANE'
p1240
aS'i know right'
p1241
aS'Skitzo woooooooooooooooooooooooooooooooooooooooooooooooooo '
p1242
aS'I find they all look different when really there all Ryan and for some \nreason Hanate looks the most unique...'
p1243
aS'regina is ryan you fools'
p1244
aS'dear Ryan are you a sports fan?'
p1245
aS'I love hanate'
p1246
aS'BaLLooN'
p1247
aS'TEEHEE'
p1248
aS'I like the you will die 1'
p1249
aS'The PSA... T'
p1250
aS'If you drink and drive (drive) YOU WILL DIE! (die)'
p1251
aS'Hanate is hilarious!!!'
p1252
aS"Oh Yeah it is! C'mon im a big fan of his seriously ur a loser being now"
p1253
aS'in 2012'
p1254
aS"I wanted to see Hanate's PSA :/ "
p1255
aS'I love the ending!'
p1256
aS'hey! :) Any idae what PSA means?? :D cause I feel pretty stupid, but i dont \nknow..so yeah.. :D'
p1257
aS' honestly ryan your PSSSSSSSSSSSSSSS was not very entertaining so i did not \nlisten to it because your in a dark room because the lights are off because \nthere is something in youur house. yes u know wat it is. its a........ \nTEEHEE man. yes the TEEHEE men are very high pitch and destructive. thumbs \nup if u agree'
p1258
aS'What Regina actually meant,"You can\'t have sex before protection,or it will \nruin your life,because then you will have to make a baby,and you won\'t have \nthe tools to take care of it."'
p1259
aS'Actually PSA is an initialism not an acronym. Fun fact! haha'
p1260
aS'Why do all the other videos get so many more views when Skitsos are the \nfunniest? Or is it just me who thinks that?'
p1261
aS"Who wants to go first? *Hanate slowly raises his hand* Regina: I'll go!! \n*Slowly lowers hand* Who wants to go next? *Hanate slowly raises his hand* \nRyan: R-Dizzle, you go. *Slowly lowers hand*"
p1262
aS'Anyone else try the site AMAMING!!!!!'
p1263
aS'3,600 seconds = 1 Hour'
p1264
aS"hold on.... regina's shirt was the youtube shirt which ryan is wearing and \nthat's why his shirt has some wrinkles in it! so the shirt was not \ndifferent!"
p1265
aS"3,600 seconds? isn't that one hour xD "
p1266
aS'Lol right, I forgot you knew all about me, what my name is, where I go to \nschool, how old I am, where I live, what my sexuality is.. Right good job! \nKudos! Not. Btw, your comebacks are terrible.'
p1267
aS'Oh my gosh, Shane Dawson! I love both of you!'
p1268
aS'PPPPSSSSSSSSSSSSSSSSsssssssssssssssssssssssssssssssssssss....'
p1269
aS"''Hey guys i just got contacted by the big boss at youtube and he said- \nWHAAAAAAAT'"
p1270
aS'nigahiga got told by shane '
p1271
aS'Anyone wanna have secks?'
p1272
aS"Why doesn't Ryan like hanate? He's funny! Even though he's the same person \n\xf0\x9f\x98\x81\xf0\x9f\x98\x81\xf0\x9f\x98\x81"
p1273
aS"Regina: Uh-oh, all this talking about PSA, I think I just got mine Hanate: \nOh! That's okay because you can use my ShamWooHoo!"
p1274
aS'Happy birthday who ever u are !! :)'
p1275
aS'Press 3 after watching the video. Epic Face.'
p1276
aS'Lolz'
p1277
aS'oh my god, like everyone knew that'
p1278
aS"Hanate's PSA!!"
p1279
aS'SHANEDAWSON!'
p1280
aS"Who else wanted to see Hanate's PSA?"
p1281
aS"sadly R-Dizzle's was totally true"
p1282
aS'RYAN UR COMMON SENSE! LOL'
p1283
aS'Regina is the best!! :D'
p1284
aS"Potatoes are pretty good, don't you think?"
p1285
aS'SHANE!! :)'
p1286
aS'hanate no show his'
p1287
aS"From now on, I shall use a shamwoohoo whenever I'm on my PSA"
p1288
aS'Hanate is hilarious'
p1289
aS'Skitzo = Schitzophrenia? .-.'
p1290
aS"ACHOOOOO................bless you 'LOLOLOL"
p1291
aS'i think that ryan walked into a closet at 2:50'
p1292
aS'Ohhhhhhhhhhhhhhhh I see Shane x33 and the shamwoohoo o 3 o'
p1293
aS'Skitzos are best'
p1294
aS"Has anyone ever noticed that all four of them are played by the same \nperson- Ryan Higa? Am I like the only one who's noticed that?"
p1295
aS'shane dawson !'
p1296
aS"You'll die die die!"
p1297
aS'they all are ryan.....'
p1298
aS"I've watched this video loads of times and I'm still really desperate to \nsee what hanate made! :D"
p1299
aS'SHANE DAWSON'
p1300
aS'oh thats a good thing cause u can use my shamwoohoo lol'
p1301
aS"i bet someone's gonna comment 'Like if you're watching this in 2013! :D'"
p1302
aS'We never saw hanantes :( '
p1303
aS'Oh thats okay you can just use my ShamWOOHOO!!!! Lmao :P '
p1304
aS'Lol poor hante XD shamwoohoo!'
p1305
aS'at 2:31 he has a invisible blowjob'
p1306
aS'Hinate is so funny'
p1307
aS'Shane looks different'
p1308
aS'...what is PMS? '
p1309
aS'i want new skitzooo =( missing hanate'
p1310
aS'OMB Shane was in the video ! Nigahiga just got a whole lot better'
p1311
aS'SHANE!!!!!!'
p1312
aS'No one ever remembers Hanate!!'
p1313
aS'3:19 ^_^'
p1314
aS'SHANE DAWSON'
p1315
aS'she does say at the end: So if you dont want to have a baby STOP EATING! \nlol :) But the first bit was clever!'
p1316
aS'I wanted to see hanates psa'
p1317
aS'Awwwwwwwwwwwwwwwwwwwwwwwwwwwwwww I feel so sorry for Hanate! I might cry T-T'
p1318
aS'I called damn that person was mad'
p1319
aS"I'm gonna say it's a type of dog... XD"
p1320
aS'all you need is this "boob" lold so hard'
p1321
aS'When you think of when REgina said "Pasa" you think of it as Pasta xD'
p1322
aS'congrats regina you spelled your name right!'
p1323
aS'stupid ads'
p1324
aS'Pause it at 0:02 LOL!'
p1325
aS'The psa~'
p1326
aS'Shane!!!!'
p1327
aS'isnt that Shane Dawson (also a famous youtuber) at the end???'
p1328
aS'Its Shane :O'
p1329
aS"Can u show hanate's on ur other channel? I love hanate!!!"
p1330
aS'Lmao This Is HillariouS!!!!'
p1331
aS"I wonder if hanate's was an awesome video if so then I would laugh so hard."
p1332
aS'regina: uh oh talking about psa i think i just got one hanate:its ok u can \nuse my SHAMWOOHOO'
p1333
aS'SHANE!!!-3'
p1334
aS"My friend and I like reciting R-dizzle's PSA at our school. We get really \nloud and pumped up and everyone stared at us like we're weird (which we \nare!) :)"
p1335
aS'Secks'
p1336
aS'"All this talk about PSA, I think I just got mine" "Oh that\'s ok because \nyou can use my ShamWohoo!" LOL I\'M LAUGHING SO HARD'
p1337
aS'SHAMEOOOHOOO so random. Poor hanate didnt see his PSA'
p1338
aS'Please make more videos with regina! lol it is soo funny!'
p1339
aS'omg shane dawson !!! biggest fan my 2 fav people in 1 awsum'
p1340
aS'Actually... an acrynym (Spell check!!) is pronounced like a word (Ex. SOPA) \nBUT an initialism is siad by each letter (Ex CNN)... The more you know '
p1341
aS"Darn i wanted to see hanate's psa \xf0\x9f\x98\x94"
p1342
aS'.com '
p1343
aS'lol'
p1344
aS'an excuse for girls to act crazy on their periods :)'
p1345
aS'we didnt get to see boobs(hanate) psa'
p1346
aS'Shane Dawson !!!!!!'
p1347
aS'i love regina......'
p1348
aS'NO TOP COMMENT! OMG!!! WELL.... THIS IS MY CHANCE TO ..... SO .... MORE \nSKITZO VIDS! (: THUMBS UP IF YOUR WITH MEEE!'
p1349
aS'wtf '
p1350
aS'Ohhhh shane oooohhhhh ryan'
p1351
aS'I play with fire and im only a kid'
p1352
aS'you have sex you die LOL'
p1353
aS'Regina is so so so funny'
p1354
aS'I Love how he says " Stop the uhh the the " the second time.'
p1355
aS"Ah that's ok because you can use my shamWOOHO!!"
p1356
aS'u suck that was funny : ) '
p1357
aS'I actually went to \n1-800-stop-the-uhh-the-the-help-the-children-and-dogs-not-die. com. True \nstory.'
p1358
aS'U guys r soooooo funny, Regina, u go gurl'
p1359
aS'That\'s how all his "products" are. Watch his other videos.'
p1360
aS'Whoo Shane!'
p1361
aS'hey that was shane dawson that made up shanaynay'
p1362
aS'1 800 STOP THE UHH THE THE HELP THE CHILDREN AND DOGS NOT DIE.com'
p1363
aS'Thumbs u if you dialed the number!'
p1364
aS'xD thank you for saving me the trouble of having to write that down. '
p1365
aS"I really wanted to see Hanate's PSA!!!"
p1366
aS'i love Hanate and Regina'
p1367
aS'like if u love shane dawson'
p1368
aS'thumbs up if your favorite character is Hanate'
p1369
aS'I little bit of this. <3 Boob. xD LOL'
p1370
aS'how do u dial ".com"?'
p1371
aS'OMG I LOVE YOU SHANE... I still love you too Ryan :)'
p1372
aS'I love the ending'
p1373
aS"Tens and thousands, tens and thousands, and even hundreds... Me: Wait, \nisn't that less..... XD"
p1374
aS'SHANE <3 '
p1375
aS"@hp0is0my0life Either way she's still right about the cookies and the sex \nLOL"
p1376
aS'SHAMWOOHOO!!!'
p1377
aS'Shane!!!!!! :D'
p1378
aS'U WILL DIE!!!!'
p1379
aS'lol deflating balloon :P'
p1380
aS'Tteehee heeaa'
p1381
aS'the one ryan made remined me of michael jackson saying bless you i was \ncrying *in the inside*'
p1382
aS'Ryan and Shane. Epic.'
p1383
aS'whaaaaaaaaaaaaaaaat'
p1384
aS'SHANE DAWSON!!! HOW DOD YOU GET HIM ON THERE!'
p1385
aS'Well then, ACHOOO, BLESS YOUU'
p1386
aS"if you don't want to make a doodoo, then just don't have cookies and forget \nabout dinner"
p1387
aS'I just luv Hanate'
p1388
aS'R Dizzle: "YOU WILL DIE!!!!!" *meanwhile, Ganon: "My quote stealing senses \nare tingling..."*'
p1389
aS'wow! 1-800-stop-the-uhh-the-the-help-the-children-anddogs-not-die . com \nexist! but it is a boring site...'
p1390
aS'if you have sex... you will die'
p1391
aS'Yeah! Shane Dawson!! Speaking of him, I find it funny how Ryan\'s gangster \ncharacter is named "R-Dizzle" and Shane\'s character is "S-deezy". Nice guys.'
p1392
aS'\xe2\x94\x8f\xe2\x94\x81\xe2\x94\x81\xe2\x94\x81\xe2\x94\xb3\xe2\x94\x93\xe2\x95\x8b\xe2\x95\x8b\xe2\x94\x8f\xe2\x94\x93 \xe2\x94\x83\xe2\x94\x8f\xe2\x94\x81\xe2\x94\x93\xe2\x94\x83\xe2\x94\x83\xe2\x95\x8b\xe2\x94\x8f\xe2\x94\x9b\xe2\x94\x97\xe2\x94\x93 \xe2\x94\x83\xe2\x94\x97\xe2\x94\x81\xe2\x94\x81\xe2\x94\xab\xe2\x94\x83\xe2\x94\x8f\xe2\x95\x8b\xe2\x94\x93\xe2\x94\x8f\xe2\x95\x8b\xe2\x94\x81\xe2\x94\x81\xe2\x94\x81\xe2\x94\xb3\xe2\x94\x81\xe2\x94\x81\xe2\x94\x93 \xe2\x94\x97\xe2\x94\x81\xe2\x94\x81\xe2\x94\x93\xe2\x94\x83\xe2\x94\x97\xe2\x94\x9b\xe2\x95\x8b\xe2\x94\xab\xe2\x94\x83\xe2\x94\xa3\xe2\x94\x81\xe2\x94\x81\xe2\x94\x83\xe2\x94\x83\xe2\x94\x8f\xe2\x94\x93\xe2\x94\x83 \n\xe2\x94\x83\xe2\x94\x97\xe2\x94\x81\xe2\x94\x9b\xe2\x94\x83\xe2\x94\x8f\xe2\x94\x93\xe2\x94\xab\xe2\x94\x83\xe2\x94\x97\xe2\x94\xab\xe2\x94\x83\xe2\x94\x81\xe2\x94\x81\xe2\x94\xab\xe2\x94\x97\xe2\x94\x9b\xe2\x94\x83 \xe2\x94\x97\xe2\x94\x81\xe2\x94\x81\xe2\x94\x81\xe2\x94\xbb\xe2\x94\x9b\xe2\x94\x97\xe2\x94\xbb\xe2\x94\xbb\xe2\x94\x81\xe2\x94\xbb\xe2\x94\x81\xe2\x94\x81\xe2\x94\x81\xe2\x94\xbb\xe2\x94\x81\xe2\x94\x81\xe2\x94\x9b'
p1393
aS'My favorite psa riginas and r-dizzles'
p1394
aS'Hey I called the # and it didn\'t do crap you phoney!!! Now people will have \nholes in their blankets and their dogs will die!!! R-dizzle: "if you lie \nabout PSA\'s YOU WILL DIE!!!'
p1395
aS'how did u do that thats awsome can u send me a video of u doing that to \nshow me how to do it'
p1396
aS'Thats alright cuz u can use my ShamWOO-HOO!'
p1397
aS'did just someone typed the site ryan said...?... i did... not (bad poker \nface)'
p1398
aS'Terrorists, Terrorists, Terrorists, boom.'
p1399
aS'it ok u can use my shamWOOHOO!'
p1400
aS'Its ok you can use my shamwoohoo'
p1401
aS'that was cheesy and funny '
p1402
aS'Omg Shane Dawson!! I love him just as much as I do Ryan lol'
p1403
aS'shane!'
p1404
aS'Ryan PSA video almost gave me a seizure '
p1405
aS"Still haven't watched Hanate's one!!"
p1406
aS'Shane'
p1407
aS'the media went down the hole in 2009 so yeah 2009 did suck.'
p1408
aS'WHAT ABOUT HANATE!?!?!?'
p1409
aS"I quote Regina's PSA all the time..."
p1410
aS"Before I saw the video, i asked myself, what's a PSA? (saying how it is)"
p1411
aS'ACHOO bless you. sooooo what did u think? WHAT THE FUCK WAS THAT'
p1412
aS"Don't have sex, because you will get pregnant.. and DIE."
p1413
aS"Thumbs up if you wanted to see Hanate's PSA!"
p1414
aS'What the Hell was that? - Shane Dawson. Its ok u can use my shamwoohoo lolol'
p1415
aS'Sham WOOOHOOO!'
p1416
aS"Ay, that's okay because you can use my ShamWOOHOO! -Hanate <3 XD"
p1417
aS'hahahahah maaan the best show ever'
p1418
aS'I never understood why these videos where called skitzo, and then realized \nthat it\'s short for "schizophrenia" and he\'s talking to different versions \nof himself.. Lol :P'
p1419
aS'i liked r-dizzle the best'
p1420
aS'shane dawson!!!!!!!!!and nigahiga!!!!!!!!!!'
p1421
aS'OMG!!!! shane dawson '
p1422
aS'PSSSSSSSSSSSSSSSSSSSSSSSS =))'
p1423
aS'Shane!!!!\xe2\x98\xba\xe2\x98\xba\xe2\x98\xba\xf0\x9f\x98\x8d\xf0\x9f\x98\x8d\xf0\x9f\x98\x8d'
p1424
aS'Lol shane'
p1425
aS"like if your watching this in 2012 :) you dont have to thought. i know \nthese comments get annoying but anyways i just watched one of his recent \nvids and then i watched this and i almosted cryied bc its like his grown!! \nup and ud fans get to see tht with all the vids he's making, keep up the \ngood work ryan"
p1426
aS'Do an other one the skitzo eps r soon funny'
p1427
aS'SO FUNNY!'
p1428
aS'SHANE \xe2\x99\xa5'
p1429
aS'why would anyone dislike this video? :/'
p1430
aS'Need more skitzo'
p1431
aS'Ryan is always forgeting Hanate'
p1432
aS"Regina: um all this talk about psa, i just got mine Hanate: That's ok you \ncan use my SHAMWOOHOO"
p1433
aS"Thumbs up if you actually went to that website... I did and it didn't help \n:("
p1434
aS'Shane!!!'
p1435
aS'he brung out the shamWOOHOO!!!!!!!LOL'
p1436
aS'Haha i love hanate "psssssssss" i died'
p1437
aS'Um, what the heck?? lol'
p1438
aS'PMS:P'
p1439
aS'I love how in Regina\'s presentation, "abstinence" is the only word that \nisn\'t misspelled XD'
p1440
aS'hehehe tehh '
p1441
aS'Was that Shane Dawson? ...And did I spell his name right?'
p1442
aS'I watched this video a lot of times, and never noticed Shane Dawson at the \nend '
p1443
aS'haha shane XD'
p1444
aS"You don't say?"
p1445
aS'I liked R-dizzles'
p1446
aS'I sneezed'
p1447
aS'Sham whoo hoo'
p1448
aS'Woah, shane dawson??? Awesome'
p1449
aS'OMG SHANE!!!!!!!!!!!!!!!'
p1450
aS'all it takes, is a little bit of this....<3 ....boob'
p1451
aS'you know what your amazing '
p1452
aS'When shane dawson appeared I burst out laughing xD'
p1453
aS'WHEN U DO DRUGS, YOU WILL DIE!!!'
p1454
aS"It's an initialism!!"
p1455
aS'I LOVE HANATE !! An inflating balloon ! Haha'
p1456
aS'0:40 funny'
p1457
aS'DOUBLE TEEHEE! :D'
p1458
aS'SHANE DAWSON!'
p1459
aS'*check'
p1460
aS'SHANE DAWSON!!!!!!! :D'
p1461
aS'lol n ow im sorry but this didnt load '
p1462
aS':D Shane Dawson <3'
p1463
aS'Shane!!'
p1464
aS'O_o there is a shamwohoo at the end'
p1465
aS'Love it Shane Dawson'
p1466
aS'y r there so many dislikes??? dont people understand humor?'
p1467
aS'SHANE DAWSON!!!!! :D -3'
p1468
aS'I had secks without proteckshun'
p1469
aS'person* '
p1470
aS"Thumbs up if u dialed the number in Ryan's PSA after the vid!!! (:"
p1471
aS'Teehee again lol'
p1472
aS'did anyone else checked out the website? 4:08 :D i didnt know it was real! \n:P'
p1473
aS'ha ha ha ha ha ha ha ha ha ha(laugh) '
p1474
aS'what about Hanate D:'
p1475
aS'when willl your next vid be out'
p1476
aS'@RabidSmeagol so you had cookies before your dinner? '
p1477
aS'LOOL HANATE PSA Stands fo Pubalic Service announment Ryan: THANK you hanate \nnow tell them what that means Hanate: Well In PSA The P is not Silent.. THE \nA IS. SO IT SOUNDS LIKE A DEFLATING BALOON YOU KNOW PSsssssssssssssssss....'
p1478
aS'i love how you guys put the samwoohoo in there as well '
p1479
aS'Shane Dawson! Never noticed that b4 lol'
p1480
aS'3,600 seconds = 1 hour'
p1481
aS"Don't be ignant dog!"
p1482
aS'LOL IN CLASS WE HAD TO DO OUR PSA TESTS AND IM JUST LIKE TO MY TEACHER UMM \nDONT YOU MEAN A PSA? AND SHE SJUST LIKE WHAT THE FU@#!'
p1483
aS'Shane dawson nigahiga oh my. life is now complete'
p1484
aS"I wanted to see Hanate's :("
p1485
aS'Waaaaaaaaaaaaaaaaaat?'
p1486
aS'we luv nigahiga'
p1487
aS'i like it becuse yiu were can yet funny and you got that guy that y sister \nloves his videos '
p1488
aS'Was R Dizzle really playing with fire??'
p1489
aS'Ryan Higa always has his eyebrows like pointing down his face and when he \nmake video witt D-Trix, strix face always like crazy lookn..... anyone else \nnoticed that'
p1490
aS'Secks'
p1491
aS'I was eating cookies while watching this! :)'
p1492
aS'ummmmm im a little confuse why did ryan as a girl spell every word \nbad??????????? XD'
p1493
aS'OMG SHANE DAWSON >w< ( SOME ONE CALL THE FIRE DEPARMENT CAUSE HE JUST GOT \nFLAMED!!!)'
p1494
aS"thumbs up if you wanted to see Hanate's PSA!!!!!!"
p1495
aS'pssssssssssssssssssssssssssssssssssssssssssssssssssssssssssssssssssssssssssssssss'
p1496
aS'SHANE!!! '
p1497
aS'1-800-stop-the-uhh-the-the-help-the-children-and-dog.c o m??'
p1498
aS"You sure that's a balloon that's deflating?"
p1499
aS'He says "Sham-woohoo" so that\'s what I think his PSA is.'
p1500
aS'#Team Hatake'
p1501
aS'shamwoohoo'
p1502
aS'hahahaha children and dogs are being murdered by themselves hahahahaha'
p1503
aS'Shaaaaaneeee :D'
p1504
aS"3,347 people don't know how to say PSA! lol"
p1505
aS'Yeah, he works for YouTube.'
p1506
aS'psssssssssssssss.......'
p1507
aS"Hanate's film would be him cooking rice thumbs up if you agree"
p1508
aS"Yeah I didn't have dinner so then I gots to take care of my dudu"
p1509
aS'PSA is an abbreviation'
p1510
aS'beautiful'
p1511
aS"Ryan you are such a good actor! it's like it was four different people, not \nall Ryan! lol! love it!"
p1512
aS'LOL!!'
p1513
aS'psssssssssssssssssssssssssss hahaha XDD'
p1514
aS'Poor Hanate!'
p1515
aS'MORE SKITZO!!!'
p1516
aS'"Well then,ACHOOO! Bless you."'
p1517
aS"What's a ps-a???? XD"
p1518
aS'MORE SKITZO PLZZZ!!!'
p1519
aS'cookies is secks dudu is your baby'
p1520
aS'Ryan higa can u make a another more funny nd coool plzz '
p1521
aS"loved how hanate kept putting his hand up and down.....Why can't l stop \nwatching this video?? LOL Every time at the end l'm just all what? i wanna \nsee Hanate's!"
p1522
aS'aechoo!.....BLESS YOU. ^_^'
p1523
aS'Shane Dawson yay'
p1524
aS'Shane omg '
p1525
aS'@Macsomebody its on imovie im pretty sure'
p1526
aS'Thumbs up if you think Skitzo should have their own Chanel \xf0\x9f\x98\x9c'
p1527
aS'i miss skitzo D:'
p1528
aS"*expect shane b/c they're like so different but I still love them!"
p1529
aS'I went to the website it was extinct'
p1530
aS'why does Ryan always ignores Hanate'
p1531
aS'how does PSA sound like deflating a baloon ... you know \nPSSSSSSSSSSSSSSSSSSSSSSSSSSSSSSSSSSSSSSSSSSSSSSSSSSSSSSSSSSSSSSSSSSSSSSSSSSSSSSSSSSSSSSSSSSSSSSSSSSSSSSSSSSSSSSSSSSSSSSSSSSSSSSSSSSSSSSSSSSSSSSSSSSSSSSSSSSSSSSSSSSSSSSSSSSSSSSSSSSSSSSSSSSSSSSSSSSSSSSSSSSSSSSSSSSSSSSSSSSSSSSSSSSSSSSSSSSSSSSSSSSSSSSS'
p1532
aS"When I 1st saw this vid I didn't expect"
p1533
aS'*shane'
p1534
aS"If you don't like this, you will die. :P lol jk"
p1535
aS'ShamWOOHOO'
p1536
aS'thumbs up if u went to the website'
p1537
aS'ACHOOO Bless you '
p1538
aS'shane!!!'
p1539
aS'i wanted to see hanates psa lol'
p1540
aS'anyone tried to turn 36000 seconds into minute after watchin this video ?'
p1541
aS'psssssssssssssssssssssssssssssssssssssssssssssssss like deflating baloon'
p1542
aS'PsSSSSSSSSSSSSSSSSSSSSSSSSSS!!! lol'
p1543
aS'i showed my litte sister the ending and she actually typed the numbers and \nwords'
p1544
aS'Dudu is your beybe. Lololololololol \xf0\x9f\x92\xa9'
p1545
aS'i always forget that you all are the same person XD'
p1546
aS'i love HANATE'
p1547
aS'@CupofJoeProduction no'
p1548
aS'thumbs up if you remember the SHAMWWWWOOOOHHHHHOOOOO!'
p1549
aS'yeah shwne dawson'
p1550
aS'Shane Dawson!'
p1551
aS'the site at 4:23 actualy works XDDDDDDDDDDDDDD'
p1552
aS'like this if you went on the website '
p1553
aS"I wish we seen Hanate's video"
p1554
aS'Hanate: PSA stand for public service announcement. Me: finally a smart one. \nHanate: well in PSA the "P" is not silent. Me: ok..? Hanate: the "A" is. \nMe: I spoke to soon... Hanate: so it actually sound like deflating balloon. \nMe: .... Hanate: you know psssssssssssssssss... Me = dying'
p1555
aS'Regina needs to grow out her hair'
p1556
aS'then *sneezes* bless you lol'
p1557
aS'SHANE DAWSON '
p1558
aS"Oh that's ok because u can use my shamWoohoo"
p1559
aS'Achoo! BLESS YOU!'
p1560
aS'U DONT LIKE THIS COMMENT YOU WILL DIE DIE DIE'
p1561
aS'You just need a little bit of this....boob xD'
p1562
aS'SHANE!!!!! I LOVE U SHANE DAWSON!!'
p1563
aS'Where did you get the background music? '
p1564
aS'Ok so Ryan knows Shane, so now I want Regina to meet Shanaynay.'
p1565
aS'SHANE DAWSON!!!!!'
p1566
aS'Hehe Regina:all this talk about Psa I just got mine Hanate: thats ok you \ncan use my SHAMWHOOHOO'
p1567
aS"@Ooohhhmygooodneth If you download nigahiga's song, YOU WILL DIE. "
p1568
aS'Press 2. lolz :)'
p1569
aS'lol, when he said bless you i thought the white stuff at first was his spit'
p1570
aS'That website leads to t-Mobil?'
p1571
aS'Well then... achoo. Bless you!'
p1572
aS'the fuck '
p1573
aS"Hanate's PSA- Stay away from strangers. but remember- I like your face."
p1574
aS'@AliceJaneSwan1224 '
p1575
aS'I love that shane dawson was in it!!'
p1576
aS'where can i download the "You Will Die" song? '
p1577
aS'"if u do drugs U WILL DIE, if u have sex U WILL DIE, if u don\'t recycle \nthen U WILL DIE, if u play with fire U DIE DIE DIE. the end" LOL that songs \nthe boss :) '
p1578
aS"You can see that Hanate's hair changed and Ryan's shirt is bnched up in the \nmiddle:)"
p1579
aS'psssssssssssssssssssssssssss'
p1580
aS'poor hanate'
p1581
aS'It is ok cuz u can use my sham- woo- hooo!!!'
p1582
aS'yay! SHANE DAWSON!!! i <3 him! he is so awesome. shamWOOHOO. lol'
p1583
aS'@AliceJaneSwan1224 i just read it as...Pahsah...lol'
p1584
aS'hanate is awesome '
p1585
aS'SHANE! Ahh :)'
p1586
aS'R-dizzle reminds me of G-dragon LOL'
p1587
aS'regina: Whatttttttttttt!!!!!!!! lol that was funny '
p1588
aS" ''psa is not a word, its an acronym!'' ''whats that?'' ''I'm gonna say its \na type of dog?' LoL xD ' "
p1589
aS'R: so in other word if you dont want to have babies just stop eating!'
p1590
aS'I LOVE HANATE!!!'
p1591
aS"I wanted to help the children and dogs from dying so i went to the website. \nbut it said that it's no longer available. I'm sorry kids and canines! I \ntried to help. T^T"
p1592
aS'R-dizzle: what? Ryan: ready to go? R-dizzle: why where are going? Ryan: no \nlets see ur PSA LOL R-dizzle is funny man :)'
p1593
aS'Shane Dawson !!!! '
p1594
aS'Haven\'t figured out what "Skitzo" means. ._. Poor Hanate xDD -Trauma Tize'
p1595
aS'0:3 whaaaaaaaaaaaaaaaaaATTTTT '
p1596
aS'@TheHeretor ahahahaha =)))) '
p1597
aS'how the fuck is shane dowsen head of you tube when he sase 3 000 000 sub \nand u have 6 000 000 sub ?'
p1598
aS'I LUVV SHANE DAWSON !!!!!!!!'
p1599
aS'Stop the help the children and dogs not die. Cracks me up everytime'
p1600
aS'2:27 - Mean Girls Moment :)'
p1601
aS'Its a real website!!! look it up no joke'
p1602
aS'i wanted to see hanate`s PSA!'
p1603
aS'OMG!! SHANE DAWSON!!! <3 TIMES A MILLION!'
p1604
aS'hi you rock '
p1605
aS'you can use my shamWOOHOO! lol'
p1606
aS'@RubyGloomly no dude, its just nigahiga is like 2008 ago and this video is \na long time ago too...he is still making videos. The others Dont like \nnigahiga anymore and they SUCK..just saying =)'
p1607
aS"i guess i can't have secks or I WILL DIE! "
p1608
aS"could you post Hanate's Psa? :)"
p1609
aS'who actually typed in the site'
p1610
aS'Hanate is like wearing fake teeth'
p1611
aS"What about Hanate's. he's my favorite in the Skitzo "
p1612
aS'Cuz all it takes it this...boob.'
p1613
aS'shanwe danwson'
p1614
aS"@AliceJaneSwan1224 What do you mean 'still watching'? Did something happen \nto nigahiga that means he can't make any more videos? D:"
p1615
aS"H:Well in PSA the 'P' is not silent R: *shakes head* nope H: The 'A' is. \nRegina and RDizzle: OH... R: Wait what? H: So it actually sounds like \ndeflating balloon R: HOW IS THAT ANYTHING LIKE DEFLATING A BALLOON? H: You \nknow, PSSSSSSSSSSSSSSSSSSSSSSSSSSSSSSSSSSSSSSSSSSSSSS XD LOVE THAT PART "
p1616
aS'lol the big boss of youtube is shane dawson '
p1617
aS'Wierd?'
p1618
aS"we never got to see Hanate's PSA!!!! WWWWWWWWWWAAAAAAAAAAAA! "
p1619
aS'Thumbs if you actually called the number at 4:07'
p1620
aS'@hiphopgirl414 me to haha'
p1621
aS"@AliceJaneSwan1224 No, actually. I came to this nigahiga video because I'm \nNOT still watching any more nigahiga videos. What do you think?"
p1622
aS'lol i really wanna see what hanate made up xD'
p1623
aS'Shane Dawson!'
p1624
aS'Am i the only one that went to the website?'
p1625
aS'what about hanate video i sad i wanna see it '
p1626
aS'Achoo! Bless you ...'
p1627
aS"I'm so jealous of you, Ryan"
p1628
aS'How come r-dizzle is never in skitzo episodes?'
p1629
aS'lol my favorite part is Ryan: you just need a little of this... boob'
p1630
aS'i will neveh get tired of watching ur videos ryan! '
p1631
aS"Technically, R-Dizzle and Regina are both right with their PSAs. Regina's \nPSA- It's true. If you have UNDERAGE sex before protection, you'll ruin \nyour life because you might get pregnant and you won't be able to support \nhim/her. R-Dizzle- It's true. No matter what you do, you'll die."
p1632
aS'@SomeoneCatchMe Well.. all i can say is OKAY =D'
p1633
aS'it actully sound like deflating balloon. \npsssssssssssssssssssssssssssssssssssssss'
p1634
aS'I LOVE HANATE AND REGINA! haha they are hilarious'
p1635
aS'i wanna see what hanate did in his PSA vid... =('
p1636
aS'its OK. u can use my shamwoohoo'
p1637
aS'Go shane! :D'
p1638
aS'It sound like inflated barrooonnn....pssssssssssss~ HAHAHAHA'
p1639
aS'You and shane dawson should work on another video!'
p1640
aS'YOU WILL DIE! I wanna download it from itunes!!'
p1641
aS'@ennie753 okay =)'
p1642
aS"what's a Pa-ssa? LMFAO"
p1643
aS"HOLY FUCK!!!!! IT'S SHANE FUCKING DAWSON!!! hehe, i misspelled fuck and \nyoutube didn't have a correction for it."
p1644
aS'the ending of not leaving lmfaooo'
p1645
aS'thumbs up if you tried to call the #...=D'
p1646
aS'secks! haha'
p1647
aS'I typed that and it took me to facebook :D Teehee'
p1648
aS"It's ok u can use my sham woohoo"
p1649
aS'SHAMWOOHOO!! TEEHEE!!...Again *smack*'
p1650
aS'die die die'
p1651
aS'Dear Ryan - Please make more Skitzo'
p1652
aS'r-dizzle is halarious nxt 2 hanate '
p1653
aS"About that 1-800 number. If you're stopping them from helping them from not \ndying, then you're technically killing them. :("
p1654
aS'pssssssssssssssssss.'
p1655
aS'shane!!!!! awsome the 2 most funnyest ppl in 1 vid'
p1656
aS'terrorist boom hahaha wow'
p1657
aS"Thumbs up if u r still watching NigaHiga's Videos <3"
p1658
aS"I wanted to see Hanate's PSA!"
p1659
aS'@pokemon3482 i ment to put a thump ups'
p1660
aS'the shamwoohoo part...HILARIOUS!!! hahaha!'
p1661
aS'SHANE DAWSON.!!!!'
p1662
aS'Thumbs up for shane !'
p1663
aS'I HACKED THIS COMMENT SO U CANT LIKE IT'
p1664
aS'thumbs up if you went back to try to understand what regina said nd after \n24 hours you wore the same clothes l0l <3 ur vids i wish i could call the # \nbut i cant find the dot-.-'
p1665
aS'Achooo! Bless You...!'
p1666
aS'OMG!4:41'
p1667
aS'"I did mine on secks"'
p1668
aS'Guys hanates psa was the sham whoohoo!'
p1669
aS'@pokemon3482 everbody does that '
p1670
aS'SHANE!! :D'
p1671
aS'I would have to say the skitzo episodes where the best ones ryan made'
p1672
aS'2:24 to 2:36 haha'
p1673
aS'pssssssssssssssssssssss '
p1674
aS'booooooooooooooooooooooooooooooooom '
p1675
aS'luv rlur channel'
p1676
aS'@MMPPkiocks no im watching this in 1200 bc on my iStone'
p1677
aS"Terrorist's Terrorist's Terrorist's Boom"
p1678
aS'achoo!....bless you..............LOLOLOLOLOLOLOLOL'
p1679
aS'fave character is hanate !! sometimes i forget that all three of them is \nryan !! '
p1680
aS"When u do drugs You will die If u have sex You will die If u don't recycle \nYou will die If u play with fire You'll die die die"
p1681
aS'thumbs up if you think ryan should make more skitzo videos '
p1682
aS'SHANE DAWSON!!!!! is awesome..'
p1683
aS'@supasinger852 why do u copy what he says dumb ass!'
p1684
aS'IF U HAVE SEX, U WILL DIE!! LOL'
p1685
aS"R-Dizzle's PSA = Coach Carr's sex Ed lectures"
p1686
aS'dear ryan, can u make the guys we have in this world like u?'
p1687
aS'What the BEEP was that? SHANE DAWSON <3'
p1688
aS'What about Hanates PSA?? :('
p1689
aS'r-dizzle- dont be ignant dawg every one knows the P is silent regina- so \nits just SA ryan- no PSA isnt a word its an acronym regina- whats that \nr-dizzle- im gonna say its a type of dog me-HAHAHAHAHAHAHAHAHAHA *falls off \nchair and continues to laugh even harder* '
p1690
aS'i just realized stop the help the children.....'
p1691
aS'omg wats a psa! i luv this!!! \xe2\x99\xa5\xe2\x99\xa5'
p1692
aS'Awesome vid!!:)'
p1693
aS'MAKE A SKITZO ABOUT SOPA!'
p1694
aS'omg shane dawson ahhhhhhhhhhhhhhhhhhhhhhhhhhhhhhhh :D'
p1695
aS"wait it doesn't turn black"
p1696
aS'Shane Dawson!!??'
p1697
aS'Shane Dawson at the end... lol'
p1698
aS'Hey its shane!!'
p1699
aS'Shaneee! :)'
p1700
aS'PPSSSSSSSSSSSSSSSs<----------------thumbs up for small s'
p1701
aS"I want to sww the one that hasn't been shown "
p1702
aS'4:31...That felt so gay '
p1703
aS'regina said if u dont want 2 hav a baby stop life '
p1704
aS'I luff the one that Ryan did on the PSA MIM I think it call Secks <33'
p1705
aS'I have to make one for my broadcasting class'
p1706
aS'U can use my Shapewoowoo!'
p1707
aS'SHANE!!!!!!!!!'
p1708
aS"You Will Die - by R-Dizzle When you do DRUGS, YOU WILL DIE! If you have \nSEX, YOU WILL DIE! If you DON'T RECYCLE then YOU WILL DIE! You PLAY WITH \nFIRE, YOU'LL DIE DIE DIE!!! the end."
p1709
aS'I always wanted to see Shane and Ryan in a video together:D what about \nhanate!? Lol'
p1710
aS'I think Regina has PMS'
p1711
aS"OMG LOL OMG I'M LAUGHING MY HEAD OFF THIS IS MY 15th TIME WATHCING THIS!!!"
p1712
aS"YES I'M WATCHING THIS IN 2012. NOW SHUT THE *beep* UP AND ENJOY THE VIDEO!"
p1713
aS'Anybody saw that R-Dizzle said his own echo in the 1st verse??'
p1714
aS'bless you 2 ryan! bless u 2..'
p1715
aS"....I'm 10 and my mom is right near me so when she said sex I freaked out \ncuz I'm on full volume"
p1716
aS"He should make one about Hanate's PSA"
p1717
aS'hanate is so funny'
p1718
aS'I luv ur videos cool and funny lol'
p1719
aS"Lol 2011/2012 it's a fail"
p1720
aS'abstinence'
p1721
aS'yay Shane Dawson :))'
p1722
aS' hanate is the funniest person of skitzo, definetly'
p1723
aS'thumbs up if your watching this in 2011... i mean 2012. (:'
p1724
aS' Thumbs up for people who actually wen to the sitr if not then do it \nbecause the Who went to 1- 800- STOP- THE- UHH- THE- THE- HELP- THE- \nCHILDREN-AND-DOGS-NOT- DIE.com is an actual site!!!! '
p1725
aS'achoo bless you haha love itt!!'
p1726
aS"LOL thumbs up if you think Hanate's PSA was all about the ShamWOOHOO! XD"
p1727
aS'thumbs up for ryan higa'
p1728
aS'i wanna c hanates PSA!!!! >.<'
p1729
aS"poor hanate could't share his PSA"
p1730
aS'I was not expecting Shane dawson to pop up :P '
p1731
aS'Luv ur vids'
p1732
aS'I mean Sham dumb autocorrect!'
p1733
aS'Was hanates psa the shamwoohoo??'
p1734
aS"Wait I want to see Hanata's video!"
p1735
aS'I love Hanate in this version of Skitzo :")'
p1736
aS'whhaaaaaatttttt'
p1737
aS'@jonie123456789098765 headphones protect you'
p1738
aS'btw the caps lock for regina is S P A D T B.........PSA'
p1739
aS'Shane!'
p1740
aS"What happened to Hanate's PSA?"
p1741
aS'Neeeeedas'
p1742
aS'thatss funny as hell(: ilyy at the end when Regina just says I think I just \ngot my psa'
p1743
aS"NOW I GET IT ITS A PSA ABOUT PSA'S! I'm so smart."
p1744
aS'shamWOOHOO'
p1745
aS'do more skitzo'
p1746
aS'Hahaha Shane :)'
p1747
aS'1-800-stop-the-uhh-the-the-hel\xc2\xadp-the-children-and-dogs-not-di\xc2\xade.com'
p1748
aS'terrorists terrorists boom lmfao!! '
p1749
aS"i'm gonna say its a type of dog lol "
p1750
aS'Yes make more'
p1751
aS'ryan, please make more videos about skitzo!'
p1752
aS"@infestation20 aren't you stupid because you spelt Hanate wrong. TEEHEE"
p1753
aS'@torchic1134 WOW HOW DID U DO THAT SO AWESOME '
p1754
aS'That was so funny!!!'
p1755
aS"I think I know what happened to Sean!!!! U know how Ryan said he moved to \nLA from Hawaii? Maybe Sean lived in Hawaii and when Ryan moved, the \ncouldn't make videos together anymore!!!!!!!!!!!!!"
p1756
aS"Lol I saw this when it first came out and I didn't even know who Shane \nDawson was."
p1757
aS'she iz so dumb yo'
p1758
aS'4:19 lmao *makes a shape of a heart* boob'
p1759
aS'like if u searched the website XD '
p1760
aS'shamwoohoo!'
p1761
aS'Ever notice Regina has a moustache'
p1762
aS'i dont get when regina said shehad her psa'
p1763
aS"i tried so hard to understand what regina said bout her psa but I still \ncan't"
p1764
aS'I see some sauce on the dislike bar :O'
p1765
aS'r dizzle is the best '
p1766
aS'Like inflating a balloon at first I thought he said the frating baboon'
p1767
aS'Who the hell is that gay guy at the end?'
p1768
aS"@torchic1134 that looks like a word that isn't very nice |:"
p1769
aS'Shane Dawson '
p1770
aS"I wanted to see Hanate's PSA"
p1771
aS'PSS SOUNDS LIKE PEE'
p1772
aS'omg shane use to be fatter '
p1773
aS'Shamwoohoo! :D'
p1774
aS'it means penguin secret agency'
p1775
aS'she said psa with an acsent '
p1776
aS'@shadowthrowr SHANE DAWSON! 5th most subbed'
p1777
aS'Shane dawsons the big boss whos his lawyers smosh?'
p1778
aS'Ryan-HOW IS THAT ANYTHING LIKE DEFLATING A BALLOON! Hanate-you know \npsssssssssssssssssssssssssssssssssssssssssss Regina and T Swizzle-Ohhh \nxxPPPPP ROFL'
p1779
aS'So we cant play with fire? WOW...'
p1780
aS"he shouldve said ''are u ceral?''"
p1781
aS'hanate is fucking funny lmao!'
p1782
aS'thumbs up if you tried to call the number. XD'
p1783
aS'it was probably something about the ShamWOOHOO!'
p1784
aS'You know......PPPSSSSSSSSSSSSSSSSSSS.......'
p1785
aS'awwwww poor boob, never got to show his PSA'
p1786
aS'Ryan... Has anyone ever told u that...... ASAINS RULEEEEEEE'
p1787
aS"We never got to see Hanate's PSA :((("
p1788
aS'whats a pasa?'
p1789
aS'Shane :)'
p1790
aS'omg ur boss is shane epic'
p1791
aS'SHANE'
p1792
aS'SSSHHHHHAAAANNNEEEEEEE!!!!!!!!!!!!!!!!!! \nEERRRRMMMAAAHHHHHHHGGGAAWWWWDDDD!!!!!!!!'
p1793
aS'i love cheese and these videos'
p1794
aS"Everytime I see PSA, I still think of Club Penguin's Penguin Secret Agency \ninstead of a Public Service Announcement. Even though I haven't played the \ngame for 5 years. LOL"
p1795
aS'all it takes is a little bit of boob'
p1796
aS'i looked up the website....... its not real'
p1797
aS'Achoo bless u'
p1798
aS'funny how hanate says shemwoohoo'
p1799
aS'3,600 seconds is an hour you noob!'
p1800
aS'i tried to call it but idk how to type.com in a phone '
p1801
aS'If you dont like this, YOU WILL DIE!!!!'
p1802
aS'terririst terriorts terroists BOOM! xD'
p1803
aS'They always leave poor Hanate out. Tsk Tsk!'
p1804
aS'@ComputerPooter no, its 3 seconds + 0.6s not an hour'
p1805
aS'skitzo is best series which he made i think! i love hanate :] '
p1806
aS"Funny how R-Dizzle acts all badass, but in his intro clip he's smiling like \nan idiot and singing. xD"
p1807
aS'I like Hanate'
p1808
aS'you know P.S.A '
p1809
aS'@laughsandsmilesxoxo how to b a ninja '
p1810
aS'Poor hanate :((('
p1811
aS'lol what was the last clip about? murder, suicide, animal abuse, \nstarvation...?'
p1812
aS'i jumped when i saw shane :O'
p1813
aS'isnt Hanatate stupid? how does he know what PSA stands for???'
p1814
aS"What's a P-SA????? lol <3"
p1815
aS'Reginas psa actually makes sense!!'
p1816
aS'the website is actually real!'
p1817
aS'Hanate: "Well in PSA, the "P" is not silent." Ryan: "Nope." Hanate: "The \n"A" is." R- Dizzle and Regina: "Ohhh." Ryan: "Wait, what?" Hanate: "So it \nactually sounds like defrating barroon." Ryan: "How is that ANYTHIHNG like \ndeflating a balloon?" Hanate: "You know, PSSSSSS." LOL!'
p1818
aS"I like Hanate's best (:"
p1819
aS'i was eating asian french fries while watching this, and after seeing the \nguy at the end, i lost my apetite'
p1820
aS'@laughsandsmilesxoxo It Was The How To bE Ninja. One rotfl'
p1821
aS"i'm worried about ryans sanity."
p1822
aS'4:02 its a real website i tried it'
p1823
aS"poor hanate he's always....... u knw....."
p1824
aS'ROFL! you can use my shamwoohoo!!!!'
p1825
aS'make some new skitzos this is so funni '
p1826
aS'achoooo........ bless you'
p1827
aS'When u think about it Regina was right... cuz if u stop eating u`ll die... \nand u now what they say, dead girls dont get pregnant. :)'
p1828
aS'Regina Is So Cute with her - Whhhatttt?'
p1829
aS'2:24 uhh. okaaayyy'
p1830
aS'watching in 2011 '
p1831
aS"thumbs up if you're watching this on 2011-2012"
p1832
aS'SHANE DAWSON!!!! <3'
p1833
aS"dear ryan, can u show hanete's PSA?"
p1834
aS'SHANE DAWSON!! :)'
p1835
aS'ahhhh regina is priceless i would by her if she were a slut'
p1836
aS'PSA is where PSY got his name.'
p1837
aS'we want more ryan and shand :)'
p1838
aS'SO MANY REFERENCES'
p1839
aS"i'm just stalking you so don't mind me"
p1840
aS'Hanate is my favorite xD '
p1841
aS'Ryan is probably the most intelligent compared to others....'
p1842
aS'Is a type of dog!!! Duuuuuhhhh'
p1843
aS"Ryan's Skitzo videos are kinda like Shermz(aka Ickests) class project \nvideos!"
p1844
aS"What's a Psa (Regina )"
p1845
aS'EW! I GET IT! EWWWW!'
p1846
aS'The you will die part... i was cracking up!'
p1847
aS'And from that day onwards, I do not dare to eat cookies....'
p1848
aS'TEEHEE again'
p1849
aS'Regina: There are 5 tings yooh shold no befour yu hahve Secks, first secks \nare like cookeys, proteckshin=dinnur appityte=lyife dudu=baybe toylet \npayper= toohels'
p1850
aS"The world will never know what Hanate's PSA will be"
p1851
aS'Deflating balloon, you \nknow...pssssssssssssssssssssssssssssssssssssssssssssss.'
p1852
aS'it was funny'
p1853
aS"Regina: I think I just got my PSA :( Hanate: That's ok, you can use my \nShamWOOHOO!"
p1854
aS'After hearing his \n1-800-STOP-THE-UHH-THE-THE-HELP-THE-CHILDREN-AND-DOGS-NOT-DIE. com made me \nwant to go on it. :P '
p1855
aS'Your "psa" was kinda nice.'
p1856
aS"@christy16615 no shane's retarded"
p1857
aS"I still can't understand the sex part...was it suppose to make sense?"
p1858
aS'Well then, achoo!...Bless you. '
p1859
aS'If u think it is funny thumbs up xD'
p1860
aS'A lot of dying for R-Dizzle. '
p1861
aS'im going to say it is a type of dog!! hahaha i lmao'
p1862
aS'Shane...........'
p1863
aS'Well thays oky cuz I got myshamWOOHOO'
p1864
aS'thumbs up if you went to \n1-800-STOP-THE-UHH-THE-THE-HEL\xc2\xadP-THE-CHILDREN-AND-DOGS-NOT-DI\xc2\xadE.com if you \ndid BLESS YOU'
p1865
aS'Achoo Bless you'
p1866
aS'1-800-STOP-THE-UHH-THE-THE-HEL P-THE-CHILDREN-AND-DOGS-NOT-DI E?'
p1867
aS'Imma use that now: "Well then.....Achoo.....Bless You...." x3'
p1868
aS"haha i love r-dizzle...even though it's just ryan.... -.-"
p1869
aS'PSA , PSsss ~'
p1870
aS'EEEEEEEWWWWWWW using a shamwoooohoooo for PMS!!!! thats grosss'
p1871
aS'Hanate is hilarious. ||D'
p1872
aS"I wanted to watch Hanate's PSA ... :("
p1873
aS"SHAMWOWHO! Not the shamwowho don't say it like that but the SHAMWOWHO!!!!"
p1874
aS'Oooommmmgoodness shane andd ryan:-) I wish he would make more videos with \npeople like shane. And if only shane made a PSA it would be halirous'
p1875
aS"TO\xef\xbb\xbf ALL NIGAHIGA\xef\xbb\xbf FANS RayWilliamJohnson has now has more subscribers than \nnigahiga Lets help\xef\xbb\xbf nigahiga\xef\xbb\xbf to have more subs. RWJ doesn't deserve\xef\xbb\xbf 5\xef\xbb\xbf \nmillion subs for\xef\xbb\xbf\xef\xbb\xbf just\xef\xbb\xbf reviewing a video!\xef\xbb\xbf The reason nigahiga doesnt \nhave more subs\xef\xbb\xbf is because at the end of\xef\xbb\xbf the video he doesnt beg\xef\xbb\xbf people \nto\xef\xbb\xbf subscribe to\xef\xbb\xbf him like\xef\xbb\xbf\xef\xbb\xbf all those\xef\xbb\xbf other\xef\xbb\xbf youtube celebrities. Kindly \ncopy and\xef\xbb\xbf paste\xef\xbb\xbf this\xef\xbb\xbf if can to other video and unsubscribe RWJ to\xef\xbb\xbf help \nnigahiga.\xef\xbb\xbf Thank you Thumbs\xef\xbb\xbf Up so peple can see "
p1876
aS'Regina totally makes sense :) '
p1877
aS"Aw! I wanted to see Hanates! Although it's probably about cats. (valentines \nday)"
p1878
aS'Hanate is so funny :D'
p1879
aS'press 1 then 2'
p1880
aS'SHANE SHAMWOOHOO'
p1881
aS'I actually wrote down what Regina said so I can understand the sex talk \npart, and it actually makes sense! Sort of...'
p1882
aS'ahahahahaha !! this video makes me laugh soo hard it hurts'
p1883
aS'I do'
p1884
aS'.....'
p1885
aS'this one is so funny ! My fav is Regina for sure !'
p1886
aS'Regina is sooooooooooooooo STUPID................ but she is my \nfavorite!!!!!'
p1887
aS"does anyone else wonder what hanate's video was?"
p1888
aS'so it actually sound like deflating balloon.... PSSSSSSSSSS'
p1889
aS'ACHOO bless you!'
p1890
aS'SHAAAAANE :D<3 '
p1891
aS'ONG SHANE DAWSON LOOK HIM UP HE WAS JUST AT THE END IF THE VIDEO U WILL LUV \nHIM (only IF UR JUST AS PERVERTED AS MEEEE)'
p1892
aS"@DAN567able it's ok she saw it said secks"
p1893
aS'That was amazing *-*'
p1894
aS'shamwoohoo and shane dawson Lol'
p1895
aS'poor hanata'
p1896
aS'lol thumbs up if u went to that website!!!!!'
p1897
aS'Where can I download You will die?'
p1898
aS"i like to see hanate's psssaaa 2 :P"
p1899
aS'so what did you think what the f**k was that'
p1900
aS'U KNOW PSSSSSSSSSSSSSSSSSSSSSSSSSSSSSSSSSSSSSS'
p1901
aS'poor hanate!!'
p1902
aS'2:17 Mines?'
p1903
aS"I don't know if I have a baby cuz I stopped eating but then I got hungry so \nI ate a cupcake!! :O"
p1904
aS'I started laughing my ass off at 3:50 xDDD'
p1905
aS"haha!! ohh Hanate.. it is soo funny at 1:27 & 2:09 Hanate is never \nreconized :'( "
p1906
aS'Why does Hanate make that one face when is mouth is a circle and his teeth \nare together?'
p1907
aS'Hanate is hilarious'
p1908
aS"I wanted to see hanate's psa"
p1909
aS'Public Service Announcement RULES!!!!!!!!!!!!'
p1910
aS'LOL Shane Dawson fucking awesome "What the **** was that?!"'
p1911
aS'Shamwhoohoo!!check out my comedy at megabusbros'
p1912
aS'I bet Hanate had the best...'
p1913
aS'TEAM HANATE!'
p1914
aS'4:18 all you need is a little bit of this *draws heart* boob'
p1915
aS'poor Hanate.......'
p1916
aS"i kinda wanna see hanate's PSA"
p1917
aS'i agree , wtf was that '
p1918
aS'different '
p1919
aS'Achoo! Bless you. Live that part'
p1920
aS'SHAM WOOHOOO!!!'
p1921
aS'technacally every1 r-dizzle said in his wrap was right '
p1922
aS'I made a PSA once... I almost got arrested.'
p1923
aS'regina should shave her pits.'
p1924
aS'press 1 alot and ryan will oink'
p1925
aS'Oh... Now I get how Shane Dawson gets viewers he just tampers with the \nviews and subscribers'
p1926
aS"Thumbs up if u wanna be hantate or if he's awesome.........TEAM HANATE"
p1927
aS'i called that number withmy friend friend friend together we can call \npointless numbers thank u'
p1928
aS'Shane!!! : D'
p1929
aS"ryan; who wants to go first? hanate: (raises hand) regina: i'll go! hanate: \n(lowers hand) MADE MY DAY!"
p1930
aS'Been watching ur shiz since 2008. Always LOL worthy. First it was ninjas, \ngangsters, emos and nerds, then the ipod human, then the movies in minutes, \nthe OMG NINJA song, yank dat cameltoe, then Bye Sean Fujiyoshi!, and now \nthis xD'
p1931
aS'This is a message to all you Skitzo haters... Roses are red Violets are \nblue I have 5 fingers The middle one is for you'
p1932
aS'LOL'
p1933
aS'psssssssssssssssssssssss lol'
p1934
aS'Shane!!'
p1935
aS'Thumbs up if you tried to call the number on 3:55'
p1936
aS'You will die XD'
p1937
aS"why don't you make any skitzo anymore??? I love them'"
p1938
aS"awww what was Hanate's :("
p1939
aS'Make more please so funny'
p1940
aS'deflating ballon xD'
p1941
aS"u have 5o'clock shadow ryan! "
p1942
aS'SHANE!!!!!!!'
p1943
aS'The shamwoohoo strikes again'
p1944
aS'yay for shane!'
p1945
aS'@Plorntco she had pms I think'
p1946
aS'Hanate needs his own channel!'
p1947
aS'like if u was like SHANE!! '
p1948
aS'you know pssssssssssssssssssssssssssssssssssssssssssssssssss'
p1949
aS'i love how he put Shane in there and i luhv yuh will die!'
p1950
aS"@Plorntco based on her analogies, she said you shouldn't have premarital \nsex without protection because it will ruin your life... :P it is kind of \nhard to understand considering how nasal Regina is!"
p1951
aS'long number'
p1952
aS'love this video :) '
p1953
aS'shane xD '
p1954
aS'Shane Dawson is the Big Boss of YouTube! :D'
p1955
aS'Hi Ryan'
p1956
aS'jajajajajajaja omg that was sooo fuuny jijiji my stomach hearts a lot '
p1957
aS'Whats a psa?? HAHA'
p1958
aS'I spent more time trying to figure out what the back of Ryan\'s shirt said! \nlol p.s. it sais "broadcast yourself" p.s.s. WHATS HANATES PSA?!?!?!?! \np.s.s.s. that end part was gross...... p.s.s.s.s. I think I officially hold \nthe record for longest p.s. :)'
p1959
aS'did anybody actually try typing that in and searching it? it is a invalid \nlink '
p1960
aS"@soularoid umm nope it's just you :D"
p1961
aS'thumbs up...'
p1962
aS"i wanted to see hanate's PSA"
p1963
aS'@Yourlilscorpio i thought it just meant plus!'
p1964
aS'hey the psa worked i kinda no what psa means'
p1965
aS"when this first came out, i never knew who shane dawson was and i was so \nconfused! i just thought damn, that's an extremely hot guy haha"
p1966
aS'b e a u t i f u l'
p1967
aS'I Wanted To See Boob`s PSA :('
p1968
aS'if u dislike U WILL DIE!'
p1969
aS"I laughed the whole day after listening to Hanate's psssssssssssssss!! lol"
p1970
aS'lol!!! the achoo bless you thing was so very clever XDD'
p1971
aS'lol!!!! r-dizzle got so much swaqq now compared to before! XDDDD'
p1972
aS'lol"I just got contact by the big boss at youtube and he said what??????"'
p1973
aS'Did Regina have her period or something'
p1974
aS'whats a p-sa'
p1975
aS'psssssssssssssssssssssssssssssssssssssssssssssssssssssssssssssssssssssssssssssssssssssssssssssssssssssssssssssssssssssssssssssssssssssssssssssssssssssssssssssssssssssssssssssssssssssssssssssss \n... look around* akward moment'
p1976
aS'i luv regina'
p1977
aS'@BVBarmedangel not boobs ok retarded bastard its hanate'
p1978
aS" ok ryan i'll dial that number... 3,000 seconds later.... *dial boop beep \nbeep beep... ring ring ring* hello? WTF?! "
p1979
aS'@dreamsoflove15 it was shane dawson'
p1980
aS'i love how hes like tens and thousands, then goes to hundreds-_-'
p1981
aS"HANATE'S THE BEST! xD"
p1982
aS'haha riginas like wattttt.... (while smileing lol) shes so retarded! lol \nsoddieeee regina'
p1983
aS"@AWSOMTACULAR i thought it was suppose to be p.p.s, as in u should add the \n'p' instead of the 's'. or else it would be post script script script \nscript script :) "
p1984
aS'SSSSSHHHHHAAAANNNNNNEEEEE'
p1985
aS'Ryan make these vids again there hilarious '
p1986
aS' call 1-800-stop the uhh the the help children and dogs not die.com '
p1987
aS'Great idea bringing in the shamWhooooo!!! Lolz'
p1988
aS'DOUBLE TEEHEE !!!'
p1989
aS'If you have secks you will die'
p1990
aS'I luv hante'
p1991
asS'time'
p1992
ctime
struct_time
p1993
((I2009
I11
I28
I4
I29
I52
I5
I332
I-1
t(dtRp1994
sS'id'
p1995
VibQtd-_wX8A
p1996
s.