(dp1
S'title'
p2
VHonest Commercials
p3
sS'url'
p4
Vhttp://www.youtube.com/watch?v=JeoBUUgh6BA&feature=youtube_gdata_player
p5
sS'image'
p6
Vhttp://i.ytimg.com/vi/JeoBUUgh6BA/0.jpg
p7
sS'comments'
p8
(lp9
S'Why every banal unfunny person becomes popular and rich in America? They \nare all the same.\xef\xbb\xbf'
p10
aS'I love how he says batteries not included for everything\xf0\x9f\x98\x82\xf0\x9f\x98\x82\xef\xbb\xbf'
p11
aS'but Apple comes out with phones once a year, I think you mean Samsung. They \nrelease phones every 3 months...\xef\xbb\xbf'
p12
aS'0:03 - 0:05\n\nKendama Toys\nHard And Black Realistic But Not Real Gun\nTEEHEE Band\nHook on Fonik\nSnuggo\nThe Big Bouncing Inflatable Green Ball\nHow To Be Ninja\nHow To Be Gangster\n.....\nWhere is :\nHow To Be Emo\nHow To Be A Nerd\nShamWOOHOO\nChildrensBOP!\nGoogle Glass Human\nIpod Human\nThe INavigator\nHonest University Commercial\xef\xbb\xbf'
p13
aS'And whats the song at 1:41???\xef\xbb\xbf'
p14
aS'Haha ryan is in the movie 7500 for like 5 seconds.\xef\xbb\xbf'
p15
aS"I'm waiting for that viagra commercial. If you have an erection lasting for \nmore than 4 hours call a doctor immediately. WAIT WHAT?! \xef\xbb\xbf"
p16
aS"He's the the first YouTuber I've ever subscribed to. Shout out to my cousin \nfor showing me the Big Bouncing Inflatable Green Ball video!!\xef\xbb\xbf"
p17
aS'Am I the only who got a boner when the gecko came on? :|\xef\xbb\xbf'
p18
aS'Charlie bit his finger\xef\xbb\xbf'
p19
aS'What does stfu mean?\xef\xbb\xbf'
p20
aS'Who else saw the thumbnail snuck into there\xef\xbb\xbf'
p21
aS"What's the song during the soda commercial? Please don't say Darude - \nSandstorm. \xef\xbb\xbf"
p22
aS'Am I the only one wondering what the initials on his shirt stand for? \xef\xbb\xbf'
p23
aS"4 years ago this was the first video I've ever seen by u I'm a big fan.\nSo thank u for helping me waste every single living breathing second of my \nlife.\xe2\x98\xba\xf0\x9f\x98\x9b\xef\xbb\xbf"
p24
aS'"i know i dont often do these kind of rants"\nFuck off cunt thats all you do lately lol\nI mean not complaining but just saying stop saying you dont do something \nyou always do.\xef\xbb\xbf'
p25
aS'LOL!!!!\xef\xbb\xbf'
p26
aS"I'd buy hair ball essences \xef\xbb\xbf"
p27
aS'Holy shit this guy is hilarious. How long does it take to think of an \nepisode like this. \xef\xbb\xbf'
p28
aS'its funny\xef\xbb\xbf'
p29
aS'what remix of sandstorm is at 1:41? really though...\xef\xbb\xbf'
p30
aS'Does anyone know the song at 1:41?\xef\xbb\xbf'
p31
aS'Hairball essences.... lol\xef\xbb\xbf'
p32
aS'4:03 Thats what she ssid\xf0\x9f\x98\x9d\xef\xbb\xbf'
p33
aNaS'4:13 Not even an iPhone, it says iPod in the top right corner...\xef\xbb\xbf'
p34
aS'Batteries not included\xef\xbb\xbf'
p35
aS'0:27 - That face.\xef\xbb\xbf'
p36
aS'song at 1:40?\xef\xbb\xbf'
p37
aS'STOP TICKLING FLUFFLY UNICORNS!!!!!\xef\xbb\xbf'
p38
aS"does anyone else realize the 'batteries not included' parts?\xef\xbb\xbf"
p39
aS'TEEHEE!\xef\xbb\xbf'
p40
aS'Newly subbed. Already love him\xef\xbb\xbf'
p41
aS'Song at 1:40 pls? <3\xef\xbb\xbf'
p42
aS'What was the song used on the pep-c commercial?\n\xef\xbb\xbf'
p43
aS'batteries not included! :p\xef\xbb\xbf'
p44
aS'Did he sat no batteries included for the Medicean \xef\xbb\xbf'
p45
aS'XD I love your sense of humor\xef\xbb\xbf'
p46
aS'Lol this is so funny and true. Ryan is awesome :) \xef\xbb\xbf'
p47
aS'You realize his shirt he is wearing stuff shut the fuck up\xef\xbb\xbf'
p48
aS'This was posted on my birthday\xef\xbb\xbf'
p49
aS'Did anyone else do the math to figure out that they spent 13 minutes on the \nGecko commercial?\xef\xbb\xbf'
p50
aS"Don't like this comment\xef\xbb\xbf"
p51
aS'im just glad commercials got better after a year\xef\xbb\xbf'
p52
aS'"Herbal essence batteries not included" lol\xef\xbb\xbf'
p53
aS'Does your shirt say,"Stop Tickling Furry Unicorns"?\xef\xbb\xbf'
p54
aNaS'can someone please tell me the name of the song at 2:05 please?\xef\xbb\xbf'
p55
aS"I love yours videos you're so funny and clever \xef\xbb\xbf"
p56
aS'0:27 - How does Sean get his eyes like that...?\xef\xbb\xbf'
p57
aS'Stop at 5:24\xef\xbb\xbf'
p58
aS'Batteries not included :/\xef\xbb\xbf'
p59
aS'Does anyone knpw the song he used for the Pep-C commercial? Just wondering \n:D\xef\xbb\xbf'
p60
aS'The new iphone 7!!!\n\n\nBatteries not included.\xef\xbb\xbf'
p61
aS'*bubbleheads\xef\xbb\xbf'
p62
aS'i showed the shampoo commercial to my school as a commercial to our film \neveryone thought it was a girl, even my teacher\xef\xbb\xbf'
p63
aS'2:37 thats SOOOOOOOOOOOOOOOOOO true xD\xef\xbb\xbf'
p64
aS'................do it\xef\xbb\xbf'
p65
aS'3:47 Wait 20 miliseconds and look closely and pause editing problem\xef\xbb\xbf'
p66
aS'Did anybody notice on the fake iPhone once that on the top right corner of \nthe iPhone screen it said iPod?\xef\xbb\xbf'
p67
aS'BEST CHANNEL EVAH\xef\xbb\xbf'
p68
aS"Whats up with sean's eyes?\xef\xbb\xbf"
p69
aS'Greg! Haha the hair!\xef\xbb\xbf'
p70
aS'2:26 Fries dripping with oil, probrally has some sweat from the guy cooking \nthem.\nXD That is so funny that I caught the Coughs\xef\xbb\xbf'
p71
aS'"Batteries not included!" XD\xef\xbb\xbf'
p72
aS'Batteries not included\xef\xbb\xbf'
p73
aS'Lol... batteries not included\xf0\x9f\x91\x8d\xef\xbb\xbf'
p74
aS'4:10 Its painfully true. Cause I own one.\xef\xbb\xbf'
p75
aS'Smosh \xef\xbb\xbf'
p76
aS"I love this... Can't stop laughing :D\xef\xbb\xbf"
p77
aS'How did u get the gecko\xef\xbb\xbf'
p78
aS'Truck comercial is soo epic and true :DD\xef\xbb\xbf'
p79
aS"Look at Sean's eyes at 0:28 lol\xef\xbb\xbf"
p80
aS'thats not iphone thats ipod i thought it was supposed to be honest\xef\xbb\xbf'
p81
aS'Says the guy who makes a video so youtube can air commercials through his \nchannel\xef\xbb\xbf'
p82
aS'The burger one was my favorite lol shit is hilarious cause so true\xef\xbb\xbf'
p83
aS'That shampoo commercial I use that brand! \xef\xbb\xbf'
p84
aS'Buy your batteries today!\n\n\n\n\n\n\n\n\n\n\n\nbatteries not included\xef\xbb\xbf'
p85
aS'\xc2\x80\xef\xbb\xbf'
p86
aS"'Herbal essences, batteries not included' LOL\xef\xbb\xbf"
p87
aS'Ha Ha!!!! I love your videos!\xef\xbb\xbf'
p88
aS'Charlie bit my finger reference XD\xef\xbb\xbf'
p89
aNaS'how does he edit his video???\xef\xbb\xbf'
p90
aS'Does anyone else notice that at the 3:47 mark, there is a quick flash of \nthe tv?\xef\xbb\xbf'
p91
aS'THE BIG BOUNCING INFLATABLE GREEN BALL!!!!!!!!!!!!!!!!!!!!\xef\xbb\xbf'
p92
aS'It is cool\xef\xbb\xbf'
p93
aS'every time i watch one of your videos i laugh really hard <3 <3 <3\xef\xbb\xbf'
p94
aS'Am I the ONLY ONE that got scared and fell off my chair when the SCREAMING \nBOBBLE HEADS came in?\xef\xbb\xbf'
p95
aS'Am I the only one that now wants an angus cheddar cheese big whopamac meal \nburger?\xef\xbb\xbf'
p96
aS'Tbh cash 2 gold commercials always have been ghetto\xef\xbb\xbf'
p97
aS'soo cool \xef\xbb\xbf'
p98
aS'I laughed so hard on the iPhone commercial\xef\xbb\xbf'
p99
aS'Was the end of the Cash-2-Gold/Gold-2-Cash a Charlie bit my finger \nreference?\xef\xbb\xbf'
p100
aNaS"Hell yeah I''d buy shampoo if Steve Aoki was selling it\xef\xbb\xbf"
p101
aS'I like his shirt STFU\xef\xbb\xbf'
p102
aS'Did you know if you thrust you fist in the air while thrusting the opposite \nsided knee and jumping, you can jump higher with less effort.  Sorry I \nthink celebrities are annoying, so I had to post something meaningful, go \nahead and try it, it works, but not under a ceiling fan.\xef\xbb\xbf'
p103
asS'time'
p104
ctime
struct_time
p105
((I2013
I8
I15
I5
I7
I54
I3
I227
I-1
t(dtRp106
sS'id'
p107
VJeoBUUgh6BA
p108
s.