(dp1
S'title'
p2
VOff The Pill - Rebecca Black (Friday)
p3
sS'url'
p4
Vhttp://www.youtube.com/watch?v=KwdYZ3upT4c&feature=youtube_gdata_player
p5
sS'image'
p6
Vhttp://i.ytimg.com/vi/KwdYZ3upT4c/0.jpg
p7
sS'comments'
p8
(lp9
S'Uh... it may have 16M views or whatever... but is has 1,000,000,000 \nDislikes!!!!!!!!!!!!!! does higa get that many? that song sucks\xef\xbb\xbf'
p10
aS'PING PONG CHING CHONG LING LONG LOL\xef\xbb\xbf'
p11
aS'am i the only one who went back to check if the book was there in the \n"library scene" ?XD\xef\xbb\xbf'
p12
aS'That awkward moment when he met her later on in life\xef\xbb\xbf'
p13
aS'Panese XD I like pots and pans dialect!\xef\xbb\xbf'
p14
aS'DAT VID not there anymore. Copyright or something\xef\xbb\xbf'
p15
aS'Did anyone else see ytf\xef\xbb\xbf'
p16
aS'Are u Japanese, Hawaiian or adopted \xef\xbb\xbf'
p17
aS'#abcde\xef\xbb\xbf'
p18
aS'you still make cents\xef\xbb\xbf'
p19
aS'you sound so drunk on 0.5 speed xD\xef\xbb\xbf'
p20
aS"Yea but that's completly diferrent dialect and panese made me laugh so hard \nthat i woke up my dad lol\xef\xbb\xbf"
p21
aS"Ryan's version of the song = Story of my life.\xef\xbb\xbf"
p22
aS'You to have two similarities ADHD\xef\xbb\xbf'
p23
aS'100 VIEWS\xef\xbb\xbf'
p24
aS"Your ok I only get 7-15 views, the most I have is 36 and that's a lot for \nme ;)\xef\xbb\xbf"
p25
aS'heh heh... the song "chinese food"...\xef\xbb\xbf'
p26
aS"i should've been in bed 6hrs ago !\xef\xbb\xbf"
p27
aS'hahaha 7 am and i go back to sleep XD\xef\xbb\xbf'
p28
aS'ooooooh I love you\xef\xbb\xbf'
p29
aS'Kinda funny, you said you would never beat 30 million, ya got 50 million on \nnice guys! :D\xef\xbb\xbf'
p30
aS'Am I the only one that noticed the "ytf" in the top right corner during \nRyan\'s version of the song?\xef\xbb\xbf'
p31
aS'that was weird i was just watching this vid for the first time and when he \ngot to the improved version it said claimed by rebeca black(spelled \ncorectly) at first i thought a joke and and waited but then i realised that \nthere was no progress bar on the bottom of the screen so i reloded went \nback to where it said copyrighted and it played fine can someone tell me \nwhat happend\xef\xbb\xbf'
p32
aS'Or unless your a K-Pop artist named Psy\xef\xbb\xbf'
p33
aS'Awww Ching ching cheech and chong\nyao ming\xef\xbb\xbf'
p34
aS'He still looks the same after so many years \xef\xbb\xbf'
p35
aS'OMG lol  Are you really a Japanese?\xef\xbb\xbf'
p36
aS'yea, over 7 million views now, but HOW MUCH DISLIKES?? over a million.\xef\xbb\xbf'
p37
aS'Yeah, I was wondering if Ryan took his pill and then I read the title \xf0\x9f\x98\x82\xf0\x9f\x98\x82\xef\xbb\xbf'
p38
aS'Did anyone else see ytf\xef\xbb\xbf'
p39
aS"Panese :') HAHAHA\xef\xbb\xbf"
p40
aS'"Shut up kiz bop nobody likes you!"\nXD\xef\xbb\xbf'
p41
aS'I know the song is poo\xef\xbb\xbf'
p42
aS"aren't you like friends or something\xef\xbb\xbf"
p43
aS'Stupid copyright infringement, now I cant see the song\xef\xbb\xbf'
p44
aS'Most of thoes views didnt count on her video because people only clicked it \nto say how much they hated her. Im mean seriously, 500+ hate comments a \nminute is not a win. \xef\xbb\xbf'
p45
aS"Panese... that's so perfect \xef\xbb\xbf"
p46
aS"That was mean :'(\xef\xbb\xbf"
p47
aS'HAHAHAHA\xef\xbb\xbf'
p48
aS"His version is WAAAAY better than Rebecca's!!  :D\xef\xbb\xbf"
p49
aS'LOL\n\xf0\x9f\x98\x82\xef\xbb\xbf'
p50
aS'Even in silence it is funny! Even more with subtitles... lol\xef\xbb\xbf'
p51
aS'"7 am and I go back to sleep." \nMe on summer vacation. \xef\xbb\xbf'
p52
aS'Please Ryan, for the love of God bring back your "Off The Pill" series!!!\xef\xbb\xbf'
p53
aS'you are so cool\xef\xbb\xbf'
p54
aS"Whenever he is pretending to sleep in a video it's always on the floor. \xef\xbb\xbf"
p55
aS'2014 and I\'m watching this old video and thinking "wait, you met her \nalready"\xef\xbb\xbf'
p56
aS'awkward\xef\xbb\xbf'
p57
aS'Wait.. nvm.. O FOUND THE LINK YAYYAY\xef\xbb\xbf'
p58
aS'7 am and I go back to sleep\xef\xbb\xbf'
p59
aS'Lol at the end! Great video, Ryan\xef\xbb\xbf'
p60
aS"Rebeca black. I fell sorry for you. You're being bullied by 1,000,000 \npeople.\xef\xbb\xbf"
p61
aS'This reminds me of good times with my brother.\xef\xbb\xbf'
p62
aS'Lol\n\xef\xbb\xbf'
p63
aS'Why is he sleeping on the floor? \xef\xbb\xbf'
p64
aS'"Just like that girl I met in the library the other day\n"I dont know why I\'m here I don\'t know how to read"\nHAHAHAHHAH XD\xef\xbb\xbf'
p65
aS"Warning: dont eat or drink anything when you watching all Ryan's video!\xef\xbb\xbf"
p66
aS'Omg panese XD\xef\xbb\xbf'
p67
aS'TEEHEE\xef\xbb\xbf'
p68
aS'Is Ryan Chinese or Japanese? \xef\xbb\xbf'
p69
aS'Who saw the ytf? \xf0\x9f\x99\x8b\xef\xbb\xbf'
p70
aS"But...Alexander Wallace was just joking.  Why not rant about how she's not \nreally a racist, just made a stupid youtube video.\xef\xbb\xbf"
p71
aS'MAYBE YOUTUBE DIDNT SHOW ME THE CORRECT VIDEO D,: YOUTUBE DOES THAT ALOT\xef\xbb\xbf'
p72
aS'The end was funny :)\xef\xbb\xbf'
p73
aS'Best parody\xef\xbb\xbf'
p74
aS"omg omg LOL\nWhen the music started and he started singing, i was like IT SO AWESOME!!!\nit sounds way better than Rebecca and it was over already! :'( \nRyan i love u so much!\xef\xbb\xbf"
p75
aS'i bet some people just watched the ytf video and came back here to see it \nXD 2:23 top right corner\xef\xbb\xbf'
p76
aS'"kuh kuh kuh..ouch charlie :\'(..sheen."\nlooool\xef\xbb\xbf'
p77
aS'@Yanisa R. Um,yes he is Japanese American if I remember correctly.\xef\xbb\xbf'
p78
aS'She have gotten heaps of views, but she got even more thumbs down\xef\xbb\xbf'
p79
aS'7:00 am going back to sleep.... SEEMS LOGIC TO ME! \xef\xbb\xbf'
p80
aS'7 AM AND I GO BACK TO SLEAP IS WHAT HAPPENS ON SATURDAY\n,MOST PEOPLE HAVE SCHOOL ON FRIDAY\xef\xbb\xbf'
p81
aS'7am and I go back to sleep, that was so funny:-) \xef\xbb\xbf'
p82
aS'My first nigahiga video *wipes tear*\xef\xbb\xbf'
p83
aS'omfg haha from 34 to 43 was effing funny xD\xef\xbb\xbf'
p84
aS'7am and I go back to sleepXD\xef\xbb\xbf'
p85
aS'ROTFL\xef\xbb\xbf'
p86
aS'\nI loved the music video way better this time, way better than Rebecca \nblacks one\xef\xbb\xbf'
p87
aS'your link was deleated for copywrite\xef\xbb\xbf'
p88
aS'Get it black friday rebecca black made the song friday.adds up to rebecca \nblack friday\xef\xbb\xbf'
p89
aS"Oh god you're so freaking funny xD\xef\xbb\xbf"
p90
aS'Hahahahaha too funny loved the last part \nToo true\xef\xbb\xbf'
p91
aS"Prefer Ryan's version\xef\xbb\xbf"
p92
aS"I don't know why I'm here I don't know how to read\xef\xbb\xbf"
p93
aS'Ours schools played the friday song EVERY friday\xef\xbb\xbf'
p94
aS'True about making fun of your race XD\xef\xbb\xbf'
p95
aS"2:23 Anyone notice there is something that says YTF? It's in the corner on \nthe right\xef\xbb\xbf"
p96
aS'Ahhhhhhh...\n7AM and i go back to sleep.\nTHE END\nROLF HAHAHHA\xef\xbb\xbf'
p97
aS"You're gonna be the number 1 youtuber.\xef\xbb\xbf"
p98
aS'Oh my god 140 \xf0\x9f\x98\x82\xf0\x9f\x98\x82\xef\xbb\xbf'
p99
aS'i heard yao ming\xe5\xa7\x9a\xe6\x98\x8e^\xcf\x89^\xef\xbb\xbf'
p100
aS'I saw ytf lol\xef\xbb\xbf'
p101
aS"IT'S 7 AM AND I GO BACK TO SLEEP.... xD\xef\xbb\xbf"
p102
aS'"What is that, some kind of cheap shot at Asians?! JUST BECAUSE WE DUNNO \nHOW TO SPEAKING DUH GOOD?!" I\'m Asian, and I laughed my ass off at that.\xef\xbb\xbf'
p103
aS'Best song ever made\xef\xbb\xbf'
p104
aS'"7am and I go back to sleep"...LOOOOOOOLL\xef\xbb\xbf'
p105
aS'dude u got like 13m views\xef\xbb\xbf'
p106
aS'\xe2\x99\xa1\xef\xbb\xbf'
p107
aS'ha ha ha \xef\xbc\x81\xef\xbc\x81the end is so funny\xef\xbc\x81\xef\xbc\x81\xef\xbc\x81\xef\xbb\xbf'
p108
aS"That wasn't an Otter that was a seal and I would know this because... I am \nan Otter. *Dun Dun Dun* \xef\xbb\xbf"
p109
aS'so much better that is what I do\xef\xbb\xbf'
p110
aS'The annotation that says "Click here to see the original video or not \nwhatever" leads you to a video that is pulled off due to copyright.\xef\xbb\xbf'
p111
aS'Good\xef\xbb\xbf'
p112
aS'Panese! Lol!\xef\xbb\xbf'
p113
aS'I speak panese\xef\xbb\xbf'
p114
aS'Lol\xef\xbb\xbf'
p115
aS'Luv the ending \nDied of laughter \nLOOOOOL\n\xf0\x9f\x98\x9d\xf0\x9f\x98\x9d\xf0\x9f\x98\x9d\xef\xbb\xbf'
p116
aS'7:am and I go back to sleep\xef\xbb\xbf'
p117
aS'Ytf at 2:23\xef\xbb\xbf'
p118
aS'Dear Ryan- Can you be Taylor Swift?\xef\xbb\xbf'
p119
aS'PANESE XD\xef\xbb\xbf'
p120
aS'He actually met Rebecca black during an interview with famous youtubers\xef\xbb\xbf'
p121
aS'I would like to hug you on behalf of all people from our continent. \xef\xbb\xbf'
p122
aS'Or pewdiepie\xef\xbb\xbf'
p123
aS'Did you hear Saturday-Rebecca Black?\xef\xbb\xbf'
p124
aS"I'm a chingstah\xef\xbb\xbf"
p125
aS'Laughed so hard at the end of the vid!!! XDDD\xef\xbb\xbf'
p126
aS'Dear Ryan, can you do a hunger games video? Thank you : )\xef\xbb\xbf'
p127
aS'1:43\xef\xbb\xbf'
p128
aS'7am then i go back to sleep\xef\xbb\xbf'
p129
aS'1:39 ...... and stop =))\xef\xbb\xbf'
p130
aS'So Hanate speaks panese XD\xef\xbb\xbf'
p131
aS'mine only get like 500 views\xef\xbb\xbf'
p132
aS'I repeat " haheheha"\xef\xbb\xbf'
p133
aS"he's Hawaiian \xef\xbb\xbf"
p134
aS'You forgot PEWDIEPIE  \xef\xbb\xbf'
p135
aS'1:39\nDamn! The lizard is back, Ryan.\xef\xbb\xbf'
p136
aS'Good job\xf0\x9f\x98\x83\xf0\x9f\x91\x8f\xf0\x9f\x91\x8f\xf0\x9f\x91\x8f\xf0\x9f\x91\x8f\xf0\x9f\x91\x8f\xf0\x9f\x91\x8f\xf0\x9f\x91\x8f\xef\xbb\xbf'
p137
aS"My brother made me watch that video every Friday... And if I didn't, I'd \nowe him ten bux. Man, did he get rich.\xef\xbb\xbf"
p138
aS'I m asian too\xef\xbb\xbf'
p139
aS'he speaks penis\xef\xbb\xbf'
p140
aS'His nationality is Japanese \xef\xbb\xbf'
p141
aS'-Do you know how many views she  got? -MORE(hysteria)\xef\xbb\xbf'
p142
aS'Now u can do (Saturday)\xef\xbb\xbf'
p143
aS'is he a japenese?\xef\xbb\xbf'
p144
aS"Isn't he Hawaiian.\xef\xbb\xbf"
p145
aS'OMG , my stomach hurts!!!!!\xef\xbb\xbf'
p146
aS'Loll 7am and i go back to sleep\xef\xbb\xbf'
p147
aS'Rebecca Black has her own draw my life and YoutubeChannel\n\xef\xbb\xbf'
p148
aS'\xf0\x9f\x98\x83\xef\xbb\xbf'
p149
aS'"Tickled my mind" hahahahah\xef\xbb\xbf'
p150
aS"Matt Mulholland's version is much better. :)\xef\xbb\xbf"
p151
aS'He should see Saturday from Rebecca black\xef\xbb\xbf'
p152
aS'"7 AM and I go back to sleep" That\'s how I like it. \xef\xbb\xbf'
p153
aS'why does it say ytf in the back\xef\xbb\xbf'
p154
aS'Lol\xef\xbb\xbf'
p155
aS'Dear Ryan, can you wear a bikini?\xef\xbb\xbf'
p156
aS'no i like your songs way better Ryan \xef\xbb\xbf'
p157
aS'He is a Japanese,but he went to Hawaii\xef\xbb\xbf'
p158
aS'" 7am and i go back to sleep" LOLOLOL \xef\xbb\xbf'
p159
aS' This is better then the real one\xef\xbb\xbf'
p160
aS'LOL that short video!!\xef\xbb\xbf'
p161
aS'stop at 2:00, Ryan looks so pissed off  LOL XD\xef\xbb\xbf'
p162
aS'"7am and i go back to sleep"\n--> there it is, much better xD\xef\xbb\xbf'
p163
aS'Just look at you now one of the most subscribed channels on YouTube \xef\xbb\xbf'
p164
aS'TEEHEE!!!!!\xef\xbb\xbf'
p165
aS"This is the best nigahiga video I've ever watched!!!!!\xef\xbb\xbf"
p166
aS'Dang Molly Weasly did kill the wrong Black\xef\xbb\xbf'
p167
aS'Ryan, r u really a Japanese? o.O\xef\xbb\xbf'
p168
aS'psy beat it ;3\xef\xbb\xbf'
p169
aS'Rebecca black-Saturday now..please???\xef\xbb\xbf'
p170
aS'Now u can do (Saturday)\xef\xbb\xbf'
p171
aS'Lol 7 am and I go back to sleep xDDD\xef\xbb\xbf'
p172
aS'this is when they call it the " Black Friday"\xef\xbb\xbf'
p173
aS'sooooo funny ahahahahhaha\xef\xbb\xbf'
p174
aS'PANESE. ... brilliant!! :D\xef\xbb\xbf'
p175
aS'Lol\xef\xbb\xbf'
p176
aS'7am and i go back to sleep ..hahhaa\xef\xbb\xbf'
p177
aS'2:19 sooo true\xef\xbb\xbf'
p178
aS'I\'m kinda cant laugh harder at the part "7 am and go back to sleep" =)))))\xef\xbb\xbf'
p179
aS'"Tickled my mind" hahahahah\xef\xbb\xbf'
p180
aS'That ending though! XD\xef\xbb\xbf'
p181
aS'Gumdum style beat it \xef\xbb\xbf'
p182
aS'Lola. 7 am and I go back to sleep:P\xef\xbb\xbf'
p183
aS'Bellatrix killed the wrong Black.\xef\xbb\xbf'
p184
aS'Bravo and this was better then the original version!!!!\n:-)\n\xef\xbb\xbf'
p185
aS'Cheesy butAWESOME!!!!\xef\xbb\xbf'
p186
aS'LOLOLOLOLOL!!! priceless!\xef\xbb\xbf'
p187
aS"Whoa it's so much better then the real one\xef\xbb\xbf"
p188
aS"ya but the difference between you and her is that this video of yours \ndidn't get 1,225,328 dislikes.. :P :D\xef\xbb\xbf"
p189
aS'your way better DUDE\xef\xbb\xbf'
p190
aS'Your version 10000 times better\xef\xbb\xbf'
p191
aS"Yes that was a library, didn't u see the book? Lol XD\xef\xbb\xbf"
p192
aS"I LOVE NIGAHIGA'S VIDEO'S,THEY ARE SO GOOD, I WOULD LOVE IF PEOPLE COULD \nCHECK OUT MINE TO, AND SUBSCRIBE IF YOU LIKE THEM. HE INSPIRED ME TO MAKE \nMY OWN VLOGS\xef\xbb\xbf"
p193
aS"I didn't know you are a Japanese!\xef\xbb\xbf"
p194
aS"Hi you are who thai..why i can not look byan guys video...why i can not \nstay here them....what you talk about that..what the f**..itell you're now \nthis is my phone why not i can't look orstay here....\xef\xbb\xbf"
p195
aS'dear ryan, can you do a vlog in japanese (the whole video)\xef\xbb\xbf'
p196
aS'What does the fox say did\xef\xbb\xbf'
p197
aNaS'So good\xef\xbb\xbf'
p198
aS'lmfaooooo panese!!  \xef\xbb\xbf'
p199
aS'Lol 1:10\xef\xbb\xbf'
p200
aS'What the hell was that supposed to mean?\xef\xbb\xbf'
p201
aS"Looks like Michael Jackson's Chinese son\n\xef\xbb\xbf"
p202
aS'Lol kids bop\xef\xbb\xbf'
p203
aS'Walrus XD "7am and I go back to sleep!" lol..your version is way better!\xef\xbb\xbf'
p204
aNaS'Best YouTuber....\xef\xbb\xbf'
p205
aS'Check out this video on YouTube:\xef\xbb\xbf'
p206
aS'LOOOOOL THE END\xef\xbb\xbf'
p207
aS'shit myself ending clip'
p208
aS'ITS CALLED A JOKE GAY SHIT.'
p209
aS'7 am waking up in the morning lol snooze'
p210
aS'Lol walrus'
p211
aS"Can't help laughing!"
p212
aS'The day before my birthday'
p213
aS'I HATE \nBALLLLLLLLLLLLLLLLLLLLLLLLLLLLLLLLLLLLLLLLLLLLLLLLLLLLLLLLLLLLLLLLLLLLLLLLLLLLLLLLLLLLLLLLLLLLLLLLLLLLLS \n:D :| '
p214
aS'"She has over 35 million views. I can\'t beat that!" Nice guys has over 48 \nmillion views.....'
p215
aS'The parody crack me lol'
p216
aS'last part so true!'
p217
aS'still better than the original '
p218
aS"I haven't seen it but its not better than yours"
p219
aS"I tried watching the original video, I couldn't. "
p220
aS"No, he's actually OFF drugs. Hence the Off The Pill title. It's when he \ndoesn't take his ADHD meds and does a video."
p221
aS'I saw it and it was well unexpected'
p222
aS'I like the last part'
p223
aS'The next Rebecca Black is here: Her name is Tay Allyn watch "mass text"'
p224
aS'Lol hes well funny'
p225
aS'Walrus arr arr arr'
p226
aS'All together'
p227
aS'Loved it!'
p228
aS'Ching chong ling long ting tong! Lol!'
p229
aS"He's Japanese-Hawaiian? I knew it. I thought he was full Hawaiian at first. \n:P"
p230
aS'No hes off drugs.. Thats why its called off the pill... Duhh'
p231
aS'I just watched Friday again because I didnt think it could be as bad as I \nremembered. Then I remembered.'
p232
aS'ahahahhahah LOOOOL 7am n i go back to sleep xDDDDDDDD'
p233
aS"wow! i'm surprised this guy became a youtube hit, when his username started \nout as an insult to blacks lol. freakin spring rolls trying to take over \nthe world, can't stand them."
p234
aS'I did to '
p235
aS"Hahahahahahaha 'Seven AM and I go back to sleep'."
p236
aS"I have 162 views....he's right...."
p237
aS'Lo'
p238
aS"but you don't have 80% dislikes like her :D"
p239
aS'#TEEHEE'
p240
aS'7 am and i go to sleep TEEHEE\xf0\x9f\x92\x99\xf0\x9f\x92\x97\xf0\x9f\x92\x9c\xf0\x9f\x91\x8d\xf0\x9f\x8e\x89\xf0\x9f\x8e\xb6\xf0\x9f\x92\x93'
p241
aS'YOUR PARODYMADE ME DIE'
p242
aS"at 2:11 he doesn't seem that honest...haha or whatever"
p243
aS'Lol'
p244
aS'7 AM and i go back to sleep~ LOOL so true'
p245
aS"But it wasn't Rebecca's fault. Her parents paid thousands of dollars to \nthis company which like auto tuned the song"
p246
aS'Much better version!'
p247
aS'lol he said \'\'CHING CHANG CHONG YAO MING" :D'
p248
aS'The original video isnt available because of a copright claim by Rebecca \nBlack...'
p249
aS"\xe2\x99\xaa\xe2\x99\xab\xe2\x99\xaa\xe2\x99\xab7AM waking up in the morning,,,\xe2\x99\xaa\xe2\x99\xab\xe2\x99\xaa oops I mean \xe2\x99\xaa\xe2\x99\xab\xe2\x99\xaa7PM goin' \nback-to-bed, YEAH\xe2\x80\xbc\xe2\x99\xaa\xe2\x99\xab"
p250
aS'last one was totally cool '
p251
aS'Interesting username.....'
p252
aS'So much better'
p253
aS'best part of the hole vid: "Seven am gonna go back to sleep."'
p254
aS'Another good parody of friday : Harry Potter by the Hillywood show :3'
p255
aS"Ahahhahahahahahahahah!!! PANESE you're a fucking genius! x'D Love ya!"
p256
aS'*ASIAN'
p257
aS'7 a.m. And I go back sleep'
p258
aS'yeah...i dont have small eyes or lighter skin but i am asian..'
p259
aS'friday sucks'
p260
aS"know that feel bro but I'm just a mixture"
p261
aS'The lyrics are tearable lol'
p262
aS"7am and I go back to sleep... Lol you're so funny ryan"
p263
aS'Ikr'
p264
aS'2856 becky blacks disliked this video'
p265
aS"Actually I think he's Hawaiian. Not sure though."
p266
aS"7 am and I'm going back to sleep haha"
p267
aS'7am and i go back to sleep XD'
p268
aS' Dear ryan can you do a rap battle.'
p269
aS'7 a.m and i go back to sleep LOL'
p270
aS'7 am and I go back to sleep'
p271
aS'We we we so excited'
p272
aS'tear able. LOL!'
p273
aS'7 A.M And I Go Back To Sleep LMFAO'
p274
aS'Omg I love his videos there so hilarious x)'
p275
aS'Lol love the end'
p276
aS'Touch Charlie..... sheen, lol'
p277
aS'Lol the guy banging the pans'
p278
aS'7:00 am and I and I go back to sleep lol'
p279
aS'Lol'
p280
aS'SEVEN AM AND I GO BACK TO SLEEP!'
p281
aS'is it wrong for being asian? at least ryan is absolutely more famous than \nyou you racist faggot..'
p282
aS'what would Rebecca black say if she saw this video? :) xoxoxoxooxoxoxoox :D '
p283
aS'7 am and i go back to sleep :D Lmao'
p284
aS'Agree'
p285
aS'you need to check out Russell Howard'
p286
aS'7 am and I go back to sleep. That is exactly what I do all summer.'
p287
aS'no one does like kids bop'
p288
aS'Agrees agrees!!'
p289
aS"Japanese people are Asian... .-. And he's Japanese. "
p290
aS'And I was in a lost 4 words, 4 words, What the hell wasthat. Lol.XD'
p291
aS'i actually found the sunday joke reeeaaally funny...'
p292
aS'Yeah sure, nothing can beat 35 million views in a month....EXCEPT GANGNAM \nSTYLE! He got 35 million in a week!'
p293
aS'Fartying Fartying yeah!!'
p294
aS'lol, psy beat her easily.'
p295
aS'World record for shortest song! Not to mention that song is exactly 7 \nseconds.'
p296
aS'Adc maokai'
p297
aS'7:00 I go back to sleep !!! Lol lol'
p298
aS'"7 am and I go back to sleep" That is my whole life in 1 sentence.'
p299
aS'One of her lines involving deciding what seat to take in the car....'
p300
aS'hhhhhhhhhhhhhh xD '
p301
aS'best part starts at 2:19 LMFAO '
p302
aS"I HAVE THAT BLANKET!!!!! ( it's so soft)"
p303
aS'Way better than the original'
p304
aS'probably jealous of real talent,how sad (neeeiigh!)'
p305
aS'first off, ryan is japanese, he said so a few times. second: where the hell \ndid u go to school, because its obviously terrible. japan is in asia. wow.'
p306
aS'That was a way better version !'
p307
aS"He's assasin????!!!!!"
p308
aS"It's okay he doesn't need you either."
p309
aS'7am and I go back to sleep. I laughed so hard at that point'
p310
aS'what the hell wasthat <-- lol'
p311
aS'7 am and I go back to sleep HAHAHAHA'
p312
aS'2:23 ytf is in the upper right corner'
p313
aS'7 AM and i go back to sleep'
p314
aS'laughed so hard at whollorist !!'
p315
aS'japanese is asian dumbass'
p316
aS"I'm dying!"
p317
aS" No one likes waking up at 7 o' clock huh?"
p318
aS'ikr me2'
p319
aS'exactly'
p320
aS'She didnt write the song.'
p321
aS'Oh my god, I could not stop laughing!'
p322
aS'Dear Ryan have you seen death battle rebecka black vs jb'
p323
aS'I think someones jealousss lol jk but ive actually never saw the video for \ntht song bcuz i thought the song was stupid. Not to hate but it was & it \nwas annoyin & same with almost every american song now a-days it has no \nreal meanin & yes im american... But at 1:17-1:20 u reminded me of Hanate \nlol xD'
p324
aS'If beeten that amount of views and have 464753 subscribes:-)'
p325
aS"Asian isn't a language....if you're Japanese, Chinese, Korean, Filipino, \nect. you're Asian. "
p326
aS"somebody's jealous..."
p327
aS"But..rebecca actually can sing well kinda if u watvch her cover on \nstay....she's not that bad..,."
p328
aS'aha! that video got taken off the internet... by Rebecca black XD!! '
p329
aS'Lol'
p330
aS'troll? what? whats that '
p331
aS'I laughed so hard at the subtitles with the guy banging the pans together!'
p332
aS'TEEHEE \xe2\x98\xba'
p333
aS'wow, just wow'
p334
aS'AH HA..OUCH CHARLIE AHAHAHAHAHAHAAAAAAAA'
p335
aS"No doubt that's how the video should have gone, short and simple and it \nkind of rhymed this time, more than the original "
p336
aS'She used to go to my school. She was actually a good singer'
p337
aS'Friday would make a good 2 chainz song'
p338
aS'\xe2\x87\xa7\xee\x84\x85\xee\x90\x89\xee\x90\x89\xee\x84\x85\xee\x90\x84\xee\x84\x85\xee\x90\x89\xee\x84\x85\xee\x90\x84\xee\x84\x8c\xee\x8c\xae'
p339
aS'cool. Ryan, your version is better'
p340
aS'7am. And I go back to sleep the end haha'
p341
aS'That was a good version! :)'
p342
aS'hahahahha '
p343
aS'What so great about the video'
p344
aS'and thats the reality'
p345
aS'nigahiga you know rebecca black she removed your video cuz i was trying it \nsays rebecca black removed it on swedish but like soem people has copyied \nsoo no problem love u nigahiga'
p346
aS'LOL ENDING: HILARIUS'
p347
aS'jealous much'
p348
aS'seven am and i go back to sleep .. haha XD '
p349
aS'More like 12:00 pm and I go back to sleep'
p350
aS'pokemonss'
p351
aS"more like it's the middle of the day & i go back to sleep"
p352
aS"It's almost like we watched the same video"
p353
aS'If you put that way then yes:D lmao'
p354
aS'only gangman can get more veiws than that!'
p355
aS'But i hate that song!!'
p356
aS'or this . *Cut to Gangnam Style*'
p357
aS'7 am I and I go back to sleep. Hahahahhaha. OMG. SO TRUE. XD'
p358
aS"Perhaps you haven't had some basic geography education, honey. It's okay. "
p359
aS'Me'
p360
aS'omg yours is so better than rebecca black omg your japanes! me too!'
p361
aS'2:21 Who noticed the small YTF?'
p362
aS'wanted to see rebecca black, the video was copyrighted...... wut?'
p363
aS'gangam style beat that big time'
p364
aS'Im in a nigga higga spree'
p365
aS'" 7am and i go back to sleep." he wasn\'t kidding when he said a \'better\' \nversion.'
p366
aS'XD'
p367
aS'Ryan is japanese? :D'
p368
aS'Hahaaa'
p369
aS'Dear Ryan, can you be a magician?(:'
p370
aS'"I don\'t know why I\'m here I don\'t know how to read".'
p371
aS'friday i watched like 47 seconds and threw my laptop on the floor'
p372
aS'LOLOLOL'
p373
aS'2:32 you see ytf'
p374
aS'I usually get about 10 views'
p375
aS'7:00 am time to go back to sleep THE END ME:LOLZ'
p376
aS'Love the ending'
p377
aS'Omg i friggin hate Friday'
p378
aS"Rebecca's second song of My Moment or whatever the song is called. She auto \ntuned herself in that video.. lol cuz she cant sing!"
p379
aS'yes there are asian...i am Malaysian and a truly asian...i dont have small \neyes..damn... '
p380
aS'lol im chubby walrus'
p381
aS'Omg the last part xD im so gonna recommend this to my friends xD'
p382
aS'2:22 LOL the wall said YTF :)'
p383
aS'Lol'
p384
aS'I love this guy .-.'
p385
aS'PANESE, LOL!'
p386
aS'she have 1 mill dislikes in short time who can do that .'
p387
aS'you beat her with all the how to be videos '
p388
aS'The crap you put out is better.'
p389
aS'thats already been DUN DUN DUN'
p390
aS'um no'
p391
aS'7am and I go back to sleep'
p392
aS"That's from mychonny"
p393
aS"Just because we don't know how to speak in the good?!"
p394
aS'LOL Panese '
p395
aS'yeah that was a line'
p396
aS'7 am and I go back to sleep. Hahaha lol!'
p397
aS'copyright video....(She was jealous)'
p398
aS'7 mean song not s9ng'
p399
aS'hahah 7am and I go back to sleep :-p'
p400
aS"That's every morning for me"
p401
aS'A Japanese born in Hawaii? The irony.'
p402
aS'At least you can wake up at 7 am. I HAVE TO WAKE UP AT 5 AM'
p403
aS'Well ur friend is a fucking liar'
p404
aS'Your version is so much better.'
p405
aS'"No body can beat that!" .... PSY... \xe2\x99\xa1'
p406
aS'Bleeding'
p407
aS"You're lip is boring"
p408
aS'Naw if you look he is talking about asains, not asians xD lol.'
p409
aS'holy fuck the ending xD'
p410
aS':) 2:20 '
p411
aS'The last bit is hilarious! 7 AM I go back to sleep.'
p412
aS'\xe3\x81\x99\xe3\x81\x94\xe3\x81\x84'
p413
aS'Why are there even these subtitles im speaking fine'
p414
aS'I laugh so damn hard at your own version! I love it :)'
p415
aS'I wonder how many ppl actually buy kids bop'
p416
aS'lolz i love the ending: 7am i go back to sleep. the end'
p417
aS'The kids from kidsbop lol'
p418
aS'I miss off the pill'
p419
aS'what race are you exactly '
p420
aS'7am i go back to...Oh shit! School! D:<'
p421
aS'he is hilarious '
p422
aS'At 2:23 u will c it say ytf'
p423
aS'Ching Chong Yao Ming???'
p424
aS'You are Japanese'
p425
aS'im guessing that was an insult yes i know hes asian he probably is \njapanesse and he is Hawiaan to or however u spell it'
p426
aS'nekk minute: PSY BEAT REBECCA'
p427
aS'dear ryan could you make adventure time?'
p428
aS'hahaha i saw you comment on the, original video of friday, so i searched \nnigahiga friday, got this and sure enough you commented here :)'
p429
aS"'' 7 am and i go back to sleep '' loool"
p430
aS'7 am i go back to sleep! i laughed my head off! story of my life!'
p431
aS'Dear Ryan can u do an off the pill on Asian stereotypes and racism'
p432
aS'C\xc3\xa1m \xc6\xa1n v\xc3\xac \xc4\x91\xc3\xa3 nh\xe1\xba\xafc nh\xc3\xa9 ;). m\xc3\xacnh s\xe1\xba\xbd ch\xc3\xba \xc3\xbd h\xc6\xa1n :D'
p433
aS'WE WE WEE WE SO EXCITED'
p434
aS'You got over 12,000,000 views and not as many dislikes as Friday '
p435
aS'I like your version much better'
p436
aS'lol'
p437
aS'Ha! Burn.'
p438
aS'who else is in a nigahiga spree?'
p439
aS'Are those subtitles? :)'
p440
aS'I Get 1 View A Half A Year ;) haha'
p441
aS'LIAR!! NO !! NO THIS IS A LIE! YOU SAID ID GET AN IPAD3, I GOT A NEXUS 10! \nWTF?'
p442
aS'4pm and I go back to sleep'
p443
aS'LOL THE END :) I LOVE UR VERSION BETTER OF FRIDAY. 7AM AND I GO BACK TO \nSLEEP :) LOL'
p444
aS'Dear Ryan, can u imitate Ariana Grande, doing a HANDSTAND'
p445
aS'Yes that was a library, didnt you see the book? :3'
p446
aS'The ending XDDDDD'
p447
aS'Lmaoooooo! Please look at a map....'
p448
aS"I'm a n00b and i'm proud of it!!"
p449
aS"I watched this on a Sunday and it's raining ._."
p450
aS'omg his version was ssssoooooooooooooooooooooooooooo much better:):):):):):)'
p451
aS'Because after that is the SCHOOL HOLIDAYS or what you guys say END OF THE \nSEMESTER aka SUMMER VACATION. :D'
p452
aS'Haha'
p453
aS'my day ends at 7:00 ahahahaha'
p454
aS'kids bop sucks yey ryan'
p455
aS'Did anyone else see YTF at 2:24?'
p456
aS'even sader when you try explaining ;S'
p457
aS'PINOY AND PROUD!!'
p458
aS'/sigh XD Funny C;'
p459
aS'My friend told me that u r Chinese.....'
p460
aS'Dear Ryan can you be a Pokemon?'
p461
aS"After being on YouTube for 2 years now, I know how much hate people can \ngive to me when reading these kinds of comments but maybe someone may be \nnicer. My dream is to be an actor and i like to dance in public, but i cant \nget in performing school, and i just got 1,409 subs, which is pretty \nimpressive to me, but I'll never get noticed with these numbers. If someone \nwould have the heart just to give this a thumbs up and spend all of 30 \nseconds watching a vid, it would mean the world. Thank you all"
p462
aS'lol the ending'
p463
aS"oh,u're japanese. :)"
p464
aS'Ssoo funny'
p465
aS'Did You Know the Song Friday was removed in youtube by Rebecca Black'
p466
aS'psy beated lol'
p467
aS'Are you Korean or Japanese?'
p468
aS'Friday a lot of views but more than half of the people disliked the vid'
p469
aS'You are Japense ?'
p470
aS'thumbs up if you saw the end at 7:00 am '
p471
aS'You gotta say, the lyrics did suck "gotta get up gotta get ready gotta go \ndownstairs. Gotta get (something) gotta get cereal everybody\'s rushing" all \nin a plain voice. And she was waiting for the bus to go to school and them \njust went with her friends instead.'
p472
aS'LOLOLOLOL 7AM AND I GO BACK TO SLEEP thats exactly what i do :)'
p473
aS'nigahiga is just a bitch hater'
p474
aS'Oppa kl style got over 66 million views u were in it'
p475
aS'Dear Ryan, can you do an off the pill on Chinese Food?'
p476
aS'Lol'
p477
aS'"7am and I go back 2 sleep" Lol'
p478
aS'I like walls'
p479
aS'7 am and I go back to sleep loooooooool best song ever'
p480
aS'7 am and I go back to sleep. My life story, man.'
p481
aS"I know that wasn't a library because he was making noise "
p482
aS'JAPANESE'
p483
aS"was laughing the whole time.... im in love with ur videos I'm always happy \nthat people like you exist"
p484
aS"I know what u mean its just walking u through her day and she isn't even \nsinging she is just using auto-tune"
p485
aS'Miley cyrus got 100 million views in a month'
p486
aS'Lyrics to the song: 7 AM and i go back to sleep..........TEEHEE'
p487
aS"You should make the whole music video of ur version.....its even better \nthan rebecca's "
p488
aS'No wonder he us awesome, cayse he is Japanese lol'
p489
aS'Or psy'
p490
aS'haha so true :-p'
p491
aS'Why the fuck is this comment thumbs upped.. uped.. upteded.. whatever you \nget what i mean.'
p492
aS'"7 am and I go back to sleep." Story of my life, right there.'
p493
aS'dont be so freakin nosy '
p494
aS'Hahahahaha!! XD'
p495
aS'lol japan is in Asia, woman :D '
p496
aS'Does anyone notice a hidden "YTF" there? :D'
p497
aS'Those 5 seconds are better!'
p498
aS'Yeah but she has more dislikes than your videos so dont worry just be happy'
p499
aS'*applauds*'
p500
aS'Like if you saw the ytf in the song'
p501
aS'lol'
p502
aS'only PSY can beat.35 millions views in a month. '
p503
aS'Lol I love ur version of friday'
p504
aS'7:am and I go back to sleep'
p505
aS'panese XD '
p506
aS'Panese!!! XD'
p507
aS'Love your version<3'
p508
aS'best song evar'
p509
aS"my videos can't even get 100 views. :("
p510
aS'Lol'
p511
aS'"7 am I go back to sleep" true story =D'
p512
aS'Me too. '
p513
aS'10x better than Friday ;) (2:19-2:27)'
p514
aS'walurist,LMFAO '
p515
aS'Love the ending! HAHAHA'
p516
aS"I lost it at 'Walrus'"
p517
aS'35 million views in a month? no one can beat that. *Gangnam style is \nreleased*'
p518
aS'much better '
p519
aS"To this day I still haven't heard that song. And I don't think I want to."
p520
aS'Panese!!!!!! XD Lol I was totally lmfao!'
p521
aS'"35 million views in a month"...gangam style just proved him wrong.'
p522
aS'I found YTF :)'
p523
aS'LoL'
p524
aS'Lol 2:23'
p525
aS'Lalalalalalalalalalalalalal'
p526
aS"I don't even like Fridays."
p527
aS"Wait the minute... THanks to you, I've known that JAPAN IN NOT IN ASIA!!! \nWOW!!!"
p528
aS'He speaks penis. -.-'
p529
aS'dumb people his mom is asian but moved to hawaii'
p530
aS'I love you'
p531
aS"that wasn't 4 words that was 6"
p532
aS'Captainsparklez got 106000000 views in one of his music videos.'
p533
aS"She's like Miley Cyrus in reverse"
p534
aS'A better version of Friday....This video should have gotten 35million views \nin a month.'
p535
aS'7 am and I go back to sleep. lmao'
p536
aS'Ok now i get wht Ryan meant when he mentioned "kidz bop" but my gowsh i \nhave so many thoughts! Like wht was up wit the black dude rapping & why \ndidnt anything make sense besides the fact tht thursday comes b4 friday & \nsaturday is after!? Inno theres a story behind this & she alrdy got enough \nhate but gowsh dude was she (or who ever wrote & directed this) tryna kill \nus!? Im srry & inno its not her fault or whatever but really... think about \nthe children'
p537
aS'Uh...Rebecca Black sang that horrible song cause some company who made it \nasked her to...'
p538
aS'racist'
p539
aS'Wallace. Thats my lastname ^_^'
p540
aS"And the Philippines cause it's in Asia too. (Saying that cause im \nFilipino... LIKE D-TRIX xD )"
p541
aS'I did'
p542
aS'best cover ever :b'
p543
aS'Panese = sounds like panis = it means spoiled or rotten in Filipino haha '
p544
aS'Mix up*'
p545
aS'Is that racist?'
p546
aS'"Seven a.m. and I go back to sleep" I wish'
p547
aS'7am and I go back to sleep'
p548
aS"And he just did the 'Flop'!"
p549
aS'that was awesomeEeEeEeEeEeE eEeE '
p550
aS'Ryan your trying to hard'
p551
aS'Teehe'
p552
aS'woah im on top comment! :D'
p553
aS"Best ending evererrrrr and no I'm not gay it bromance"
p554
aS"He wasn't serious and he means no disrespect to her like he already \nstated...."
p555
aS'CHING CHONG LING LONG TING TONG PING PONG CHIN CHANG YAO MING XD'
p556
aS'Click for an EPIC coment adventure.'
p557
aS'1:39 omg replay.'
p558
aS'I like that song.,..'
p559
aS'i crashed my car into the bridge... I DONT CARE'
p560
aS'Ya you can\'t beat that unless you"re pay'
p561
aS'ARF ARF'
p562
aS'Hahaha amazing. (y)'
p563
aS"What was that? Some kind of cheap shot at Asians? Just because we don't \nknow how to speaking the good? That's racist."
p564
aS'1 million veiws? 12 MILLION!'
p565
aS'Smosh can beat that'
p566
aS"Zhing Zhong Ling Long Ding Dong =))) oops that's racism"
p567
aS'7 AM and iGo back to sleep...Zzzzzz'
p568
aS'Or PSY'
p569
aS'this never gets old lol'
p570
aS'no lj man.'
p571
aS'Dear Ryan, van you do a rant on Chinese food?'
p572
aS'YTF'
p573
aS'Lol best song Ryan!'
p574
aS"in a way, yes. but people normally refer them as their country's name, so \nthat's not a problem."
p575
aS'Was eating almonds while watching this and yes, I did choke.'
p576
aS'I do that.'
p577
aS"ummm yeah he's japanese u idiot you don't know how to speak in the good \neither?"
p578
aS"wait your immature video got 1 million views in just 24 hours.That's what \nshe said."
p579
aS'you are absolutely gorgeous :)'
p580
aS'Ouch *'
p581
aS'7 am I go back to sleep, I just fall off my bed!!!'
p582
aS'german book '
p583
aS'SHUT UP NOW I KNOW hes Japanese and Asain and Hawaiian '
p584
aS'I wish I could learn Panese...'
p585
aS'7am and I go back to sleep. Lol'
p586
aS'lol!! "shut up kidz bop nobody even likes you!!" HAHAHA i hate kidz bop'
p587
aS" I'm lovin' it. You're cool ! Ryan"
p588
aS'2:23 YTF top right corner'
p589
aS'7am and i go back to sleep'
p590
aS'thats being really mean to Ms. Black.'
p591
aS'Bwahaha, genius ending'
p592
aS'Its 7am and i go back to sleep'
p593
aS'dear ryan i am dying becuz of your parody'
p594
aS'No please no. That show is freaky as fuck.'
p595
aS'Dear Ryan, can you plz make a adventure time story'
p596
aS'Pause at 1:39 lol '
p597
aS'retard '
p598
aS'LOL'
p599
aS'Ryan higa is the best '
p600
aS'..omg.... turn on captions....'
p601
aS'I thought u wer hiwain'
p602
aS'Omg'
p603
aS'ryan ur awesum dude!!!!!!!!!!!!!'
p604
aS'Panese '
p605
aS'Where is the song'
p606
aS'haha now you get 30 million in a month'
p607
aS'r u really japanese?'
p608
aS'Not being racist, but do you like anime and manga?'
p609
aS"I don't know why I'm here, I don't know how to read lol!"
p610
aS'7am gunna go back asleep.'
p611
aS'Oooh ping pong chi Chang Ching cho Ming XDD'
p612
aS'Seven am and I go back to sleep!X)'
p613
aS'0 dislikes, new record'
p614
aS'I GO BACK TO SLEEP :3'
p615
aS'7am and I go back to sleep lol'
p616
aS'Dear Nigahiga, at 0:30 you are wrong. Psy beat that shit hahahahahaha'
p617
aS'is today a no dislike day??'
p618
aS'lmao!!! panese'
p619
aS'Ha ha'
p620
aS'I love this!'
p621
aS'Ping pong Ching Cheng Chou Yao Ming. Lol.'
p622
aS'This happend today -_-"'
p623
aS'HHAHAHAHAHAAHAHAHA UR SO AWESOME I LOVED THE LAST PART LOL btw ur japanese? \n;p just curious'
p624
aS"It's funny cause u met Rebecca black"
p625
aS'Lol I was like so excited for your version of the music video and then I \nwas like WTF XD'
p626
aS'Stuff gettin up I just sleep threwout the hole day'
p627
aS'my parents are asian im not adopted but i was born in england because they \nmoved there but i speak english like a boss'
p628
aS'She got more views cause ppl wanna see how bad the song actually is when \nthey here their friends talk about it. Dude check the dislikes not the \nviews '
p629
aS'Genius.'
p630
aS'I pee the bed '
p631
aS'Sooooooooooo awsome the ending was like me'
p632
aS'Bullshit, Ryan. You are NOT like Rebecca Black =)'
p633
aS'or a yo momma battle'
p634
aS'Lol'
p635
aS"It's May 13, 2013, and I had never actually seen the whole video or heard \nthe whole song. I decided to watch it, just to see what you were talking \nabout. I... well, I won't comment on my own personal opinion of it, but... \nlet's put it this way: halfway through the song, even YouTube couldn't take \nit. The video crashed. For once, I did not get angry at YouTube for doing \nso."
p636
aS'Ching chong ling long ting tong'
p637
aS'Watch it from 2:25'
p638
aS'I only have like 5 views :('
p639
aS'I like his version better'
p640
aS'Haha'
p641
aS"That's 5 words"
p642
aS'And we did know the days of the song.'
p643
aS'Funny as ending'
p644
aS'Dear Ryan, how to be a super hero?'
p645
aS'The weird thing is that Rebecca Black is actually pretty good now....'
p646
aS'Why is he insluting other fine peole!?!?!? -.-'
p647
aS'Hahaha great one!'
p648
aS"I love how Ryan tried not to trash talk Rebecca Black even if it's obvious \nhe hates the song xD"
p649
aS'Psy beat everyone, 2.2billion views '
p650
aS'psy can beat that :D lol'
p651
aS'Lol end'
p652
aS'I SAW YTF IN THE VIDEO'
p653
aS'7am and i go back to sleep LMFAO'
p654
aS'Dear Ryan, YOLO?'
p655
aS'I was better'
p656
aS'7 am and I go back to sleep. The end'
p657
aS'The short funny of his was funny'
p658
aS'That was the best thing ive ever seen'
p659
aS'Dear Ryan, how much do you like chocolate?'
p660
aS'So very true'
p661
aS'Ha 7 am and i go back to sleep'
p662
aS'Look at the dislikes'
p663
aS'lol endinggg lol, but still don\'t get it why the part "we we we so excited" \nis racist :-?'
p664
aS'Psy beat her.'
p665
aS'Dude you have 45million views for that nice guys video!!!!!!!'
p666
aS'Its far to late to say this but the amount of dislikes it got surpassed the \nlikes on the video so Friday by Rebecca was trash.'
p667
aS'I love teehee'
p668
aS'psy can beat that '
p669
aS'HAHAHAHAHAHAHAHAHAH HIS WALRUS IMPRESSION HAHAHAHAHAHAHAHAH'
p670
aS'omg its soooooooo funny'
p671
aS'Even I hate rebecca black n the her song friday I mean who wakes up at 7 am \nlol ending was awesome 7 am go back to sleep'
p672
aS'Less than three the ending!! (='
p673
aS'xD'
p674
aS'Ru Japanese'
p675
aS'That awkward moment when he was saying she got 3.5 million and how no one \ncould beat that... Yet he got 12 million views on this video...'
p676
aS'LOL man ! XD Love your videos >< Laughed a lot with the sun.day joke! And \nthat version was just perfect hahaaha'
p677
aS'Shut up sucker'
p678
aS'back to geography class with you'
p679
aS'7 am and I go back to sleep lolz that was funny'
p680
aS'Ouch Charlie....sheen, lol!!!!!'
p681
aS"You're a fucking dumbass, you know that?"
p682
aS'Why are you singing Icona Pop?'
p683
aS'"ching chong Yao Ming" XD'
p684
aS'Dear Ryan, can you plz make a adventure time story????????????????? TEEHEE'
p685
aS'Lol'
p686
aS'Love this!!!'
p687
aS'Dear ryan can you be mario bros'
p688
aS'What is the name of the white farting cat?'
p689
aS'7am gonna go back to sleep i laauughhh cause..... its'
p690
aS'7 am i go back to sleep lmaoo'
p691
aS"I caint stand Friday by rebecca black it's horrible and gives me headaches \nso yea lol I liked ryans song betterlol"
p692
aS'she got better do but friday is still feo...that is ugly'
p693
aS'Be song ever :) at the end'
p694
aS'Gangnam Style Beat friday'
p695
aS'So was it awkward when you met her? XD'
p696
aS"After being on YouTube for 2 years now, I know how much hate people can \ngive to me when reading these kinds of comments but maybe someone may be \nnicer. My dream is to be an actor and i love to dance in public, but i cant \nget in performing school, and i just got 1,300 subs, which is pretty \nimpressive to me, but I'll never get noticed with these numbers. If someone \nwould have the heart just to give this a thumbs up and spend all of 30 \nseconds watching a vid, it would mean the world. Thank you all"
p697
aS'You realise that hawaii is one of the 50 states right?'
p698
aS'Your Japanese ryan! I luv Japanese guyz!'
p699
aS'This is weird because I am watching this on a friday. ( April 12 2013 to be \nexact)'
p700
aS'i feel the same way, dude. i only have 5...WHHAAAAAA!!!!!'
p701
aS'I LOVE YOU RYAN.'
p702
aS"Have you seen Brock's dub of Friday ?"
p703
aS'My mathematics LOL'
p704
aS"It's 7:00 am and u go back asleep lol"
p705
aS'Tru'
p706
aS"he's originally from japan but he was born in america so he's half japanese \nand half america"
p707
aS'I like yours better then hers!'
p708
aS'"Shut up Kidzbop, nobody even likes you!" AMEN !!xD'
p709
aS'Hahaahahahaahahaahaaa'
p710
aS"Lol! So funny!! You're the best, Ryan!!"
p711
aS'2 more years'
p712
aS"I wish that friday was that short.I can't handle an entire 3 minutes with \nITS FRIDAY FRIDAY GOTTA GET DOWN ON FRIDAY -_-"
p713
aS'so you "shed a tear" on a daily basis '
p714
aS'you are right I hate that song too '
p715
aS'7 am and i go back to sleep -.-'
p716
aS'Just because we are asian doent meen we dont no how to speak in the good. \nIm with u Ryan'
p717
aS'"It\'s seven am and I go back to sleep" Pretty Much.'
p718
aS"Don't worry!!!! I still like u more!!!!"
p719
aS'AHAHAHAHAHAHAAHAHAHHAHAAHHAHAHA THE END! OMG XDXDXDXXDXDXDXDXDXDDXDXD '
p720
aS'or gangnam style '
p721
aS'he said million....'
p722
aS"You're japanease...? I am"
p723
aS'Almost pissed myself at his version of the song :D'
p724
aS'"7 AM and i go back to sleep" lol amen'
p725
aS'This man is geographically challenged.'
p726
aS'7AM and I go back to sleep LOLOLOLOL'
p727
aS'*it\'s supposed to be "Wait a minute" ;) next time before mocking someone \nyou should make sure your phrase is correct first :)'
p728
aS'SHUT UP KIDZBOP!'
p729
aS'hhhhhhhh'
p730
aS'Ill search chester see friday when you learn how to spell.'
p731
aS'You rock and your so funny'
p732
aS'I LIED!'
p733
aS"Japan is in Asia. And yes i'm fro Asia, and no i'm not Japanese, and it's \nspelled Asian woman, not Asain .__."
p734
aS'im Chinese I speak mandarin I have no idea how to spell it '
p735
aS'exactly what I did this morning. I got up at 7 am and then I went back to \nsleep (I was almost late to Skool)'
p736
aS'Best part-ending!'
p737
aS'he is japanese. and he could still be asian anyway dumbass'
p738
aS'WE, WE, WE, SO EXCITED!'
p739
aS'HAHAAH!! I DONT SPEAK PANESE!! my tears drops~ '
p740
aS'Lol'
p741
aS'Everything I would say is already posted below by other commenters they \nbeat me to it lol'
p742
aS'mine get 5'
p743
aS'Dont worry u have more subscribers then her'
p744
aS'*Hawaiian'
p745
aS'Best version of Friday ever.'
p746
aS'Haha :3'
p747
aS'Omg i have a friend named ching chong'
p748
aS'Teehee'
p749
aS'2:03 lol i died '
p750
aS'Hahaha!!!!!'
p751
aS'Psy beat that.'
p752
aS'1:40 is the funniest part'
p753
aS'2:23 YTF'
p754
aS'7:00 am and I go back to sleep TEEHEE'
p755
aS'7:00 am and i go back to sleep hahaha'
p756
aS'And then he meets Rebecca black. e.e'
p757
aS'Same with me 7am way to early just like 9am'
p758
aS'Lol'
p759
aS'Haha "panese"'
p760
aS'Nigga please, I dont sleep'
p761
aS'7 am and I go back to sleep haha'
p762
aS'Oooohh'
p763
aS'& am and i go back to sleep! ahahaa made my day!'
p764
aS'Still love it!'
p765
aS'I have washed that version 100 times and its still hilarious'
p766
aS'Lol'
p767
aS'Omg! The end is hilarious!! Seven am and I go back to sleep. Genius!'
p768
aS'LOL 2:20'
p769
aS'Awesome!'
p770
aS'UR JAPANESES?!?!?!'
p771
aS'why is he sleeping in normal clothes?'
p772
aS"You shouldn't autotune. Even if your voice sucks. Because it's fun! -Rinion"
p773
aS'lol kids when your mom/dad wakes you up wake up and say "7 a.m. and I go \nback to sleep" or what ever time it is XD'
p774
aS'7am and i go back to sleep :D HAHAH OMG BURSTED OUT THERE '
p775
aS'7 a.m. and I go back to sleep :\xc2\xb0]'
p776
aS'fantastic.'
p777
aS'LOOOVE LOOOVE LOOOVE'
p778
aS'7 am then I go back to sleep'
p779
aS'Ffrriiddaayy'
p780
aS'If only the song was that short...'
p781
aS'the last part !! lol XD'
p782
aS'I got 30 views in one year (my most viewed) , probably my ma'
p783
aS'I wonder what rebecca black would think of this video.... x'
p784
aS'Or if your gangdam style'
p785
aS"Nice song! Can't stop laughing"
p786
aS'GENIUSY. I love Ryan Higa, such a classic comedian :)'
p787
aS'7 AM AND I GO BACK TO SLEEP'
p788
aS'i farted as soon as the cat farted....... hahaha fartception'
p789
aS'Haha the last part blew me off well it didt because im to have for the air'
p790
aS'hahaha..this is what i notice most you ppl think asian is only Chinesse or \nKorean...Asian is not only chinesee or korean dumbass...'
p791
aS'"\'We we we so excited! \'What was that, some sort of cheap shot at Asians?" \nIf you want a racist Rebecca-Black-like song, check out Alison Gold\'s \n"Chinese Food" =p'
p792
aS'i died at that part lol! '
p793
aS'Lol'
p794
aS'Hahahahaha love ur ending'
p795
aS'bitch please, 10:00 AM and i go back to sleep'
p796
aS"But Psy didn't make Gangnam Style in 2009 ......"
p797
aS'oh Regina xD'
p798
aS'Soooo funny,7:00 am and i go back to sleep'
p799
aS'"ooohh ching chong ling long ting tong!" XD'
p800
aS'There gay'
p801
aS'I love this video check my videos'
p802
aS'True story bro ;)'
p803
aS'Shut the fuck up crist frantic'
p804
aS"What's off the pill mean lol"
p805
aS'TEEHEE'
p806
aS'why?'
p807
aS'So funny nigahiga'
p808
aS'you can beat that. PSY did it.. Harlem Shake did it..'
p809
aS'Please hit me with this bat, as hard as you can.'
p810
aS'i hate the song Friday by Rebecca Black but prom night is way worse but she \ngot really famous for being horrible at singing weird O.O '
p811
aS'1:27 - 1:30 and 1:42 - 2:05 are the best parts ever!!!'
p812
aS'Did that cat die of something, cause its not in the other videos'
p813
aS'Haha Ryan looks SO different while Regina.. totally...'
p814
aS'ahahahahhaha!! XD'
p815
aS'She has like 998,875 dislikes'
p816
aS"except for the fact that even though she should, rebecca black doesn't use \nauto-tune"
p817
aS'lol..ironic..since nigahigas song "nice guys" has almost the same views as \nfriday..WOOHOO NIGAHIGA'
p818
aS"what's the connection?? i'm not some atheist.. but really?? "
p819
aS'2 years since this video congrats!!'
p820
aS'i rofled so hard at 1:39 ... what the hell is he doing'
p821
aS'Best Friday ever.'
p822
aS'nope almost 1.5 billion '
p823
aS'7am and I go back to sleep lol'
p824
aS'ouch charlie, sheen LOL'
p825
aS'7:00 am and i go back to sleep lol '
p826
aS'My hands a dolphin'
p827
aS'Best ending!!!!!!!,'
p828
aS'YOUR STUPID... '
p829
aS'His s9ng was much better'
p830
aS"Oh and there's a secret l"
p831
aS'*claps* *cries with joy* you should win an award!'
p832
aS'Now you can tell that this is off the pill'
p833
aS'same here'
p834
aS'Oh, shut up Kidz Bop, no body even likes you! omg haha!'
p835
aS'"7am and I go back to sleep." LOL'
p836
aS'Shut up Kids Bop nobody likes you xD true'
p837
aS"I can't spell xD"
p838
aS'7am and I go back to sleep. THE END LOL'
p839
aS'7:00 am snd i go back to sleep'
p840
aS'the ending is my life'
p841
aS'lol'
p842
aS'craziest man everrr'
p843
aS'I absolutely love you Ryan'
p844
aS'7:00 A.M and i go back to sleep'
p845
aS'Comment below u dumb ass china fukin com and u cant leave china hs korian \nor japaness'
p846
aS'Gangnam Style'
p847
aS"Lol the video sucks I saw it your right Ryan it was like Fred dressed up as \na girl. Don't feel bad Ryan lol did u see the amount of dislikes she got? \n(One of them were mine)"
p848
aS'I thought Ryan was Chinese.'
p849
aS'Gangnam style beat Rebecca Black'
p850
aS'lol one time in confessions a priest told me "your parents dont get you and \nhave a hard time understanding this american idea coming from another \ncountry.." me: ... The priest "you are mong right?" Im chinese... and \nadopted.... (._.) it was awkward'
p851
aS'Gangnam style beat that'
p852
aS'hahaha'
p853
aS'dear ryan your videos are awsome my whole class like you '
p854
aS'Ur version is funnier than hers ___'
p855
aS'7:00 AM and i go back to sleep. *the end*'
p856
aS"screw rebecca's views, PSY gOT 1 BILLION VIEWS IN HIS YOUTUBE VID"
p857
aS'Lmao! Definitely a better version!! :p'
p858
aS'Its 7 am and i go back to sleep,haha'
p859
aS'The ending was the best ending in the world!! XDDDD'
p860
aS'NIGAHIGA I LOVEU'
p861
aS'7.5 corndogs ate 3 and five halfs of 0 people. Jimmy Dean biscuits.'
p862
aS'bhahhahhaha:D "7am and i go bakc to sleep" ??? hahhaha typical xDD!!!!'
p863
aS'1:34 to 1:44 '
p864
aS'wow higa that really was a better version'
p865
aS'@Jorge Perez Dickhead.'
p866
aS'you say like gangnam style was bad'
p867
aS'haha library with one book'
p868
aS"This video has got like a quarter of Friday's views lol"
p869
aS'Love that'
p870
aS'?????'
p871
aS'The face u make is just the best!!!! XD'
p872
aS'Lol'
p873
aS"EPIC!! That's me every morning! :D"
p874
aS"Didn't you find it awkward when you met Rebecca Black in the Ricki Lake \nShow? HAHAHAHAHA"
p875
aS'Ryan-you should do a parody of 2 chains xS'
p876
aS'7am now I go back to sleep.. almost peed my pants haha :0 '
p877
aS'Lol'
p878
aS'Way better'
p879
aS"I dont no why I'm here I don't no how to read XD lol"
p880
aS"I love you! ^^ You're so freaking funny :D"
p881
aS'lol '
p882
aS'What the hell wasthat! Omg I laughed so hard'
p883
aS'Dear Ryan can you do a supersmash bros melee movie ???'
p884
aS'Thimbs up If you watched this on friday'
p885
aS'Love the ending'
p886
aS'lol u rock'
p887
aS'Lol lol End was epic'
p888
aS"Lol i'm watching this on Friday"
p889
aS'"I don\'t know why I\'m here I can\'t even read" :)'
p890
aS'Has she seen this?'
p891
aS'I actually watched that video'
p892
aS'Ryan do you speak Japanese for real? '
p893
aS'7am and i go back to sleepxD'
p894
aS'How daFuq id Rebecca wake up at 7am? '
p895
aS'what is panese?'
p896
aS'Ahh ouch Charlie.......sheen!'
p897
aS'Lol'
p898
aS'i freakin hate tht song her voice gives me a headache'
p899
aS'"Ching Chong Ling Long Ding Dong" sounds like the sound made by pans. \nPanese = language of the pans. Many in America think this is... \'Asian \nTalk\' So they go CHING CHONG LING LONG DING DONG to random Asians. Aaaaand \nyes. If this explains everything You\'re welcome'
p900
aS'omg watched it 4 times'
p901
aS'Best version ever! XD'
p902
aS'ting ting tang pang pong hahahaha lol'
p903
aS'No his Japanese but he lives in Hawaii'
p904
aS"Funniest thing i've ever watched!"
p905
aS'Do you know how many she got? MORE! >;('
p906
aS"It's suppose to sound like penis ._. xD "
p907
aS"that's funny and r u really Japanese because if you are your lucky"
p908
aS'Lol the reference to the ranting UCLA girl'
p909
aS"Hey it's Ryan here check out my other channel if ur beast"
p910
aS'Japanese are awesome----!!!'
p911
aS'Psy beat that'
p912
aS'i like ryans version bettah'
p913
aS"It's Friday, Friday, gotta get down on Sunday"
p914
aS'Or gangnam style 1,385,933,198 views'
p915
aS'It must have been awkward to meet her at that awards thing... on higaTV'
p916
aS'it is friday and im watching this XD '
p917
aS'2013 and this is still hilarious'
p918
aS'dear Ryan can you be a lamps mother? '
p919
aS'i love the ending xD'
p920
aS"LMFAO :')"
p921
aS"Does anyone get the Panese joke?! Bc i don't.. Or is that even a joke ._."
p922
aS'tehe'
p923
aS'7;AM and i go back to sleep (THE END) XD'
p924
aS'Like the nigahiga version. HATE THE REAL ONE!'
p925
aS'Can you come to New Zealand?'
p926
aS'Right now I would need one...'
p927
aS"After being on YouTube for 2 years now, I know how much hate people can \ngive to me when reading these kinds of comments but maybe someone may be \nnicer. My dream is to be an actor and i like to dance in public, but i cant \nget in performing school, and i just got 1,653 subs, which is pretty \nimpressive to me, but I'll never get noticed with these numbers. If someone \nwould have the heart just to give this a thumbs up and spend all of 30 \nseconds watching a vid, it would mean the world. Thank you all"
p928
aS'2:22 YTF'
p929
aS'I love this version of Friday, sums up my whole week xD'
p930
aS'Ryan, you do realize all of said Rebecca Black views were hate views right?'
p931
aS'The ending part should be a real song on MTV no joke'
p932
aS'7am and I go back to sleep. Luv it'
p933
aS'Very nice reference at the ching chong ling long ting tong girl'
p934
aS'Gangnam style got more'
p935
aS'I like your remix better'
p936
aS'"7am and I go back to sleep" - Damn, Ryan must have pulled off a really \nlong all-nighter '
p937
aS'im cracking xD'
p938
aS'frying pan. pan-ese'
p939
aS'lololololololol'
p940
aS"lol i got to admit ryan's version was better"
p941
aS'Hit a new level of respect for you sir!'
p942
aS'"She has over 35 million views in a month. I can\'t beat that, nobody can \nbeat that." Little did Ryan know... PSY was coming...'
p943
aS'omg nigahiga. u rock'
p944
aS'hi '
p945
aS'2:15 yeah rite'
p946
aS'I love how he was making fun of her in this video but then in the video \nwhere he meets her later on he acts all nice to her and compliments her \nsongs :p'
p947
aS'i like how ryan confuses himself 1:15'
p948
aS'asian rebecca black? HAHAHA :DDD'
p949
aS"1:40 :')"
p950
aS'Ummm what was my comment on this video again? It got removed and I forgot \nwhat it was.'
p951
aS'Dear Ryan, How long does it take you to make a video?'
p952
aS'Oh? You just watched the same Vid, I watched? COINCIDENCE O: -.- '
p953
aS'lol I go back to sleep'
p954
aS'I keep on repeating the "7am and I go back to sleep" line. Hahahahaa. It\'s \nso hilarious! :D'
p955
aS'7AM and I go back to sleep! :D'
p956
aS'i sleep at 7am :D'
p957
aS'Lol 7 am gonna go back to sleep! The end '
p958
aS'Got to love him'
p959
aS'Psy beat Rebecca...'
p960
aS"I speak Panese too. When I'm looking for something to cook in :\\"
p961
aS'Did anyone see the ytf on the wall?'
p962
aS'ur japanese? o.0 i thought ur chinese? Ryan'
p963
aS'hl'
p964
aS'Niceee \xc2\xa1\xc2\xa1\xc2\xa1\xc2\xa1\xc2\xa1'
p965
aS'thanks for the lyrics'
p966
aS'I hate her Friday song your better'
p967
aS'thats/ not an otter its a seal dummy'
p968
aS'Soo funny.'
p969
aS'We We We so excited-stupidest part of the song'
p970
aS'Hear me out! check out my channel! I have 48 subs and im so greatfull ! but \ni would love a wide audience! i will make you laugh your head off and i \nwont let you down on that! Im not asking for much! thanks for reading! '
p971
aS'after I showed this to my brother he says nothing exept 7 am. and i go back \nto sleep!'
p972
aS'7 am and I go back to sleep :D'
p973
aS'Ate these like rants?'
p974
aS'All I can say is well done, im awake...;) but its 9.02pm so: BACK TO \nSLEEEP!!!! Night youtube jokes lol :p'
p975
aS'I Agree with the " we , we , we so Excited "'
p976
aS'7 am im go back to sleep. the end lols!!'
p977
aS'Hi!'
p978
aS'thats impossible to get 35 billion views with just one vid bec theres less \nthan 8 billion peop living on the world '
p979
aS"Nah that's for her main account. The first person she subscribed to was \nherself. (Not to mention that she has 391, 962 alternates and counting) xD"
p980
aS'7 am and i go back to sleep '
p981
aS'"what the heel wasthat ?" now thats five words!! LOL! XD'
p982
aS'beutiful xD'
p983
aS'those ryans version more then the real one such n improvement '
p984
aS'Damn lol ending'
p985
aS'7am and i go back to sleep~!!! lol hahaha vote for this song to be The Song \nOf The Year! :">'
p986
aS"I don't think I would ever, ever, EVER get tired from watching any of your \nvideos :D"
p987
aS'omg the libraryan part killed me xD haha'
p988
aS'....i believe japan is in asia T_T '
p989
aS'30'
p990
aS'Wait Ur JAPANESE?!?!?? :D'
p991
aS"On the bright side, you're #3 on most subscribed! And Rebecca Black isn't 2 \nOR 1!"
p992
aS'GOD! he`s good :D'
p993
aS'After being on YouTube for a while now, I know how much hate people can \ngive when reading these kinds of comments, but I think Nigahiga fans might \nbe nicer. My dream is to become a filmmaker, and I just got 480 subscribers \nwhich is quite impressive to me, but I\xe2\x80\x99ll never get noticed with these \nnumbers. EVANFRIESENFILMS does VFX, so if someone would have the heart to \nspend just a minute watching a video, and maybe SUBSCRIBE, or give this a \nthumbs up, it would mean the world. Thank you all.'
p994
aS'Lol video and omg ur japanesse'
p995
aS'The summarized version was awesome xD'
p996
aS'7am and i go bak to sleep lol and xD'
p997
aS'ytf*'
p998
aS"You have 6,000,000,000 subscribers. Don't worry Ryan."
p999
aS'dear ryan can you be a rapper '
p1000
aS'LMFAOOOOOOOOOOOOOOOOOOOOOOO'
p1001
aS'Lol if he had that many, that would be almost everyone in the world. He has \nsix million subscribers.'
p1002
aS'HAHAHAHAHAHAHAHAHAHA THE END ;)'
p1003
aS'7 am and i go back to sleep! OMG HAHAHA HAHAHA HAHAHA'
p1004
aS'You\'re not like Rebecca Black. Your lyrics in songs are supposed to be (not \nin a mean way) laughable. Her song "Friday" is laughable, although I\'m sure \nshe didn\'t plan it that way.......Why am I taking this so seriously? I\'m \nsuch an idiot XD'
p1005
aS'gangnam style can beat that :p'
p1006
aS'Your japanese? i thought u were cantonese ?'
p1007
aS'yep..'
p1008
aS'7am and i go back to sleep XD'
p1009
aS'More realistic version'
p1010
aS'Rasicts'
p1011
aS'10 am AND i go back to sleep'
p1012
aS'Dear Ryan can you speak in ur own language?? '
p1013
aS'LOL'
p1014
aS'Party and Party and YEAH!'
p1015
aS'OO! CHING CHONG DING DONG LING LONG!'
p1016
aS'Walrus :)'
p1017
aS'Lmfaooo. Dies'
p1018
aS'1:38 made me laugh. HHAHAHA'
p1019
aS'somat bowt fridays wiv rebeca black ummmm:L'
p1020
aS"2:22 any1 else noticed the YTF in the backround? It's an easteregg :)"
p1021
aS'HAHAAHHAHAHAH love this'
p1022
aS'omg jacksfilms XD '
p1023
aS'Lol i get it dr who'
p1024
aS'7 AM and I go back to sleep! Lol'
p1025
aS'i found the ytd'
p1026
aS'You should make one about Gangnam Style!'
p1027
aS"You can't do that. UNLESS you are some korean guy dancing Gangnam Style."
p1028
aS"Hey shut your duck face up Gus your the only hater here get a life and stop \njudging Ryan when you don't even know him .."
p1029
aS'You think so...'
p1030
aS'2:02 DEAD LMAOOOOOOOOOOO HAHAHAHHAHAHAHA xDDDDDD'
p1031
aS'"7 am and i go back to sleep zzZ" lol XD'
p1032
aS"It's kinda funny cause rebecca took down the vid cause of too much hate \nover a year ago if u don't believe me click the link"
p1033
aS'Haha LOLOL'
p1034
aS'1:42 '
p1035
aS'1:32 liberry.... LOL'
p1036
aS'Ryan you got more than 1,000,000 views.'
p1037
aS'oh please ryan, your songs are more than worth listening to :D '
p1038
aS'"What the hell was that?" was five words...'
p1039
aS'your japanese cool ^_^'
p1040
aS'Panese! LMFAO'
p1041
aS'I had to watch the video of Rebecca Black to be sure to enjoy yours. The \nworst minutes in my all life. Can you give me back these 3 minutes I wasted \n? No. But I still like your videos.'
p1042
aS'LMFAO.. 7a.m. Waking up in the morning get back to sleep LOL'
p1043
aS'CHING CHONG LING LONG LONG YAOMING at least she said Long long (famous \npiano player) and Yaoming '
p1044
aS'Dear Ryan, could you do epic meal time?'
p1045
aS'OHHH CHINGCHONG LINGLONGLONG YAOMING'
p1046
aS'The full video was removed because it was copywrited!'
p1047
aS'......7am and i go back to sleep lmao'
p1048
aS'Whoa...todays Friday...O.o'
p1049
aS'Dear Ryan, can you speak Japanese? '
p1050
aS'LOL :D :p'
p1051
aS'"i can\'t beat that nobody can beat that." cough cough gangnam style cough \ncough'
p1052
aS'wait, your japanese? i thought you were filipino or something.'
p1053
aS'That is exactly what I did 2 days ago.'
p1054
aS'lol look at his face on 1:40 so funny but he is still cute!'
p1055
aS'Ooooh! Ching chong, ling long, ding dong. XD '
p1056
aS'Love the Nigahiga version of Friday :)'
p1057
aS'Farting cat LOL'
p1058
aS"LMFAO I died laughing at Ryan's remake of tht song!"
p1059
aS"you're such a cute walrus xxD"
p1060
aS"I'd buy your version :p"
p1061
aS'lol walrus! i laughed till my sides hurt for some reason!'
p1062
aS'sooo funny '
p1063
aS'7 am and i go back to sleep'
p1064
aS'Aww we love you Niga ^~^'
p1065
aS"you're great!! man!!!"
p1066
aS'no body can beat that except PSY... '
p1067
aS"i have to leave bed for the schoolbus in 4 hours, however i can't stop \nwatching videos i've already seen! someone tell me what the cure is i'm so \ntired =("
p1068
aS'ROFL! PING PONG CHING CHEN CHONG YAO MING XD '
p1069
aS'I have a version 7am and go to the shower and sleep'
p1070
aS"So you're Japanese? lol I thought you were Chinese or Vietnamese or \nsomething :) "
p1071
aS'U can speak Japanese'
p1072
aS'What happened to ur lip'
p1073
aS'I thought he was korean....'
p1074
aS'who else saw this n the smosh pit '
p1075
aS'Lol'
p1076
aS'1:38 AURGH AURGH'
p1077
aS'OMG'
p1078
aS"Ryan, you're just so nice "
p1079
aS'Best song ever'
p1080
aS'PING PONG SHING SHONG YAO MING'
p1081
aS'I like the farting cat.'
p1082
aS'lol i love that song just kiddding teehee'
p1083
aS'LOL THE ENDING'
p1084
aS'Lol the ending'
p1085
aS'Shut up Kidz Bopz No one likes you!!!!'
p1086
aS'7am and i go back to sleep xd lol'
p1087
aS'Lmao i have to wake up 7 am when school starts... story of my upcoming \nlife...'
p1088
aS'WALRUS!!!!!!!!!!'
p1089
aS"Why the hell are people who make a comment with the line from the video \ngets like a hundred likes, and when you just comment it with something that \nis not a line from the video you just watched it get's zero likes?"
p1090
aS'How many views do my videos have? Meh, maybe 10.'
p1091
aS'thats exacly what I do in the morning'
p1092
aS'its 7am go back to sleep lok'
p1093
aS'7 AM and I go back to sleep!'
p1094
aS'look the ytf sign'
p1095
aS'I totally laughed hard. I think my brother could hear o3o'
p1096
aS'Dear Ryan, can u be sean?'
p1097
aS'cheap shot of ASIANS!!'
p1098
aS'I actually got 3 views in 2 and a half months, so there!'
p1099
aS'@thEgamerworldZ did we watch the same thing'
p1100
aS'Kids Bop SUCKS!!!!!!!!!!!!'
p1101
aS'Rebecca BLACK FRIDAY get it?????'
p1102
aS'Lol cheap shot at Asians'
p1103
aS'the video got removed! YESSSSSSSSSSSSSSSSSSSSS'
p1104
aS"No it didn't...."
p1105
aS'i have no idea, probably coz everyone agrees with ryan so its supporting \nhis lines.'
p1106
aS'psy can beat that :)'
p1107
aS'i actually thought he looked like charlie sheen. lol'
p1108
aS'Lol'
p1109
aS'I FOUND THE YTF!!!!!!!!!!! '
p1110
aS'7am and u go back to sleep'
p1111
aS'Seven am and i go back to sleep :D'
p1112
aS'Lol 7am I go back to sleep lol!!!'
p1113
aS'how do u know the asian guy from twilight'
p1114
aS'"7 am and I go back to sleep" loooooool!'
p1115
aS'Awesome'
p1116
aS'pause at 1:40'
p1117
aS'Japan, i think so...'
p1118
aS'or psy.'
p1119
aS'"7am and i go back to sleep"'
p1120
aS"I'm watching this on a Monday and I am now officially depressed. Only the \nday Friday can cure me."
p1121
aS'This deserves 1 billion views'
p1122
aS'He is haiwian'
p1123
aS'thats in america, stupid'
p1124
aS'"7am and I go back to sleep" LOL!'
p1125
aS'7am and I go back to sleep'
p1126
aS"Right after i wake up,i'd be crazy or stretch..........aaaaaaannnnd go back \nto sleep again.....lol. :-)"
p1127
aS'lol cant stop laughing at that ending 7am and i go back to sleep xD'
p1128
aS"It's great!"
p1129
aS'Haha'
p1130
aS'The wicked shall be turned into hell, [and] all the nations that forget \nGod.-Psalms 9:17 JESUS is the ONLY WAY TO HEAVEN John14:6 But as for the \ncowardly, the faithless, the polluted, as for murderers, fornicators, \nsorcerers, idolaters, and all liars, their lot shall be in the lake that \nburns with fire and sulphur, which is the second death Revelation 21:8 In \nflaming fire taking vengeance on them that know not God, and that obey not \nthe gospel of our Lord Jesus Christ -2 Thessalonians 1:8 '
p1131
aS'At the end "its seven a.m. And i go back to sleep" hella true!!!Haha.'
p1132
aS'yes that was a library, didnt you see THE book?'
p1133
aS'1:39. HAHAH'
p1134
aS'Oh man that was awesome!'
p1135
aS'Wee wee wee so excited'
p1136
aS'That is hilarious!'
p1137
aS'Who noticed th YTF in 2:21'
p1138
aS'Ching Ching chong lee'
p1139
aS"Gangnam style wit chuck Norris killing ningas would get more then30million \nviews I'm a month"
p1140
aS'He is heated bro'
p1141
aS'Gangnam...missclick'
p1142
aS'FRED CAN BEAT REBBECA'
p1143
aS'lol copyright by rebecca black '
p1144
aS'1:18 to 1:22 LMFAO!'
p1145
aS'Lol.'
p1146
aS'I get 5 views in a month... '
p1147
aS'Funny. Love the short version of the song (which is exactly what I do).'
p1148
aS'"Shut up kids bop, nobody likes you!" XD LMFAO'
p1149
aS'"ouch charlie....sheen" LOL XD!'
p1150
aS'so funny'
p1151
aS'Panese lol'
p1152
aS'When he said panes it sounded like panties'
p1153
aS'ROTFL at the Panese part!!!'
p1154
aS"Tomorrow's my b-day T__T p.s I don't like birthdays jk but really I dont "
p1155
aS'7 am and I go back to sleep. XD'
p1156
aS'Like if you have eyes, you mean.'
p1157
aS'I Think What You Said Is Kind Of ... Gay'
p1158
aS'Anyone notice the YTF'
p1159
aS'finally, I understand the " Panese", LOL!!^O^'
p1160
aS'The panese part lmaooo'
p1161
aS'7 am and i go back to sleep. Lol!!!'
p1162
aS"Is it weird I haven't watched Friday yet ? I think I'm gonna do that know"
p1163
aS'tearable XD'
p1164
aS'so true how can anyone get before 10:00 without difficulty '
p1165
aS"NigaHiga's version makes more sense for what happens in my life."
p1166
aS'HANGNAM STYLE BEAT IT!!!!'
p1167
aS'wanna see her face wen she sees this!! :P '
p1168
aS'ya but it was kinda blury'
p1169
aS'Like if you love ryan higa???'
p1170
aS'Lol Psy was able to beat that XD'
p1171
aS'I AGREE WITH YOU RYAN!'
p1172
aS'u mean: \n10000000000000000000000000000000000000000000000000000000000000000000000000000000000000000000000000000000000000000000000000000000000000000000000000000000000000000000000000000000000000000000000000000000000000000000000000000000000000000000000000000000000000000000000000000000000000000000000000000000000000000000000000000000000000000000000000000000000000000000000000000000000000000000000000000000000000000000000000000000000000000000000000000000000000000000x?'
p1173
aS'Ryan... Your lip is bleeding! :) your welcome'
p1174
aS'Aurw aurw...I fuckin spat out my coffee l'
p1175
aS'Love Japanese :DD'
p1176
aS"I'm LAUGIING so hard"
p1177
aS'and one of these: PSY '
p1178
aS'You know I knew WAY before the video even started someone was going to have \nthat as top comment...'
p1179
aS'7 am and I go back to sleep!! Hahahaha!!!!!!!'
p1180
aS'This is hilarious'
p1181
aS'right as you said walrus a walrus showed up on my TV'
p1182
aS'CHING CHONG LING LONG TING TONG'
p1183
aS'F*ck Of The Music Parody Of NigaHiga Was Copyright Screw you Rebbeca Black'
p1184
aS'Unless your Psy gang nam style.'
p1185
aS'"7 am and I go back to sleep." Best description of my life'
p1186
aS'Haaahahahahahahaha'
p1187
aS'That was... Two years ago?'
p1188
aS'Lol I like how they were both together on the ricki lake show'
p1189
aS'7am and I go back to sleep'
p1190
aS'this video is genius'
p1191
aS'at 2:19'
p1192
aS'WINNING !'
p1193
aS"she has 46'501'943 Views. thats 46'501'943 ruined lifes"
p1194
aS"or if you're PSY "
p1195
aS'I clicked to go see the actual video and it said it had a copyright claim \nby Rebecca Black and i\'m like " but i wanted to see it"'
p1196
aS'Ohhhhhh!'
p1197
aS'1:53 "Ooohhhh ping ping cheech and chong Yao Ming" haha.'
p1198
aS'Lmao'
p1199
aS'Better than Rebecca Black'
p1200
aS'LOL'
p1201
aS'Okay, that ching chong part is still having me laughing. I suck at speaking \nMandarin. '
p1202
aS"You're songs are comedic, which is what makes them better. She is actually \nserious about terrible music ._.'"
p1203
aS'I just saw the ricki show two'
p1204
aS'From laughing soo much'
p1205
aS'Does YTF stand for your to fat? Cause i know i am'
p1206
aS'LoL'
p1207
aS'I completely agree, that song SUCKED!'
p1208
aS"Hhahah today I saw the Ricki lake show and he was apologizing to Rebecca \nBlack.. that mustve been awkwarddd.. ugh i dont like her,. you're very nice \nto have apologized..if it were me? diff story.."
p1209
aS"yeah but you met Rebecca Black that day when you went to Riki Lake Show and \nyou said to her that you loved it! I personally don't like her song. THUMBS \nUP!!!"
p1210
aS'@ 2:22 if you click the anotation to see his parody, Rebecca Black filed \nDMCA on nigahiga'
p1211
aS'Like if you see the ytf at 2:23.'
p1212
aS'LMAOOO the last part got me laughing so bad XD'
p1213
aS'lol'
p1214
aS'\xe7\xa7\x81\xe3\x81\xaf\xe3\x81\x82\xe3\x81\xaa\xe3\x81\x9f\xe3\x81\x8c\xe3\x81\x99\xe3\x81\xb0\xe3\x82\x89\xe3\x81\x97\xe3\x81\x84\xe3\x81\xa0\xe3\x81\xa8\xe6\x80\x9d\xe3\x81\x86 <\xef\xbc\x93 (I hope that was correct! I am new to Japanese~ <3 ) \nAnyway! Love your videos! :D'
p1215
aS'He is today on a talk show..Lol!'
p1216
aS'1:43 '
p1217
aS'Omg I got the hikkups g'
p1218
aS'OH CRAP, IT GOT REUPLOADED! RUNNNNN!'
p1219
aS'Tru dat best'
p1220
aS"1:05 that reminds me of Robyn's stupid jokes on How I Met Your Mother."
p1221
aS'2:24 the story of my life :)'
p1222
aS'gangnam style can beat it XD'
p1223
aS'So funny..hahahah:D'
p1224
aS'The end was Halarious! xD'
p1225
aS'0:40 LOL'
p1226
aS'Your right NOBODY LIKES KIDSPOP'
p1227
aS'Lol the end'
p1228
aS'7am and i go back to sleep lol'
p1229
aS'True at the end'
p1230
aS'Are u jelly?'
p1231
aS'"we don\'t know how to speak in the good"'
p1232
aS'PSY beat that'
p1233
aS'Even though the it got a lot of views it has a lot of views because of \nhaters they watch it to hate it'
p1234
aS'did anyone watch this whole video just to see the last 11 seconds at the end'
p1235
aS'"Shutup kidzbop nobody even likes you!" The Truth'
p1236
aS'7am and I go back to sleep. LMFAO!'
p1237
aS'Lollolol ending is so funny'
p1238
aS'7am and I go back to sleep lol'
p1239
aS'"how many views do you get in a day?" *depressed face* -1'
p1240
aS'Way better than the original'
p1241
aS'7:AM and I go back to sleep!'
p1242
aS'The ending was tooo funny man!!!'
p1243
aS'Anyone see the YTF at 2:22 ?'
p1244
aS'Psy* did'
p1245
aS"He's Hawaiian. :)"
p1246
aS'You should include Psy in the list! 1 billion views o___o'
p1247
aS'FRIDAY WAS REMOVED DUE TO COPYRIGHT! WERE FINALLY FREE!'
p1248
aS'yes u can nigahiga u can beat her views'
p1249
aS'7am and I go back to sleep. Lmao'
p1250
aS'he did?'
p1251
aS'LOL'
p1252
aS'i came here to watch it again after he met rebecca black ..lol'
p1253
aS'and that awkward moment when u actually meet her.'
p1254
aS'"Seven am and i go back to sleep"'
p1255
aS'Lol at the end made me laugh expected something longer'
p1256
aS'He did! Check out his latest video on his second channel HigaTV!'
p1257
aS'Pay did'
p1258
aS'Seven a.m and I go back to sleep! LOL'
p1259
aS'Old, but gold.'
p1260
aS'Lollercoptering rofl'
p1261
aS'Awksawksawks when he met Rebecca black LOLOL'
p1262
aS'for real is he japanese??'
p1263
aS'Best song ever XD :D'
p1264
aS'This is so funny! Its old but its soo funny! Love you Ryan! LOLOLOL'
p1265
aS'psy has more hit that R. Black'
p1266
aS'1:39 Click it until you die'
p1267
aS'He met here'
p1268
aS'I died..'
p1269
aS'Please marry me?'
p1270
aS'The ending is me everyday'
p1271
aS'i watched until 0:12 and posted this... WHAT ARE YOU TALKING ABOUT? REBECCA \nBLACK IS AWESOME'
p1272
aS'Now I watch this with huge respect after seeing the Ricki Lake show & he \napologized . People do change for the better:) Ryan seems to be an amazing \nman'
p1273
aS'2:05 I just died'
p1274
aS'Dear Ryan: are u Japanese?? :D'
p1275
aS'lol Panese'
p1276
aS"Panese? I'll have to learn"
p1277
aS'7 am waking up gotta hit snooze.'
p1278
aS'Perfect ending.'
p1279
aS'Lol'
p1280
aS'so do you call pakistani people asians?'
p1281
aS'omg 7am and i go back to sleep ahahaahhaahahahahahahahhaha'
p1282
aS'THIS IS FREAKING FUNNY'
p1283
aS"i love this video, it's hilarious!"
p1284
aS'0:29 Gangnam style did that ;)'
p1285
aS'LOL awkward, they judt met on the Ricki Lake show'
p1286
aS'LOOL yep, I instantly thought how freaking awkward when they met before the \nshow.'
p1287
aS'...this is awkward.'
p1288
aS'lmfho xD'
p1289
aS' see the oppa gamnamstyle xD'
p1290
aS'LOL she prolly hasnt seen it though'
p1291
aS'And you met her'
p1292
aS'lol'
p1293
aS'The one where ryan meets rebecca?'
p1294
aS'nice'
p1295
aS'me! he must be embarrassed :D or maybe not?'
p1296
aS'Who else watched this after watching the video when ryan met Rebecca black? \nhaha :3'
p1297
aS"lol the funniest thing is that the views are on rebecca black but likes are \non ryans side xD n she getts views because people haven't seen shit like \nthat :D "
p1298
aS'gangnam style got that'
p1299
aS'wow that must have been awkwarddd when he met her hahaha'
p1300
aS"All of my videos put together isn't probably past 70. :P"
p1301
aS'Watched this after ryan met rebecca black on ricki lake.'
p1302
aS'love u bro lmao best parody ever '
p1303
aS'7 am and i go back to sleep LOL!'
p1304
aS'what is the video called?'
p1305
aS'Oppa gangnam style beat it XD'
p1306
aS'me lol'
p1307
aS'ryan and bieber'
p1308
aS'He just did.'
p1309
aS'If only, if only...'
p1310
aS'People click the link Rebecca black herself actually made a copyright \nclaim!!'
p1311
aS'he just did'
p1312
aS'That was the royal Swedish library.'
p1313
aS'Im bursting out laughing!!!!'
p1314
aS'I wonder that Rebecca black watch this video after the Ricki Lake Show \nHAHAHA'
p1315
aS'Regina is probably the only dumb asian.'
p1316
aS'Lol who come here after watching when ryan met rebecca black On higatv ??? \n:D'
p1317
aS'i like the other one better.kidding i love this one better'
p1318
aS'I prefer the other version... Jokes!!!!!!! I laughed so much when i saw \nthis vid :)'
p1319
aS"Now I'm REALLY waiting for Ryan to meet Justin Bieber. "
p1320
aS'dear Ryan can ur tongue touch ur nose?'
p1321
aS'Dear Ryan, can you make more of the pill rants.'
p1322
aS'Psy neat that. Loo'
p1323
aS'Y is ur lip bleeding(^_^)'
p1324
aS'troll Ryan'
p1325
aS"Rebecca Gained 35mil views. He sais he can't beat it and there's Nice Guys \nright next to the video 48mil views... :DDD "
p1326
aS'7 am and I go back to sleep xD'
p1327
aS'How did I not notice the YTF until I watched the "YTF" video? :('
p1328
aS'"Shut up Kidz Bop nobody even likes you!"'
p1329
aS'The ending though ahahahajahaahahaa'
p1330
aS'Luna Ryan niga is a Hawaiian'
p1331
aS'walrus! arpf arpf arpf! That was for honor! '
p1332
aS"I'd get more if you gave me a shout out! lol =)"
p1333
aS'7 a.m and i go back to sleep *sleeps* lmfao thats so me'
p1334
aS'Sunday Morning Rain is Falling'
p1335
aS'HAHAHA lollollol!!!!!!!!!!!'
p1336
aS'"Nobody can beat that." PSY did :P'
p1337
aS'I wonder what happened to ur cat'
p1338
aS'Screamed your life?'
p1339
aS'Gangam style beat that bad'
p1340
aS'I like your version better ryan!'
p1341
aS'no that was a seal lawl'
p1342
aS"it's 7 am and i go bak 2 sleep"
p1343
aS'2:19'
p1344
aS'"Ouch Charlie.... Sheen"'
p1345
aS'i like it'
p1346
aS'Gangnam style can beat that lol'
p1347
aS'1:42 Haha'
p1348
aS'Thumbs up if you think his version is better than hers!'
p1349
aS'PingPongCheechAndChongYaoMing'
p1350
aS'2:00 - "He speaks Panese" *Bangs pans*'
p1351
aS'Like if you find the ytf, not gonna show a clue where it is. '
p1352
aS'MOOOOOOOOO IM A DOG'
p1353
aS'Psy'
p1354
aS'Never mind'
p1355
aS'U have the same cat as me!'
p1356
aS'LOLOLOL'
p1357
aS'1:42 - 2:04'
p1358
aS'7am and I go back to sleep~'
p1359
aS'and in one year she has over 900,000 dislikes and 222,something likes and \nonly 45,000,000 views i bet you can beat that'
p1360
aS'YTF'
p1361
aS'dont worry about her views cuz u got more likes and less dislikes in this \nvid. so u beat her easily with less effort xD '
p1362
aS'Wow. Teehee'
p1363
aS"7 am and i go back to sleep, I screamed my life after that! I can't stop \nlaughing"
p1364
aS'Dear Ryan can u do pranks??'
p1365
aS"The first video I'm watching in 2013 just because of the end"
p1366
aS'hahahahahahah 7am and i go back to sleep'
p1367
aS'1:39 really funny :D '
p1368
aS'he just did..'
p1369
aS'Oh my god Rebecca lacks song sucks.. I mean what dj passes out in a yard.. \nAnd who just assumes she kissed a random guy? Thats just slightly weird..'
p1370
aS'Meow Im a cow'
p1371
aS'I sock and every time I laugh it ends up in a painful cough. But this, Ryan \nHiga, was worth all the painful coughing. (:'
p1372
aS'no fat man'
p1373
aS'I love the end'
p1374
aS'yes, we all watched the video. thank u very much'
p1375
aS"And still...after a couple years - it's better than the original!"
p1376
aS'umm... ok...'
p1377
aS'Your short friday version made lol ooh ryan ily.. :)'
p1378
aS' 7:00 AM and you relize that your late for school and your pricipal beats \nthe crap out of u xD'
p1379
aS"I died laughing at the end. I don't care what anybody says, you're videos \nare HILARIOUS at least 7-8 out of 10 times. AND NEVER stop making videos. \nAnd please don't shoot me for saying never. Haha. Yes I'm lame. *exits \nstage left*"
p1380
aS'Nobody can beat that? Psy has over a billion views in 4 months...'
p1381
aS'@JaneDoePop who???'
p1382
aS'Mines gets nothing its raeana has a pitch and im 8 now lol ceck it out plz \nleave a commet'
p1383
aS"no i like your videos but she is amazing don't get mad if she has more \nviews "
p1384
aS'Infamous would fit better because he was very well known...but not for \ndoing anything honorable.'
p1385
aS'"7:00 AM And I go back to sleep!" Cracked me up.'
p1386
aS"Hahahaha i love this vid though i still listen 'friday' every friday ;)"
p1387
aS'OOOOOOOOOOOOOOOOOOOOOOOOOOO'
p1388
aS'My video only has 3.8 million views =('
p1389
aS'psy can beat 32 million......'
p1390
aS'Dear Haters, Get a life...'
p1391
aS'2:23 ytf'
p1392
aS'That was funny'
p1393
aS"You're Japanese?"
p1394
aS'....I hope you realize hitler was born 123 years ago....'
p1395
aS'You try and get an entire nation of people to follow your every desire, no \nmatter how crazy or vile. He might not have been the most popular person \naround, but he was extremely successful, in his own way. Never has there \nbeen a more successful politician.'
p1396
aS"Success is getting the outcome you want. I'm pretty sure his own death and \ninfamy was not the outcome he wanted. But please just shut up and watch \nvideos. -_-"
p1397
aS'The end was the true story of my life. '
p1398
aS'Psy beat rebecca.'
p1399
aS'Lol 7a.m. and I go back to sleep ROFL'
p1400
aS"united states is like the world' s most hated country and its pretty \nsuccesful in some aspects..."
p1401
aS'I think "famous" fits better the context because he was a very well known \nman.'
p1402
aS'1:40 ~ cute =D Ialways watch Ryan Higa to reduce stress.. ahahahah.... \nThanks to Ryan and friends...'
p1403
aS"Dear Ryan, you're just awesome! :)))"
p1404
aS'I still think this is better than the original cause she is one fucking \nidiot '
p1405
aS'Hey Ryan your better I love your funny Videos yes and she was being cheep \nshotting asians and tell the panese guy that ping ping ting ting ling ling '
p1406
aS'ur so.... stupid'
p1407
aS'7 AM AND I GO BACK TO SLEEP :D:D LOL AHAHAHAHHAAHHA'
p1408
aS'7 am can I go back to sleep'
p1409
aS"OUCH!!...charlie! .....sheen :o :'DDDDD "
p1410
aS'did anyone else notice the ytf in his song on top oh his sheets?'
p1411
aS'dear ryan, Can you speak Japanese '
p1412
aS"Success is the result of a favorable outcome. I don't think anybody except \nhilter, his men and the Germans, thought this was funny or right in anyway \nto kill Millions of human beings because of their faith. Success doesn't \ninvolve force,or brutal punishments and camping innocents, it involves \nachieving something to make better of yourself with positive outlook. "
p1413
aS'psy did beat her..'
p1414
aS'haha wish this was uploaded recently, a fat asian guy at 0:44 woulda been \ntight xD'
p1415
aS"actually they never found his body so he could be planing another attack \nand this time it mite work because us is already weak plus they could get \nhelp from north korea so we might not win ww3 :'("
p1416
aS'Lol!!!! I laughed so hard at that last part!!!! Epic song!lol'
p1417
aS'@JaneDoePop The US gets hate because of Murica'
p1418
aS'7 am I go to sleep the e d lol'
p1419
aS"omg not this again...acc he was successfull or he wouldn't have been the \n'F\xc3\xbchrer' of Germany considering the fact that he was actually Austrian and \nall...being able to kill thousands of people without any resistance.... but \npls just shut up and watch videos -.- "
p1420
aS'Your right she must be semi good if she got so many views ?\xc2\xbf?\xc2\xbf?'
p1421
aS'Oooooh'
p1422
aS'no offense to Rebecca black but...I really prefer to pick nigahiga...OH AND \nI TOTALLY CRACKED UP WHEN NIGAHIGA SAID" its 7:00 and I go back to sleep"'
p1423
aS'Lolololololololololololololol.... Unstoppable laugh.. "7 am I go back to \nsleep, teehee"'
p1424
aS'OMG this is fucking awesome! '
p1425
aS"OMG the end! Hahahahahahahahah! I'm still dying! Lool"
p1426
aS"I don't even know why I'm here IDK how to read"
p1427
aS'Epic!! '
p1428
aS'haha love the ending so funny! and i love the part "i dont know why im here \ni dont know how to read" i lauged so hard!!!!!!!!!!! and i repeated the \npart like 15 times!!!!!!!!!!'
p1429
aS'7 AM n I go back to sleep. Heck yeah!'
p1430
aS'7am and i go back to sleep! Heck yeah!!'
p1431
aS'Pause at 2:23, it says ytf in the top right corner'
p1432
aS'@haileyl12001'
p1433
aS'Gangnam style'
p1434
aS'Ouch Charlie....Sheen'
p1435
aS'just because we dont know how to speak int he good'
p1436
aS"2:24 please tell me I'm not the only one who saw the little YTF in the \ncorner of the screen"
p1437
aS'Yeah, that would be cool!'
p1438
aS'"7 am and I go back to sleep" something EVERYONE wants to do EVERYDAY lol '
p1439
aS'Psy can beat that'
p1440
aS'True story'
p1441
aS'I like your version lmao'
p1442
aS'The Friday video version is so realistic xD'
p1443
aS'I am your fan'
p1444
aS'I love anime!!!!!'
p1445
aS"That's the point. It's short and instead of him going on and on, he falls \nasleep."
p1446
aS"He was forced to commit suicide and became one of the world's most hated \nmen. What planet do you live on in which that is considered in any way \nsuccessful?"
p1447
aS'Epic song.. Lol'
p1448
aS'love your version ryan '
p1449
aS'Hey I Asian too'
p1450
aS'but her lyrics just repeat...it sounds like a broken record....oh and after \nsunday is ...m...mon....mond.....WEDNESDAY!!! YAYAYAYAYAY jks'
p1451
aS'The walrus impersonation was a crack up!'
p1452
aS'or you are psy '
p1453
aS'I get that much, but still, Its really cool, and I want to hear what it \nwould be like if he did more.'
p1454
aS'the video was copyrighted lol'
p1455
aS'take your pills...'
p1456
aS'I have been on Youtube for almost 4 years now, And I\'ve gone through many \ndifferent channels trying to get "Big". But It never happens. The most \nSubscribers I\'ve ever had was 300, but 250 of them were inactive. Now I \nhave 92 Subscribes, And I\'m happier because they are Real, Active \nSubscribers. So If you could come to my channel for 30 seconds you might \nlike my videos Anyway thanks for reading this far into my Comment, and If \nyou have then maybe leave a like so other people could see this.'
p1457
aS'He or she said yoe Ming'
p1458
aS"If I didn't have school that would be me!"
p1459
aS'7 A.M and go back to sleep'
p1460
aS'2:23 ytf'
p1461
aS'7am and I go back to sleep'
p1462
aS'are u really japanese '
p1463
aS'the ending made the video 100 times better'
p1464
aS'She has 50 million views :)'
p1465
aS'4 words... what the hell wasthat :DDD im done.. god.. '
p1466
aS'Gangnam style beat that...'
p1467
aS'Or psy'
p1468
aS'LOL "I don\'t know why I\'m here, I don\'t how to read"'
p1469
aS'1:52 did she said yao ming and pingpong '
p1470
aS'I actually know rebecca black in real life.'
p1471
aS'Lol I died from laughing'
p1472
aS'He did on the Ricki Lake Show. '
p1473
aS'Oh my goodness... These are so funny!'
p1474
aS'10 views a month for me lol'
p1475
aS'Lol 1:40'
p1476
aS'Dear Ryan, Can you make the song longer? It was really good and I want to \nhear more!'
p1477
aS'I have been on Youtube for almost 4 years now, And I\'ve gone through many \ndifferent channels trying to get "Big". But It never happens. The most \nSubscribers I\'ve ever had was 300, but 250 of them were inactive. Now I \nhave 34 Subscribes, And I\'m happier because they are Real, Active \nSubscribers. So If you could come to my channel for 30 seconds you might \nlike my videos Anyway thanks for reading this far into my Comment, and If \nyou have then maybe leave a like so other people could see this.'
p1478
aS'she killed herself after she posted tht video'
p1479
aS'Lol!!!!!'
p1480
aS'HAHAH 1:39 '
p1481
aS'panese...'
p1482
aS'Your right it is terrible I hate her singing'
p1483
aS'Lololololz...'
p1484
aS'actually he got more views. friday is deleted'
p1485
aS'this guy is right it was just a waste of time for her'
p1486
aS'2:23 epic face'
p1487
aS'watch?v=kfVsfOSbJY0'
p1488
aS'THIS ALWAYS PUTS A SMILE ON Y FACE. ALWAYS O.O'
p1489
aS'"i dont even know im here. i dont know how to read" <3 it'
p1490
aS'no its not? i JUST watched it..'
p1491
aS'Oh shut up kids bop no one even likes you lol'
p1492
aS'Everyone who liked that comment will try and get a free Ipad. Everyone who \ntried will fail.'
p1493
aS'no... she got 45,058,657 views... Ryan got 12,246,716 views...'
p1494
aS"She didn't write the song..."
p1495
aS'1:38 ARGH ARGH'
p1496
aS'Lol'
p1497
aS'Thumbs up if you are watching this on Friday'
p1498
aS"I CAN'T STOP WATCHING THE END"
p1499
aS'Ehm gangnam style got 184784 views in a month'
p1500
aS'7 am gonna go back to sleep . XD . So much realistic than Rebecca song XD \nhahaha'
p1501
aS'he is japanese?'
p1502
aS'PARTY AND PARTY AND YEAH!!! :P'
p1503
aS'Shut Up Kidz Bop! NO ONE LIKES YOU! LOL'
p1504
aS'i finally got the racist part xD'
p1505
aS'Seven am and i go back to sleep..... story of my life :p'
p1506
aS'his charlie bit my finger impersonation was freakin funny'
p1507
aS'i have watched this sooo many times :p it never gets old! :D'
p1508
aS'So funny!'
p1509
aS'im dying of laughter'
p1510
aS'Guess how much views she got...... More!'
p1511
aS"I LOVE it lol... 7am and i go back to sleep.. XDXDXD f*ckin' hilarious..."
p1512
aS'Walrus!!! aaraar'
p1513
aS'Lololololol'
p1514
aS'Much better and more realistic'
p1515
aS'So funny'
p1516
aS'The ending was priceless!!'
p1517
aS'did any 1 else notice the secret ytf @ the end???'
p1518
aS'He has serious A.D.D'
p1519
aS'7 AM and I go back to sleep xD lmao'
p1520
aS'Lmao XD'
p1521
aS"haha congratulation, you fell in love with a japanese - american guy XD I \nguess you're not the only one, many girls love him^^ "
p1522
aS'1:39... your welcome.'
p1523
aS'yes, its 1:43'
p1524
aS'Music at the end "seven days and i go back to sleep THE END teehee'
p1525
aS"And yes, that was a library! Didn't you see the book!? Seems legit."
p1526
aS'2:23 - 2:27 My life story. XD '
p1527
aS'nobody can beat her but PSY can'
p1528
aS'I can watch the end a 7 million times and still laugh at it'
p1529
aS'psy beat her in 1 month'
p1530
aS'R.B. got 35mil views in a month. I get 35. Just 35. In a month. -_-'
p1531
aS'Ryan, PSY can beat Rebecca Black '
p1532
aS'ryan at :30 your lip was bleeding just sayin '
p1533
aS'the ending is fucking epic!'
p1534
aS'I saw Hanate #TeamHanate'
p1535
aS'How about these girls? youtubecom/watch?v=__HeE6NWmDE '
p1536
aS"Are you really Japanese? If so, THAT'S AWESOME~!! I speak Japanese. :P"
p1537
aS'Gangnam Style got more views and it was loved by so many. This was 2011, \nbefore IT happened'
p1538
aS"Wow, Rebecca is hatin'...the link to her video has been blocked. Maybe \nthat's a good thing. Great Panese!"
p1539
aS"0:13 No Nigahiga, thank God you're not! xD Your music is wayyyy better ^^"
p1540
aS'7:00 a.m. & i go back 2 sleep...lol'
p1541
aS'lol'
p1542
aS'lol this was on my birthday just relized that'
p1543
aS'"Yaaaaay!" "SHUT UP KIDZ BOP NO ONE LIKES YOU!!!!!!!" I lost all my crap'
p1544
aS"i've heard yaoming there.. 1:55"
p1545
aS"2:24 I can not stop laughing! :'D Bhahahahahahahahahahahaha "
p1546
aS'gangnam style beat that'
p1547
aS'How did he not laugh wile singing that part'
p1548
aS'click 1 repeatedly to see Ryan throw up.'
p1549
aS'Ooooohhh PING PONG CHEECH-AND-CHONG YAO MING XD'
p1550
aS'OMFG im watching this on friday'
p1551
aS'7 am and I go back to sleep XD'
p1552
aS'How did you know i go back to sleep? are you that guy in my room at \nnight??? HMM!?!'
p1553
aS'actually, 1:42 or 1:43'
p1554
aS'i hate that song -_- '
p1555
aS'0:32 except for PSY'
p1556
aS'ping pong ling long ting tong lol hahah....... xD'
p1557
aS"Ryan: Yes that was a library didn't you see the book Me *facepalm*"
p1558
aS'1:44 dat was from chonny lol'
p1559
aS'Winning'
p1560
aS'\xe2\x9d\xa4\xe2\x9d\xa4\xe2\x9d\xa4\xe2\x9d\xa4\xe2\x9d\xa4\xe2\x9d\xa4\xe2\x9d\xa4\xe2\x9d\xa4\xe2\x9d\xa4\xe2\x9d\xa4\xe2\x9d\xa4\xe2\x9d\xa4\xe2\x9d\xa4\xe2\x9d\xa4\xe2\x9d\xa4\xe2\x9d\xa4\xe2\x9d\xa4\xe2\x9d\xa4\xe2\x9d\xa4\xe2\x9d\xa4\xe2\x9d\xa4\xe2\x9d\xa4\xe2\x9d\xa4\xe2\x9d\xa4\xe2\x9d\xa4\xe2\x9d\xa4\xe2\x9d\xa4\xe2\x9d\xa4\xe2\x9d\xa4\xe2\x9d\xa4\xe2\x9d\xa4\xe2\x9d\xa4\xe2\x9d\xa4\xe2\x9d\xa4\xe2\x9d\xa4\xe2\x9d\xa4\xe2\x9d\xa4\xe2\x9d\xa4\xe2\x9d\xa4\xe2\x9d\xa4\xe2\x9d\xa4\xe2\x9d\xa4\xe2\x9d\xa4\xe2\x9d\xa4\xe2\x9d\xa4\xe2\x9d\xa4\xe2\x9d\xa4\xe2\x9d\xa4\xe2\x9d\xa4\xe2\x9d\xa4\xe2\x9d\xa4\xe2\x9d\xa4\xe2\x9d\xa4\xe2\x9d\xa4\xe2\x9d\xa4\xe2\x9d\xa4\xe2\x9d\xa4\xe2\x9d\xa4\xe2\x9d\xa4\xe2\x9d\xa4\xe2\x9d\xa4\xe2\x9d\xa4\xe2\x9d\xa4\xe2\x9d\xa4\xe2\x9d\xa4\xe2\x9d\xa4\xe2\x9d\xa4\xe2\x9d\xa4\xe2\x9d\xa4\xe2\x9d\xa4\xe2\x9d\xa4\xe2\x9d\xa4\xe2\x9d\xa4\xe2\x9d\xa4\xe2\x9d\xa4\xe2\x9d\xa4\xe2\x9d\xa4\xe2\x9d\xa4\xe2\x9d\xa4\xe2\x9d\xa4\xe2\x9d\xa4\xe2\x9d\xa4\xe2\x9d\xa4\xe2\x9d\xa4\xe2\x9d\xa4\xe2\x9d\xa4\xe2\x9d\xa4\xe2\x9d\xa4\xe2\x9d\xa4\xe2\x9d\xa4\xe2\x9d\xa4\xe2\x9d\xa4\xe2\x9d\xa4\xe2\x9d\xa4\xe2\x9d\xa4\xe2\x9d\xa4\xe2\x9d\xa4\xe2\x9d\xa4\xe2\x9d\xa4\xe2\x9d\xa4\xe2\x9d\xa4\xe2\x9d\xa4\xe2\x9d\xa4\xe2\x9d\xa4\xe2\x9d\xa4\xe2\x9d\xa4\xe2\x9d\xa4\xe2\x9d\xa4\xe2\x9d\xa4\xe2\x9d\xa4\xe2\x9d\xa4\xe2\x9d\xa4\xe2\x9d\xa4\xe2\x9d\xa4\xe2\x9d\xa4\xe2\x9d\xa4\xe2\x9d\xa4\xe2\x9d\xa4\xe2\x9d\xa4\xe2\x9d\xa4\xe2\x9d\xa4\xe2\x9d\xa4\xe2\x9d\xa4\xe2\x9d\xa4\xe2\x9d\xa4\xe2\x9d\xa4\xe2\x9d\xa4\xe2\x9d\xa4\xe2\x9d\xa4\xe2\x9d\xa4\xe2\x9d\xa4\xe2\x9d\xa4\xe2\x9d\xa4\xe2\x9d\xa4\xe2\x9d\xa4\xe2\x9d\xa4\xe2\x9d\xa4\xe2\x9d\xa4\xe2\x9d\xa4\xe2\x9d\xa4\xe2\x9d\xa4\xe2\x9d\xa4\xe2\x9d\xa4\xe2\x9d\xa4\xe2\x9d\xa4\xe2\x9d\xa4\xe2\x9d\xa4\xe2\x9d\xa4\xe2\x9d\xa4\xe2\x9d\xa4\xe2\x9d\xa4\xe2\x9d\xa4\xe2\x9d\xa4\xe2\x9d\xa4\xe2\x9d\xa4\xe2\x9d\xa4\xe2\x9d\xa4\xe2\x9d\xa4\xe2\x9d\xa4\xe2\x9d\xa4\xe2\x9d\xa4\xe2\x9d\xa4\xe2\x9d\xa4\xe2\x9d\xa4\xe2\x9d\xa4\xe2\x9d\xa4\xe2\x9d\xa4\xe2\x9d\xa4\xe2\x9d\xa4\xe2\x9d\xa4\xe2\x9d\xa4\xe2\x9d\xa4\xe2\x9d\xa4\xe2\x9d\xa4\xe2\x9d\xa4\xe2\x9d\xa4\xe2\x9d\xa4\xe2\x9d\xa4\xe2\x9d\xa4\xe2\x9d\xa4\xe2\x9d\xa4\xe2\x9d\xa4\xe2\x9d\xa4\xe2\x9d\xa4\xe2\x9d\xa4\xe2\x9d\xa4\xe2\x9d\xa4\xe2\x9d\xa4\xe2\x9d\xa4\xe2\x9d\xa4\xe2\x9d\xa4\xe2\x9d\xa4\xe2\x9d\xa4\xe2\x9d\xa4\xe2\x9d\xa4\xe2\x9d\xa4\xe2\x9d\xa4\xe2\x9d\xa4\xe2\x9d\xa4\xe2\x9d\xa4\xe2\x9d\xa4\xe2\x9d\xa4\xe2\x9d\xa4\xe2\x9d\xa4\xe2\x9d\xa4\xe2\x9d\xa4\xe2\x9d\xa4\xe2\x9d\xa4\xe2\x9d\xa4\xe2\x9d\xa4\xe2\x9d\xa4\xe2\x9d\xa4\xe2\x9d\xa4\xe2\x9d\xa4\xe2\x9d\xa4\xe2\x9d\xa4\xe2\x9d\xa4\xe2\x9d\xa4\xe2\x9d\xa4\xe2\x9d\xa4\xe2\x9d\xa4\xe2\x9d\xa4\xe2\x9d\xa4\xe2\x9d\xa4\xe2\x9d\xa4\xe2\x9d\xa4\xe2\x9d\xa4\xe2\x9d\xa4\xe2\x9d\xa4\xe2\x9d\xa4\xe2\x9d\xa4\xe2\x9d\xa4\xe2\x9d\xa4\xe2\x9d\xa4\xe2\x9d\xa4\xe2\x9d\xa4\xe2\x9d\xa4\xe2\x9d\xa4\xe2\x9d\xa4\xe2\x9d\xa4\xe2\x9d\xa4\xe2\x9d\xa4\xe2\x9d\xa4\xe2\x9d\xa4\xe2\x9d\xa4\xe2\x9d\xa4\xe2\x9d\xa4\xe2\x9d\xa4\xe2\x9d\xa4\xe2\x9d\xa4\xe2\x9d\xa4\xe2\x9d\xa4\xe2\x9d\xa4\xe2\x9d\xa4\xe2\x9d\xa4\xe2\x9d\xa4\xe2\x9d\xa4\xe2\x9d\xa4\xe2\x9d\xa4\xe2\x9d\xa4\xe2\x9d\xa4\xe2\x9d\xa4\xe2\x9d\xa4\xe2\x9d\xa4\xe2\x9d\xa4\xe2\x9d\xa4\xe2\x9d\xa4\xe2\x9d\xa4\xe2\x9d\xa4\xe2\x9d\xa4\xe2\x9d\xa4\xe2\x9d\xa4\xe2\x9d\xa4\xe2\x9d\xa4\xe2\x9d\xa4\xe2\x9d\xa4\xe2\x9d\xa4\xe2\x9d\xa4\xe2\x9d\xa4\xe2\x9d\xa4\xe2\x9d\xa4\xe2\x9d\xa4\xe2\x9d\xa4\xe2\x9d\xa4\xe2\x9d\xa4\xe2\x9d\xa4\xe2\x9d\xa4\xe2\x9d\xa4\xe2\x9d\xa4\xe2\x9d\xa4\xe2\x9d\xa4\xe2\x9d\xa4\xe2\x9d\xa4\xe2\x9d\xa4\xe2\x9d\xa4\xe2\x9d\xa4\xe2\x9d\xa4\xe2\x9d\xa4\xe2\x9d\xa4\xe2\x9d\xa4\xe2\x9d\xa4\xe2\x9d\xa4\xe2\x9d\xa4\xe2\x9d\xa4\xe2\x9d\xa4\xe2\x9d\xa4\xe2\x9d\xa4\xe2\x9d\xa4\xe2\x9d\xa4\xe2\x9d\xa4\xe2\x9d\xa4\xe2\x9d\xa4\xe2\x9d\xa4\xe2\x9d\xa4\xe2\x9d\xa4\xe2\x9d\xa4\xe2\x9d\xa4\xe2\x9d\xa4\xe2\x9d\xa4\xe2\x9d\xa4\xe2\x9d\xa4\xe2\x9d\xa4\xe2\x9d\xa4\xe2\x9d\xa4\xe2\x9d\xa4\xe2\x9d\xa4\xe2\x9d\xa4\xe2\x9d\xa4\xe2\x9d\xa4\xe2\x9d\xa4\xe2\x9d\xa4\xe2\x9d\xa4\xe2\x9d\xa4\xe2\x9d\xa4\xe2\x9d\xa4\xe2\x9d\xa4\xe2\x9d\xa4\xe2\x9d\xa4\xe2\x9d\xa4\xe2\x9d\xa4\xe2\x9d\xa4\xe2\x9d\xa4\xe2\x9d\xa4\xe2\x9d\xa4\xe2\x9d\xa4\xe2\x9d\xa4\xe2\x9d\xa4\xe2\x9d\xa4\xe2\x9d\xa4\xe2\x9d\xa4\xe2\x9d\xa4\xe2\x9d\xa4\xe2\x9d\xa4\xe2\x9d\xa4\xe2\x9d\xa4\xe2\x9d\xa4\xe2\x9d\xa4\xe2\x9d\xa4\xe2\x9d\xa4\xe2\x9d\xa4\xe2\x9d\xa4\xe2\x9d\xa4\xe2\x9d\xa4\xe2\x9d\xa4\xe2\x9d\xa4\xe2\x9d\xa4\xe2\x9d\xa4\xe2\x9d\xa4\xe2\x9d\xa4\xe2\x9d\xa4\xe2\x9d\xa4\xe2\x9d\xa4\xe2\x9d\xa4\xe2\x9d\xa4\xe2\x9d\xa4\xe2\x9d\xa4\xe2\x9d\xa4\xe2\x9d\xa4\xe2\x9d\xa4\xe2\x9d\xa4\xe2\x9d\xa4\xe2\x9d\xa4\xe2\x9d\xa4\xe2\x9d\xa4\xe2\x9d\xa4\xe2\x9d\xa4\xe2\x9d\xa4\xe2\x9d\xa4\xe2\x9d\xa4\xe2\x9d\xa4\xe2\x9d\xa4\xe2\x9d\xa4\xe2\x9d\xa4\xe2\x9d\xa4\xe2\x9d\xa4\xe2\x9d\xa4\xe2\x9d\xa4\xe2\x9d\xa4\xe2\x9d\xa4\xe2\x9d\xa4\xe2\x9d\xa4\xe2\x9d\xa4\xe2\x9d\xa4\xe2\x9d\xa4\xe2\x9d\xa4\xe2\x9d\xa4\xe2\x9d\xa4\xe2\x9d\xa4\xe2\x9d\xa4\xe2\x9d\xa4\xe2\x9d\xa4\xe2\x9d\xa4\xe2\x9d\xa4\xe2\x9d\xa4\xe2\x9d\xa4\xe2\x9d\xa4\xe2\x9d\xa4\xe2\x9d\xa4\xe2\x9d\xa4\xe2\x9d\xa4\xe2\x9d\xa4\xe2\x9d\xa4\xe2\x9d\xa4\xe2\x9d\xa4\xe2\x9d\xa4\xe2\x9d\xa4\xe2\x9d\xa4\xe2\x9d\xa4\xe2\x9d\xa4\xe2\x9d\xa4\xe2\x9d\xa4\xe2\x9d\xa4\xe2\x9d\xa4\xe2\x9d\xa4\xe2\x9d\xa4\xe2\x9d\xa4\xe2\x9d\xa4\xe2\x9d\xa4\xe2\x9d\xa4\xe2\x9d\xa4\xe2\x9d\xa4\xe2\x9d\xa4\xe2\x9d\xa4\xe2\x9d\xa4\xe2\x9d\xa4\xe2\x9d\xa4\xe2\x9d\xa4\xe2\x9d\xa4\xe2\x9d\xa4\xe2\x9d\xa4\xe2\x9d\xa4\xe2\x9d\xa4\xe2\x9d\xa4\xe2\x9d\xa4\xe2\x9d\xa4\xe2\x9d\xa4\xe2\x9d\xa4\xe2\x9d\xa4\xe2\x9d\xa4\xe2\x9d\xa4\xe2\x9d\xa4\xe2\x9d\xa4\xe2\x9d\xa4\xe2\x9d\xa4\xe2\x9d\xa4\xe2\x9d\xa4\xe2\x9d\xa4\xe2\x9d\xa4\xe2\x9d\xa4\xe2\x9d\xa4\xe2\x9d\xa4\xe2\x9d\xa4\xe2\x9d\xa4\xe2\x9d\xa4\xe2\x9d\xa4\xe2\x9d\xa4\xe2\x9d\xa4\xe2\x9d\xa4\xe2\x9d\xa4\xe2\x9d\xa4\xe2\x9d\xa4\xe2\x9d\xa4\xe2\x9d\xa4\xe2\x9d\xa4\xe2\x9d\xa4\xe2\x9d\xa4\xe2\x9d\xa4\xe2\x9d\xa4\xe2\x9d\xa4\xe2\x9d\xa4\xe2\x9d\xa4\xe2\x9d\xa4\xe2\x9d\xa4\xe2\x9d\xa4\xe2\x9d\xa4\xe2\x9d\xa4\xe2\x9d\xa4\xe2\x9d\xa4\xe2\x9d\xa4\xe2\x9d\xa4'
p1561
aS'i dont want to be mean but 5 words WAT THE HELL WAS THAT '
p1562
aS'Um he means in a Month...'
p1563
aS'Haha laugh so hard , and , your Friday version is much better :)'
p1564
aS'RYAN this is sOooo funnyy!!!!!!!'
p1565
aS'Omg died!'
p1566
aS'there is something wrong with anyone who dislikes your videos...GO DRINK \nYOUR HATER-ADE SOMEWHERE ELSE!'
p1567
aS"THAT'S TRUE NOOOOO ONE LIKES KIDSBOP"
p1568
aS'LOL!'
p1569
aS'if that was a library shouldnt there be a old lady librarian to tell then \nto shush because the were so loud especially the guy who speaks panese?? '
p1570
aS'Looking back I think Rebecca black could be way better than Justin biever \nand his crap'
p1571
aS'I like his better!'
p1572
aS'everyone'
p1573
aS'ryan, u make my day.'
p1574
aS'2:23 YTF!!'
p1575
aS'1:05 - actually ryan some people use an umbrella to keep the sun out of \ntheir eyes.'
p1576
aS'Down with Rebecca black!'
p1577
aS'LOL'
p1578
aS"Didn't you see the book?"
p1579
aS'My favorite new phrase, the 4 words: what the hell wasthat'
p1580
aS'in your dreams'
p1581
aS'gangman style beat the crap out of this song and bieber'
p1582
aS'7am then I go back to sleep lolxD'
p1583
aS'Love this version WAYYY better tehe'
p1584
aS'7:00 A.M. and i go back to sleep. zzzzzz...'
p1585
aS'Your lips were bleeding..'
p1586
aS"You're Japanese??? I thought you were Korean....were you....joking?? o__o \nI'm Japanese. And. Yeah. o__o"
p1587
aS'AR AR AR! LOL XD made my day!'
p1588
aS'funny luv it'
p1589
aS'7:00 AM and i go back to sleep.... TEEHEE'
p1590
aS'shut up!'
p1591
aS'that just wat i did today and wen i watched thius video wat the hell \nwasthat is five words i like ouch charlie sheen hahaha lol'
p1592
aS'1:39 LOL'
p1593
aS"I don't speak panese! lol"
p1594
aS'Yea about that length'
p1595
aS'i agree with u ryan...... its pretty surprising tht she got more views than \nu o.o'
p1596
aS'LOL XD'
p1597
aS'SEVEN AM AND I GO BACK TO SLEEP OH MY GOD LAUGHING LIKE HELL \nTrololololololol'
p1598
aS'Awesome'
p1599
aS"7AM AND I GO BACK TO SLEEP' Luv it luv u nigahiga and creative mind"
p1600
aS"I don't know why im here, I don't know how to read! "
p1601
aS'u hav 5 million views'
p1602
aS'what happened to your lip? and no i wasnt staring the entire time..eheheh \neheh.... awko taco.'
p1603
aS"I don't understand why justin bieber gets mentioned in every video... Its \ngetting annoying! Your the one giving him attention and making him famous! \nBesides no one would actually hate him after you know who he really is -,-"
p1604
aS'Did anyone else see the ytf at 2:22'
p1605
aS'hahahahahahaha LOL'
p1606
aS'what the hell wasthat - yes... 4 words'
p1607
aS'BEST ending.... EVER!'
p1608
aS"Thank you vary much, you see I don't have speakers. "
p1609
aS'/watch?v=kfVsfOSbJY0'
p1610
aS"nope..!!he's not chinese..duh he's a japanese...ok..."
p1611
aS'Last part is exactly me LOL'
p1612
aS'And a million dislikes'
p1613
aS'1:40...That shape XP'
p1614
aS'If you click on the link for the original video: "Rebecca Black - Fri..." \nThis video is no longer available due to a copyright claim by Rebecca Black.'
p1615
aS'222,011 like'
p1616
aS'i like'
p1617
aS'Dear Ryan..... Can you do a Gangnam style parody?'
p1618
aS'2:11 lol'
p1619
aS'Who else saw the ytf right before he said 7 am'
p1620
aS'No'
p1621
aS'if my mathematics are right, yesterday was Thursday and tomorrow is \nSaturday....lmao..(or something like that)lmfao'
p1622
aS'do a "It\'s thanksgiving" video!'
p1623
aS'the charlie sheen shit was funny. '
p1624
aS'4 words............. what the hell wasthat'
p1625
aS'2:19 '
p1626
aS'right now you have 21, 176, 660'
p1627
aS'she had to copyright it because she knows she sucks. to see what i mean \nclick the link to the real video in the description'
p1628
aS'That last bit had me cracking up mega time.'
p1629
aS'Thumbs up if you went back when he said "didn\'t you see the book?"'
p1630
aS'Panese LOLLLLLLLLLL =)))))'
p1631
aS'she has more dislikes then your videos xD '
p1632
aS"partyin' with the kids from kids bop! AWWWWW YEEEEAAAAAHHH"
p1633
aS'i never wake up at 7 am unless there is school. and it was so much better \nthan rebecca black'
p1634
aS'7am and i go back to sleep,.........hell yeah'
p1635
aS'gangnam style beat it'
p1636
aS'Ching chong ling long ting tong ^-^'
p1637
aS'7am and i go back to sleep! genius'
p1638
aS'Dear Ryan, can you be santa claus?????????? '
p1639
aS'panesse language cool >< '
p1640
aS'Yes, you should do a gangnam style parody'
p1641
aS'7:00 A.M. and I go back to sleep awesome song LOL'
p1642
aS"This video doesn't make any sense.Anyway its kinda funny."
p1643
aS'LOL EVERY ONE NEEDS TO SEE THIS ok so click the link for the friday video \nyou will lol and one else?'
p1644
aS'I gotta admit it was better the 5 sec music video that he made than Rebecca \nblack did in like what 4 minutes?'
p1645
aS'Haha'
p1646
aS'trolled xD'
p1647
aS'22,000th like'
p1648
aS'Panese lol'
p1649
aS'I like your version much better. Much more relatable.'
p1650
aS"1:43 when i can't come up with anything else to say in an argument "
p1651
aS'Dear Ryan : can you be a merine????? '
p1652
aS'lol '
p1653
aS'1:28 IDK,WHY IM HERE IDK HOW TO READ HA! HA!'
p1654
aS'Ouch Charlie... Sheen'
p1655
aS'DAT ENDING '
p1656
aS"They say it's only in the US because only americans would believe such a \nstupid scam."
p1657
aS"She didn't write the song her mom paid some guys 4thousands to write the \nsong"
p1658
aS'when ever i say some with with the word chinise in it he is like; THATS \nRACIST! like this: me: i think i will be china in fifa. him: THATS RACIST'
p1659
aS"I wish I could go back to sleep at 7 am. i'm headed out the door to the bus \nstop at 7 am."
p1660
aS'That e'
p1661
aS'End waas sooooo funny'
p1662
aS'Your not like Rebecca black, at least you use auto tune and can sing !'
p1663
aS'hahahahahahahaha'
p1664
aS'This is my favorite off the pill. Just for the video that Rebecca should \nhave released at the end.'
p1665
aS'YES HE IS JAPANESE!!!'
p1666
aS'Okay, so I clicked on that thing that said "Click to see the original video \nor not whatever", and when I got there it said "This video is no longer \navailable due to a copyright claim by Rebecca Black." So... does that mean \nthat Rebecca Black took away the music video? Perhaps out of depression \nfrom all those who hate her? '
p1667
aS'Weird'
p1668
aS"Regina: I don't know why im here. I dont know how to read. Well! Thanks to \nHook on Fonik"
p1669
aS'Ping pong chich and Ching yow Ming lmao'
p1670
aS'i like regina'
p1671
aS'this is funny'
p1672
aS'2:04 xDDD LOL!'
p1673
aS'what about gangnam style'
p1674
aS'hahhahaha.... You so got me! 7am and I go back to sleep!!!!! '
p1675
aS'SO FUNNY! :D'
p1676
aS'gangnam style beat it'
p1677
aS"I'm learning Japanese. Then when I go to University I'm going to study East \nAsian Studies and hopefully go on an exchange to Japan."
p1678
aS'i wish i could speak panese..'
p1679
aS'Hahahahahahahahaha'
p1680
aS'what the hell wasthat? 4 words'
p1681
aS'7am on my computer staying up late need a bathroom break hahaha LOL'
p1682
aS'Ur friday video is much better!! xD'
p1683
aS'I died at 2:04 xD'
p1684
aS'Dear Ryan, Can you make the song longer? That one little piece was so good, \nI wish there more of it.'
p1685
aS'HAHAHAHA Wth?! Nice ending freakingfunny!'
p1686
aS'Ooo.. Pingpong chiching chang YAO MING!!'
p1687
aS'OMFG! LOL 1:39'
p1688
aS'"you wont need an umbrella because its SUNday" oh man, too good ryan'
p1689
aS'XD '
p1690
aS'I have never seen someone wake up fully dressed in an attractive button up \nshirt and look extrememly hot...Until now'
p1691
aS'lol genius'
p1692
aS'7 am and i go back to sleep LOL'
p1693
aS'"7 a.m. and I go back to sleep" -the end'
p1694
aS'Party and Party YEah ! LOL '
p1695
aS"Ryan what do you think about, Nicole Westbrook - It's Thanksgiving video?"
p1696
aS'Hey I saw the YTF!! 8D'
p1697
aS'i like his version better'
p1698
aS'I fucking hate that song'
p1699
aS'7 am and I go back to sleep lol'
p1700
aS'haha yeah but what would she say she saw this video, i mean she knew about \nthis?'
p1701
aS'haha LOL'
p1702
aS"ya i know my little sister typed that lol she's 8"
p1703
aS'He made this on my daughters 11th birthday. Wow.'
p1704
aS"After watching this version of the song I fell from my chair XD...waited \nfor something big to happen and then...I don't know why exactly but can't \nstop laughing, it sounded too funny^^"
p1705
aS'you really wear that to sleep ._.'
p1706
aS'1:10-1:12 yah u tell them Ryan!'
p1707
aS'Plz check out my channel!'
p1708
aS'THUMBS UP If you do that EVERYDAY .......EVEN SCHOOL DAYS '
p1709
aS'0:54 - 0:57 best moment of my life'
p1710
aS'Lyrics are Tarable LOL'
p1711
aS"So you're a Japanese... I see."
p1712
aS'The 7 second version of FRIDAY O.o'
p1713
aS'I FREAKING LOVE THIS VIDEO RYAN <3 '
p1714
aS'LMAO'
p1715
aS"Lol ryan's version is better XD"
p1716
aS'Gangnam Style beat 35 million veiws over a month... he got like a billion \nin a month'
p1717
aS'Sheee hahaha omg :D'
p1718
aS'The video you put in the description is not available because Rebecca Black \nput a copy right claim on it XD'
p1719
aS'"7 am and I go back to sleep"! LMAO!'
p1720
aS'"and why the hell I do have subtitles,im speaking fine!"'
p1721
aS'7am and im going back to sleep LOL!!!'
p1722
aS'1:21 gold. LOOOOOOOOOOOL'
p1723
aS'Panese: Ooo ping pong chicenchang yao ming! '
p1724
aS'Panese O.O '
p1725
aS'Ouch Charlie.... Sheen (winning)'
p1726
aS'ow charlie...........sheen'
p1727
aS'ohhh !! Jing jang !! lin lau !! ding DONG !!! Ohhh !! Ping Pong !! Jin Jang \n!! chiao YAO MING !!! Panese Ja- panese :) LOL I JUST READ IT !'
p1728
aS'THIS IS WHY I LOVE YOU RYAN'
p1729
aS'How do u come up with this stuff!!!!! :)'
p1730
aS"My version of Friday: 7 am and it's time to smoke a bowl"
p1731
aS'/watch?v=zoAUl3JFKMs'
p1732
aS'Ouch charlie... Sheen LOL'
p1733
aS'Epicc!! :D '
p1734
aS'Panese--I laughed so hard I fell off my chair LOLOLOL'
p1735
aS"notice there's a ytf at the top right corner at 2:22"
p1736
aS'LOLOOLOLOLHAAHAHAHHAHAHAH at 1:39 walrus'
p1737
aS'Well, right now it is May 22, 2013 an it has 53,018,543 veiws. '
p1738
aS'actually gangnam style... '
p1739
aS'That video is better.'
p1740
aS'your youtube name more sucks than asians '
p1741
aS'LOL u always end videos amazingly.... Just love your creativeness :D'
p1742
aS"I honestly think u did better than Rebecca. I don't need to wake up at 7A.M"
p1743
aS'Wow. Japan must be proud to have you. I thought you were Chinese LOL'
p1744
aS'I love your video'
p1745
aS'Not to hate but to be honest i havent even heard the whole song before til \nthis day. I heard the chorus once & i ran away then my friend was like \n"listen to this song" & i listened for 10 seconds then ran away. I think im \nready to watch the whole thing so uh... wish me luck...... :c'
p1746
aS'lol we we w e so exeited'
p1747
aS'Look up Friday Parody, "Sunday".'
p1748
aS'Omg, it seems like we the watched the same video D:'
p1749
aS'1:54 yao ming'
p1750
aS'When I first heard "Friday" it made me tearbend.'
p1751
aS'1:39 and 1:40 lol tht was an otter '
p1752
aS"You know who's name is Psy? PSY."
p1753
aS"Ryan's Japanese?"
p1754
aS'who the heck is alexandra wallace?'
p1755
aS'7 am and i go back to sleep... THE END LOL'
p1756
aS'Panese. HAHA'
p1757
aS'Or PSY Gangnam style or Alexandra Wallarist'
p1758
aS'your lip is bleeding'
p1759
aS"And Yes That Was A Library. Didn't You See The Book?"
p1760
aS'RYAN WHATS UP WITH YOUR VIDEOS I CAN HEAR EVERYTHING BUT YOUR VOICE Y Dx \nIVE ALREADY TRIED 3 DEVICES TO HEAR U D,x'
p1761
aS'3 months= 600 million+ before new years=1 billion'
p1762
aS'I thought Ryan was Korean.'
p1763
aS'I saw the secret YTF!!!'
p1764
aS'Yea .'
p1765
aS'press 3,5,then 7'
p1766
aS"0:40 Peter Chao's dog!"
p1767
aS'that was to fudging cool i do that to (7AM and i go back to sleep) '
p1768
aS'7am and I go back to sleep (=^.^=)'
p1769
aS'i think psy beat rebecca black by a longshot(: '
p1770
aS'2:23 YTF beside him :)'
p1771
aS'You know who beat Charlie Bit My Finger? PSY.'
p1772
aS'LMFAOOOOOO THE PANS'
p1773
aS'lol the video got removed'
p1774
aS'I lold at 7am and I go back to slepp'
p1775
aS'was it in a month?????'
p1776
aS"Oh yes somebody beat Rebecca Black... Psy's Gangnam Style =_="
p1777
aS'Lol panese'
p1778
aS'his Lip Was Bleading lol '
p1779
aS'OHHHHH Cheech and Chong Yao Ming lmao!!!!!'
p1780
aS'HAHA XD I LOVE THE END'
p1781
aS'Panese...'
p1782
aS'He met Rebecka Black after this... awkward'
p1783
aS"Who's Alexander Walrus?"
p1784
aS'Ouch Charlie......lol'
p1785
aS'i lost it at the parody XD'
p1786
aS'Chong*'
p1787
aS'Story of my life.'
p1788
aS'no its still out there just look up friday by rebecca black '
p1789
aS"cheap-shot for asians cuz we dont know to speaking the good? lol he's so \nfunny!"
p1790
aS'So better'
p1791
aS'The song was way to literal'
p1792
aS'Best Friday virsion'
p1793
aS'"and yes that was a library didnt you see the book?" XD'
p1794
aS'i hate those kids frm kidsbop! that waz the best'
p1795
aS'Ya know, if the song actually DID end that way i would have loved it'
p1796
aS'Lol "7am and i go back to sleep." haha I just bristled out laughing haha'
p1797
aS'7 AM AND I GO BACK TO SLEEP XD XD LOLOLOL UR AWESOME!!!!!!!!'
p1798
aS'the ending cracked me up .. hahahahahah'
p1799
aS"Rebecca black dosen't deserve as many views as NigaHiga"
p1800
aS'haha! "7 am when I go back to sleep -.-"'
p1801
aS"it's friday friday better get down on friday"
p1802
aS'I nearly died at : " 7am And I Go Back To Sleep"'
p1803
aS'paneesee LOLOLOLOL!!!!!!!! '
p1804
aS'i looked up ching chong on google translate and it translates to "eat that \nred" ?'
p1805
aS'you wont need a umbrella because its...SUNDAY! LOLOL'
p1806
aS"Well there's one band that got 8 million views in less than 24 hours... \nSome people know who I mean"
p1807
aS'Yes, but she has more dislikes than likes'
p1808
aS'somebody beat that. That would be PSY. Op Op Op Op Oppan Gangnam Style!'
p1809
aS'This video still makes me laugh xD'
p1810
aS'Wassabi Productions Beat 35 million Ryan. LOL Thumbs UP!!'
p1811
aS'Wow the ending just wow'
p1812
aS'Panese (: '
p1813
aS'0:40 LOL "aha, ouch Charlie..... Sheen" '
p1814
aS'walrus ! panese ! hahahahahahahahahahahahaha !'
p1815
aS'dear ryan can you be a cat for 1 day'
p1816
aS' "Rebecca Black - Friday" This video is no longer available due to a \ncopyright claim by Rebecca Black. Sorry about that. HAHAHAHAHAHAHAHA'
p1817
aS'nic3 parody'
p1818
aS'Dear Ryan, can u make fun of singers?? Thank you ^_^'
p1819
aS'You have 69 likes. :3'
p1820
aS'tickled your mind till it gave you a brain fart!'
p1821
aS'repeat 1:39 . thank me later.'
p1822
aS'How did I get from watching Malcom X\'s speeches, to here? Fucking "related \nvideos", relate to deez nuts'
p1823
aS'lol '
p1824
aS'yeah there is someone that can beat that.. although it is so far apart in \ntime, Gangnam style xD More than half a billion now :P'
p1825
aS'oh you watched the video too'
p1826
aS'Amen'
p1827
aS"I'M LMAO xDDDDDDDDDDD"
p1828
aS'I remember back in the day when you 1st started, and your still killing \nit.... My.... God'
p1829
aS"Umm if you were to think logically instead of expendable imagination. you \nwould know that no shit it's hard to find a body if it's burned."
p1830
aS'Lool, You always know how to make me laugh dude!!! And hey, I LIKE your \nsongs - they are funny!'
p1831
aS'I died at the "We We We So Excited" cheap shot at Asians part xD'
p1832
aS'"what the hell is that" is 5 words, right ?'
p1833
aS'I lmfao at the end'
p1834
aS'Lol awesome ending!'
p1835
aS'why do you always look so angry'
p1836
aS"It's Marley! :D"
p1837
aS'" I don\'t know why I\'m here... I don\'t know how to read " xDD'
p1838
aS'after watching this video twelve times it starts becoming less funny :('
p1839
aS'"I can\'t sing so I auto-tune myself" So does every other popular artist out \nthere'
p1840
aS'did not see that coming'
p1841
aS'Dear Ryan, can you speak fast and at the same time, without the grimace. T \ne e h e E'
p1842
aS'i rofled at the last bit'
p1843
aS'laughed so hard! bwahhhhh'
p1844
aS'From 1\xef\xbc\x9b45 LOL '
p1845
aS'oh my god completly weak at this my parents are wondering what the heck i \nam on for laughing so much :F'
p1846
aS'wtf was that woman doing out of the kitchen? '
p1847
aS'1:39 xd'
p1848
aS'i like the part when he gets up at seven am then goes back to sleep'
p1849
aS"What is the dog's name ? AWWWWWWWW"
p1850
aS'Really people are hips rate'
p1851
aS'Haha, I thought you said "Penises is awesome"...My dirty mind :('
p1852
aS'Dear Ryan, can you speak Japanese?'
p1853
aS'7AM AND I GO BACK TO SLEEP! lmao yes i did sleep late last night '
p1854
aS'01:22 its how kevins father speaking lol'
p1855
aS'7am and I go back to sleepXD LOL'
p1856
aS'*clinks pans together* XD'
p1857
aS'HAHAHA WE WE WE SO EXCITED!!! >XD'
p1858
aS'i heard yao ming @ 1:55 - 1:56 :3'
p1859
aS'WO LOL '
p1860
aS'Is it just me or in the beginning is his lip fine but at 0:25 his lip \nstarts bleeding'
p1861
aS'Lol so i was searching for this video on ur channel and what i said was \nrebecca black and this video popped up and the video of what makes a bad \nthanksgiving lol. XD cuz rebecca back ruins everything'
p1862
aS'"And by my mathematics..." He\'s Asian.. Trust him.'
p1863
aS'its the worst song ever thans for ****** this video'
p1864
aS'really charlie shean'
p1865
aS"Ryan's version is better."
p1866
aS'Hahha at the end! Yes that wayy better! If she just sing it like that " 7am \nim going bk to sleep" :)'
p1867
aS"LOL i can't stop laughing your the funniest person ever Can you do RedBull \nof the pill "
p1868
aS'Hawaii is part of america stupid'
p1869
aS'lol 2:19'
p1870
aS'7 am and i go back to sleep!'
p1871
aS'psy beat that'
p1872
aS'If that is your schedule than why are you on the computer right now \nwatching ryan?'
p1873
aS'Oh yeah, I guess she made a "copyright claim" and took it down. The hate \nwas too much I guess haha __________ Your questions, answered. Check my \nchannel out'
p1874
aS'itz okay when ryan does it because he makes it funny critisizm(dont hate \nbecause of my spelling '
p1875
aS'Ouch Charlie Sheen!'
p1876
aS'Press 7 repeatedly >:D SEXY RYAN!!!!!!!'
p1877
aS'Rebbeca black goes to a football stadium and has a heart attack goes she \ndoesnt know where to sit'
p1878
aS'oh cool! i watched that video too!!!'
p1879
aS'Ha yes yes yes and yes'
p1880
aS'& am and i go back to sleep!'
p1881
aS' IM AN INDAN SO IM AN ASAIAN TOOO'
p1882
aS'This is the my 3rd time watching and I just noticed YTF at 2:23'
p1883
aS'hhahahahaahahhahahahhahahahahhahahahahhahhahah LOL'
p1884
aS'Oh isnt he chinese?><///'
p1885
aS'dear Ryan - can you beat quest crew in a dance of. '
p1886
aS'sorry 7 a.m. and i go back to sleep!'
p1887
aS'Ouch charlie. LOL'
p1888
aS'Is there a ytf in the end? '
p1889
aS'"How many views do YOUR videos get?" Around 2... :)'
p1890
aS"It's 7 am and I go back to sleep"
p1891
aS'1:09 is so funny "oh shut up kids bop nobody even likes you!"'
p1892
aS"I just came back from her video you are right ...hhhh it's you watching \nsomething talking about his day"
p1893
aS'She got alot of views because the video Friday was terrible!! -_-'
p1894
aS"Oh I don't know ^__^; I heard that he was Japanese American, so I just told \nyou because I thought he was...Hehe :)"
p1895
aS"Yeah but you're loved.. by millions.. she's hated by more than what your \nloved by.. does that make sense? probably not (:"
p1896
aS'does he come from chinese? '
p1897
aS'7 am and I go back to sleep!'
p1898
aS"i lmao'd at the whole regina-ryan dialogue after 1:43 :D"
p1899
aS'1:39 xD '
p1900
aS'THUMBS UP FOR JAPAN'
p1901
aS'Proud to be a half-japanese!!!!'
p1902
aS'7 am and i go back to sleep LOL'
p1903
aS'hawaiian is a place not a race (oh cool i made a ryme TEEHEE!!) '
p1904
aS'Where is he from? lOL japanese? lol'
p1905
aS'dont feel bad the only reason people watch her vids is cause there so bad \nthey just want to hit the dislike button besides i hit the dislike button \nshe soundslike a nerd trying to blow her nose'
p1906
aS'2:05 I re winded for to see the book'
p1907
aS'Ooooo Japanese<33333333333333333333333'
p1908
aS'ImAjazy f***************k GANGNAMstyle'
p1909
aS'Ouch Charlie...Sheen..'
p1910
aS'YTF!!!!'
p1911
aS'I thought Ryan was hawaiian.'
p1912
aS'Oh, ping pong chin chang chong Yao Mingg! =]]'
p1913
aS'7 am and i go back to sleep!!!'
p1914
aS'walruses >.< lol '
p1915
aS'Gangnam style has beaten it'
p1916
aS'did anyone else see the YTF sign in the right corner of the video? 2:23'
p1917
aS'your Japanease?!?!?! I thought you Japanese, but I was not sure...now I \nlike you even more!!'
p1918
aS'dear Ryan i think you are artful (are u in drama) can your next video be \nabout animals or the last hour'
p1919
aS'- Sits up - 7 a.m and I go back to sleep ! - Lays back down -'
p1920
aS'Dear Ryan, what do you do for Halloween?'
p1921
aS'BLAH__ JUst like that girl i met at the library last week." \'Girl\' I don\'t \nknow why i\'m here i don\'t know how to read!"'
p1922
aS'Why is this topping right now?'
p1923
aS'hahahaha i fell from my chair with laughter!'
p1924
aS'Ouch! Ouch Charlie! Sheen... (Winning) I LOVE THAT!'
p1925
aS'7am and i go back to sleep lol'
p1926
aS'panese is awesome'
p1927
aS'WTFK go get a life. you are making justin gayber FAMOUS.'
p1928
aS'" Ching Chong Ling Long " "wat the he\'ll r u saying?" " It\'s ur language " \nYes, but that\'s completely different dialect I speak Japanese not panese!" \n" panese?" yes.", panese and I wanna know y I hav subtitles I\'m speaking \nperfectly fine.!" that guy over there speaks panese " bangs pans togetha \nbest part eva'
p1929
aS'hehe'
p1930
aS'For me it would be- 5am and my dog wakes me up'
p1931
aS'I died at 1:40'
p1932
aS'@VulkanTheDK copy paste skillz lvl 199993837327'
p1933
aS'"Nobody can beat that" GANGNAM STYLE! '
p1934
aS'7am and I go back to watching porn best version'
p1935
aS"7AM and I go back 2 sleep... Best thing ever! Cuz that's exactly what I \ndo..."
p1936
aS'omg i luv u'
p1937
aS"Just one more... then I'll quit... I..I promess!"
p1938
aS'You know how much she got? MORE!'
p1939
aS'2670 people are belibers....fuck that beliebers '
p1940
aS'Awesome video Ryan your hot !!!'
p1941
aS'2:00 lol'
p1942
aS"Hahahahah I'm still cracking up about the 'Panese'. Ching chong ling long \nting tong! hahahah! "
p1943
aS'Woooow 7:00 am i also go back to sleep!!!!'
p1944
aS'lol 1:53 @ Pingpong chichanchong Yao Ming'
p1945
aS'WATCH ALLTIME10S'
p1946
aS'im piniy'
p1947
aS'YTF at 2:22'
p1948
aS"The one video all haters can not hate! Ryan is awesome though so I don't \neven know why you bother in the first place... Wait what?"
p1949
aS'DIESSSSSSSSSSSSSSSS'
p1950
aS'better, huh?'
p1951
aS'Gangnam beat that'
p1952
aS'OUCH Charlie.......SHEEN (winning)'
p1953
aS'LOL XD'
p1954
aS'pinoy* ^o^'
p1955
aS'Panes hehe'
p1956
aS'Panese'
p1957
aS'AHAHAHAHAHA . true cx'
p1958
aS'7am and I go back to sleep!'
p1959
aS'lol thats it?, 7:00 am and i go back to sleep'
p1960
aS'Why does everything has to related to Justin Bieber? WHY :(???'
p1961
aS'TEEHEE'
p1962
aS'Funny as Idk what'
p1963
aS'" Oh shutup KidsBop! No one likes you! " ( my thoughts ) true dat, true dat.'
p1964
aS'Its 7 am and I go back to sleep.'
p1965
aS'Pause at 1:39'
p1966
aS'2:29 hidden ytf'
p1967
aS'nigahiga we love u ur soo hilarious!!! we we we soo excited!'
p1968
asS'time'
p1969
ctime
struct_time
p1970
((I2011
I3
I24
I23
I4
I48
I3
I83
I-1
t(dtRp1971
sS'id'
p1972
VKwdYZ3upT4c
p1973
s.