(dp1
S'title'
p2
VSkitzo - Nose Scar
p3
sS'url'
p4
Vhttp://www.youtube.com/watch?v=LMcWJUUcuq8&feature=youtube_gdata_player
p5
sS'image'
p6
Vhttp://i.ytimg.com/vi/LMcWJUUcuq8/0.jpg
p7
sS'comments'
p8
(lp9
S'I liturally just got that skitzo stands for schizophrenic.\xef\xbb\xbf'
p10
aS'I STILL THINK IM FROM CANADA.\xef\xbb\xbf'
p11
aS'Canada\xef\xbb\xbf'
p12
aS'I seriously want to marry Ryan\xef\xbb\xbf'
p13
aS'What, the curling dude just randomly busted his veins or something?\xef\xbb\xbf'
p14
aS'Is it me or does anyone think that Ryan is so good at these type of videos \nthat sometimes you even just forget that these are four characters being \nplayed by the same guy?\xef\xbb\xbf'
p15
aS"Kage-buungin-no-judzoo..\nThat's what I heard :P\xef\xbb\xbf"
p16
aS'Am I the only one who wonders how Hanate went from being stereotypically \nAsian to being stereotypically Canadian? Did he move in the last 3 years?\xef\xbb\xbf'
p17
aS"Ryan: WHAT THE HELL ARE YOU TALKING ABOUT?????\nHanate: I don't know\xef\xbb\xbf"
p18
aS'Regina is my long lost sister\xef\xbb\xbf'
p19
aS'he forgot the teehee\xef\xbb\xbf'
p20
aS'Lol 6:17\xef\xbb\xbf'
p21
aS'"what the hell are you talking about?!" \n" i dont know."\xef\xbb\xbf'
p22
aS"... First Regina is talking about StarWars (Jedi Thing) then she says \nWhat's StarWars?? \n\xf0\x9f\x98\x95 CONFUSED But loved the video!!\xef\xbb\xbf"
p23
aS'Since when do Canadians sound like Forrest Gump? \xf0\x9f\x98\x82\xef\xbb\xbf'
p24
aS'The fastest way to die: Hanging out with at least three idiots\xef\xbb\xbf'
p25
aS'Omfg I love hanate!!!!\xef\xbb\xbf'
p26
aS"Why does the Canadian look dumb? We're actually really smart.\xef\xbb\xbf"
p27
aS'Hanate is the best ever\xef\xbb\xbf'
p28
aS'Canada. \xef\xbb\xbf'
p29
aS"Hanate is sooo funny! Even though I think R-Dizzle is the best. He's just \nso....cool and spicy. \nI love your vids Ryan!! Your so talented to be able to do all this even \nthough their all you!! I actually start to think their different people....\n\xef\xbb\xbf"
p30
aS'Hahahah...\xf0\x9f\x98\x82 lol haha Canada\xf0\x9f\x8d\x81\xef\xbb\xbf'
p31
aS'Curling Iron...\xef\xbb\xbf'
p32
aS'i am turned on by regina. i need help\xef\xbb\xbf'
p33
aS'i get how regina got her nose scar from the curling iron light saber\nand r-dizzle got his scar while he was curling some iron\nbut hanate was simply curling where is the iron\xef\xbb\xbf'
p34
aS"What is the music in Hanate's flashback? And is ita parody of a movie or \nsomething?\xef\xbb\xbf"
p35
aS'I wouldn\'t call it a miracle but the video froze right when he said "it was \nas if times took still"\xef\xbb\xbf'
p36
aS"Ryan's videos are like those good 90's movies that you never want to stop \nwatching because they mean a lot and make you happy.\xef\xbb\xbf"
p37
aS'Hanate is one of my favorites XD \xef\xbb\xbf'
p38
aS'1:55 BADMINTON REFERENCE! :D\xef\xbb\xbf'
p39
aS'RYAN: "What the HELL are you talking about?"\nHANATE: "I don\'t know."\n\xef\xbb\xbf'
p40
aS"Hanate stole Naruto's jutsu, kage bunshin no jutsu\xef\xbb\xbf"
p41
aS'Ryan? Dud Kevjumba abandon his youtube channel?\xef\xbb\xbf'
p42
aS'Dear ryan can you make out with a toilet? \xef\xbb\xbf'
p43
aS'"I still think I\'m from Canada!" \xf0\x9f\x98\x82\xf0\x9f\x98\x82\xef\xbb\xbf'
p44
aS'I love Regina and hanate they are just so funny\xef\xbb\xbf'
p45
aS'nincompoop\xef\xbb\xbf'
p46
aS'id just like to say and no efence this was realy funny but health care is \nnot free only the basiks are paid trew taxes \xef\xbb\xbf'
p47
aS"yeah!! your'e not a carpenter!!! XDDDD and how come i'm the only one with \ncanadian accent?\xef\xbb\xbf"
p48
aS'Dear Ryan Who is your favorite Skitzo Character\xef\xbb\xbf'
p49
aS'Hanate is definitely the best\xef\xbb\xbf'
p50
aS'Dear Ryan can you make a parody of taylor swift-blank space\xef\xbb\xbf'
p51
aS"Hanate's oops sorrey\xf0\x9f\x98\x8d\xf0\x9f\x98\x8d\xef\xbb\xbf"
p52
aS'#teamhanate\xef\xbb\xbf'
p53
aS'You need to make more skitzo videos, their hilarious \xf0\x9f\x98\x82\xef\xbb\xbf'
p54
aS'Canada for life!!!!!!!!!!!!!!!!!!!!!!\xef\xbb\xbf'
p55
aS'gangster ryan is so hot \xef\xbb\xbf'
p56
aS'who went to the curling website?\xef\xbb\xbf'
p57
aS'Hanate will forever be in our hearts\xef\xbb\xbf'
p58
aS'What does stfu stand for\xef\xbb\xbf'
p59
aS'Post more skitzo\xef\xbb\xbf'
p60
aS'I like how hanuke says "oh sorry" it makes me laugh so hard XDXD +ryanhiga\xef\xbb\xbf'
p61
aS'Epic armpit hair!! #epicarmhair\xef\xbb\xbf'
p62
aS'DEM ARMPIT HAIRS\xef\xbb\xbf'
p63
aS'*CANADA\xef\xbb\xbf'
p64
aS' DAMN IT FEMALE RYAN IS SO FUCKING ANNOYING!!!\xef\xbb\xbf'
p65
aS'Canada that got me so good hahahaha :D\xef\xbb\xbf'
p66
aS'love how in your videos the very end is often the very best\xef\xbb\xbf'
p67
aS'Lol I have the same pajama pants as Regina\xef\xbb\xbf'
p68
aS'last comment! :D\xef\xbb\xbf'
p69
aS'lol i remember when yal posted regina doing her thing alot of mistakes \xef\xbb\xbf'
p70
aS'Skizo\xef\xbb\xbf'
p71
aS'Hanate forever <3 \xef\xbb\xbf'
p72
aS'IM UNSUBSCRIBING!!!! THIS IS SOOOO OFFENSIVE!!!\xef\xbb\xbf'
p73
aS'O_O\xef\xbb\xbf'
p74
aS'Holy shit ur the guy from wasabi production I love u\xef\xbb\xbf'
p75
aS'Why am I watching Forrest Gump\xef\xbb\xbf'
p76
aS'How did I not know this was uploaded on my birthday? \xf0\x9f\x98\x82\xf0\x9f\x91\x8d This Skitzo was \nuploaded on my birthday! \xf0\x9f\x8e\x89\xf0\x9f\x8e\x89\xef\xbb\xbf'
p77
aS'I AM SO REGINA AND IS IT ME OR HANATE IS CUTE ^   ^\n                                                                                          \xef\xbb\xbf'
p78
aS'Hanate xDDD\xef\xbb\xbf'
p79
aS'Oh rocky road? Lolol Regina \xef\xbb\xbf'
p80
aS'Skitzo are the best Ryan Higa videos!!!!\xef\xbb\xbf'
p81
aS' More skitzo vids with hanate \xef\xbb\xbf'
p82
aS'Ryan: What are u talking about\nHanate: I DONT KNOW\xef\xbb\xbf'
p83
aS'You forgot teehee\n\xef\xbb\xbf'
p84
aS"Cant believe you're name is Ryan. Awesome.\xef\xbb\xbf"
p85
aS'This was funny\xef\xbb\xbf'
p86
aS'You know, the Fruit Ninja filming? I got hit by a watermelon, the \nwatermelon hit a sword, which hit my face . . . . . . . . . Canada.\xef\xbb\xbf'
p87
aS'Lol funny like always\xef\xbb\xbf'
p88
aS'canada....\xef\xbb\xbf'
p89
aS'dear Ryan, can you poop rainbows?\xef\xbb\xbf'
p90
aS'more of this!!! its so funny\xef\xbb\xbf'
p91
aS'Why is there cardboard on the sences\xef\xbb\xbf'
p92
aS'CANDA\xef\xbb\xbf'
p93
aS'7:02-7:12 HAHahA \xef\xbb\xbf'
p94
aS'R-Dizzle did 2 curls.....\xef\xbb\xbf'
p95
aS'IM FROM CANADA IN A RED NECK TOWN AND WE DONT SPEAK LIKE THAT MORON\xef\xbb\xbf'
p96
aS'post more skitzo! please its my fav videos :)\xef\xbb\xbf'
p97
aS'Naruto reference! I love hanate!\xef\xbb\xbf'
p98
aS'Bro dat nose scar\xef\xbb\xbf'
p99
aS'Ryan which country do you live in?\n\xef\xbb\xbf'
p100
aS"Us Canadians don't talk like that\xef\xbb\xbf"
p101
aS'Ryan: Hanate plz tell me your storys even some what believable\nHanate: SOOOOOOOOOOOOOOOOOOOOOOOOOOOOOOOOOO der i was lol i cracked up\xef\xbb\xbf'
p102
aS'ryan plz make another skitzo\xef\xbb\xbf'
p103
aS'matching pajamas with kevjumbaXD\xef\xbb\xbf'
p104
aS'\n\n\n\n\n\n\n\n\nCanada\n\n\n\n\n\n\n\n\n\n\xef\xbb\xbf'
p105
aS'More skitzo vids plz I dare you\xef\xbb\xbf'
p106
aS'Bring back Skitzo!!!\xef\xbb\xbf'
p107
aS'More skitzo pleaaaseee!!! I so love Regina. and HANATE! haha :)))\xef\xbb\xbf'
p108
aS"I love Regina's face expressions XD \xef\xbb\xbf"
p109
aS'Hanate funny as hell hahaha\xef\xbb\xbf'
p110
aS'hes suppose to say multi shadow clone jutsu.\xef\xbb\xbf'
p111
aS'to be honest it sounds like a country accent to me \xef\xbb\xbf'
p112
aS'Skitzo\xef\xbb\xbf'
p113
aS'Regina- Curling Iron= HAIR\nR-Dizzle- Curling Iron= WEIGHTS\nHanate- Curling Iron= SPORT\xef\xbb\xbf'
p114
aS'#TeamHanate\xef\xbb\xbf'
p115
aS' #TeamRDizzle  :P\xef\xbb\xbf'
p116
aS'Dear Ryan can u play Minecraft?\xef\xbb\xbf'
p117
aS"hanate's the best\xef\xbb\xbf"
p118
aS'"i still think im from Canada"\xef\xbb\xbf'
p119
aS'IIsuperwomanII\xef\xbb\xbf'
p120
aS"A Canadian accent is the exact same as the American accent the accent that \nhannate has is a Newfoundland accent which is a province in Canada but \nThat's the only province that has that accent \xef\xbb\xbf"
p121
aS'I use to be a youtuber like you until I took a melon to the head.\xef\xbb\xbf'
p122
aS"I still think I'm from Canada!-Hanate\xef\xbb\xbf"
p123
aS'More skitzo?????? PLEASE????\xef\xbb\xbf'
p124
aS'Hanate is my favourite and DO MORE OF SKIZO NEWS!!!!!!!!!!!!!!! :D\xef\xbb\xbf'
p125
aS'I luv hanate\xef\xbb\xbf'
p126
aS'I just realized hamate most of the time has his eyes closed\xef\xbb\xbf'
p127
aS'I love skitzo!!!!\xef\xbb\xbf'
p128
aS'the name r-dizzle sounds cool\xef\xbb\xbf'
p129
aS'I was just watching Naruto before I came here. This is why I love you, \nRyan. <3 \xef\xbb\xbf'
p130
aS'Check out this video on YouTube:\xef\xbb\xbf'
p131
aS'Make more skitzo!!!!!\xf0\x9f\x98\x9c\xf0\x9f\x98\x9c\xf0\x9f\x98\x9c\xef\xbb\xbf'
p132
aS'Dear Ryan can you bring back the original skitso\xef\xbb\xbf'
p133
aS"well I'm canadian and i play curling\xef\xbb\xbf"
p134
aS' #Team\xef\xbb\xbf'
p135
aS"I'm reliving the moment of seeing myself in this video one year later. OMG! \nThis is great.\xef\xbb\xbf"
p136
aS'"hunged out"... it\'s "hung out"\xef\xbb\xbf'
p137
aS'Do more sikizo\xef\xbb\xbf'
p138
aS'It never gets old\xef\xbb\xbf'
p139
aS'why am i the only one with the canadian accent? xD\xef\xbb\xbf'
p140
aS'LOL. So perfect.\xef\xbb\xbf'
p141
aS'Ryan... make a parody of the movie 7500...\xef\xbb\xbf'
p142
aS'no your not my carpenter!\xef\xbb\xbf'
p143
aS'Yea Canadians are smart like Superwoman\xef\xbb\xbf'
p144
aS'THIS WAS UPLOADED ON MY BIRTHDAY! \xef\xbb\xbf'
p145
aS'I just realized Skitzo combines skit and schizophrenic. *cries*\xef\xbb\xbf'
p146
aS'Hanate is just....... CANADIAN AND ASIAN!!!\xef\xbb\xbf'
p147
aS'HAHAHAHAHAHAHAHAHAHAHAHAHAHAHAHAHA\nunicorn\xef\xbb\xbf'
p148
aS'Haha the watermelon at the end XD\xef\xbb\xbf'
p149
aS'Omg teriyaki Suzuki Honda civic came back!! \xef\xbb\xbf'
p150
aS"I still think I'm Canadian!!!! lol fav part!\xef\xbb\xbf"
p151
aS'Regina is like , so like , awesome!!! Like , right? Regina: I knew ittt\xef\xbb\xbf'
p152
aS'My favourite !!! LOL !!!\xef\xbb\xbf'
p153
aS'I want regina as my best friend! Cause ya know she knows ryan and stuff... \nB|\xef\xbb\xbf'
p154
aS'i like 2:21-2:26\xef\xbb\xbf'
p155
aS'https://www.influenster.com/\xef\xbb\xbf'
p156
aS"I'm friends with the one of the people whose comment shows up in this \nvideo: Emily Zheng and I'm currently dying seeing her in this!!!! OMG \xef\xbb\xbf"
p157
aS"LOL!!!!!!!!!! SO FUNNY!!!!!!! I'M LIKING THIS VID!\xef\xbb\xbf"
p158
aS' What in the....?! Awesome XD\xef\xbb\xbf'
p159
aS'Ugh nevermind i cant figure out if it means "skits" or short for \n"schizophrenia" since its his multiple personalities i am confused now\xef\xbb\xbf'
p160
aS'"TeriyakiSuzukiHondaCivic" LOOOOOOOOOOL!!!!\xef\xbb\xbf'
p161
aS'Hanate is so funny. i love it when someone says Hanate stop and he says oh \nsorry!\xef\xbb\xbf'
p162
aS"...Kage Bunshin no Jutsu!\nShadow clones! \nSorry.. I'll stop pointing out Naruto references... :3\xef\xbb\xbf"
p163
aS'I was dying when hanate said I dont know just like the and I was dying I \nliterally woke my mum n dad up at like 11 pm in the night thats how loud it \nwas\xef\xbb\xbf'
p164
aS'this will always be my favorite video on the internet\xef\xbb\xbf'
p165
aS'Dear Ryan, can you make another Naruto movie trailer video and can I be in \nit please\xef\xbb\xbf'
p166
aS'I still think I\xe2\x80\x98m from Canada \xef\xbb\xbf'
p167
aS'I love Hanate \nRyan should defiantly consider making a whole video just about Hanate \xef\xbb\xbf'
p168
aS"I still think I'm from Canada-hanate\xef\xbb\xbf"
p169
aS'lol, Idk why but Hanate is my fav here xD lol\xef\xbb\xbf'
p170
aS'That R-Dizzle groan was from the beginning of Glove and Boots!\xef\xbb\xbf'
p171
aS'Skip\xef\xbb\xbf'
p172
aS'MORE PLZ PLZ!!!!\xef\xbb\xbf'
p173
aS"Canada vs. Norway\nI'm from Norway dude.\xef\xbb\xbf"
p174
aS'Lol those asian accents are from someone from canada and the southern \naccent is strong lol\xef\xbb\xbf'
p175
aS'Regina is the best (sorry Ryan) :p\xef\xbb\xbf'
p176
aS"MORE SKITZO DUDE THEY'RE MY FAV. LOL!!!!!!!!!!!!!!!!!!!!!!!!!!!!!!!!!!!!!!\xef\xbb\xbf"
p177
aS'Goddamn! \nI just realized Regina is hot!\xef\xbb\xbf'
p178
aS'#iliketurtles\xef\xbb\xbf'
p179
aS'where\'s the video where hanate says "I like ball" cx\xef\xbb\xbf'
p180
aS'Canada\xef\xbb\xbf'
p181
aS"In Romania,Regina means 'the queen' lol\xef\xbb\xbf"
p182
aS'hahahaha!!!!! keep doing skitzo!!!!\xef\xbb\xbf'
p183
aS'Haha this cheers me up(:\xef\xbb\xbf'
p184
aS'more Skitzo\xef\xbb\xbf'
p185
aS'I LOVE HANATE\xef\xbb\xbf'
p186
aS'i just found your page and i been watching your videos all night. i love \nyou guys, you just got yourself another subscriber\xef\xbb\xbf'
p187
aS'Regina has so much armpit hair\xef\xbb\xbf'
p188
aS'Make more skitzos !!! PLEASE , PRETTY PLEASE ... thank you \xf0\x9f\x98\x98\xf0\x9f\x98\x8d\xef\xbb\xbf'
p189
aS'Lol so funny!XD\xef\xbb\xbf'
p190
aS'Hanate \xf0\x9f\x98\x82\xef\xbb\xbf'
p191
aS'...\xef\xbb\xbf'
p192
aS'Hey ryan your videos are cool can you please maje another skitzo video?\xef\xbb\xbf'
p193
aS'LOL r dizzle and hanete\xef\xbb\xbf'
p194
aS'When he through the weight it look like he really did it lol XD\xef\xbb\xbf'
p195
aS'Hanate...\xef\xbb\xbf'
p196
aS'More skitzo\xef\xbb\xbf'
p197
aS'What is the name of the skitzo theme song?\xef\xbb\xbf'
p198
aS'more skitzo!\xef\xbb\xbf'
p199
aS'I miss Regina. \xef\xbb\xbf'
p200
aS'Regina has always been my favorite\xef\xbb\xbf'
p201
aS"then how come all the characters had their scars even throughout their \nstories?\nand how does the last story have all the other characters having nose scars?\nand why are regina's armpits so hairy? does she not want to conform to the \nstandart of females in western society? does that make regina a rebel? is \nshe now going to have a transformation?\xef\xbb\xbf"
p202
aS'its over 9,000!!!1\xef\xbb\xbf'
p203
aS'More Hanate!\xef\xbb\xbf'
p204
aS'Regina is buffer than Ryan.\xef\xbb\xbf'
p205
aS'Moreeeee vids like this\xef\xbb\xbf'
p206
aS'+1 if Hanate is your favorite\xef\xbb\xbf'
p207
aS'is Curling  real sport?\xef\xbb\xbf'
p208
aS'I saw a string when it was the butterfly part\xef\xbb\xbf'
p209
aS'lol\xef\xbb\xbf'
p210
aS'MORE SKITZO!!!!\xef\xbb\xbf'
p211
aS'"What if this is all a dream like in that one movie ...........TITANIC!\xef\xbb\xbf'
p212
aS'MFW I REALIZE WHY ITS CALLED SCHITZO AFTER YEARS OF WATCHING THIS\xef\xbb\xbf'
p213
aS'2:55 Graphical issues with the painting XD\xef\xbb\xbf'
p214
aS'When it wa hanatis turn it sounded like the outsiders...\xef\xbb\xbf'
p215
aS'98+3=100 I guess that was the joke\n\xef\xbb\xbf'
p216
aS'As a Canadian, this made me LAUGH HARD! \xef\xbb\xbf'
p217
aS'3:26 what is the "oh no" from?\xef\xbb\xbf'
p218
aS"Personally, I didn't really find this video that enjoyable. My favorite \nparts were probably the end..and Hanate and the Canada thing. It started \noff with him talking about Canada, then his story ended up with him and \nthat Canadian shit..\nAnd no hate comments -.- i hate when people start shit over nothing\xef\xbb\xbf"
p219
aS'Wow this guy has like no body hair..seems like I am the only person in the \nworld who has some chest hair\xef\xbb\xbf'
p220
aS"I'm half Canadian-French.\xef\xbb\xbf"
p221
aS'6:17 I dunno. :>\xef\xbb\xbf'
p222
aS'By the time it was 4:10, I thought, "curling iron"...the three characters \nare all different...Hanate said he was Canadian...I thought of Curling the \nsport...and I knew what it would be.\n\nThere it was. Curling.\xef\xbb\xbf'
p223
aS'Canada... LOL\xef\xbb\xbf'
p224
aS'Skitzo = ADHD and ADD\xef\xbb\xbf'
p225
aS'U guys filipina??\xef\xbb\xbf'
p226
aS'Hanate stop...\nOh soddi -.-\xef\xbb\xbf'
p227
aS'Please do a video with just Hanate! His so hilarious! :D\xef\xbb\xbf'
p228
aS'hanate, regina and r-dizzle all had the nose scar before they got ingured \nin their "story"\xef\xbb\xbf'
p229
aS':)\xef\xbb\xbf'
p230
aS"Keep makin' more!\xe2\x99\xa1\xe2\x99\xa1\xef\xbb\xbf"
p231
aS'can you imitate yourself\xef\xbb\xbf'
p232
aS"+emmaharper he's supposed to be blind which is funny\n\xef\xbb\xbf"
p233
aS'MORE KSITZOOOO\xef\xbb\xbf'
p234
aS"Hanate's story... so emotional... :P\xef\xbb\xbf"
p235
aS'DO ANOTHER SKIZO\xef\xbb\xbf'
p236
aS'#CurlingForCanada \xef\xbb\xbf'
p237
aS'hanate \xf0\x9f\x98\x82\xef\xbb\xbf'
p238
aS"Thanks for mentioning us!\n\nPS, I'm Canadian \xef\xbb\xbf"
p239
aS'dear ryan, can we please have more skitzo please\xef\xbb\xbf'
p240
aS'Is this a real road or a fake road no a rail road no rocky road \nlol...#teamRegina\xef\xbb\xbf'
p241
aS'SKITZOS ARE THE BEEEST\xef\xbb\xbf'
p242
aS'i still think im from canada\xef\xbb\xbf'
p243
aS"I'm eating rocky road right now.\xef\xbb\xbf"
p244
aS'More Skitzos please Ryan !\xef\xbb\xbf'
p245
aS'his shirt says stop tickling furry unicorns\xef\xbb\xbf'
p246
aS'u uploaded it on my b day\xef\xbb\xbf'
p247
aS'Regina has lots of armpit hair \xef\xbb\xbf'
p248
aS' This made me laugh so hard lol\xef\xbb\xbf'
p249
aS'4:26 = Dota 2 Ursa Overpower!\xef\xbb\xbf'
p250
aS'Dear Ryan, please make more of these skitzo videos :D\xef\xbb\xbf'
p251
aS'Dear ryan, why this kolaveri kolaveri kolaveri di?\xef\xbb\xbf'
p252
aS'This just killed me!! whenever I have a bad day his videos make me smile\xef\xbb\xbf'
p253
aS"I still think I'm from canada...\xef\xbb\xbf"
p254
aS"Canadians don't have southern accents... \xf0\x9f\x91\x85\xef\xbb\xbf"
p255
aS"You're so funny. \xef\xbb\xbf"
p256
aS'Haha, I love Hanate. That face he makes and "CANADA" lol \xef\xbb\xbf'
p257
aS"why regina doesn't have boobs?\xef\xbb\xbf"
p258
aS'omg her arm pits 3:01\xef\xbb\xbf'
p259
aS'Hanate be like I think I am Canadian\xef\xbb\xbf'
p260
aS'"What the hell are you talking about?" "I don\'t know!" I DIED\xef\xbb\xbf'
p261
aS'More skitzo!\xef\xbb\xbf'
p262
aS'such adhd\xef\xbb\xbf'
p263
aS'hanate is fudgin hilarious\xef\xbb\xbf'
p264
aS'I hate skip\xef\xbb\xbf'
p265
aS"In the middle credits thing on Hanate's picture should have had the \nCanadian flag\xef\xbb\xbf"
p266
aS'my name in Japaneses is tekaruimoto ridotata\xef\xbb\xbf'
p267
aS'hanate is probably the best he never knows what is going on but rdizzle is \nso cool\xef\xbb\xbf'
p268
aS"Lol,ryan: WHAT THE HELL ARE YOU TALKING ABOUT \nHanate: I don't know\xef\xbb\xbf"
p269
aS'Canada...\xef\xbb\xbf'
p270
aS'Dear Ryan, can you do HetaOni?\xef\xbb\xbf'
p271
aS'I really love Regina! Hahaha!\xef\xbb\xbf'
p272
aS'Hahahahahahahhahahahahahahaha regina\xf0\x9f\x98\x82\xf0\x9f\x98\x82\xf0\x9f\x98\x82\xf0\x9f\x98\x82\xf0\x9f\x98\x82\xf0\x9f\x98\x82\xf0\x9f\x98\x82\xf0\x9f\x98\x82\xf0\x9f\x98\x82\xef\xbb\xbf'
p273
aS'6:15 is the best part\xef\xbb\xbf'
p274
aS"I'm half asian half japanese \xef\xbb\xbf"
p275
aS'hanate is the best\xef\xbb\xbf'
p276
aS'am i the only one who clicked on the link for the canadian curling \nassociation?\xef\xbb\xbf'
p277
aS'i luv regina shes mad funny\xef\xbb\xbf'
p278
aS"Canadians don't sound like that... at least not the part of Canada I'm \nfrom.\xef\xbb\xbf"
p279
aS'the best gift for my birthday ^_^ , it was in 21-seo :D \n(i watched it then but i commented lately so....)\xef\xbb\xbf'
p280
aS'What the hell are you talking about!!!!!! I dunno...\xef\xbb\xbf'
p281
aS'i still think Im from Canada \n-The Wise Words Of Hanate\xef\xbb\xbf'
p282
aS'lol "Is this all a dream? Like that one movie.... Titanic!"\xef\xbb\xbf'
p283
aS'I Think Hanate, Regina, And R-Dizzle Should Have Their Own Channel\xef\xbb\xbf'
p284
aS'Ok\xef\xbb\xbf'
p285
aS'Did anyone else try to click on the Canadian curling website..?\xef\xbb\xbf'
p286
aS'"What the hell are you talking about?!" \n\n"I dunno!"\xef\xbb\xbf'
p287
aS"I luv your vids plz don't stop making them\xef\xbb\xbf"
p288
aS'Lol\xef\xbb\xbf'
p289
aS'He is really so hot :3\xef\xbb\xbf'
p290
aS'1,460 days 7 skitzo videos \xef\xbb\xbf'
p291
aS'Lol I watch this 100 times\n\xef\xbb\xbf'
p292
aS'You back schizo\xef\xbb\xbf'
p293
aS"Hanate is sooo freakin' \nhilarious!!!!!!!!!!!!!!!!!!!!!!!!!!!!!!!!!!!!!!!!!!!!!!!\xef\xbb\xbf"
p294
aS'Is it weird that right when he said that all of the links were to the \ncurling website my screen went blue and my ipod shut down?\xef\xbb\xbf'
p295
aS'1:25 I CANT STOP LAUGHING\xef\xbb\xbf'
p296
aS'Canada\xef\xbb\xbf'
p297
aS'do u have hose\xef\xbb\xbf'
p298
aS'hanate is the best\xef\xbb\xbf'
p299
aS"You're not a God. You're not my mom you're not a carpenter you don't make \nthings.\xef\xbb\xbf"
p300
aS'Ggug go\xef\xbb\xbf'
p301
aS'guys it was a joke\xef\xbb\xbf'
p302
aS'Soooo\xe2\x80\xa6 no one else is gonna say anything about Regina taking a bite out of \nthat floating banana with "wings" at 3:30? ...\xef\xbb\xbf'
p303
aS'More more more more more more more more more more more more!!! \xef\xbb\xbf'
p304
aS"Dear Ryan, if you didn't do the other dear Ryan and hit you're nose with \nthe back of the sword and get the fruit ninja fail and get you're nose scar \nwould you do a Skitzo video?\n\n\n\n\n\n\n\nI guess not\xef\xbb\xbf"
p305
aS"I'm in canada I live in canada\xef\xbb\xbf"
p306
aS'I have the same nose scar in the same place. \xef\xbb\xbf'
p307
aS'"Hanate, I need you to focus OK? We need you to score the perfect score \ninorderforus to take home the gomedal!!!" Best part of the whole video!! \nLol I love these Skitzos\xef\xbb\xbf'
p308
aNaS'#TeamHanate\xef\xbb\xbf'
p309
aS'Proud to be canadian!! Thank you Hanate for winning the gold in curling!\xef\xbb\xbf'
p310
aS"in hanate's story...all of them already have a scar\xef\xbb\xbf"
p311
aS'More plz!\xef\xbb\xbf'
p312
aS'Probably my favorite nigahiga skit of all time.\xef\xbb\xbf'
p313
aS'kage bushin no jutsu\xef\xbb\xbf'
p314
aS'0:40-0:44 ROFL\xef\xbb\xbf'
p315
aS'When Hanate said his full name I realized he was the trainer from how to be \nninja :O\nEDIT: Ignore that it said that in the introduction Skitzo\xef\xbb\xbf'
p316
aS'I love Regina\xef\xbb\xbf'
p317
aS'Hanate during the rows were killing me xD\xef\xbb\xbf'
p318
aS'technically Ryan was also curling iron because the sword might have been \nmade of iron and when the watermelon hit it it curled\xef\xbb\xbf'
p319
aS'canadians dont talk like that. we talk like all of u americans\xef\xbb\xbf'
p320
aS'I dunno\xef\xbb\xbf'
p321
aS"Hanate's amazing lol\xef\xbb\xbf"
p322
aS'girls have armpit hair\xef\xbb\xbf'
p323
aS'Can you make more skitso\xef\xbb\xbf'
p324
aS'Dear Ryan, do you have a baby sister?\xef\xbb\xbf'
p325
aS'The Hanate story reminded me of Forest Gump xD\xef\xbb\xbf'
p326
aNaS'"you can read gooder than me" loool\xef\xbb\xbf'
p327
aS'Regina has some very hairy armpits for a girl.\xef\xbb\xbf'
p328
aS'Make another Skitzo? Please?\xef\xbb\xbf'
p329
aS"That's offensive!!! Canadians don't speak like that!!!!!\xef\xbb\xbf"
p330
aS'Hanate for the win! \n\nMAKE MORE SKITZO.\xef\xbb\xbf'
p331
aS'love Hanate\xef\xbb\xbf'
p332
aS'Actually my name is regine... o.o\xef\xbb\xbf'
p333
aS'I saw the wires\n\xef\xbb\xbf'
p334
aS'Make a playlist for skitzo so we can watch all of them\xef\xbb\xbf'
p335
aS'Bring it back this year\xef\xbb\xbf'
p336
aS'CANADA\xef\xbb\xbf'
p337
aS'I try to click the last skitzo but instead it put me to behind the scene \nstupid HANATE\xef\xbb\xbf'
p338
aS'Hanate \xf0\x9f\x98\x82\xf0\x9f\x98\x82\xf0\x9f\x98\x82\xef\xbb\xbf'
p339
aS"What did Hanate say when he cloned himself? Ryan uses that in multiple \nvideos, but I don't know what he's saying :/\xef\xbb\xbf"
p340
aS'R-dizzle was crying after hantes nose scar story O:-)\xef\xbb\xbf'
p341
aS'Canada!!\xef\xbb\xbf'
p342
aS'"What the hell are you talking about?!", "I don\'t know. " OMG I died \nlaughing. \xef\xbb\xbf'
p343
aS'I wish I woke up that way in the morning.\xef\xbb\xbf'
p344
aS"Love hanate! Love Regina love r dizzle... Don't stop doing skitzos! Please \nnever laughed so hard! :)u the best YOUtuber Ryan! B-)\xef\xbb\xbf"
p345
aS'What the hell are you talking about!? I dont know\xef\xbb\xbf'
p346
aS'THAT CANADIAN ACCENT THING WAS SO RUDE!!! Im Canadian and i in no way sound \nlike that. In fact, that accent sounds asian which would be fine if u said \nhe was asian so it wouldn\'t be racist but you said he was Canadian so it is \nracist. You made Canadians sound like idiots as well with the whole " \nCanada! " stuff. Its mean.\xef\xbb\xbf'
p347
aS"ursa's 2nd skill haha 4:25\xef\xbb\xbf"
p348
aS"I luv your vids plz don't stop making them\xef\xbb\xbf"
p349
aS'i want more skitzo!! xD its so hilarious ... skitzo is the only place ryan \ngets to be the "normal" one\xef\xbb\xbf'
p350
aS'Rageena you are a diva!.\nR-dizzle you think that\nyou are tough but your not\nyour just a loveable person\ninside.\nHante your meh. \nRyan higa you are so \nfunny that you put a smile \nto my face.\xef\xbb\xbf'
p351
aS"It's offensive to Canadians!!!\xef\xbb\xbf"
p352
aS'"If you\'re trying to do a fire jutsu, you\'re doing it wrong"\xef\xbb\xbf'
p353
aS'More skitzo please! ^_^\xef\xbb\xbf'
p354
aS'"I think I\'m Canadian !"  "I think I\'m still Canadian !" D E A D !!\xef\xbb\xbf'
p355
aS'Lol, dat ending thoXD\xef\xbb\xbf'
p356
aS'MAKE MORE SKITZO OR ILL KELL YOU XC\xef\xbb\xbf'
p357
aS"I knew that this video would lead to Canada winning the curling in the \nwinter Olympics. If it weren't then Scotland probably would've won.\xef\xbb\xbf"
p358
aS'OK.\n\nI\'m waiting for one of those "NO SHIET SHERLOCK" comments, but, my sister \nrealized this a couple months ago.\n\nShe was saying that maybe NigaHiga\'s Skitzo video\'s were actually short for \nSchizophrenic because all of the people he\'s talking to are actually him, \nand/or aren\'t actually there.\n\n(I\'m NOT saying that NigaHiga is Skitzophrenic o_o)\xef\xbb\xbf'
p359
aS'Wow, this is really, funny. \n..\xf0\x9f\x98\x82\xf0\x9f\x98\x82\xf0\x9f\x98\x82\xef\xbb\xbf'
p360
aS'When is this going next week?\xef\xbb\xbf'
p361
aS"I love Hanate's page in the intro. :D And all the Naruto references.\xef\xbb\xbf"
p362
aS"Hanate's face kills me hahahahhahahaha \xef\xbb\xbf"
p363
aS'i laughed so hard with the curling 1\xef\xbb\xbf'
p364
aS'I want another Skitzo video please\xef\xbb\xbf'
p365
aS'HANATE!!! oh sorry! XD\xef\xbb\xbf'
p366
aS"I still think I'm from canada I'm from it doe\xef\xbb\xbf"
p367
aS'Maybe this is all just a dream like in that movie.......titanic\xef\xbb\xbf'
p368
aS'Do MORE\xef\xbb\xbf'
p369
aS'Regina has hairy armpits doe!!!\xef\xbb\xbf'
p370
aS'You should make a "Regina\'s every day life" video\xef\xbb\xbf'
p371
aS'tis must have taken AGES to do\xef\xbb\xbf'
p372
aS'Actually 97 curls because 97+3 is 100\xef\xbb\xbf'
p373
aS'Haha: TeriyakiHondaCivic :D what the heck\xef\xbb\xbf'
p374
aS'More SKITZO!!!!!!!!\n\xef\xbb\xbf'
p375
aS'What is this guy on..? xD\xef\xbb\xbf'
p376
aS"Ok y the heck dose hanate sound like a asin he dosnt sound canadian im a \nCanadian and i don't sound like that my friends don't sound like you are \nrood to canadians\xef\xbb\xbf"
p377
aS'Jedi union.\xef\xbb\xbf'
p378
aS'Please make another )\xef\xbb\xbf'
p379
aS"Regina: you didn't make us your not god your not my mom your not a \ncarpenter\xef\xbb\xbf"
p380
aS"I still think I'm from Canada lmao\xef\xbb\xbf"
p381
aS'Better wine than maple syrup lol\xef\xbb\xbf'
p382
aS'Dear Ryan, for the fruit ninja fail when you stabbed your face with a \nsword, on a scale on 1 to 10, how much did it hurt?\xef\xbb\xbf'
p383
aS'MORE!!!\xef\xbb\xbf'
p384
aS'Hanate is my fav. \xf0\x9f\x92\x95\xf0\x9f\x92\x95\xef\xbb\xbf'
p385
aS"Ryan:What are you talking about?\nHanate:I don't know!\xef\xbb\xbf"
p386
aS'Everyone on YouTube: HEY MISTER WAITER! 2 MORE PLEASE!\n\nWhen they get it: WOOOO!!!\xef\xbb\xbf'
p387
aS'am i the only one who saw this thats from Canada? cuz this may not be \ncompletely accurate but it sure was funny. Thumbs up for milk in bags if \nyou are!\xef\xbb\xbf'
p388
aS"I still think I'm from Canada xDD\xef\xbb\xbf"
p389
aS'I fucking love Regina\'s awakening. I wish there was an "original" back \nstory for just her. No girl or gay guy acts like that. It\'s hilarious. Such \na fan :D\xef\xbb\xbf'
p390
aS'halar\xef\xbb\xbf'
p391
aS'SKITZO IS BACK!!!! YAY!!!!\xef\xbb\xbf'
p392
aS'HANATE IS CANADIAN? NO!!!!!\xef\xbb\xbf'
p393
aS'Did anyone see the string?\xef\xbb\xbf'
p394
aS'Bring back skitzo!\xef\xbb\xbf'
p395
aS'OMG HANATE\xef\xbb\xbf'
p396
aS"Lol I'm from Canada which added to the humour for me XD\xef\xbb\xbf"
p397
aS"See Ryan's first video, How to be a ninja to see how Hanate's full name is \nspelled\xef\xbb\xbf"
p398
aS'i can see the string 3:13\n\xef\xbb\xbf'
p399
aS'make more skitzo\xef\xbb\xbf'
p400
aS'dear ryan could you please bring all the how to be characters back and do a \nryan reacts to kids to ryan \xef\xbb\xbf'
p401
aS'Lol... the hanate character is so cute n weird n funny.,. Awesome..\xef\xbb\xbf'
p402
aS'MORE SKITZO!MORE,MORE,MORE!\xef\xbb\xbf'
p403
aS'More Skitzo\n\xef\xbb\xbf'
p404
aS'Dear Ryan, how many impressions of actors and actress can you do?\xef\xbb\xbf'
p405
aS'Lol\nHANATE \nOh sarre\xef\xbb\xbf'
p406
aS"Hanate is the best! but why isn't he shows up randomly in videos like the \nothers? even just sit around doing nothing in the background...\xef\xbb\xbf"
p407
aS'Hanate sounds SOOOO MUCH like Forrest Gump during his curling story! :D\xef\xbb\xbf'
p408
aS'Hanate be like: CURRING IRRON\xef\xbb\xbf'
p409
aS"I'm pretty sure you forgot the important-TEEHEE\xef\xbb\xbf"
p410
aS'More skitzo!\xef\xbb\xbf'
p411
aS'My name is: Hantaiwakosokisaototashaiterriakkisuzukihondacivic. XD\xef\xbb\xbf'
p412
aS'ahahah the ending though with all the links!!!\xef\xbb\xbf'
p413
aS'Hahaha\xef\xbb\xbf'
p414
aS'Make more skitzo video\n\xef\xbb\xbf'
p415
aS'SOOOOOOOOOOOOOOOOOOOOOOOOOOO dere i waz. LOL my favorite\xef\xbb\xbf'
p416
aS'CANADIANS DONT TALK LIKE THAT!!!!!! IM UNSUBSCRIBING!!!! THIS VIDEO IS \nEXTREMELY OFFENSIVE TO CANADIANS!!!!\xef\xbb\xbf'
p417
aS'Oh my God I love hanate!!! He\'s so funny! "Canada."\nRyan:"what the he\'ll are you talking about?!"\nHanate:" I dunno" I laughed so hard Oh my God Ryan! Too funny! Love you \nRyan!! <3\xef\xbb\xbf'
p418
aS'Make more skitzo!!\xef\xbb\xbf'
p419
aS'Dont stop doing skiotzo\xef\xbb\xbf'
p420
aS'ryan: what the hell are you talking about?????\nHanate: I dunno!?\xef\xbb\xbf'
p421
aS"now this is the ryan higa that made me laugh 3 years ago ;DDDDDDDDD i \nhaven't laughed so hard in a while , thank you ryan ! :D \xef\xbb\xbf"
p422
aS"I'm Canadian and I don't talk like that\xef\xbb\xbf"
p423
aS'Dear Ryan can you do the splits \xef\xbb\xbf'
p424
aS'i loveee this\xef\xbb\xbf'
p425
aS'LOL, she have armpit hair!!!\xef\xbb\xbf'
p426
aS'More skitzo\xef\xbb\xbf'
p427
aS'Lol Hanate is the best character XD \xef\xbb\xbf'
p428
aS'They all got same nose scar because their owner makes markes on his slaves \non their noses)\xef\xbb\xbf'
p429
aS'More!!!\xef\xbb\xbf'
p430
aS'when you become regina \nthe way you talking so annoying \nahahahhahaha\nbut i like that so much \nso funny \xef\xbb\xbf'
p431
aS'regina and ryan are whereing the same shirt\xef\xbb\xbf'
p432
aS'REALLY!!!!!!!!!! THE MAPLE SYRUP AGAIN!!!!!!!!!!\nTHATS IT IM GOING TO EUROPE DAMMNIT\xef\xbb\xbf'
p433
aS"We don't really speak like that.\xef\xbb\xbf"
p434
aS'dear ryan , can you make a story about You Tube\xef\xbb\xbf'
p435
aS' I love skizo cx\xef\xbb\xbf'
p436
aS"Man I miss curling now x'D \xef\xbb\xbf"
p437
aS'I THINK IM FROM CANADA  ._.\xef\xbb\xbf'
p438
aS'Hanate is si ADORABLE!\xef\xbb\xbf'
p439
aS'I live in Canada so for all you people...CANADA IS LIKE THE USA \xef\xbb\xbf'
p440
aS'CANADA! HAHAHAHAHAHHAHAHAHAHAHAHAHAHAHAHAHAHA!!!!\xef\xbb\xbf'
p441
aS'More!!!\n\xef\xbb\xbf'
p442
aS'Dear Ryan can you sing a Korean song??????\xef\xbb\xbf'
p443
aS'Bring back Skitzo!\xef\xbb\xbf'
p444
aS'DO MORE SKITZO!!!!!!\xef\xbb\xbf'
p445
aS'More SKITZO \xef\xbb\xbf'
p446
aS'vagina has arm pit hare\xef\xbb\xbf'
p447
aS"Love hanate! Love Regina love r dizzle... Don't stop doing skitzos! Please \nnever laughed so hard! :)u the best YOUtuber Ryan! B-)\xef\xbb\xbf"
p448
aS"Regina's got quite a bit of armpit hair! lol :P\xef\xbb\xbf"
p449
aS'Skitzos are awesome!!!!!!!\nPlease make more of them\n\n\xef\xbb\xbf'
p450
aS'Omg I laughed soooo hard !!!! Lmao!!\xef\xbb\xbf'
p451
aS"when r-dizzle transforms in his story, the sound effect sounds like ursa's \nulti from dota\xef\xbb\xbf"
p452
aS'GO HANATE!! FOR CANADA!\xef\xbb\xbf'
p453
aS'Canada\xef\xbb\xbf'
p454
aS"Welcome to the World of Stuff That I'm too Lazy to Give A Name\n\nTo continue, click 'Show More'\n\n\n\n\n\n\n\n\n\n\n\nFor the word 'Hey' said a million times, press and hold 0.\nTo hear the word 'Donkey' press 2.\nFor the word 'Raffragro' said a million times, press and hold 1.\nTo see Regina look left, press and hold 3.\nFor a seizure, press and hold 4.\nFor Ryan fluttering his eyes, press and hold 5.\nFor manliness, press and hold 6.\nFor 'FREE' press and hold 7.\nFor Doctor Who, press and hold 8.\nFor CHU, press and hold 9.\xef\xbb\xbf"
p455
aS'Mooooaaaarrrrr plsssss\xef\xbb\xbf'
p456
aS'Canada\xef\xbb\xbf'
p457
aS'Well Regina is just adorable. \xef\xbb\xbf'
p458
aS'+nigahiga you look like Iruka Sensai! Now all you need to do is find \nNaruto!\xef\xbb\xbf'
p459
aS'I <3 skit I\xef\xbb\xbf'
p460
aS'Regina tho Lol\xef\xbb\xbf'
p461
aS'what regina?! thats knifes chow! haha love yo face higa\xef\xbb\xbf'
p462
aS'im actually from canada.......\n"sniffle"why the prejudice\xef\xbb\xbf'
p463
aS'More please dude\xef\xbb\xbf'
p464
aS'Yes pleeeeeeezeeeeee do more skitzo!!!!!!!\xef\xbb\xbf'
p465
aS"hanate never know's what he's saying.....LMAO!!!!!!!!!!! <3\xef\xbb\xbf"
p466
aS'Was r dizzles story supposed to be hulk?\xef\xbb\xbf'
p467
aS'MOREEEEEEE PLEASEEEEEE.\xef\xbb\xbf'
p468
aS'hanateeeee lol\xef\xbb\xbf'
p469
aS"That is the true spirit of Canada as I see it, ninjutsu and curling. :'-) \nJe niaise, c'est du n'importe quoi!\xef\xbb\xbf"
p470
aS'Regina is so...UGLY!\xef\xbb\xbf'
p471
aS'"How come I am the only one with a Canadian ascent?" - Hanate  <3<3<3 Love \nyour videos!!! :D:D:D\xef\xbb\xbf'
p472
aS'More skitzo !!!!!!!!!!!!!!!!!!!!\xef\xbb\xbf'
p473
aS'Wait Regina from what? Mean girls??!\xef\xbb\xbf'
p474
aS'skizo, morew!\xef\xbb\xbf'
p475
aS'Plz make another skitzo ..plz\xef\xbb\xbf'
p476
aS'Dear ryan can you show us your hous\xef\xbb\xbf'
p477
aS"I love Regina's story!\xef\xbb\xbf"
p478
aS'MORE\n\xef\xbb\xbf'
p479
aS'More!!! OMG !!!\xef\xbb\xbf'
p480
aS'MORE!\xef\xbb\xbf'
p481
aS'Regina is my name teehee :)))\xef\xbb\xbf'
p482
aS'SKITZO YEEEEAAAAAHHHH\xef\xbb\xbf'
p483
aS'6:26 Dont make Ryan angry..\xef\xbb\xbf'
p484
aS'MOREEEEEEEEEEEEEEEEEEEEEE\xef\xbb\xbf'
p485
aS'Y are u making fun of Canadians but other then that loves the vids \xef\xbb\xbf'
p486
aS'I always thought Hanate was a Japanese! :D\xef\xbb\xbf'
p487
aS'Nice flip/walkover thing. More skitzo plz\xef\xbb\xbf'
p488
aS'More Skitzos PLEASE. \xef\xbb\xbf'
p489
aS'Hanate!\xef\xbb\xbf'
p490
aS"Hey my aunts family (so my aunt, uncle, and two cousins) are Canadians so \ndon't make fun of Canadians \xef\xbb\xbf"
p491
aS'PLEASE DO MORE SKITZO I could watch this all day:))) \xef\xbb\xbf'
p492
aS'Dear Ryan can you do a cartwheel\xef\xbb\xbf'
p493
aS'Can you do more skitzo?  please?\xef\xbb\xbf'
p494
aS'MAOR\xef\xbb\xbf'
p495
aS'More skitzo\xef\xbb\xbf'
p496
aS'freaking hanate\n\xef\xbb\xbf'
p497
aS'More skitzo now or I keel chu\n\xef\xbb\xbf'
p498
aS"You sound a lot like vanoss and you're both canadian\xef\xbb\xbf"
p499
aS'I conaden\xef\xbb\xbf'
p500
aS'#DoMoreSkitzo\n\xef\xbb\xbf'
p501
aS'I think skitzo should be a regular thing.\xef\xbb\xbf'
p502
aS'Do more\xef\xbb\xbf'
p503
aS'2:26 whahahahah \xef\xbb\xbf'
p504
aS'Is Regina European? She never shaves her armpits.\xef\xbb\xbf'
p505
aS'Have you ever been chased down by Meese? Its fucking scary. Meese are not \ngentle.\xef\xbb\xbf'
p506
aS'DO MORE!\xef\xbb\xbf'
p507
aS'Doo moar!\xef\xbb\xbf'
p508
aS'more skitzoooo\xef\xbb\xbf'
p509
aS'Lol ! I love it skitzo is so funny ! more please !!!!\xef\xbb\xbf'
p510
aS'I DUN KNOW!!,!!!!\xef\xbb\xbf'
p511
aS'"So I guess you finally watched Star Wars then" \n"What is that?"\xef\xbb\xbf'
p512
aS'Go Canada! :D\xef\xbb\xbf'
p513
aS'Hanate and Regina \xf0\x9f\x99\x89\xf0\x9f\x98\x98\xe2\x9d\xa4\xef\xb8\x8f\xef\xbb\xbf'
p514
aS'Cool\xef\xbb\xbf'
p515
aS'Canada\xef\xbb\xbf'
p516
aS'I want skitzo\xef\xbb\xbf'
p517
aS'Hanate >>>>\xef\xbb\xbf'
p518
aS'Naruto reference! Even though I quit watching Naruto at episode 107\xef\xbb\xbf'
p519
aS'XD HANATE XD\xef\xbb\xbf'
p520
aS'MORE skitzo please!!!\xef\xbb\xbf'
p521
aS'dont worry  guys... ha got this\xef\xbb\xbf'
p522
aS'Teehee ^_^\xef\xbb\xbf'
p523
aS'I love skitzo \xef\xbb\xbf'
p524
aS'Lmao wasnt expecting that last one. \xef\xbb\xbf'
p525
aS'Please bring back skitzo\xef\xbb\xbf'
p526
aS'Do more!\xef\xbb\xbf'
p527
aS'Laughing at the long name omg\xef\xbb\xbf'
p528
aS'Canada!\xef\xbb\xbf'
p529
aS'Curling for Canada.. XD\xef\xbb\xbf'
p530
aS"I still think I'm from Canada \nLol\xef\xbb\xbf"
p531
aS'2:53-3:18 LOVE IT\xef\xbb\xbf'
p532
aS'3:37 Regina, "Wat is dat?" xD\xef\xbb\xbf'
p533
aS'i farted\xef\xbb\xbf'
p534
aS'HANATE WASUKO SHISEO TADASHITE TERIYAKI SUZUKI HONDA CIVIC\xef\xbb\xbf'
p535
aS'WATERMELON\xef\xbb\xbf'
p536
aS'so funny\xef\xbb\xbf'
p537
aS'Dear Ryan can u be a drunk Mexican?\xef\xbb\xbf'
p538
aS'ryan is always such a jerk to them. They have a nice conversation but when \nit annoys him he yells "STOP!" Gosh, you make them sad Ryan, you make them \nsad.\xef\xbb\xbf'
p539
aS'So funny I want more of this videos\xef\xbb\xbf'
p540
aS'more!\xef\xbb\xbf'
p541
aS'Whats wrong with canada??\xef\xbb\xbf'
p542
aS'"What the hell are you talking about?"\n"I dunno! :D"\xef\xbb\xbf'
p543
aS'Teriyaki honda civic? Thats from way back. "How to be ninja."\xef\xbb\xbf'
p544
aS'MORE SKITZO VIDEOS PLEASE!!!!\xef\xbb\xbf'
p545
aS'Your stupid ryan higa\xef\xbb\xbf'
p546
aS'More skitzo please!! :D\xef\xbb\xbf'
p547
aS'Do another skitzo\xef\xbb\xbf'
p548
aS"Please tell me this isn't the last Skitzo video...\xef\xbb\xbf"
p549
aS'Dear Ryan, can you impersonate sean?\xef\xbb\xbf'
p550
aS'OMG the Canada part made me laugh so hard as a Canadian \xef\xbb\xbf'
p551
aS'I LIKE Hanate, hanaTEEHEE\xef\xbb\xbf'
p552
aS"I think it's funny how everyone thinks Ryan is Asian but he really isn't \xef\xbb\xbf"
p553
aS'i still think im from Cananda!\xef\xbb\xbf'
p554
aS"i loveeeee Hanate in this vid'. xD\xef\xbb\xbf"
p555
aS'Thxxxx so much for bringing skitzo back and for all ur work :)\xef\xbb\xbf'
p556
aS'STAR WARS!!!! :D\xef\xbb\xbf'
p557
aS"Did anyone else notice that the last part of Hanate's name was Honda Civic?\xef\xbb\xbf"
p558
aS"I love Regina's story lol\xef\xbb\xbf"
p559
aS'CANADA\xef\xbb\xbf'
p560
aS'Glad to see that yet another person finds humor in our accents. And no, \nHanate, I am not talking about Canada.:)\xef\xbb\xbf'
p561
aS'I just love Regina so much...\xef\xbb\xbf'
p562
aS'can you make more episodes like 4 every 2 months\xef\xbb\xbf'
p563
aS'Canada...\xef\xbb\xbf'
p564
aS'haha 5:40 forest gump!!\xef\xbb\xbf'
p565
aS'the sword that made the nose scar...iron...curved...curled iron...curling \niron\xef\xbb\xbf'
p566
aNaS"I'm Canadian and I don't talk like that. It's kinda offensive\xef\xbb\xbf"
p567
aS'Congrats on 12 million subscribers\xef\xbb\xbf'
p568
aNaS'Aaaaasom\xef\xbb\xbf'
p569
aS'More skit zoo\xef\xbb\xbf'
p570
aS'dem effects doe\xef\xbb\xbf'
p571
aS'MOREEEE SKITZOO\xef\xbb\xbf'
p572
aS'I love Hanate\xef\xbb\xbf'
p573
aS'Why do so much dumb Americans make fun of Canadiens\xef\xbb\xbf'
p574
aS"I just love Hanate's face lol! Can't stop laughing when i look at it and \nalso his accents :)\xef\xbb\xbf"
p575
aS'Keep it up\xef\xbb\xbf'
p576
aS'If you change the "E" from Regina and turn it to an "A" it will sound like \nragina and it rhymes with vagina :)\xef\xbb\xbf'
p577
aS'MOREEEEE\xef\xbb\xbf'
p578
aS'Im guessing he was a very lonely as a child \xef\xbb\xbf'
p579
aS'will the scar stay? O.o\xef\xbb\xbf'
p580
aS'such armpit hair at 2:53 .....\xef\xbb\xbf'
p581
aS'GIVE US MORE SKITZO\xef\xbb\xbf'
p582
aS"Hanate is my favorite he's the best\xef\xbb\xbf"
p583
aS'haha, kage bunshin no jutsu <3\xef\xbb\xbf'
p584
aS'A canadian accent DOES NOT sound like that, but it is funny though lol\xef\xbb\xbf'
p585
aS'Nice vidoes they are alsome\xef\xbb\xbf'
p586
aS'i want one of those shirts\xef\xbb\xbf'
p587
aS'Hahahahaha\xef\xbb\xbf'
p588
aS'CANADA, I THINK I FROM CANADA\xef\xbb\xbf'
p589
aS'TEEHEE\xef\xbb\xbf'
p590
aS'How does honeta (the wired guy) makes his voice country \xef\xbb\xbf'
p591
aS'Awesome\xef\xbb\xbf'
p592
aS'6:12    \nouch\xe2\x80\xa6\xe2\x80\xa6...\xef\xbb\xbf'
p593
aS'You should meet Mari from smosh game bang\xef\xbb\xbf'
p594
aS'Do more\xef\xbb\xbf'
p595
aS'This is awesome. Ryans a good actor.\xef\xbb\xbf'
p596
aS'I am literally in love with Hanate.\xef\xbb\xbf'
p597
aS'Can you do more skitzo please\xef\xbb\xbf'
p598
aS"Dear ryan, can u tell us about regina's lovelife?\xef\xbb\xbf"
p599
aS'Ryan do a shawnzo where it stars shawn in a skitzo!\xef\xbb\xbf'
p600
aS'OH,sorrry\xef\xbb\xbf'
p601
aS'r-dizzle: what if this is all a dream- LIKE IN DAT ONE MOVIE...<thinks \nhard> TITANIC\nhanate: *I think im from canada*\xef\xbb\xbf'
p602
aS'LOL @ 3:11, u can see the string holding up the banana\xef\xbb\xbf'
p603
aS'#meese\xef\xbb\xbf'
p604
aS'more skitzo !!!!!!!!!!!!!!!!!!!!!!!!!!!!!!!!!!!!!!!!!!!!!!! \n!!!!!!!!!!!!!!!!!!!!!!!!!!!!!!!!!!!!!!!!!!!!!!!!\xef\xbb\xbf'
p605
aS'Wut\xef\xbb\xbf'
p606
aS'Looks like Regina has so much time to curl her hair and fight epic \nbattles, but no time to shave her pits.\xef\xbb\xbf'
p607
aS'Lol the Canadian accent\xf0\x9f\x98\x82\xef\xbb\xbf'
p608
aS'Dear Ryan, can you do Movies in Minutes:The Hunger Games\xef\xbb\xbf'
p609
aS'Lol I love it when hante inturupts the awkward silence\xef\xbb\xbf'
p610
aS"Hondacivic was the last part I got out of honta's name\xef\xbb\xbf"
p611
aNaS'More skitzo\xef\xbb\xbf'
p612
aS'http://www.curling.ca/\xef\xbb\xbf'
p613
aS'the end doe...\xef\xbb\xbf'
p614
aS'More Skitzo! :D\xef\xbb\xbf'
p615
aS'#TeamHanate\xef\xbb\xbf'
p616
aS'lol\xef\xbb\xbf'
p617
aS'"What if this is all a dream like in that one movie.... Titanic" best \npart!!\xef\xbb\xbf'
p618
aS'Liking ryans vids before watching them.\xef\xbb\xbf'
p619
aS"'Are we not real people or not?' Loook\xef\xbb\xbf"
p620
aS'I cracked up at the Canadian accent omfg\xef\xbb\xbf'
p621
aS'Mooses or meese lol !\xef\xbb\xbf'
p622
aS'More Skitzo!!!!\xef\xbb\xbf'
p623
aS'LOL\xef\xbb\xbf'
p624
aS"Ryan yo should do more SKITZOs because they're so funny and really cool.\xef\xbb\xbf"
p625
aS'Skitzooooooo pleassseee!!!!!!!\xef\xbb\xbf'
p626
aS'HANATE AND REGINA. LOL.\xef\xbb\xbf'
p627
aS'even i hv a nose scare exept a swing hit me and it wasnt a sword handling \naccident\xef\xbb\xbf'
p628
aS'That was like the movie Miracle\xef\xbb\xbf'
p629
aS'More please\xef\xbb\xbf'
p630
aS'#I #think #im #from #canada\xef\xbb\xbf'
p631
aS'Props for droppin in a dota reference @ 4:24 \n#datUrsaEnrageSoundEffect\xef\xbb\xbf'
p632
aS'Canada\xef\xbb\xbf'
p633
aS'Moooore Skitzooooo \xe2\x99\xa1\xe2\x99\xa5\xe2\x99\xa1\xe2\x99\xa5\xe2\x99\xa1\xe2\x99\xa5\xef\xbb\xbf'
p634
aS'Can you make a new series called the Hanate show I just got the idea\xef\xbb\xbf'
p635
aS'yay, skitzo!!\xef\xbb\xbf'
p636
aS'lol idunno\xef\xbb\xbf'
p637
aS'regina let me borrow your curling iron\xef\xbb\xbf'
p638
aS'More skitzo\xef\xbb\xbf'
p639
aS'No wonder your famous/popular! You are so funny!\xef\xbb\xbf'
p640
aS'I was seriously crying my eyes out, but you made me smile Ryan. Thank you \nso much I love you :)\xef\xbb\xbf'
p641
aS'CANADA XD\xef\xbb\xbf'
p642
aS'lol handa sivic! lol\xef\xbb\xbf'
p643
aS'Do more\xef\xbb\xbf'
p644
aS'1:32... Heheheheheheheheheehhehehehehe\xef\xbb\xbf'
p645
aS'I never even noticed he/she even had a nose scar. \xef\xbb\xbf'
p646
aS'cool\xef\xbb\xbf'
p647
aS'SUPER FUNNY! YOU HAVE TO WATCH IF YOU HAVE NOT!!!!!!!!!!!!!!!!!\xef\xbb\xbf'
p648
aS'Hanate* Sorry ;C\xef\xbb\xbf'
p649
aS"I like hanate's story\n\xef\xbb\xbf"
p650
aS'Stfu stands for stot tickling furry unicorns\xef\xbb\xbf'
p651
aS'KAGABUSHINOJITSU!\xef\xbb\xbf'
p652
aNaS'Dear Ryan, can you set a world record?\xef\xbb\xbf'
p653
aS'OMG I LOVE HANATE LOL\xef\xbb\xbf'
p654
aS'Regina is so built! xD\xef\xbb\xbf'
p655
aS'Regina should really shave under her under arms lol\xef\xbb\xbf'
p656
aS"'Are we not real people or not?' Loook\xef\xbb\xbf"
p657
aS'We dont sound like that!!!!!(canadian accent)\xef\xbb\xbf'
p658
aS'Canada !\xef\xbb\xbf'
p659
aS'the canadian story .... was so confusing. OR MAYBE THATS JUST ME.. (loved \nit still...) :D\xef\xbb\xbf'
p660
aS'MORE SKITZOS PLZ\xef\xbb\xbf'
p661
aS'Aaaaasom\xef\xbb\xbf'
p662
aS"Hey Ryan, where'd you get those giant asks made of cardboard that Hanate \nhad?\xef\xbb\xbf"
p663
aS'Skitzo is back Yay\xef\xbb\xbf'
p664
aS'Dear Ryan, can you star in your own scripted anime?\xef\xbb\xbf'
p665
aS':3 my head started to hurt one you started agrueing with your self!\xef\xbb\xbf'
p666
aS'0:28 OUO ong Fabulous\xef\xbb\xbf'
p667
aS"dear ryan, can you be \xc7\x9dq no\xca\x8e u\xc9\x90\xc9\x94 'u\xc9\x90\xca\x8e\xc9\xb9 \xc9\xb9\xc9\x90\xc7\x9dp\xef\xbb\xbf"
p668
aS'Regina is so hot!!!!\xef\xbb\xbf'
p669
aS'Hannate? More like Forrest Gump\xef\xbb\xbf'
p670
aS'that canadien accent XD\xef\xbb\xbf'
p671
aS'fab part is when Hanate was doing the signs\xef\xbb\xbf'
p672
aS'Ok that is make no sense \n\xef\xbb\xbf'
p673
aS'Hanate should have said he got it from teaching wimps how to be ninjas\xef\xbb\xbf'
p674
aS'#hanate swag\xef\xbb\xbf'
p675
aS'Oh my gosh you make me lmfao\xef\xbb\xbf'
p676
aS'why does the "Canadian" sound like forest gummp? \xef\xbb\xbf'
p677
aS'If I have the script of this video, I can understand all of their words...\xef\xbb\xbf'
p678
aS'Can u do more please please please please please ep please please please \nplease place p wow pe apsjxzjnxxnkxbxkcbxxnxnzjzkndnsjso\xef\xbb\xbf'
p679
aS'Luke Brooks!!!! \xef\xbb\xbf'
p680
aS'rtuy\xef\xbb\xbf'
p681
aS'I love this video! Hanate was my favorite. So funny. Make more ryan\n\xef\xbb\xbf'
p682
aS'regina is so stupid, i keep watching skitzo vdoz again and again just for \nregina, so funny\xef\xbb\xbf'
p683
aS"Cool how did you multiply yourself\nYou couldn't do ka bushin no jitsu\n\xef\xbb\xbf"
p684
aS'Good ending haha\xef\xbb\xbf'
p685
aS'0:47 cracks me up lol\xef\xbb\xbf'
p686
aS'I LOVE YOU RYAN!!!!!!\xef\xbb\xbf'
p687
aS'make a video about justin bieber getting arrested\xef\xbb\xbf'
p688
aS'Canada just won the gold medel for curling.\xef\xbb\xbf'
p689
aS'Please more skitzo!!\xef\xbb\xbf'
p690
aS'Someone answer\xe2\x80\xbc\xef\xb8\x8f\xe2\x9c\x8b: How does he make those effects?\xef\xbb\xbf'
p691
aS'My favorite is Hanate. Every time I look at his face I just lose it.\xef\xbb\xbf'
p692
aS'Winter Olympics curling iron Hanate sounded a lot like forrest gump\xef\xbb\xbf'
p693
aS'Dear Ryan what does the fox say?\n\xef\xbb\xbf'
p694
aS'lol hanate and his signs\xef\xbb\xbf'
p695
aS'Are we not real people or not? XD\xef\xbb\xbf'
p696
aS'HANTAE!\xef\xbb\xbf'
p697
aS"I always thought skitzo was the funniest part of Ryan's channel. Petition \nfor Skitzo to be its own channel?\xef\xbb\xbf"
p698
aS'I have a feeling Ryan copied shane dawson with r-dizzle his character cuz \nshane dawson had s-Dezzy before r-dizzle.... \xef\xbb\xbf'
p699
aS'MORE.\xef\xbb\xbf'
p700
aS'#ReginavsRyan\xef\xbb\xbf'
p701
aS'HANATE :D -^\xef\xbb\xbf'
p702
aS'I like the way you went to a southern accent for an Asian Canadian XD p.s \nim Canadian\xef\xbb\xbf'
p703
aS'Dear Ryan, can you be divergent? \xef\xbb\xbf'
p704
aS'2 words: more skitzo.\xef\xbb\xbf'
p705
aS'you know why the canadian who won cuz candians are epic like me\xef\xbb\xbf'
p706
aS'Kage bunshin no jutsu!!! XD I love you!\xef\xbb\xbf'
p707
aS'This is my favorite \xef\xbb\xbf'
p708
aS'Skitzo is the best ever. Never stop make it! \xef\xbb\xbf'
p709
aS'Dear Ryan can u do divergent?\xef\xbb\xbf'
p710
aS'It is even more hilarious re-watching this during the winter olympics while \nin Canada. \xef\xbb\xbf'
p711
aS'More skitzo\xef\xbb\xbf'
p712
aS'Too*\xef\xbb\xbf'
p713
aS'Hanate is a true Canadian hero.\xef\xbb\xbf'
p714
aS'Regina has armpit hair...\xef\xbb\xbf'
p715
aS'MAKE MORE SKITZO\n\xef\xbb\xbf'
p716
aS'Hanate is Obviously Japanese (-_-) lol honda civic xD #RANDOM... p.s. I \nhate hash tags (-_-)\xef\xbb\xbf'
p717
aS'take skitzo to open,out of room,then may be it will make sense..\xef\xbb\xbf'
p718
aS'are those real mustles they look really real to me?\xef\xbb\xbf'
p719
aS"After watching this so many times, I still don't know what Regina says at \n2:02. D:\xef\xbb\xbf"
p720
aS'\nWho of Polish?\xef\xbb\xbf'
p721
aS'gotta love hanate \xef\xbb\xbf'
p722
aS'MORE SKITZO PLEAZ\xef\xbb\xbf'
p723
aS'Dear Ryan, can you run a marathon.\xef\xbb\xbf'
p724
aS'Canada\xef\xbb\xbf'
p725
aS'yay, Canadians r AWESOME!!!!!!\xef\xbb\xbf'
p726
aS'Dear Ryan, Can you do Gta5 in Real life?\xef\xbb\xbf'
p727
aS'Ryan and Regina are wearing almost the same shirt\xef\xbb\xbf'
p728
aS'Hanate doe.\xef\xbb\xbf'
p729
aS'Bring back skitzo\xef\xbb\xbf'
p730
aS'flappy*\xef\xbb\xbf'
p731
aS'Make more skitzo\xef\xbb\xbf'
p732
aS'Dear Ryan, can you start a gaming channel?\xef\xbb\xbf'
p733
aS'OMG I LOVE UR SKITZO!\xef\xbb\xbf'
p734
aS'0:13 OMG Hanatae is like "Hai" XDDD\xef\xbb\xbf'
p735
aS'love skitzos\xef\xbb\xbf'
p736
aS"Haha ! I love Regina's and Hanate's voices ! but none of them really make \nsense, LOL ! :P\xef\xbb\xbf"
p737
aS'Please do more skitzo! Like so he can see!\xef\xbb\xbf'
p738
aS'Skitzo: where RYAN is the only normal one.\xef\xbb\xbf'
p739
aS'Dear Ryan what does the fox say?\n\xef\xbb\xbf'
p740
aS'Dear Ryan, how would you survive if Slender Man was after you?\xef\xbb\xbf'
p741
aS'Love you vidoes i almost saw all of them\xef\xbb\xbf'
p742
aS'Needs more cowbell\xef\xbb\xbf'
p743
aS'"....and you can read gooder than me!" XD lol!\xef\xbb\xbf'
p744
aS'I literally just died of laughter lmfao one of your best vids\xef\xbb\xbf'
p745
aS'Is it bad that R-drizzle is the cuter version of you even though your the \nsame guy lol\xef\xbb\xbf'
p746
aS'haahahah :D \xef\xbb\xbf'
p747
aS'Dear Ryan, can you play flappy bird :)\xef\xbb\xbf'
p748
aS'More\xef\xbb\xbf'
p749
aS'wtf 1:13\xef\xbb\xbf'
p750
aS'lol\xef\xbb\xbf'
p751
aS'Why does she have a picture of Miley Cyrus twerking at 3:04\xef\xbb\xbf'
p752
aS'LOL dat epic ending xD\xef\xbb\xbf'
p753
aS'more skitzoss !! theyre awesome\xef\xbb\xbf'
p754
aS'I died at kagebunshi no jutsu hahahaha\xef\xbb\xbf'
p755
aS'STOP MAKING FUN OF CANADA!!!!!!!!!!! ITS AN AMAZING COUNTRY!!!!!!!!\xef\xbb\xbf'
p756
aS"and it was as if time stood still.... (an hour earlier) I THINK I'M FROM \nCANADA!\n(btw plz dont take offence if ur Canadian, i just wanted to be funny from \nthe vid)\xef\xbb\xbf"
p757
aS"I'm Canadian \xef\xbb\xbf"
p758
aS'I love your skitzos.  I missed them.  Bring more!!!!!!!!!!!!!!  luv u Ryan!\xef\xbb\xbf'
p759
aS'ITS BACK\xef\xbb\xbf'
p760
aS'CANADA\xef\xbb\xbf'
p761
aS'more skitzo :)\xef\xbb\xbf'
p762
aS'Freaking Canadian accent, it turned into a freaking western accent.\xef\xbb\xbf'
p763
aS'Regina is so sassy! Hanate the Canadian is so LOL\xef\xbb\xbf'
p764
aS'\xd1\x8f \xd0\xbf\xd1\x80\xd0\xbe\xd1\x81\xd1\x82\xd0\xbe \xd0\xbf\xd0\xb8\xd1\x88\xd1\x83 \xd0\xbf\xd0\xbe-\xd1\x80\xd1\x83\xd1\x81\xd1\x81\xd0\xba\xd0\xb8 , \xd0\xbd\xd0\xb5 \xd0\xbe\xd0\xb1\xd1\x80\xd0\xb0\xd1\x89\xd0\xb0\xd0\xb9\xd1\x82\xd0\xb5 \xd0\xb2\xd0\xbd\xd0\xb8\xd0\xbc\xd0\xb0\xd0\xbd\xd0\xb8\xd1\x8f ...\xef\xbb\xbf'
p765
aS'Great video ryan! I <3333 skitzo! But no teehee... WHY?!\n\xef\xbb\xbf'
p766
aS"Star Trek that's tar wars\xef\xbb\xbf"
p767
aS'thanks for bring them back\xef\xbb\xbf'
p768
aS"Regina sounds just like my ex-boyfriend!  When I'm in an argument, I like \nto know wtf I'm fighting about....so I had to dump him.\xef\xbb\xbf"
p769
aS'Ha ha. Racist against Canada, my home land > - < lol ;P\xef\xbb\xbf'
p770
aS'God this is sooooo funny xDDD\xef\xbb\xbf'
p771
aS'More Plz!!!\xef\xbb\xbf'
p772
aS'Yes\xef\xbb\xbf'
p773
aS'"Is this all a dream? Like titanic!" Omg lol!!\xef\xbb\xbf'
p774
aS'More please\xef\xbb\xbf'
p775
aS'Me too\xef\xbb\xbf'
p776
aS'Lol wtf\xef\xbb\xbf'
p777
aS'More More more\xef\xbb\xbf'
p778
aS'NIGAHAGAAYY\xef\xbb\xbf'
p779
aS'we want more Skitzoooo\xef\xbb\xbf'
p780
aS'1of my favorite vids\xef\xbb\xbf'
p781
aS'Ryan, can you make a pokemon video???? PLZZZZZ\xef\xbb\xbf'
p782
aS'aww the little canadian part<33 (im canadian)\xef\xbb\xbf'
p783
aS"+John LN no, it's because SKIT-zo. A skit is a short flim, video or play. \nHe just randomly added zo.\xef\xbb\xbf"
p784
aS'The principle of my last school was actually named Miss Honda\xef\xbb\xbf'
p785
aS"Regina's Morning Routine is the best. xD\xef\xbb\xbf"
p786
aS'Lol Canadian accent \xef\xbb\xbf'
p787
aS'MORE SKITZO!!!!!!!!!!!!!!!!!!!!!!!!!!!!!!!!!!!!!!!!!!!!!!!!!!!!!!!!!!\xef\xbb\xbf'
p788
aS'Lol Canadian accent\xef\xbb\xbf'
p789
aS'Regina is so funny....\xef\xbb\xbf'
p790
aS' \xef\xbb\xbf'
p791
aS'Dear Ryan, Can you be Avatar\xef\xbb\xbf'
p792
aS'Hahaha\xef\xbb\xbf'
p793
aS"Hahahaha :') hanate's His face is just priceless\xef\xbb\xbf"
p794
aS'make moreee pleaseeee!! this is awesome!!\xef\xbb\xbf'
p795
aS'Regina has pit hair XD\xef\xbb\xbf'
p796
aS"I love the part when regina wakes up from her sleep. It looks refreshing to \nsee a lady with armpit's hair and dance that way, so unique. :D\xef\xbb\xbf"
p797
aS'one of your best videos\xef\xbb\xbf'
p798
aS"I'M SO HAPPY YOU BROUGHT SKITZO BACK! :)\xef\xbb\xbf"
p799
aS'CANADA\xef\xbb\xbf'
p800
aS'3:11 I see the string on the banana \xef\xbb\xbf'
p801
aS'why does rigina have armpit hair?\xef\xbb\xbf'
p802
aS'Kagebunshi no jutsu XDDDD\xef\xbb\xbf'
p803
aS'Do another!!!\xef\xbb\xbf'
p804
aS'you should bring up How To Be\xef\xbb\xbf'
p805
aS"So more skit zoo please, it's really funny!\xef\xbb\xbf"
p806
aS'Oh and do why shadow clone why not water? Dumb question right \xef\xbb\xbf'
p807
aS'More please!\xef\xbb\xbf'
p808
aS"OHHHHH THAT'S WHY IT'S CALLED SKITZO\nSKITZO-PHRENIC\xef\xbb\xbf"
p809
aS'More\xef\xbb\xbf'
p810
aS'More\xef\xbb\xbf'
p811
aS'Oh sawdy XD\xef\xbb\xbf'
p812
aS'5:40 moose is already plural\xef\xbb\xbf'
p813
aS'Please do more how to videos \n\xef\xbb\xbf'
p814
aS'Do another Skitzo PLEASE!!!!!!!\xef\xbb\xbf'
p815
aS'Stupid adds\xef\xbb\xbf'
p816
aS'Hanate-I still think i am from Canada!\n(-.-)\xef\xbb\xbf'
p817
aS'TEEHEE\xef\xbb\xbf'
p818
aS'kakebunjino jutsu! Shadow Clone jutsu! and is this niggahiga cleaning -_-\xef\xbb\xbf'
p819
aS'Hey, Canadians watch Naruto to (me)\xef\xbb\xbf'
p820
aS'MAKE A NOTHER ONE!!!\xef\xbb\xbf'
p821
aS'lol *6:17*\n\ni dont know\xef\xbb\xbf'
p822
aS'P.S i subscribed :D\xef\xbb\xbf'
p823
aS'Dear Ryan: do a trailer of the hunger games! x\xef\xbb\xbf'
p824
aS'More\xef\xbb\xbf'
p825
aS'maybe they all had the same now job\xef\xbb\xbf'
p826
aS'i love how their stories turned out to be true and nigahiga was in one of \nthem (R-Dizzle)\xef\xbb\xbf'
p827
aS"The videos are getting pimped now. What, animations? Hahaha\n\nI remember the time when you're just doing the dolphin jump.\xef\xbb\xbf"
p828
aS'i love your showes but please make more skitzo\xef\xbb\xbf'
p829
aS'Dear Ryan, can you shave your arm pits?\xef\xbb\xbf'
p830
aS'No teehee\xef\xbb\xbf'
p831
aS'Eh\xef\xbb\xbf'
p832
aS'xD 3:25 NOOOOO MARLEYYYYYY!\xef\xbb\xbf'
p833
aS'oh no... the melon is back!\nBad melon!\xef\xbb\xbf'
p834
aS'\xe2\x9d\xa4\xef\xb8\x8f\xe2\x9d\xa4\xef\xb8\x8f\xe2\x9d\xa4\xef\xb8\x8f\xe2\x9d\xa4\xef\xb8\x8f\xe2\x9d\xa4\xef\xb8\x8f\xe2\x9d\xa4\xef\xb8\x8f\xe2\x9d\xa4\xef\xb8\x8f\xe2\x9d\xa4\xef\xb8\x8f\xe2\x9d\xa4\xef\xb8\x8f\xe2\x9d\xa4\xef\xb8\x8f\xe2\x9d\xa4\xef\xb8\x8f\xe2\x9d\xa4\xef\xb8\x8f\xe2\x9d\xa4\xef\xb8\x8f\xe2\x9d\xa4\xef\xb8\x8f\xe2\x9d\xa4\xef\xb8\x8f\xe2\x9d\xa4\xef\xb8\x8f\xe2\x9d\xa4\xef\xb8\x8f\xe2\x9d\xa4\xef\xb8\x8f\xe2\x9d\xa4\xef\xb8\x8f\xe2\x9d\xa4\xef\xb8\x8f\xe2\x9d\xa4\xef\xb8\x8f\xe2\x9d\xa4\xef\xb8\x8f\xe2\x9d\xa4\xef\xb8\x8f\xe2\x9d\xa4\xef\xb8\x8f\xe2\x9d\xa4\xef\xb8\x8f\xe2\x9d\xa4\xef\xb8\x8f\xe2\x9d\xa4\xef\xb8\x8f\xe2\x9d\xa4\xef\xb8\x8f\xe2\x9d\xa4\xef\xb8\x8f\xe2\x9d\xa4\xef\xb8\x8f\xe2\x9d\xa4\xef\xb8\x8f\xe2\x9d\xa4\xef\xb8\x8f\xe2\x9d\xa4\xef\xb8\x8f love \nthis episode ~RMDYflowx\xe2\x84\xa2\xef\xbb\xbf'
p835
aS'Keep making skitzos!!!!!\xef\xbb\xbf'
p836
aS'awesome\xef\xbb\xbf'
p837
aS"You haven't done a skitzo in a while so please could you make a new one\xef\xbb\xbf"
p838
aS'take a second to chekc my vid out!\xef\xbb\xbf'
p839
aS'jrk i anadiaan dont say mees we say moose you rasist female dog\xef\xbb\xbf'
p840
aS'More skitzo\xef\xbb\xbf'
p841
aS'2:54 LOL\xef\xbb\xbf'
p842
aS"you're really creative ryan :D \xef\xbb\xbf"
p843
aS'Hanate is OBVIOSLY Japanse (-_-) lmao honda civic xD #RANDOM p.s. I hate \nhash tag (-_-) \xf0\x9f\x98\x82\xef\xbb\xbf'
p844
aS"I still think I'm from Canada, lol! xD funny\xef\xbb\xbf"
p845
aS'Come on Ryan do more!!\xef\xbb\xbf'
p846
aS'Pleasemake another one :D\xef\xbb\xbf'
p847
aS'\xd0\x92\xd1\x8b \xd0\xb0\xd0\xbd\xd0\xb3\xd0\xbb\xd0\xb8\xd0\xb9\xd1\x81\xd0\xba\xd0\xb8\xd0\xb5 \xd0\xbf\xd1\x80\xd0\xb5\xd0\xb4\xd1\x83\xd1\x80\xd0\xba\xd0\xb8, \xd0\xa0\xd0\xbe\xd1\x81\xd1\x81\xd0\xb8\xd1\x8f \xd0\xb2\xd0\xbf\xd0\xb5\xd1\x80\xd1\x91\xd0\xb4\xef\xbb\xbf'
p848
aS'Nah finland\xef\xbb\xbf'
p849
aS'MORE SKITZO!!!\xef\xbb\xbf'
p850
aS"It's been two years, but Skitzo is back! Regina, Hanate, R-Dizzle tell the \nreal story of how they all got the same nose scar.\xef\xbb\xbf"
p851
aS"*triumphant music ends*\nwhat are you talking about?\ni don't know.\xef\xbb\xbf"
p852
aS'5:00 coolest voice made by man\xef\xbb\xbf'
p853
aS'What does he say?? 5:07\xef\xbb\xbf'
p854
aS"Norway V.S. Canada! I'm norwegian!\xef\xbb\xbf"
p855
aS'CANADA\xef\xbb\xbf'
p856
aS'Fuck \n\xf0\x9f\x91\x8d\xf0\x9f\x91\x8d\xf0\x9f\x91\x8d\xf0\x9f\x91\x8d\xf0\x9f\x98\xb1\xf0\x9f\x98\xa8\xf0\x9f\x98\xab\xf0\x9f\x98\xa9\xf0\x9f\x98\x93\xf0\x9f\x98\x85\xf0\x9f\x98\xb0\xf0\x9f\x98\xa5\xf0\x9f\x98\xaa\xf0\x9f\x98\xad\xf0\x9f\x98\x82\xf0\x9f\x98\xa2\xf0\x9f\x98\xa3\xf0\x9f\x98\x9e\xf0\x9f\x98\x92\xf0\x9f\x98\x8c\xf0\x9f\x98\x94\xf0\x9f\x98\x81\xf0\x9f\x98\xb3\xf0\x9f\x98\x9b\xf0\x9f\x98\x9d\xf0\x9f\x98\x9c\xf0\x9f\x98\x99\xf0\x9f\x98\x97\xf0\x9f\x98\x9a\xf0\x9f\x98\x98\xf0\x9f\x98\x8d\xf0\x9f\x98\x89\xe2\x98\xba\xef\xb8\x8f\xf0\x9f\x98\x8a\xf0\x9f\x98\x80\xf0\x9f\x98\x83\xf0\x9f\x98\x84\xf0\x9f\x8c\x98\xf0\x9f\x8c\x9c\xf0\x9f\x8c\x9e\xf0\x9f\x8c\x90\xf0\x9f\x8c\x90\xf0\x9f\x8c\x90\xf0\x9f\x9a\x96\n\xef\xbb\xbf'
p857
aS'So glad their back, now bring back off the pills please\xef\xbb\xbf'
p858
aS'R-Dizzle and Regina are perfect together. They seem to understand each \nother better. LOLZ.\xef\xbb\xbf'
p859
aS"lol 'i still think i'm from canada'\xef\xbb\xbf"
p860
aS'I loled so hard at the naruto reference\xef\xbb\xbf'
p861
aS'Hanate is my favourite\xef\xbb\xbf'
p862
aS'Dear Ryan, why you have same nose scar like me?\nIt is really at the same spot, like you are. Is that some coincident?\xef\xbb\xbf'
p863
aS'I will always be curling for Canada.\xef\xbb\xbf'
p864
aS'There are ads everyone on youtube now...\xef\xbb\xbf'
p865
aS'More skitzos!\xef\xbb\xbf'
p866
aS'Dear Ryan, make a "How To" video, old school!\xef\xbb\xbf'
p867
aS'Hello everybody and thanks for reading this! i have been meening to start \nmaking videos like ryan, i have been taking acting classes and consider \nmyself a comedian. i am also a professional editor so i can edit the videos \non the same level as ryans. I know how to write script also, so the only \nthing i need from you is a topic! if you have the time and are feeling \nfriendly please help me out! :D\xef\xbb\xbf'
p868
aS'More\xef\xbb\xbf'
p869
aS"Hahahahahahahaha!! I can't stop laughing! You're really funny :))))))\xef\xbb\xbf"
p870
aS'Regina got some hairy pits\xef\xbb\xbf'
p871
aS'dear ryan how many times can you bail on a skateboard \xef\xbb\xbf'
p872
aS'dear Ryan you should do floppy bird\xef\xbb\xbf'
p873
aS"Dear Ryan: What's your theme song?\xef\xbb\xbf"
p874
aS'Where is dead because I killed it?? He should be in skitzo!\xef\xbb\xbf'
p875
aS"That is nothing like the Canadian ascent we sound the exact same as \namaricains and everyone that thinks that's all we are about is so mean come \nto Canada then find out what YOU think about us cause we are way nicer then \nall you USA people so ya. I'm just sticking up for my country \xef\xbb\xbf"
p876
aS'Do another skitzo some time\xef\xbb\xbf'
p877
aS'Dear Ryan, can you do real life Pok\xc3\xa9mon?\xef\xbb\xbf'
p878
aS'Wat the hell \xef\xbb\xbf'
p879
aS"Am I the only one who noticed that hanate is the only one who's name \ndoesn't start with an R\xef\xbb\xbf"
p880
aS'Dear Ryan, can you wear a Saree?\xef\xbb\xbf'
p881
aS'he has a picture of miley cyrus picture at 3:04\xef\xbb\xbf'
p882
aS'Lol dat Canadian accent \xef\xbb\xbf'
p883
aS'regina had armpit hail!!\xef\xbb\xbf'
p884
aS'i mean skitzo\xef\xbb\xbf'
p885
aS'PLEASE DO ANOTHER ONE OF THESE RYAN!!!!\xef\xbb\xbf'
p886
aS'shave your armpit hair Regina\xef\xbb\xbf'
p887
aS'Hey. Ryan try do a fake titanic video\xef\xbb\xbf'
p888
aS'dear ryne, do you have super powers?\xef\xbb\xbf'
p889
aS'Lol\xef\xbb\xbf'
p890
aS' \xc2\xb0O\xc2\xb0 Kenuduh!! \xef\xbb\xbf'
p891
aS'Im love these\xef\xbb\xbf'
p892
aS'Dear Ryan, Have you ever forgotten how to human?\xef\xbb\xbf'
p893
aS'When will the next one come\xef\xbb\xbf'
p894
aS'nice armpit hair Ryan\xef\xbb\xbf'
p895
aS'like this if u like Hanate the best too\xef\xbb\xbf'
p896
aS'What the hell are you Tallinn about I DONT NO....\xef\xbb\xbf'
p897
aS'I live in Canada I can make a Scottish accent a Russian accent an \nAustralian accent but can\'t make a "Canadian" accent \xef\xbb\xbf'
p898
aS'dear Ryan are you a vampire\xef\xbb\xbf'
p899
aS'hahahaha i am half japanse\xef\xbb\xbf'
p900
aS'Make more\n\xef\xbb\xbf'
p901
aS'Canada. \xef\xbb\xbf'
p902
aS'Last time Ryan: payback mother fucker\nThis time watermelon: payback motherfucker\xef\xbb\xbf'
p903
aS'I think I FROM CANADA XD\xef\xbb\xbf'
p904
aS'dear Ryan , can you shout at loud and when people ask you what is wroug you \nsay i fogot to feed my fish\xef\xbb\xbf'
p905
aS'Give it another two years and the next episode of Skitzo will air lol. Keep \nup the good work Ryan\xef\xbb\xbf'
p906
aS'XD\xef\xbb\xbf'
p907
aS'Ryan and Regina are both wearing the same shirt\xef\xbb\xbf'
p908
aS"Ryan: What the HELL are you talking about??\nHanate: I don't know!\xef\xbb\xbf"
p909
aS'Not all Canadians talk like country dudes\xef\xbb\xbf'
p910
aS' Anyone noticed the "Oh, no" from roller coaster tycoon 3 at 2:25 ?\xef\xbb\xbf'
p911
aS'Lol\n\xef\xbb\xbf'
p912
aS'Ryan: Wha the hell u even talking about?!?!\nHanate: I dono! :B\xef\xbb\xbf'
p913
aS'Dear Ryan,\nCan u do one were u talk about ur favorite celebrities and y u like by \nthem. And more Skitzo\xef\xbb\xbf'
p914
aS'Skitzo makes sense by not making any sense\xef\xbb\xbf'
p915
aS'Ik who won the gold medal for curling, his daughter is in my class\xef\xbb\xbf'
p916
aS'When hanatte said his name it ended with honda civic\xef\xbb\xbf'
p917
aS'Hanate is so funny\n\xef\xbb\xbf'
p918
aS'I loooooove Regina!!!!\xef\xbb\xbf'
p919
aS'Skitzo\xef\xbb\xbf'
p920
aS'I died when Regina said"Rocky road :D"\xef\xbb\xbf'
p921
aS'dear ryan: are you immortal?\xef\xbb\xbf'
p922
aS'Dear Ryan, I heard Skitzo formed a band.  Will you release the music video?\xef\xbb\xbf'
p923
aS'Curling for Canada! I love this video! x3\xef\xbb\xbf'
p924
aS'I love regina haha xx\xef\xbb\xbf'
p925
aS'I freaking love Regina!!!!\xef\xbb\xbf'
p926
aS'I WANT MOREEEE!!!!!!!!!!!\xef\xbb\xbf'
p927
aS'Do you come from Canada Ryan?\xef\xbb\xbf'
p928
aS'R-Dizzle - "Maybe this is all a dream, like in that one movie...Titanic" XD\xef\xbb\xbf'
p929
aS'Like that movie Titanic !! Best phrase ever! Lol :) \xef\xbb\xbf'
p930
aS'Oooooo. That vid that was boring ya canada. XD\xef\xbb\xbf'
p931
aNaS'COOL lol\xef\xbb\xbf'
p932
aS'Ryan: What the hell are you talking about?!\nHanate I dont know.\xef\xbb\xbf'
p933
aS'you can see the strings on the banana idiot!\xef\xbb\xbf'
p934
aS'They used the name from how to be ninja\xef\xbb\xbf'
p935
aS'Hanate Be Like "Canada"\xef\xbb\xbf'
p936
aS'Gotta luv hanate and regina\xef\xbb\xbf'
p937
aS'Hanate is my fave\xef\xbb\xbf'
p938
aS'Dear ryan can u be snorlax?\xef\xbb\xbf'
p939
aS'Dear ryan,are you a vampire?\xef\xbb\xbf'
p940
aS'she got hairy pits\xef\xbb\xbf'
p941
aS'GO CANADA !!!!!!!\xef\xbb\xbf'
p942
aS'Please make another one Ryan! These are hilarious! \xef\xbb\xbf'
p943
aS'Do another!\xef\xbb\xbf'
p944
aS'Fail \xef\xbb\xbf'
p945
aS'lol\xef\xbb\xbf'
p946
aS'Love Regina lol\xef\xbb\xbf'
p947
aS'Dear ryan can you be scorpion from mortal kombat\xef\xbb\xbf'
p948
aS'Lol haneta\xef\xbb\xbf'
p949
aS'Dear Ryan do the cinnamon chalnge\xef\xbb\xbf'
p950
aS'Hanate is my favorite. \xef\xbb\xbf'
p951
aS'More please more just do more siktzo \n\xef\xbb\xbf'
p952
aS"Ryan: info know cause I created you soo...\nRegina: NO YOU DIDN'T YOU'RE NOT GOD YOU'RE NOT MY MOM YOU'RE NOT A \nCARPENTER YOU DON'T MAKE THINGS!!!\nMe: BAHAHAHAHA!!!!!\xef\xbb\xbf"
p953
aS'your crew is very anoying\xef\xbb\xbf'
p954
aS'Well lamps are awesome\xef\xbb\xbf'
p955
aS'Hanate is definitely Canadian.\xef\xbb\xbf'
p956
aS'Hahah, so random, loved it!\xef\xbb\xbf'
p957
aS"Regina's story is the funniest\xef\xbb\xbf"
p958
aS':P\xef\xbb\xbf'
p959
aS'Canada\xef\xbb\xbf'
p960
aS"I laughed so hard. You don't even know. There were beautiful tears. \nBeaaaautiful.\xef\xbb\xbf"
p961
aS'dear Ryan, can you be a victor of the hunger games?\xef\xbb\xbf'
p962
aS'For the Canadian story was that supposed to be copying forest gump \xef\xbb\xbf'
p963
aS'Regina got armpit hair\xef\xbb\xbf'
p964
aS'her eating the banana looks wrong\xef\xbb\xbf'
p965
aS'Dear Ryan do you like Star Wars\nDo a Star Wars how to be\n\xef\xbb\xbf'
p966
aS'i \xe2\x99\xa5 Hanate :3 lol\xef\xbb\xbf'
p967
aS'Nice armpit hair... LOL\xef\xbb\xbf'
p968
aS'this was uploaded on my birthday!!!\xef\xbb\xbf'
p969
aS'dear ryan can you fly and wear a superman costume\xef\xbb\xbf'
p970
aS'Dear Ryan, can you make a lamps vs fans The Movie trailer?\xef\xbb\xbf'
p971
aS'More skitzo \xef\xbb\xbf'
p972
aS'Dear Ryan? can you swim in a pool full of angry piranhas whilst being \nchased by a water dragon that breathes fire that is waterproof?\xef\xbb\xbf'
p973
aS'OMG YES YES YES Skitzo is back I love soooo much thank u Ryan\xef\xbb\xbf'
p974
aS'Skitzo is AAAAAAAAAAAAWWWWWWWWWSSSSSSSSSSSOOOOOOOOOOOMMMMMMMMMEEEEEE\xef\xbb\xbf'
p975
aS'Is this all a dream like that one movie...Titanic?\nMe-(face palm)\xef\xbb\xbf'
p976
aS'I love skitzo. Thanks Ryan for doing it again.\xef\xbb\xbf'
p977
aS'Dear ryan,\n      Could you do the ADORN dance choreography of brian puspos. \xef\xbb\xbf'
p978
aS'more skitzo\xef\xbb\xbf'
p979
aS'Hanate\xef\xbb\xbf'
p980
aS"US CANADIANS DON'T SOUND LIKE THAT\xef\xbb\xbf"
p981
aS' \xc2\xb0O\xc2\xb0 Kenuduh!! \xef\xbb\xbf'
p982
aS'Dear Ryan Higa, Can you do a star wars sequel?\xef\xbb\xbf'
p983
aS'LOL!  I love Skitzo!\xef\xbb\xbf'
p984
aS'naruto clones!\xef\xbb\xbf'
p985
aS'Oh yes use use the jutsu\xef\xbb\xbf'
p986
aS'"So you finally watched Star Wars huh."\n"What is that."\nCracked me up I love Regina \xef\xbb\xbf'
p987
aS"YAY SKITZO'S BACK\xef\xbb\xbf"
p988
aS'If r dizzle did 3 curls then how did he start on 98\xef\xbb\xbf'
p989
aS"How come I'm the only one with a Canadian accent?\nHilarious!\xef\xbb\xbf"
p990
aS'you should make more skizo\xef\xbb\xbf'
p991
aS'Dear Ryne, can you play sports?\xef\xbb\xbf'
p992
aS'Yeeahh! Regina had a One Direction poster! :D\xef\xbb\xbf'
p993
aS'Skitzo- Nose Scar\xef\xbb\xbf'
p994
aS'I like the Canadian one.\xef\xbb\xbf'
p995
aS'Curling iron\xef\xbb\xbf'
p996
aS'I still think im from canada!\xef\xbb\xbf'
p997
aS'regina has armpit hair\xef\xbb\xbf'
p998
aS'I love u \xef\xbb\xbf'
p999
aS'Hante!\xef\xbb\xbf'
p1000
aS"MAKE MORE SKITZO'S!!!! :(\xef\xbb\xbf"
p1001
aS'Ryan:This one is for the Canadian Curling Association. Just Kidding. They \nall take you to the Canadian Curling Association.....Hanate!!!!!! Oh sorry. \n(fumble)\xef\xbb\xbf'
p1002
aS'Dear Ryne, can you and your friends do a hunger games parody?\xef\xbb\xbf'
p1003
aS'Regina:So there I was I was doing my normal...Hanate! Hanate:Oh, sorrry\xef\xbb\xbf'
p1004
aS'What a good job today!!!\xef\xbb\xbf'
p1005
aS'Dear ryan can you be scorpion from mortal kombat\xef\xbb\xbf'
p1006
aS'O sahreh XD'
p1007
aS'I THINK STILL THINK IM FROM CANADA '
p1008
aS'Fruit ninja fail was recomended'
p1009
aS'More Skitzo!'
p1010
aS'Why do every Skitzo video Ryan and Regina have a same shir\xc2\xbf\xc2\xbf??'
p1011
aS'I know 95% of people wont do this but please please check out my channel, \nand subscribe if you like what you see, i do drawing tutorials so please \nlike my vids! Thanks!'
p1012
aS'I like hanate Canada accent!!! Hahaha funny!!!!'
p1013
aS'Such a small light saber'
p1014
aS"Dear Ryan, can you kill your self and then resurrect your self while doing \nthe Harlem shake surrounded by cats and lizards and also it's raining \nthousands of you"
p1015
aS'watch my vid (not work on youtube) Step 1: type in Skitzo-family--youtube \non the GOOGLE search bar at the top of the page. Step 2:Click the FIRST vid \non the page (make sure it says By Shafi Chowdhury in the description. ) \nStep 3: WATCH , COMMENT , LIKE and SUSCRIBE! :)'
p1016
aS'MORE SKITZO!!!!!!!'
p1017
aS'Dear Ryan, Can you be Russian? '
p1018
aS'are we attacking the jedi? i hate star trek lol'
p1019
aS'Lmfao'
p1020
aS'I especially love hanate'
p1021
aS'Miley in the background XD'
p1022
aS'r-dizzle started at 98 not 97 so he did 101 according to ryan'
p1023
aS'maybe its a dream like in that one movie................titanic'
p1024
aS'\xe2\x80\xa2Hello People\xe2\x80\xa2 I believe someone will see it, it\xe2\x80\x99ll make my day Maybe I am \njust a dreamer but I\xe2\x80\x99m not the only one I\xe2\x80\x99m from a little town but with big \ndreams My dream is to be a singer at least in my country and be heard I \nlove singing since I was a little girl, it has become my biggest passion \n\xe2\x80\x98cause I can be who really I am Everyone has had a goal in their life, \nwhatever age they are If you could possibly take a few seconds to view a \ncover of mine it would mean the world to me Thank You '
p1025
aS'CANADA '
p1026
aS'Yeah, CANADA!'
p1027
aS'big fan of ryan but this video is pretty annoying.'
p1028
aS'Lot of asians in canada, not that its bad... im canadian'
p1029
aS"I freaking love Hanate he's the best "
p1030
aS'Funny and awesome'
p1031
aS'Teryaki Suzuki Honda Civic! LOL'
p1032
aS"Who else tried clicking all the links... It can't just have been me"
p1033
aS'Omg Hanate is so funny and soo cute'
p1034
aS'Wow'
p1035
aS'Dear Ryan are you flexible?? Please like this comment so he sees lol'
p1036
aS'Dear Ryan, how fast can you get ready?'
p1037
aS'Make more skitzo'
p1038
aS'But canadians sound exactly the same as americans? O_o'
p1039
aS'TWO WORDS like the ones from this wid. MORE SKITZO'
p1040
aS'cockaine one hell of a drug'
p1041
aS'I tried like four times to go to the Canadian Curling Association website.'
p1042
aS'Canada'
p1043
aS'LOL XDDD 6:18'
p1044
aS'KAGE BUNSHIN NO JUTSU <3 '
p1045
aS'5:45 why the fuck were they using the brush behind the iron???'
p1046
aS'Tyler i think thats 7 BILLION'
p1047
aS'dear ryan, can you beat up a gorilla? '
p1048
aS'Thank you for bringing back skitzos!'
p1049
aS"I think I'm from canada."
p1050
aS'this guy is my fav celeb he is the best ryan higa all the way :) '
p1051
aS'hanate sounds like forest gump lol'
p1052
aS'Canada HAHAHAHAHHA'
p1053
aS'Dear ryan, can u teach us How to be Awsome!'
p1054
aS'how to be hipster BD with sean fluffybunny fujiyoshi and the big green ball \nand his cousin little blue ball 0__o ..idk'
p1055
aS"I still think I'm from Canada.. omg"
p1056
aS'Dear Ryan,can you do a parody on a song'
p1057
aS'Did we help the Jedi. Did we help the other guys. I THINK IM FROM CANADA'
p1058
aS'3:02 Werk it Regina'
p1059
aS'Lmbo Hanate says "im still from Canada'
p1060
aS'"I think I\'m from Canada"'
p1061
aS"That's not a fucking Canadian accent I'm Canadian that's more of a Chinese \naccent"
p1062
aS'*entitled '
p1063
aS'go skitzo '
p1064
aS'wth are you talking about??? idunno! '
p1065
aS'"I still think I\'m from Canada" HAHAHAHAAHA lol whut'
p1066
aS'Am I the only one who actually fell for the end part when he was like, \n"Wait don\'t go away yet! Watch the last skitzo video from 2 years ago! \nNevermind, now they both take you to the behind the scenes!"'
p1067
aS'Why is the Canadian have a Texan accent. '
p1068
aS'Can I schedule a date with Regina so I can show her how to shave?'
p1069
aS'So Ryan finally breaks the news to the gang'
p1070
aS'hey.... drop it shhhhh :)'
p1071
aS'dear ryan can skitzo make their own channel???'
p1072
aS'Hanate is the best Canadian:3'
p1073
aS'That Canadian accent sounded like a Chinese accent'
p1074
aS'Kage bunshin no jutsu!'
p1075
aS"Awkward moment when you realize he's talking to himself.. Haha best mode!!"
p1076
aS"I can't! Lol"
p1077
aS'im canadian.'
p1078
aS'Dear Ryan, Can You Twerk?'
p1079
aS'ohhhhh, I loved this!'
p1080
aS'Dear Ryan, can you be a webkinz'
p1081
aS'#teamhanate'
p1082
aS"That's the joke :)"
p1083
aS'Haha'
p1084
aS'make more please please please please please please please please please \nplease please please please please please please PLEASE PLEASE PLEASE \nPLEASE PLEASE PLEASE PLEASE PLEASE PLEASE PLEASE PLEASE PLEASE PLEASE \nPLEASE PLEASE PLEASE PLEASE PLEASE PLEASE PLEASE PLEASE PLEASE'
p1085
aS'Dear Ryan, can you simply walk into Mordor?'
p1086
aS"STAR WARS! It's FREAKING STAR WARS! Not STAR TREK!"
p1087
aS'Dear Ryan are you gay? '
p1088
aS'make a Dude v.s. Wild'
p1089
aS'try turning english captions on and read them....THEY ARE SO FUNNY!!!!'
p1090
aS'LOL Hanate is my favorite'
p1091
aS'he got smacked at the end with watermelon !! Omg too funny!!!!'
p1092
aS'_____. ._____'
p1093
aS'Skitzo pleease'
p1094
aS'Dear Ryan,can you sing with the one direction... '
p1095
aS'I luv them '
p1096
aS'You know you are an editing wizard when you can make a single person \nplaying four roles argue with himself or herself for Regina.'
p1097
aS'The characters just like The Sims 3 with the patches C:'
p1098
aS'regina is soo funny!'
p1099
aS"Now the Canadian curling website's gonna wonder why it got so many views \nrecently... And yay, Skitzo's back!"
p1100
aS'One Direction, Justin Bieber , and... and.... and........ Miley Cyrus ?! \nTwerking ?! Ahaha !!! Skitzo videos are so funny !!!!'
p1101
aS'Dear ryan, you are the coolest brain on youtube'
p1102
aS"Dear Ryan, do you know what the fox say's?"
p1103
aS'LOL XD'
p1104
aS'XD I USED TO LIVE IN CANADA BUT MY GRANDPARENTS BROUGHT ME HERE AND BEST \nTHING THE GUYS WAS LIKE CANADA ANDIM CANAIDIAN'
p1105
aS'its really funny'
p1106
aS'CANADA'
p1107
aS"what the hell are you talking about ? i don't knoww......."
p1108
aS'rijk'
p1109
aS'more skitzo c: '
p1110
aS'I more Skitzo please'
p1111
aS'Love it'
p1112
aS'Hanate is my fav'
p1113
aS'Another skitzo please!'
p1114
aS'CANADA!!!! :3'
p1115
aS'Moar'
p1116
aS'CANADIAN CURLING ASSOCIATION'
p1117
aS'"What the hell are you talking about?" "I don\'t know." xD omfg I love you \nRyan\xe2\x9d\xa4\xef\xb8\x8f'
p1118
aS'haha ! Love the CANADA GUY ! :)'
p1119
aS'His name is HENATI'
p1120
aS'The forrest gump part killed me'
p1121
aS'CTFxC in a nutshell'
p1122
aS'Helge'
p1123
aS"This* tank* But* access* I'm sorry. But your comment is bullshit. Have a \nnice day ;)"
p1124
aS'a carpenter?? hahahhahahhaa'
p1125
aS'I thought it was R-Dizzle Fo-Shizzle My Nizzle Off-The-Hizzle Drizzle.'
p1126
aS'missed it so much!'
p1127
aS'Dear ryan can you make a digimon parody? #teehee '
p1128
aS'i make covers to songs so you should check out my channel and like or \ncomment!'
p1129
aS'Love how in the story he changes his accent and becomes like a curling \ncanadian Forrest Gump...Very inspirational'
p1130
aS'"...teriyaki suzuki honda civic" i can\'t breathe.'
p1131
aS"he's funny "
p1132
aS'Shut misty'
p1133
aS"Don't worry coaches I got thiss lmaof priceless"
p1134
aS'Ryan can you do skitzo Christmas story'
p1135
aS'"I still think I\'m from Canada." -Hanate. That is my new life motto. '
p1136
aS'Apparently Canadian accents sound like Tennessee accents now...'
p1137
aS'LOL'
p1138
aS'You need to make more Skitzo videos, Hanate is my favorite. '
p1139
aS'Lol hanate >3< "Canada"'
p1140
aS'Do a what does the fox say'
p1141
aS'Dear Ryan : get hypppperrrkfkdeodkckcldlsckfle'
p1142
aS'skitzo '
p1143
aS'Dear Ryan, what does the fox say?'
p1144
aS'is a joke'
p1145
aS'I love hanate!!'
p1146
aS'hahaha omg hanate'
p1147
aS'I fucking love this'
p1148
aS'I love how Hanate says "oh saarray"'
p1149
aS'i love regina ! hahahah'
p1150
aS'longest video ever!'
p1151
aS'Dear Ryan, can you make a Dragon Ball Z movie?'
p1152
aS'Dear Ryan, can you make a What does the fox say parody video?'
p1153
aS'The end killed me. :D '
p1154
aS"That is probably the worst Canadian accent I've ever heard and this is \ncoming from a Canadian"
p1155
aS"Omg I'm dying this is so funny"
p1156
aS"What the hell are you talking about I don't know"
p1157
aS'Make more skitzo'
p1158
aS'Regina my fave.'
p1159
aS'can you do another How to sing like your fav artists. Rhiannia'
p1160
aS'hanate lol'
p1161
aS'More skizo'
p1162
aS'DO MORE SKITZOS PLZZZZZZZZZZZZZZzz'
p1163
aS'... Canada ...'
p1164
aS'lol good'
p1165
aS'Thank u I have been waiting got skitzo yo return'
p1166
aS'ITS BACK!!!'
p1167
aS'Dear Ryan, is it true that you are related to Harry Potter?'
p1168
aS'mind fuck.'
p1169
aS'Skitzo is the best'
p1170
aS"I think I'm canadian. XD"
p1171
aS'Ryan has nice collarbones'
p1172
aS'Ryan do a skitzo abt Halloween!'
p1173
aS"lol lol can't stop laughing I missed this"
p1174
aS"You should've been Iruka in the Naruto video because of the nose scar!"
p1175
aS"Hanate's scene reminded me of Magical Shopping Arcade"
p1176
aS'I LOVE SKITZO'
p1177
aS'Lol'
p1178
aS'Hey, check out my channel!!'
p1179
aS'I Kinda Wanted To Click On The Canadian Curling Association ;('
p1180
aS"am i the only one here whose fave skitzo character's hanate?"
p1181
aS'can u do the cinnamon challange?'
p1182
aS"i think you only really understand a lot of the jokes once you've been \nwatching him for a while... kind of like insiders.. "
p1183
aS"If being canadian means we can do Kage bunshins then I'm happy to be \ncanadian"
p1184
aS'Hanate is so cute '
p1185
aS'I missed skitzo! Thanks Ryan! Loved it!'
p1186
aS"Hanate's family name ???"
p1187
aS'J.k.'
p1188
aS'Lol love it :D'
p1189
aS'Ur awesome'
p1190
aS'I just saw ryan higa on this show on Nickelodeon. Its called Supah Ninjas. \nNOT KIDDING!!!'
p1191
aS'YAY LOVE THESSE'
p1192
aS'I got mine from a curling iron :3'
p1193
aS'\xec\x99\x84\xec\xa0\x84 \xec\x9c\xa0\xec\xbe\x8c\xed\x95\xb4\xe3\x85\x8b\xe3\x85\x8b\xe3\x85\x8b\xe3\x85\x8b'
p1194
aS'THEYRE BECOMING SLEF AWARE'
p1195
aS'DO MOREEEE.'
p1196
aS'This skitzo is better then previuos ones '
p1197
aS"I'm canadian and found that hilarious"
p1198
aS'Can you make an off the pill video? '
p1199
aS'MORE!!!I NEED MORE!!!!'
p1200
aS'OH HOW I LOVE SKITZO !!!!!!!!!!!!!!!!!!!!!!!!!!!'
p1201
aS'Dear Ryan can u make a rap battle between the Skitzos? that would be \namazing they were the reason i first started watching all the time lol but \nu have some other amazingly funny videos as well '
p1202
aS'Dear Ryan can u do a video about mangas !'
p1203
aS'Ryan can you do Skitzo every 4 weeks '
p1204
aS'Dear Ryan, can you sing the PSY songs ?'
p1205
aS'Dear Ryan can you do just dance 3'
p1206
aS'Hanate is my favorite '
p1207
aS'Dear Ryan, what does the fox say?'
p1208
aS'Dear Ryan, can you do an attack on titan parody? (:'
p1209
aS'7:08'
p1210
aS"Canadians don't have accents"
p1211
aS'Plzzz do a parody for the song SURVIVAL by Eminem plzzz '
p1212
aS'"What the hell are you talking about?" "I don\'t know!" LOL '
p1213
aS"who else attempted to click the Canadian Curling iron Association's link \nbut failed? XD"
p1214
aS'I LOVE YOU RYAN '
p1215
aS'At least... you know... before she turned all warrior-y'
p1216
aS'I DONNO'
p1217
aS'Pls make more!!!!!!!!!!!.'
p1218
aS'That ending doe :$'
p1219
aS'Hi'
p1220
aS'Omg I remember the name for the Canadian. ".....Honda civic". Its from ur \n"how to be a (ninja/nerd/gangster/etc) I can\'t rember which one'
p1221
aS"How come Hanate's voice changes to Canadian to Country?"
p1222
aS'3:05 JB,1D and twerking Miley LOL'
p1223
aS'Kk it blew my mind'
p1224
aS'Skitzo is the best series that has ever been made.'
p1225
aS'Dear Ryan can u make a video about Attack on titan !'
p1226
aS'5:07 XD LOL '
p1227
aS'Attack on Titan!'
p1228
aS'OMG I NEVER REALIZED Skitzo is a playoff of schizophrenia lmao!'
p1229
aS'Canada...!'
p1230
aS'I burned my face in the exact same way Regina did :O'
p1231
aS'now bring back off the pill,like so that ryan can read this'
p1232
aS'haha dude we have the same ninja turtle pants :P lol Canada'
p1233
aS'thank god u brought it back it was so funny!'
p1234
aS'lololol hanate '
p1235
aS'Y no videos'
p1236
aS'Hanate is so funny'
p1237
aS'The fox says "Fuck You"'
p1238
aS'HAHA omggg the ending <3 HAHAHA you troll <3'
p1239
aS"Ahaha~ Well atleast Hanate's full name didn't have toyota in XD"
p1240
aS'What happened to off the pill videos '
p1241
aS'Dear Ryan Ramen noodle Challenge'
p1242
aS'i like hunte hes funny regina too'
p1243
aS'Lmao who gets out of bed like that?'
p1244
aS'WHERES THE TEEHEE?'
p1245
aS'...and in that very moment....'
p1246
aS'Ryan! Those videos make PERFECT sense. You should do more of these!!:))'
p1247
aS"Just OMGed when I saw this, Skitzo is and always will be my favorite series \nof Ryan's."
p1248
aS'Lol'
p1249
aS'Dear Ryan can you do Skitzo reacts to nyan cat?'
p1250
aS'Nise Scar sounds like Wind Scar'
p1251
aS'Yeah skitoz are back'
p1252
aS"why am i the only one with a Canadian accent~i think I'm from Canada ~ i \nstill think I'm from Canada ~ "
p1253
aS'Funny and neat'
p1254
aS'Dear Ryan what does the fox say'
p1255
aS'Dear Ryan prom?'
p1256
aS'Hanate\xe2\x99\xa1'
p1257
aS'i was eating a banana the same time Rigina was'
p1258
aS"Dear Ryan,Can u twerk and fart on a girl's face "
p1259
aS'MAPOTI !'
p1260
aS'More skitzo'
p1261
aS'"what the hell are you talking about" "Idk" HAHAHHAHAHAHAHAH!!!'
p1262
aS'Only recently did I realize that this is called Skitzo, short for \nschizophrenia! O_o'
p1263
aS'Kage bunshin no jutsu, or kage mane no jutsu.'
p1264
aS'Dear Ryan, can you do Death Note?'
p1265
aS'( ^.^ ) SOOOOOOOOOOOOOOOOOOOOOOOOOOOOOOOOOOOOOOOOOOOOOOOOOOOOOOOOOOOOOOO \nthere I was!!!'
p1266
aS'Pause at 6:21'
p1267
aS'More! '
p1268
aS'dear Ryan can you down a bottle of sriracha sauce?'
p1269
aS'Dear Ryan, can you be Spider-Man'
p1270
aS'Yayy skitzo is back'
p1271
aS'I love this video so much HAHAHA '
p1272
aS'all of you guys have the same hand band!'
p1273
aS'I luv hanate! He always is like "why am i the only one with a canaidian \naccent? I still think im from canada! Im from canada! Canada!'
p1274
aS'CANADA!'
p1275
aS'Dear Ryan, can you go trick-or-treating...Asian style??'
p1276
aS'Dear Ryan'
p1277
aS'Dear Ryan can you make a video of rigina'
p1278
aS'#TeamHanate'
p1279
aS'I cant see ur updates even though im subscribing ur channel:(('
p1280
aS'R Dizzle: SHUT UP! Ryan: ...ok...'
p1281
aS'does your mother like japanese men ? have her fucked by one immediately \nsweety'
p1282
aS'Dear Ryan what does the fox say'
p1283
aS'I tried clicking on the Canadian Curling Association website button but \nnothing happened. My life is a lie.'
p1284
aS'i want more SKITZO '
p1285
aS'PLEASE DONT DO ANY :WHAT DOES THE FOX SAY".'
p1286
aS'Hanate is my favorite hahaa'
p1287
aS'I love it'
p1288
aS'dear ryan who is ur dream crush '
p1289
aS'2:54 hi I have armpit hair'
p1290
aS'Hanate is so cuteeee'
p1291
aS'Looks like 1,404 people are lieng '
p1292
aS'Henate is totally my fave!!! Canada!'
p1293
aS'hahaha I seriously love skitzo reminds me of the good ol days of nigahiga!'
p1294
aS"you're the BEST RYAN!!! started making vids because of you!!!!"
p1295
aS'For some absurd reason, I think that R-Dizzle and Regina make a good \ncouple. Hanate is awesome. Curling...for Canda. Total LOL!'
p1296
aS'MORE SKITZO!!'
p1297
aS'Avamami u such a hater'
p1298
aS'More skitzos!'
p1299
aS'Dear Ryan can you do the salt, ice challenge'
p1300
aS'Dear ryan,Can you make a X-Men trailer '
p1301
aS'Dear ryan, can you be anime?'
p1302
aS'2:25 ..Canada? '
p1303
aS'Like this comment if you think Ryan should make a video of his bloopers!'
p1304
aS'Dear Ryan, Make more skitzo'
p1305
aS'#Dear ryan can you be indian?'
p1306
aS'Regina my name is rujina'
p1307
aS'Leonardo Dicaprio has "Nose Scar" too. xD '
p1308
aS'Dear Ryan, Can you do Belly dancing'
p1309
aS'Haha hanate he is like"I don\'t know " lol'
p1310
aS'More plz'
p1311
aS'I love hannate lol'
p1312
aS'lmao omd the kage bunshin ninjutsu part defo my fav part ahahahah and I jus \nfinished watchin ep 148 off naruto shippuuden before I watched this vid \nlool '
p1313
aS'More Skitzo! Skitzo is so awesome.'
p1314
aS'Dear Ryan, Looking foward to our collab, im continuously making quality \nvideos so ill be seeing you sooner than you realize '
p1315
aS'They are the best'
p1316
aS'i am canadian and my acent does NOT sound like that anyway keep making more \nvids'
p1317
aS"I'M DEAD"
p1318
aS'CANADA'
p1319
aS'MOAR PLZ!!'
p1320
aS'Keep doing them they are so funny favorite is the girl'
p1321
aS'its a joke pls... '
p1322
aS'Curling...for Canada'
p1323
aS'a watermelon'
p1324
aS'CANADA'
p1325
aS"I think I'm from Canada X)"
p1326
aS'-.- Canada XD'
p1327
aS'dear ryan, can u be a poooo head, and a pee face, and fart face???'
p1328
aS'I STILL THINK IM FROM CANADA'
p1329
aS'How do you not laugh with that face Hanate lol'
p1330
aS'Dear Ryan: what happens on planet Ryan?'
p1331
aS'Canadian Curling Association looolllllll'
p1332
aS'WHAT THE HELL ARE YOU TALKING ABOUT!? I dont know. :)'
p1333
aS'I just searched it up and never mind the CCA does exist...'
p1334
aS'Lol funny'
p1335
aS"AHAHA i'm Canadian, and man, that accent was HILARIOUS xD"
p1336
aS'the fox says "Show me the car fax"'
p1337
aS'CANADA'
p1338
aS'Canada.'
p1339
aS'More skitzos'
p1340
aS'I loved the Oh No from RCT3 :D'
p1341
aS'Do more skitzo please !!'
p1342
aS'Dear Ryan, make video of Hanate drawing his life story!!!'
p1343
aS'Funny'
p1344
aS'SKITZO is da best!!! Do moore!!!'
p1345
aS'Gooder'
p1346
aS"OMG HANATE'S FACE AHAHAHAHAHA XD"
p1347
aS'lol gotta watch! i heart skitzo!'
p1348
aS'Lol'
p1349
aS"I STILL THINK I'M FROM CANADA"
p1350
aS'Why the hell are you talking about?'
p1351
aS'SO FUNNY. MORE PLEASE :3'
p1352
aS'That Would Be A Sick Movie '
p1353
aS'Dear Ryan, can you do a day in the life of Regina? :P'
p1354
aS"*.* hanate's face "
p1355
aS"Ryan: What the hell are you talking about Hanate: I don't know LOL"
p1356
aS'Star Wars lol'
p1357
aS'your "canadian" accent is rusty'
p1358
aS'The fact that you spelled so many words wrong makes me think that your a \neight year old who typed "THis" I mean like come on, what makes the TH so \nimportant in that word?'
p1359
aS'OMG GUYS STOP WITH WHAT DOES THE FOX SAY!! HE DID IT ALREADY IN A COLLAB \nWITH THE FU: /watch?v=sQMBFbCagf8'
p1360
aS'My favorite story was Reginas'
p1361
aS"I don't know! Hahaha"
p1362
aS'what in the fuck did I just watch omg'
p1363
aS'Skitzosssss YAY THEIR BACK'
p1364
aS"i fucking died at the end. i'll be sending you the hospital bill for my \nvitally damaged diaphragm "
p1365
aS'funny..... '
p1366
aS'Dear Ryan, can you twerk LEL'
p1367
aS'More Skitzo! Please!?!?!?!?!'
p1368
aS'#canada'
p1369
aS'Im from Canada too and OMGG I LOVE HANATEEE HES TOO FUNNY xD'
p1370
aS'@Dichani Nicia'
p1371
aS'Dear Ryan, can you be PewDiePie ?'
p1372
aS'Hey, Check out my channel if you can!'
p1373
aS'Hanate oh sorry lol'
p1374
aS'anyone know what 2+2 is?'
p1375
aS'watch?v=rgeo-KFpkxs&feature=yo\xc2\xadutu.be check this pls :)'
p1376
aS'Team Hanate!!!'
p1377
aS'When are you making'
p1378
aS'He made an entire video about nose scars.'
p1379
aS'Dear ryan, what does da fox say?'
p1380
aS'do what does the fox say'
p1381
aS'Ha.Ha.Ha.Ha.'
p1382
aS'Dear Ryan,what does the fox say?'
p1383
aS'curling iron dildo.'
p1384
aS'maple syrup and moose? Canada sounds pretty cool. like this if your a \nCanadian!'
p1385
aS'LOL :)) :)) :))'
p1386
aS'Dear Ryan can you do what does the fox say'
p1387
aS'Dear Ryan can you slap your ass with your foot and brush your teeth at the \nsame time?'
p1388
aS'Regina is my 2nd name'
p1389
aS'What does "Skitzo" mean? I\'m sorry, i\'m new to your channel, so yeah... ^-^'
p1390
aS'SOOOOOO DERE I WAS'
p1391
aS'A new video?'
p1392
aS'2:25 CANADA LOL'
p1393
aS"come out with some funny videos and 10,000,000 subscribers then we'll start \ntalking about who's funnier."
p1394
aS'Oh yeah one more thing: Regina looks very very weird.'
p1395
aS'OMFG YES SKITZO <3 Lmao I missed them'
p1396
aS"How Hanate always says sorry:')"
p1397
aS'go canada ftw!'
p1398
aS'LOL :D'
p1399
aS'Dear ryan Can you be a Ryan Higa for one day?'
p1400
aS"Hanate's story at the end when he was narrating sounded like The Outsiders"
p1401
aS'Make More Skitzos'
p1402
aS'I love Hanate'
p1403
aS'dear Ryan, can you do the ultimate #smakecam?!?!?!?! '
p1404
aS"that's not how Canadians talk like "
p1405
aS"lol regina's story tho"
p1406
aS'I miss skitzo so much.'
p1407
aS'wo'
p1408
aS'Canada!'
p1409
aS'What kind of camera do you use?'
p1410
aS'wtf she relly watch star wars '
p1411
aS'2:54 that armpit hair'
p1412
aS'THANK YOU. CANADA'
p1413
aS"Gosh, i love hanate oh and btw, canadians don't have an accent like that. \nWhy does everybody think that?....."
p1414
aS'There all wearing the same TEHEHEHEEHE bracelet'
p1415
aS'dear ryan what does the fox say??'
p1416
aS'2013 weird'
p1417
aS'CANADA'
p1418
aS'teehee '
p1419
aS'THIS MADE MY DAY'
p1420
aS'Please do more skitzos! they make no sense but that is what makes them the \nbest.'
p1421
aS'Omg this is awesome!'
p1422
aS'make a wanna be ginger video '
p1423
aS"Hey I'm Canadian we don't all say eh alot"
p1424
aS'Oh there it is the Teehee Lol. Thought there was no teehee on the end :~|'
p1425
aS'STFU'
p1426
aS'canada! ahahaha'
p1427
aS'Skitzos are my fave. I swear \xe2\x9d\xa4\xe2\x9d\xa4\xe2\x9d\xa4'
p1428
aS'Ryan, when you do filming for skitzo, which character do you start with \nfirst?'
p1429
aS'epic'
p1430
aS'dear ryan can you play video games'
p1431
aS'dear ryan can you cosplay as hatsune miku and sing?'
p1432
aS'HANAKE!'
p1433
aS'You accidentally the whole psicology'
p1434
aS'"I think that I\'m from Canada" hahaha'
p1435
aS'dear Ryan, can you perform inception on the skitzo members?'
p1436
aS"I don't know?"
p1437
aS'I Think Ryan Is Talking About The Main Asia '
p1438
aS'Fuck'
p1439
aS'1:00 I THINK IM FROM CANADA '
p1440
aS'I always thought that Hanate looked Canadian... '
p1441
aS'Dear Ryan, can you be a Potato with a cape'
p1442
aS'Does anybody else think of Hanate when somebody mentions Canada?'
p1443
aS'Is hante a real name'
p1444
aS'That was freaking awesome, Ryan is the best and he will always be!'
p1445
aS'Dear Ryan, can you make a short film of your normal day?'
p1446
aS'I got my nose scar from the traumatisation of these puns.'
p1447
aS'dear ryan can you lick a strangers foot'
p1448
aS'Purple Llamas'
p1449
aS'Canada. Lol'
p1450
aS'. . . wtf'
p1451
aS'Dear ryan, can you do teehee at the end of your videos again?'
p1452
aS'Niga higa:What the hell are you talking about Idk lok'
p1453
aS'That was funny.'
p1454
aS'Hanatewakusishiseiotadashitesuzukihondacivics'
p1455
aS"I have a nose scar too!! That's y indent climb ladders anymore."
p1456
aS"''Your whore rife'' xD"
p1457
aS'Dear Ryan, Can you make a video about your dog Marley being a Jedi Knight \nfighting clones thanks Alex Whites'
p1458
aS"I'm Canadian. :("
p1459
aS'Maple syrup and free healthcare'
p1460
aS'" Honda civic , Suzuki , teriyaki " is part of'
p1461
aS'That was like the worst Canadian accent stereotype ever...that just sounded \nlike bad texan, haha'
p1462
aS'Hanate is great'
p1463
aS'"Aydono!"'
p1464
aS'Dear Ryan,what does the fox say?'
p1465
aS'Dear Ryan what would you do for a turkey leg?'
p1466
aS'dear ryan what does a fox say'
p1467
aS'YAY! I MISSED SKITZO!'
p1468
aS"Ryan : Hanate wat r u talking about! Hanete I don't know I started dying of \nlaughter "
p1469
aS'Finally another Skitzo video!!! lol '
p1470
aS'The Canadian Acent( what ever) was funny'
p1471
aS'Check out my chess channel, going from underdog to master! journey has \nbegun, come join me :)'
p1472
aS'Hanate :)'
p1473
aS'What the hell are you talking about!? ...I dun no!'
p1474
aS'OMG the end though I was so worried'
p1475
aS'do what the fox says or mily cyrus!'
p1476
aS'Dear ryan can you play minecraft'
p1477
aS'mapoti. he already did that'
p1478
aS'Hey! Ur pretty popular here in YouTube, my friend I want your advice on how \nshould we start our YouTube channel to entertain our viewers.. \nPPPPPPPPPLLLLLEEEEEAAAAAASSSEEE <3 <3 <3 !!!!! HELP. LOVE Yaaa '
p1479
aS'Ryan:what the hell are u taking about hante:idk!! ;)'
p1480
aS'Ryans awesome!!!!'
p1481
aS'I still think im from canada '
p1482
aS'Their all Ryan'
p1483
aS'HAhahaha!! love it XD love hanate X3'
p1484
aS'Nooo!! WHY is he from CANADA!?!? :O'
p1485
aS'More skitzo'
p1486
aS'yeah soo boring... canada...'
p1487
aS"I just realized Regina isn't wearing her crop top lol"
p1488
aS'I Have those Ninja Turtle pants :P'
p1489
aS'actually, schizophrenia is often confused with multiple personality \ndisorder but it is much different then what is featured in this video. it \nmakes someone very paranoid about many things and sometimes hear \nvoices.technically this video isnt about schizophrenia '
p1490
aS'More please'
p1491
aS'Dear Ryan, can you sleep in eyes open?'
p1492
aS'Hanate awesome stfu eve'
p1493
aS'Dear Ryan, can you jump on a slide with 1 leg and blindfolded with an \nastronaut suit while dogs chasing you?!'
p1494
aS'lol i love skitzos'
p1495
aS'I love how Hanate has a canadian accent in the beginning and then it \nchanges to a Texas accent. :)'
p1496
aS'Oh ya ryan btw the bunny looks like it has boobs.'
p1497
aS'Dear Ryan, how do you come up with these funny videos PLZ ANSWER'
p1498
aS'I wish my mornings were like Reginas...'
p1499
aS'Weirdest Naruto reference situation. Ever.'
p1500
aS'HANATE OH MU GOD'
p1501
aS'Dear Ryan, go planking? ^_^ '
p1502
aS'I can see the string in 3:13'
p1503
aS'Lol.... CANADA... HAHA'
p1504
aS'Me too and I died from laughing! xD'
p1505
aS'I stiill think im from canada'
p1506
aS'Dear Ryan can you make a video about Chanel perfume'
p1507
aS'I went to the channel at 1:30 to see if it was actually real.'
p1508
aS'i like hanate best..^^'
p1509
aS'I think im from Canada well you are ASAIN with a twist a virgin '
p1510
aS'I love Hanate. xD'
p1511
aS"You're*"
p1512
aS"Regina ate a butterfly's dick lol"
p1513
aS"hey guys i've just created a channel and i do like comedy, video games and \nentertainment. I've only got one vid atm but i'm making more, kind of.... \nbut when i finish the editing. Pls check it out and subscribe! I'll sub \nback if u do."
p1514
aS'behind the scenes? NOPE. Canadian curling. Fuck you guys.'
p1515
aS'Hanate is just awesome xDD'
p1516
aS'Lol hanate!'
p1517
aS'my mom really knows what a fox sounds like its like a dogs bark with a yelp'
p1518
aS'Dear Ryan, can you make a scene in Star Wars Ep 3 where Anakin Skywalker \nfight with Master Windu? Thank You =)'
p1519
aS'Dear Ryan are you a duck?'
p1520
aS'I feel like'
p1521
aS'I saw strings on the banana!!! NOOOOOOO!!!! it looked so real ;('
p1522
aS'All of us just laughed at Ryan in the Fruit Ninja thing, but he got a scar:('
p1523
aS'You can read gooder than me'
p1524
aS'Thank you! CANADA'
p1525
aS'What if this is all a dream like in that one dream Titanic'
p1526
aS'dear ryan can u dingdongsitch the most annoying kid in the nieghborjood, \nthe meanset teen, and the craziest Elder?!!??!?!?!'
p1527
aS'unsub'
p1528
aS'Regina should shave her armpits...!:DLOL'
p1529
aS'what are you talking about 0.o I DUNNO ^.^'
p1530
aS'Lol'
p1531
aS'I saw the sring'
p1532
aS'Dear Ryan, please make a video about regina getting a boyfriend '
p1533
aS'Thumbs up if you like Hanete The most!'
p1534
aS"I know that's a fake hanate channel"
p1535
aS'This is hilarious!'
p1536
aS'Dear Ryan can you be Regina'
p1537
aS'YES NARUTO MOMENT HELL YEAH'
p1538
aS'my sister have an exact same blanket with him haha'
p1539
aS"MAKE MORE SKITZOS..... THEYR'E SO FUNNY I love Hanate"
p1540
aS"Lol canada...... I'm from canada"
p1541
aS'2:25 canada'
p1542
aS'5:06 - 6:10 *sniff*'
p1543
aS'"maybe we are twinsssah!" Hahahahahahaha i cant even'
p1544
aS'Hondacivic'
p1545
aS'Was this courtesey of me'
p1546
aS'Dear Ryan , do you want act like spongebob squarepants '
p1547
aS'dear ryan, can you make your own cookies? '
p1548
aS'2.54, which kind of girl does not shave?'
p1549
aS'WE WANT MORE SKITZO!!!'
p1550
aS'Canada'
p1551
aS"I just realized that Skitzo could have a double meaning. Skitzo could refer \nto small skits, like he's been doing, or it could be a shortened and \nsimilar sounding version of schizophrenia, which is basically multiple \npersonality disorder."
p1552
aS'i actually start to think that they are different people....'
p1553
aS'Dear Ryan, can you go around the world in 80 days?'
p1554
aS'Dear Ryan can you make shadow clones'
p1555
aS'I love Skitzo!!!! <3'
p1556
aS'Lol the song is from solstice arena'
p1557
aS'I love hanate'
p1558
aS'...And who is that you might ask... My name is, Hontu Waku Soshi Shisayo \nTanashite Teriyaki Suzuki Honda Civic.. LMFAO!!!! (*\xe2\x89\xa7\xe2\x96\xbd\xe2\x89\xa6)\xef\xbe\x89\xef\xbd\xbc))'
p1559
aS'was the skitzo entrance with each character from the very first \nskitzo(introductions) to the last one from 2 years ago(reunited)?'
p1560
aS'Dear Ryan, can you be a Kpop star?? '
p1561
aS"What are you talking about? I don't know -W-"
p1562
aS'Dear Ryan, Are you from Canada'
p1563
aS'Continuity... ( Not sure I spelled that right. )'
p1564
aS'HANATE IS SO FUNNY'
p1565
aS'Dear Ryan can you grow a moustache'
p1566
aS'Please do more skitzo'
p1567
aS'Hey Ragina get it right the clones are starwars not star trek. Lol '
p1568
aS'omg i love them THANKYOU RYAN '
p1569
aS'Omar skitzo'
p1570
aS'Ryan what ever happened to your cat'
p1571
aS'2:27 the underarm hair was just too much XD'
p1572
aS'i miss skitzo'
p1573
aS'I love Regina'
p1574
aS'Hanate!!!'
p1575
aS'Dear Ryan. Ever ask siri for help?'
p1576
aS"Omg I'm from Canada and we r not chine"
p1577
aS'Skitzo is someone who talks to himself/herself'
p1578
aS"I don't like it"
p1579
aS'MOAR SKITZO *barfs rainbows* XD'
p1580
aS'can u twerk '
p1581
aS'Canada'
p1582
aS'NO I LOVE REGINA'
p1583
aS'i hate this skitzo, is just boring dude'
p1584
aS'"Hanate! Stop!" Hanate: "Sari" hahahha '
p1585
aS'NORWAY!!!'
p1586
aS'DO MORE SKITZO '
p1587
aS'dear ryan can u make a fake trailer about fruit ninga plz say yes '
p1588
aS'*Me throughout the video*: "Holy shit Ryan looks hot with that hat on"'
p1589
aS'Harilous'
p1590
aS"If you don't believe it. I'm a witness lol Love your videos. "
p1591
aS'Dear Ryan: Why did you call this Skitzo?'
p1592
aS'hanete is funny lol'
p1593
aS'Dear Ryan can you do a Dragon ball z movie'
p1594
aS'dear Ryan can u be Ryan '
p1595
aS'Well its about time Skitzo came back!'
p1596
aS'I love this.'
p1597
aS"lmao jeez x') "
p1598
aS'dear ryan can you do a parody of the fox ;)'
p1599
aS'HANTE oh sorry'
p1600
aS'Dear Ryan , Do you know what the fox says?'
p1601
aS"I'm from Canada... lol!!!"
p1602
aS'god no 0_0 '
p1603
aS'Ryan, your videos are really creative and very well done, you inspire me. \nThank you, keep it up!'
p1604
aS'Dear Ryan Do the Parody Of The Fox'
p1605
aS'Wata'
p1606
aS'Lol'
p1607
aS'I still think that he is from Canada.'
p1608
aS'Ha. GGGGAAAAAAAYYYYYY!'
p1609
aS'Soooooooooooo there I was'
p1610
aS'dear ryan, what does the fox say'
p1611
aS'Dear Ryan can you twerk'
p1612
aS'Lol hanate correct me if i spell wrong'
p1613
aS'Canada'
p1614
aS'Nice job'
p1615
aS'I love skitzo!!!!!PLEASE keep doing it :)'
p1616
aS"It's hilarious that they all have the nose scar before they're supposed to \nlol"
p1617
aS"Please don't wait two more years for another episode of skitzo :/"
p1618
aS'Dear Ryan, can you make skitzo again'
p1619
aS'It is so fast. But good to see. Thank you.'
p1620
aS'Nothing'
p1621
aS'I like hanate'
p1622
aS'hanate with the canadian accent thing was to funny'
p1623
aS'Oh..yeah I didn\'t really like that one" "yeah that one was so boring" \n"CANANDA!" Lol'
p1624
aS'Dear Ryan, what does the fox say??'
p1625
aS'More SKITZO!!!!!!!!!!!!!!!!'
p1626
aS'It is not the same anymore'
p1627
aS'haHAHAH DEAR RYAN, CAN YOU READ AAHAHA'
p1628
aS"Us Canadians don't talk like that?"
p1629
aS'Still no top comment.'
p1630
aS'I like how Hanate said Cutting Iron.'
p1631
aS'Dear ryan,what does the fox says??!?!!'
p1632
aS'more skitzo please i love skitzo'
p1633
aS'Dear Ryan what does the fox say!'
p1634
aS'more skitzo '
p1635
aS"Today I took on the most important mission ever : -Memorize Hanate's name \nFor those who don't know: Hanate Wakuso Shieo Tadashite Teriyaki Suzuki \nHonda Civic "
p1636
aS'did anyone else realize he said hunged out in the beginning '
p1637
aS"R-Dizzle's roar sounds vaguely similar to Ursa from Dota 2....."
p1638
aS'Why, oh why are Canadians always the reaks and the ETs?'
p1639
aS'Dear Ryan, do you even Justin Bieber, bro?'
p1640
aS'Skitzo! Yayy'
p1641
aS'dud see the javy show'
p1642
aS'Dear ryan can you travle to san diego please'
p1643
aS'Hanate isnt asian? '
p1644
aS'Fine. But I love tickling furry unicorns. Why on earth would I stop \ntickling them?'
p1645
aS'hante is canadian but his character is just funny like that '
p1646
aS'dear ryan, can we be friends'
p1647
aS"Dear ryan can you make the parody of 'the fox'"
p1648
aS'I LOVE ALL THE NARUTO REFERENCES. OH LORD. THANK YOU, KAY?'
p1649
aS'LMAO'
p1650
aS'dear ryan can you do Dragon Ball Z'
p1651
aS'This is so funny! Plz make more!'
p1652
aS'The ending really confused me.'
p1653
aS'dear ryan can you make a parody of Ylvis- The fox '
p1654
aS'omg this was freaking AMAZING. :-)'
p1655
aS'This is now one of my favorite higa vid'
p1656
aS'Hey, If you can check out my channel!'
p1657
aS'Canada'
p1658
aS'\xf0\x9f\x98\x82\xf0\x9f\x98\x82\xf0\x9f\x98\x82\xf0\x9f\x98\x82\xf0\x9f\x98\x82\xf0\x9f\x98\x82\xf0\x9f\x98\x82\xf0\x9f\x98\x82\xf0\x9f\x98\xa5\xf0\x9f\x98\x82\xf0\x9f\x98\x82\xf0\x9f\x98\x82\xf0\x9f\x98\x82\xf0\x9f\x98\x82\xf0\x9f\x98\x82'
p1659
aS'Kage Bonshin No Jutsu...'
p1660
aS'This is perfect'
p1661
aS'I JUST REALIZED SKITZO IS SHORT FOR SCHIZOPHRENIA. MY WHOLE LIFE IS A LIE.'
p1662
aS'Dear Ryan , what does a fox say ?'
p1663
aS'Wtf'
p1664
aS'in maltese regina is princess'
p1665
aS"No. That is done and I don't think anyone wants to have any more planking \nin the world"
p1666
aS'Chinese'
p1667
aS"earth has 7 billion, U.S. has 313.9 million(as of 2012). I'm not sure about \nthe UK exactly but I know there's a lot more than 2,000. I'm sorry sweetie \nbut really, common sense is required in these types of situations..."
p1668
aS'I just love when hanate randomly says canada'
p1669
aS'Dear Ryan, can you please do a parody??'
p1670
aS'DAT UNICORN THO'
p1671
aS'Does Regina have a miley Cyrus poster?'
p1672
aS'Hilarious'
p1673
aS'SKITZO! <3'
p1674
aS'HANATE!'
p1675
aS'I think I from Canada lol'
p1676
aS'Why at the Olympics hamate had a southern accent'
p1677
aS'how bout no'
p1678
aS'Troll is bad troll.'
p1679
aS'Finally you done'
p1680
aS'Lol'
p1681
aS'When he didd the shadow clone just i allmost my sauce'
p1682
aS'Proud to b canadian*happy tears*'
p1683
aS'I love you'
p1684
aS'Dear Ryan can you do like a bear'
p1685
aS'he used the stunt fail... YAY!!!'
p1686
aS'5:48 "Hanate Wa Kuso Sheseiotadashite Teriyaki Suzuki Honda Civic" Hahaha, \nbest name ever!! x3'
p1687
aS'Dear Ryan, can you write a hit sensation? '
p1688
aS'This made my day lol XD do more of these please'
p1689
aS'djsacnkd '
p1690
aS'I think Regina and Daniel (DanIsNotOnFire) should meet at some point in \ntime.'
p1691
aS'Canida'
p1692
aS'Finally another skit zoo'
p1693
aS"Hanate hahahahahhah: I think I'm still from Canada xD"
p1694
aS'What the heck'
p1695
aS'Why?'
p1696
aS'Dear Ryan-Do a parody of what did the fox say?'
p1697
aS'I bet no one knew that the skitzo stands for skitzerefrnia'
p1698
aS'Hanate is my favorite. I love the face he makes!!'
p1699
aS'I LOVE the western accent "Hanate" had!!'
p1700
aS'i feel so dumb i just got what skitzo is'
p1701
aS'Dear Ryan , what does the fox say?'
p1702
aS'Canada'
p1703
aS'"maybe it\'s a dream like this one movie... Titanic." HAHAHAHAHA'
p1704
aS'Dear Ryan, Can You be Slender Man!!'
p1705
aS'MORE SKITZO!!!!!!!!!!'
p1706
aS'Glove and Boots gorilla start scene roar'
p1707
aS'That is a southern states accent, not a Canadian accent'
p1708
aS'stfu loser'
p1709
aS'Hi'
p1710
aS'LOL @ 6:15'
p1711
aS'Dear Ryan can you do an IOS 7 review'
p1712
aS'LOL'
p1713
aS"Lol I'm Canadian xD"
p1714
aS'Curling is not the national sport of canada i think its hockey in my \nopinion...'
p1715
aS'Dear Ryan WHAT DOES THE FOX SAY'
p1716
aS"I'm so glad skitzos are back! Thank you Ryan for listening to your subs ! :D"
p1717
aS'At 5:50 he says his last name is honda sivic'
p1718
aS'Haha Canada vs norway :D'
p1719
aS'Ur face makes me laugh of seven mouths'
p1720
aS'LMFAO!! XD this was so funny!! <3'
p1721
aS'Dear Ryan can you do parkour with your friends'
p1722
aS'*shave'
p1723
aS'SKITZO\xe2\x98\xba\xef\xb8\x8f\xe2\x98\xba\xef\xb8\x8f\xe2\x98\xba\xef\xb8\x8f!!!!!!!!!'
p1724
aS"hanate's moment seems like something from the forest gump movie for some \nreason...xD"
p1725
aS'Best Skitzo yet.'
p1726
aS'Haha the banana was dun by white string Jean Lee u hav a good eye xD'
p1727
aS'Hanate'
p1728
aS'You are the most creative you tuber i have ever watched. i love it. '
p1729
aS"Ha, I'm Canadian. I love all the stereo types! I find it so funny that \npeople are so wrong about Canada."
p1730
aS"Dear Ryan,Can you do 'Deer Ryan'?"
p1731
aS'So I guess u finally watched starwars huh? What is tha? XD'
p1732
aS'Dear ryan what does the fox say'
p1733
aS'Dear Ryan, Can u do Rocky'
p1734
aS'ONE DIRECTION ONE DIRECTION REGINA LIKES ONE DIRECTION OMG I LOVE REGINA \nNOWWWWW'
p1735
aS'Behind The Scenes NOOOOOOOO!'
p1736
aS'Ryan can yo do dear Ryan how to kiss a girl'
p1737
aS'Dear Ryan, Can you survive an apocalypse?'
p1738
aS'ur funny'
p1739
aS'Dear Ryan are u a pimp?'
p1740
aS'The one thing that was annoying but it was small was when u were Regina and \nu woke up u could see ur underarm hair it was kinda annoying but the test \nwas realistic'
p1741
aS'dear Ryan can you do gangnam style (full dance)'
p1742
aS'0:49 hah lol'
p1743
aS'funny '
p1744
aS'Dear Ryan, can you hide do dis hide behind a bush and when someone comes \njump out and scare the living daylights out of em and then post their \nreactons plz?'
p1745
aS'Canada XD'
p1746
aS'EVERYONE! LET RYAN KNOW! HE PASSED RWJ IN SUBSCRIBERS!'
p1747
aS'I love Regina!'
p1748
aS'Dear Ryan, what does the fox say?'
p1749
aS'Please do a "how to be girl" so Regina can have a chance like R drizzle in \n"how to be gangster" and hanate in " how to be ninja"'
p1750
aS'Canada. <3 lol.'
p1751
aS'This is so damn creative! I love it.'
p1752
aS'MORE SKITZO!!!!!!'
p1753
aS'#TEAMHANATE!'
p1754
aS'Justin bieber \xe2\x99\xa5'
p1755
aS'Lol I love hanate!! BAHAHAHA'
p1756
aS'What does the fox sayyyyyyy ding ding ding ding ding ding ding ding ding'
p1757
aS"6:17,,, I don't know"
p1758
aS'is it me or does the curling iron look like a dildo 3:32 '
p1759
aS"What? I can't hear you... oh that's right, I can't hear you over the sound \nof how stupid you are! ;D how you like them cookies?"
p1760
aS'Funniest did ever'
p1761
aS'Funny'
p1762
aS'STFU'
p1763
aS"You have a Nume curling wand, that's crizazy. .."
p1764
aS'Was the fruit ninja accident real?'
p1765
aS'Haha this was hilarious!!!'
p1766
aS'Canada! '
p1767
aS'Hanate is my child, forever.'
p1768
aS'yes there is still a video up called fruit ninja fail. He really did cut \nhis noes with a kantana by mistake. '
p1769
aS'"Canada."'
p1770
aS'Canada,i still think im from canada..:P'
p1771
aS'i love regina '
p1772
aS'the clones HELPED the jedi in attack of the clonessss'
p1773
aS'the girl one is funny'
p1774
aS'Honda civic'
p1775
aS'A poster'
p1776
aS'Dear Ryan mineraft'
p1777
aS'Dear Ryan, Can u kill Justin Bieber and One Direction?'
p1778
aS'Dear Ryan, can you do Minecraft? '
p1779
aS'More'
p1780
aS'i know most people will ignore this but ive started a new comedy channel if \nyou could just check it out it would mean the world to me.'
p1781
aS'Do Moore'
p1782
aS'That "Canadian" accent LMFAOOO'
p1783
aS'Hahaha love it \xf0\x9f\x98\x80'
p1784
aS'Make these more'
p1785
aS'Dear Ryan, Do u ever blame anything on global warming'
p1786
aS'Oh my gosh Hanate loves Canada xD'
p1787
aS'Dear ryan can you fly ?'
p1788
aS'I saw the banana string'
p1789
aS'This%20is%20the%20best%20skitzo%20intro%20ever%20%3C3'
p1790
aS'damn awesome :P '
p1791
aS'Dear Ryan, What does a fox say?'
p1792
aS'when he did the naruto jutsu, naruto came on the tv'
p1793
aS'SO GLAD YOU BROUGHT BACK SKITZO! I WANTED TO PASSED OUT! HANATE IS MY \nFAVORITE! YOU LOOK SO HOT AS HANATE!'
p1794
aS'Can you make a mortal kombat movie'
p1795
aS'are you a ballerina or something?'
p1796
aS'CANADA! Lol'
p1797
aS'Dear Ryan can u be ad enter time'
p1798
aS'Canada'
p1799
aS'"No you didn\'t. You\'re not a god you\'re not my mum you\'re not a car-pen-ter \nyou dont make things" LMAO'
p1800
aS'Dear Ryan, What does the fox say?'
p1801
aS'Im candaidian'
p1802
aS'I missed these videos :3'
p1803
aS'lol it froze at 0:29 xD dat face'
p1804
aS'What if this is all a dream like in that one movie... Titanic'
p1805
aS'Dear Ryan, can you be a duck?'
p1806
aS'does ryan know gymnastic or kungfoo or hip hop??'
p1807
aS'Dear Ryan can you be Aladdin'
p1808
aS'Did you guys realize that Reginas room has a picture of miley Cyrus twerking'
p1809
aS'Canada!!!!!!'
p1810
aS'im canadian and i sound just like you guys -__-'
p1811
aS'Dear Ryan can you do skateboard tricks'
p1812
aS'when Hanate was like, "it was the year 2010," i thought there\'s no way \nHanate is going to convince Ryan that his story is real now, because 2010 \nis in the future. what a blonde moment...'
p1813
aS'more pls bby'
p1814
aS'OHMIGOSH! I missed Skitzo so much! Love this!'
p1815
aS"Gooder...lol I laughed the most at that, for I am an English teacher. No, \nI'm not. Tricked you! Lol I am only 16 lol....but my grammar is still \ngooder than all of yours!! MWAHAHAHA! Unless you really are an English \nteacher...then no."
p1816
aS'You should make another one'
p1817
aS'Do a skitzo about how you got Marley'
p1818
aS'Regina: Wait is this a real road or fake road? Or a railroad! R-Dizzle: \nRocky Road? Regina: Rocky Road!!!! R-Dizzle: Like the ice cream? Regina: \nYAH!!! Hanate: Why am I only one with Canadian accent? lol'
p1819
aS"Yeah I didn't either."
p1820
aS'3:00 wtf'
p1821
aS'More skitzos!!!'
p1822
aS'I love it'
p1823
aS'i liked the dog/droid thing lol teehee'
p1824
aS'Best one yet!'
p1825
aS'dear ryan can you draw her live? '
p1826
aS'Dear Ryan can you do another Dear Ryan,'
p1827
aS'Dear Ryan can you watch vines'
p1828
aS'Lol skitzo'
p1829
aS'S T F U Ryans...'
p1830
aS'So much arm pit hair in my face'
p1831
aS'dear ryan are you harry potter?'
p1832
aS'Oh, GOd. I ship R-Dizzle and Regina '
p1833
aS"I think I'm from Canada :DDD"
p1834
aS'Dear Ryan. Can you BE a unicorn eating tacos?'
p1835
aS'dear ryan can you dance dangdut wkwkwkw'
p1836
aS'6:15 - 6:18 xD'
p1837
aS'Joey Graceffa and "Regina" should do a video together. '
p1838
aS"I'm from Canada"
p1839
aS'Canada. '
p1840
aS'Where is the next one!?!!'
p1841
aS'AAAAAHHH SKITZO I MISSED YOU'
p1842
aS'Hanate xD 3'
p1843
aS'ryan your so cute and funny lol'
p1844
aS'Are from Canada'
p1845
aS'Dear Ryan play slender'
p1846
aS'This is like my 5th or 6th time watching this'
p1847
aS'Dear Ryan, What Does The Fox Say!????'
p1848
aS'Its not a real road, fake road, railroad, or rocket road. ITS RAINBOW ROAD'
p1849
aS'Dear Ryan can you make a nija star'
p1850
aS"I don't know."
p1851
aS'3:00 dafuq'
p1852
aS'Dear Ryan, Can you YOLO everyday situations.'
p1853
aS'more'
p1854
aS'WhoRe rife LOL'
p1855
aS'Dear Ryan can you do parkour with dtrix'
p1856
aS'Hanate <3'
p1857
aS':3'
p1858
aS"That's funny, Regina has hairy armpits :)"
p1859
aS'Dat thumbnail.'
p1860
aS'Your skits are awesome! You should become a cast member on SNL and make \nthat show good again!'
p1861
aS'Dear Ryan Can You Twerk?'
p1862
aS'Do more of these vids, plz! They are SUPA HILARIOUS!!!'
p1863
aS'Make more skizos'
p1864
aS'I STILL THINK I AM FROM CANNADA. LOL'
p1865
aS'(Y)'
p1866
aS'ITS BACK ITS BACK! IVE NEVER BEEN SO HAPPY'
p1867
aS'Canada.'
p1868
aS'GREAT vid, thank you for the laughs! :D'
p1869
aS"3:03 am i the only one who saw justin bieber and miley cyrus on regina's \nwall ?"
p1870
aS'funniest skitso so far!!!!'
p1871
aS'i missed you! real Ryan'
p1872
aS'everyone like this just to troll ryan, click like so everyone does it'
p1873
aS'LMFAO!!!that banana!!! >.<'
p1874
aS'no '
p1875
aS'i poopt on my cat can you do it to '
p1876
aS'Dear Ryan, Can you make a video with Wassabi Productions'
p1877
aS'what are you talking about?! ... i dont know'
p1878
aS"Well wow.. I love the way you edit this video and the way you act as \nRegina.. That's funny! And that 'rock and roll!!' part.. You are CREATIVE, \nRyan! :)"
p1879
aS'i still think im from canada XDDDD'
p1880
aS'Dear Ryan, make a video with Wassabi Productions'
p1881
aS'Dear Ryan, can you dance with the jabbawockeez?'
p1882
aS"You're the. Best omfg"
p1883
aS'Me love hanate'
p1884
aS'I love Skitzo!'
p1885
aS'dear ryan try to play baseball'
p1886
aS'Canaduan asains talk like tht'
p1887
aS"OH OH OH MY GOD Ryan: Hanate what the hell are you talking about Hanate: \n... I don't know 6:15 BEST MOMENT EVER LMFAO"
p1888
aS'too late! lol '
p1889
aS'DEAR RYAN:Can you do Harry Potter '
p1890
aS'More of just hanite'
p1891
aS'more'
p1892
aS'What are you talking about?hanate:I DUUNNNO'
p1893
aS'Reginas face on 2:01'
p1894
aS'Dear Ryan, are you black?'
p1895
aS'Canada'
p1896
aS'Dear Ryan, can you kill a Titan?'
p1897
aS'Gooder:)'
p1898
aS'RYAN IS A GENIUS!!'
p1899
aS'Dear Ryan what does the fox say'
p1900
aS'One Direction poster hahahahaha'
p1901
aS"Sing off! Nice guys finish last that's why I treat you like trash it's not \nwhat I really want to do buuuttt"
p1902
aS'Regina why would you kill Marley'
p1903
aS'96000 like'
p1904
aS'The girl is wearing the same pjs as Ryan'
p1905
aS'CANADA! '
p1906
aS'More Skitzos MIss These :))'
p1907
aS'Dear Ryan, can you have superpowers'
p1908
aS'Cool'
p1909
aS"5:48 - How'd you even come up with that, Ryan?"
p1910
aS'They already did. The basketball trick shot?'
p1911
aS'lol'
p1912
aS"I keep forgetting that it's all him. lmao"
p1913
aS'*really long dramatic intense exciting insperational film made by hanete* \nRyan: What the hell are you talking about?! Hanete: Idk :) '
p1914
aS'PRICELESS!'
p1915
aS"More!!! I haven't laugh this hard for a while."
p1916
aS'dear ryan, can you catch a pokemon? '
p1917
aS'CANADA!!!!!!!!!!'
p1918
aS'#Canada'
p1919
aS'Dear Ryan, how abt a love traingle b/w u, Regina and Hanate?'
p1920
aS'Dear Ryan, WHAT DOES THE FOX SAY? Frakakakakakakakaka'
p1921
aS"I love Ryan how he has 'Starry Night' in his apartment. The man has good \ntaste, like look at the shit. It is all BOOM stars."
p1922
aS'More please!'
p1923
aS'Dear ryan, Can you sing gospel music'
p1924
aS'Dear Ryan can you type fast?'
p1925
aS'youtube.com/watch?v=gCCcR_OBEhI'
p1926
aS"Hanate's story is the greatest one :D"
p1927
aS'Can you make more of skitzo?:)'
p1928
aS'Dear Ryan, can you throw a house party with your lamps?'
p1929
aS'Btw 3:45 I laughed so freaking hard'
p1930
aS"I STILL THINK I'M FROM CANADA"
p1931
aS'ahahahaha'
p1932
aS'dear Ryan, how would you kill yourself'
p1933
aS'Hanate : oh Soddy'
p1934
aS'Dear Ryan, Can you try a new haircut? '
p1935
aS'"I think I\'m from Canada" LOL :D'
p1936
aS"Hey Ryan, iv'e got a nose scar too, mine is from my ex-boyfriends knife \nthough."
p1937
aS'This is one of the best videos I have seen'
p1938
aS"Yaaaay skitzo's back! :D"
p1939
aS'Ryan: "WHAT THE HELL ARE YOU TALKING ABOUT!?" Hanate: "I denno :)" XD'
p1940
aS'I <3 Hanate and Regina XD'
p1941
aS'more skitzo'
p1942
aS'ehy? '
p1943
aS'Ryan is getting skinny?'
p1944
aS'YES FINALLY SKITZO!'
p1945
aS'Lol'
p1946
aS'dear ryan can you be a mother'
p1947
aS'FINALLY A SKITZO VIDEO!!!!! OMG I HAVE BEEN WAITING SO LONG FOR THIS!!!'
p1948
aS"'I still think I'm from Canada' Hhahahahahhhahhahah"
p1949
aS'I was laughing uncontrollabely while watching this video.'
p1950
aS"Ryan is the number 1 youtuber. He is the most funny and clever person i've \never seen. He should be the most subscribed youtber. He deserves it."
p1951
aS'Dear Ryan, can you sing karaoke?? '
p1952
aS'wtf'
p1953
aS'\xe2\x80\xa2Hello People\xe2\x80\xa2 I believe someone will see it, it\xe2\x80\x99ll make my day Maybe I am \njust a dreamer but I\xe2\x80\x99m not the only one I\xe2\x80\x99m from a little town but with big \ndreams My dream is to be a singer at least in my country and be heard I \nlove singing since I was a little girl, it has become my biggest passion \n\xe2\x80\x98cause I can be who really I am Everyone has had a goal in their life, \nwhatever age they are If you could possibly take a few seconds to view a \ncover of mine it would mean the world to me Thank You '
p1954
aS'Dear rayan can u be a unicorn?'
p1955
aS'Canada'
p1956
aS'LOOOl "I think I\'m from canada" Ryan: HANETE ! HANETE: oh sorry'
p1957
aS'More'
p1958
aS'Sorry forgot the wakuso'
p1959
aS'lol I love skitso '
p1960
aS'############dear ryan can you make a parody of what does the fox say please'
p1961
aS'Skitzo* -_-'
p1962
aS'really teletubbies'
p1963
aS'cool'
p1964
aS'SOOOOOOO de I was'
p1965
aS'Actually, pewdiepie is the number 1 youtuber but....'
p1966
aS'Dear Ryan have u gone a bit crazy'
p1967
aS'Dear ryan can you be canadian? Like me? Please?'
p1968
aS'C.C.A'
p1969
aS'Hahahahaha soooo goooddd!!!'
p1970
aS"Was Hanate's story a Forest Gump reference?"
p1971
aS'Me want more skitzo!'
p1972
aS'Dear Ryan can you be a llama?'
p1973
aS'6:18 I DONT NOW :D '
p1974
aS'i watched Canada win the curling event cuz im Canadian eh '
p1975
aS'Hannate is my favorite'
p1976
aS'Hahahaha curling irons!'
p1977
aS'kagaebuchino jutsu '
p1978
aS'"yeah man that was so boring!" "Canada" XD I always laugh when he says that!'
p1979
aS'Canada oh hanate'
p1980
aS"He doesn't. It's a joke."
p1981
aS'Bring back Off The Pill too!'
p1982
aS'Dear Ryan:Arguing with parents!'
p1983
aS'i didnt know regina had armpit hair!! lol'
p1984
aS'WHAT THE HELL ARE YOU TALKING ABOUT? I DONT KNOW ^^ HAHAHAHAH :D'
p1985
aS'more'
p1986
aS"yay!!! skitzo's back :D"
p1987
aS'O cute'
p1988
aS'regina looks like selena gomez but whateveeer'
p1989
aS'You are funny'
p1990
aS'So funny'
p1991
aS"YAYAYAYAYAYAYAY!!!! THEY'RE BACK!!! I MISSED SKITZO SO MUCH!!!"
p1992
asS'time'
p1993
ctime
struct_time
p1994
((I2013
I9
I21
I21
I16
I19
I5
I264
I-1
t(dtRp1995
sS'id'
p1996
VLMcWJUUcuq8
p1997
s.