(dp1
S'title'
p2
VBest Super Bowl Commercial!
p3
sS'url'
p4
Vhttp://www.youtube.com/watch?v=m0PfjfXMv58&feature=youtube_gdata_player
p5
sS'image'
p6
Vhttp://i.ytimg.com/vi/m0PfjfXMv58/0.jpg
p7
sS'comments'
p8
(lp9
S'Comment, \nWhat is your favorite animal \nMines a cat \n:D\xef\xbb\xbf'
p10
aS'American football is not even FOOT ball....... now let the replies coming \n:D\xef\xbb\xbf'
p11
aS'I often find myself commending to myself creating massive comment chains!\xef\xbb\xbf'
p12
aS'New England patriots are the best\xef\xbb\xbf'
p13
aS'my freinds nigahiga is gay is he\xef\xbb\xbf'
p14
aS'Ravens are best\xef\xbb\xbf'
p15
aS'where do you download the dramatic sound effect that he played in the \nbeginning\xef\xbb\xbf'
p16
aS'this fucked with my brain so much XD\xef\xbb\xbf'
p17
aS'How I met your Groot\xef\xbb\xbf'
p18
aS'denver broncos\xef\xbb\xbf'
p19
aS'Wait does Ryan live in SF because of that 9ers remark?\xef\xbb\xbf'
p20
aS'i am always confused at the end of your videos... it must be continuity\xef\xbb\xbf'
p21
aS'I am just like that with my friends when watching sports\xef\xbb\xbf'
p22
aS"I'm from the future and I'm here to tell you that the 'Niners lost that \nSuper Bowl. \xef\xbb\xbf"
p23
aS"you can't watch a funny video like this one and expect to find a funny \ncomment. nothing will ever be the same. \xef\xbb\xbf"
p24
aS"First time I've heard about  Pistachio.\xef\xbb\xbf"
p25
aS'GO 49ers but I thought u lived in Los Angeles \xef\xbb\xbf'
p26
aS'\nI was happy when you said," go 49ers?". I was surprised, because the 49ers \nis my favorite team.\xef\xbb\xbf'
p27
aS'Paradox...\xef\xbb\xbf'
p28
aS"Ryan what's ur favorite football team??? PS, please say San Fran!!!!!!!!\xef\xbb\xbf"
p29
aS'Jacksonville Jaguars!\xef\xbb\xbf'
p30
aS'what is continuity?\xef\xbb\xbf'
p31
aS"I'm more of a basketball girl\xef\xbb\xbf"
p32
aS"He's discussing all these paradoxes face to face with himself... as if that \nwasn't physically impossible enough.\xef\xbb\xbf"
p33
aS'So wait, did he actually almost get a super bowl commercial or was it all a \njoke?\xef\xbb\xbf'
p34
aS'commercialception\xef\xbb\xbf'
p35
aS'I\'m exactly the same as Ryan, I don\'t obsess over football but all my \nfriends do so I\'m just like "Woo go Sea-Cows!"\xef\xbb\xbf'
p36
aS'when he said more popular Asian I knew psy would make an appearance\xef\xbb\xbf'
p37
aS'Dear Ryan can u drink a bottle of pepsi\xef\xbb\xbf'
p38
aS'But what happend to the ball he threw?\xef\xbb\xbf'
p39
aS'LOUD NOISES!!!\xef\xbb\xbf'
p40
aS'cactuses? Cacti! lol\xef\xbb\xbf'
p41
aS"If something like that occured on the superbowl, I would squeal of delight \nand watch that commercial for hours(aka 10 min) and just be happy about, \n\nPS i thought that your 'super bowl' commercial was the best of what i've \nseen in my life! TEEHEE!\xef\xbb\xbf"
p42
aS'i li how i met your mother\xef\xbb\xbf'
p43
aS'Continuity is blowing my mind O.O\xef\xbb\xbf'
p44
aS'my birthday\xef\xbb\xbf'
p45
aS'Sehawaks\xef\xbb\xbf'
p46
aS'49ERS FOR \nDAYSSSSSSSSSSSSSSSSSSSSSSSSSSSSSSSSSSSSSSSSSS!!!!!!!!!!!!!!!!!!!!!!!!!!!!!!!!!!!!!!!!!!!!!!!!!!!!!!!!!!!!!\xef\xbb\xbf'
p47
aS'Bruh I live in Seattle 49ers suck\n\xef\xbb\xbf'
p48
aS'Um... Foot ball is AFL\xef\xbb\xbf'
p49
aS"If this was an actual Super Bowl commercial, it'd be the only one I'd \nactually watch.\xef\xbb\xbf"
p50
aS'\xf0\x9f\x99\x8f\xf0\x9f\x99\x8f\xf0\x9f\x99\x8f\xf0\x9f\x99\x8f\xf0\x9f\x99\x8f Good Vid Ryan! \xf0\x9f\x92\xaf\xf0\x9f\x91\x8f\xf0\x9f\x91\x8f\xf0\x9f\x91\x8f\xf0\x9f\x8f\x89\xf0\x9f\x8f\x89\xf0\x9f\x8f\x88\xf0\x9f\x8f\x88\xe2\x99\xa5\xef\xb8\x8f\xef\xbb\xbf'
p51
aS"after the ending you should of put and that's how I keep doing the how I \nmet your mother tune ( bababababdadadadadad ) lol\xef\xbb\xbf"
p52
aS'Good commercial. :D :P :O :) \xef\xbb\xbf'
p53
aS'"That\'s what she said"\xef\xbb\xbf'
p54
aS'Dude u are hallarrees\n\xef\xbb\xbf'
p55
aS'They are basically saying Bruce alee is not a popular Asian\xef\xbb\xbf'
p56
aS'Continuity is the answer\xef\xbb\xbf'
p57
aS'FOURTY NINERS!!!!!!!!!!!!!!!!\xef\xbb\xbf'
p58
aS"Go niner's\xef\xbb\xbf"
p59
aS'Love that red jacket <3\n\xef\xbb\xbf'
p60
aS'MY MIND. IT GAS EXPLODED!\xef\xbb\xbf'
p61
aS"At 28 sec: I'm the same way \xef\xbb\xbf"
p62
aS'dang psy or how ever u spell iy \xef\xbb\xbf'
p63
aS'No niners\xef\xbb\xbf'
p64
aS'That name again was Mr Plow ;) How has no one pointed that out yet??\xef\xbb\xbf'
p65
aS'Im Soooo confused\xef\xbb\xbf'
p66
aS'can you please do gwiyomi?? look it up on youtube. itll be so cute! lol\xef\xbb\xbf'
p67
aS'GO 49ERS!!!!!!!!!!!!!!!!!!!!\xef\xbb\xbf'
p68
aNaS'I like pie\xef\xbb\xbf'
p69
aS'I LOVE HIMYM!!!! \xef\xbb\xbf'
p70
aS"I read the credits XD in case there's something funny in it XD\xef\xbb\xbf"
p71
aS'American football is called football,technically because the all is a foot \nlong\xef\xbb\xbf'
p72
aS'hhahaha\xef\xbb\xbf'
p73
aS'wait did that really happen \xef\xbb\xbf'
p74
aS'Im just like niga. \xef\xbb\xbf'
p75
aS'Yeah 49ers :D\xef\xbb\xbf'
p76
aS'wtf\xef\xbb\xbf'
p77
aS'LOUD NOISES!\xef\xbb\xbf'
p78
aS'\n\xef\xbb\xbf'
p79
aS"Make one about the 'other kind of football'\nlike at 00:14. approximately...\xef\xbb\xbf"
p80
aS'49ers suck balls\xef\xbb\xbf'
p81
aS"And that's when I remembered , one of the most famous Asians on \nTelevision........\n\n\nNI HAO KI LAN\n\ncoming to a computer far away from you. ...\xef\xbb\xbf"
p82
aS'Continuity? Continuity.\xef\xbb\xbf'
p83
aS'0:52 so me\xef\xbb\xbf'
p84
aS'Seahawks rule\xef\xbb\xbf'
p85
aS"Why is it called football?\nAnd why isn't soccer called football instead? Everyone else in the world \ncalls soccer football. Makes more sense to me\xef\xbb\xbf"
p86
aS"i didn't get it ??\xef\xbb\xbf"
p87
aS'YES 49ERS! <3\xef\xbb\xbf'
p88
aS"49'ers :)\xef\xbb\xbf"
p89
aS'Other countries are dumb.. They say football is not futball, obviously its \nspelled differently!\xef\xbb\xbf'
p90
aS"I like the Green Bay Packers,Detroit Lions,Michigan,Michigan State \nand a little bit of the 49's.\xef\xbb\xbf"
p91
aS"So he didn't get the commercial? So lost right now.....\xef\xbb\xbf"
p92
aS"Is that van gogh's starry night\nIn the background \xef\xbb\xbf"
p93
aS'I am very confused \xef\xbb\xbf'
p94
aS'i think you took the commercial a little too far\xef\xbb\xbf'
p95
aS'The first minute is how I feel right now about soccer \xef\xbb\xbf'
p96
aS'3:58 so confusing lol\xef\xbb\xbf'
p97
aS'What is the superbowl\xef\xbb\xbf'
p98
aS'How I Never Met Your Mother.\xef\xbb\xbf'
p99
aS'Ewww... 49ers\xef\xbb\xbf'
p100
aS"I don't like watching football either\xef\xbb\xbf"
p101
aS'Sure\xef\xbb\xbf'
p102
aS'Lol, im eating wonderful pistachios right now\xef\xbb\xbf'
p103
aS'Really? 49ers Ryan? GOOOOO STEELERS!!!\xef\xbb\xbf'
p104
aS'americans called the sport they know best (cause THEY only play it) \nfootball cause they suck at the real sport, they took the name so ppl could \nsay americans are the best in football\xef\xbb\xbf'
p105
aS'LETS GO 49ERS!!!!!!\xef\xbb\xbf'
p106
aS'Well at least you tried\xef\xbb\xbf'
p107
aS"Forty-niners! Forty-niners!!!...actually i'm not that big of a football \nfan...\xef\xbb\xbf"
p108
aS'Broncos rule!\xef\xbb\xbf'
p109
aS'Go Aussie Rules!\n\nI know, a completely unrelated comment.\xef\xbb\xbf'
p110
aS'This video was made on my 12th birthday!\xef\xbb\xbf'
p111
aS'What is continuity?\xef\xbb\xbf'
p112
aS'0:37 he highfives himself lol\xef\xbb\xbf'
p113
aS'i just realized that the picture was starry night\xef\xbb\xbf'
p114
aS'I have to give it to Kyle, he sure is an amazing actor!\xef\xbb\xbf'
p115
aS'Never heard of Super Bowl must be an American sport just like American \nfootball NRL and AFL is way better\xef\xbb\xbf'
p116
aS'I eat Pistachios too, those are like good.\xef\xbb\xbf'
p117
aS'Continuity?\xef\xbb\xbf'
p118
aS"I'm so Much like you\xef\xbb\xbf"
p119
aS'This is me\xef\xbb\xbf'
p120
aS'CONTINUITY!\xef\xbb\xbf'
p121
aS'Mind fucked\xef\xbb\xbf'
p122
aS'Go New England !!!! T brady rocks\xef\xbb\xbf'
p123
aS'what about AFL australian football league \xef\xbb\xbf'
p124
aS"FIFA World Cup is waaaaaay better (but that doesn't mean I watched it. Now \nI have to go pretend I like rugby because my teacher married a rugby \nplayers brother. Go Cas!)\xef\xbb\xbf"
p125
aS'Thats me now i dont know anyting about football\xef\xbb\xbf'
p126
aS'I eat them tooooo\xef\xbb\xbf'
p127
aS'Weird\xef\xbb\xbf'
p128
aS'Will and Derrick the lamps XD\xef\xbb\xbf'
p129
aS'LOUD NOISES.\xef\xbb\xbf'
p130
aS'LOUD NOISES!!!!!!!!!!\xef\xbb\xbf'
p131
aS'nice shoes ......supra\xef\xbb\xbf'
p132
aS'"Home Run!" Lmao\xef\xbb\xbf'
p133
aS'Fuck the 49ers\xef\xbb\xbf'
p134
aS"i don't watch sports either\xef\xbb\xbf"
p135
aS'NO 40winers GO SEAHAWKS WOOOO 12TH man son\n\xef\xbb\xbf'
p136
aS"I've actually seen how I met your mother it's really good love the \nreference :)\xef\xbb\xbf"
p137
aS'Cowboys\xef\xbb\xbf'
p138
aS'Ummm HELLO AFL SOMEONE FORGOT ABOUT AUSTRALIA GEES. I THOUGHT WE WERE \nFRIENDS. \xef\xbb\xbf'
p139
aS'Great advertizing\xef\xbb\xbf'
p140
aS'Contranudie\xef\xbb\xbf'
p141
aS'That would of been the best commercial ever\xef\xbb\xbf'
p142
aS'Psy you BITCH\xef\xbb\xbf'
p143
aS'i luv dis guy\xef\xbb\xbf'
p144
aS'Why is it call "Football" if it\'s played mostly with the hands.\xef\xbb\xbf'
p145
aS'Wtf is that weird wrinkle between ryans eyebrows at 1:37\xef\xbb\xbf'
p146
aS"i hate the 9ers, don't hate cus ilike the raiders : p\xef\xbb\xbf"
p147
aS'nice handegg commercial \xef\xbb\xbf'
p148
aS'in love with that show\xef\xbb\xbf'
p149
aS"Dear Ryan, I am like ur BIGGEST fan... EVER!!! And here's my question: are \nyou gay and make a video with your butt as big as a hipo please \nLuv ya bye\xef\xbb\xbf"
p150
aS'lol\xef\xbb\xbf'
p151
aS"I hate football and my friends love it and one of my friends are obsessed \nwith soccer though today said he didn't like it\xef\xbb\xbf"
p152
aS"i didn't under stand the question at 3:52\xef\xbb\xbf"
p153
aS'49ersssss\xef\xbb\xbf'
p154
aS'anyone else seen the cut at 0:07?\xef\xbb\xbf'
p155
aS'Patriots!!\xef\xbb\xbf'
p156
aS'Get crackin\nPistachinp\xef\xbb\xbf'
p157
aS"Y'all don't understand, Dallas Cowboys are the best, also there is no \nbetter stadium than the one of Dallas cowboys.\xef\xbb\xbf"
p158
aS'Redskins Rule! \xef\xbb\xbf'
p159
aS"it's handegg\xef\xbb\xbf"
p160
aS'49ers rule yay Ryan and is that your favorite football team if u had to \nlike football or another one\xef\xbb\xbf'
p161
aS'Niners 4 life!!! Seahawaks more like the Shecocks!\n XD\xef\xbb\xbf'
p162
aS"I'm so confused\xf0\x9f\x98\xb3\xef\xbb\xbf"
p163
aS'That Kyle bed guy. GREATEST ACTOR EVER\xef\xbb\xbf'
p164
aS'Me to!\xef\xbb\xbf'
p165
aS"That isn't football, that's rugby!\xef\xbb\xbf"
p166
aS'wat\xef\xbb\xbf'
p167
aS"Im confused, XD did you actually audition for a commercial? Im thinking you \ndidn't because that would be just too awesome. but Im thinking you did \nbecause of the whole product placement thing since you used Wonderful \nPistachios catch phrase and... well Wonderful Pistachios XD\xef\xbb\xbf"
p168
aS'WHOO 49ERS...\nJK I DONT EVEN KNOW HOW TO PLAY\xef\xbb\xbf'
p169
aS'49ers bbbbbbbbbbboooooooooooooooo\xef\xbb\xbf'
p170
aS'Is he wearing a fuel band\xef\xbb\xbf'
p171
aS'I feel you Ryan \xef\xbb\xbf'
p172
aS'Whats continuty\xef\xbb\xbf'
p173
aS'Dammit I wanted to see that commercial in the Super Bowl \xef\xbb\xbf'
p174
aS'seems like a good commercial to me\xef\xbb\xbf'
p175
aS'.......you just exploded my brain\xef\xbb\xbf'
p176
aS"What's continuity?\xef\xbb\xbf"
p177
aS"I still little and don't like watching sports\xef\xbb\xbf"
p178
aS"Didn't get most of it, but i liked it.\xef\xbb\xbf"
p179
aS'Mind blown.\n\xef\xbb\xbf'
p180
aS'Same story\xef\xbb\xbf'
p181
aS"You dumb kid that's not football, you don't even use you feet, it should be \ncalled handegg, cuz the real football is the european football which is way \nmore interesting than this crap you dumb americans are playing!\xef\xbb\xbf"
p182
aS'I cant even. xD\xef\xbb\xbf'
p183
aS'yup I always love the ads\xef\xbb\xbf'
p184
aS'3:23\xef\xbb\xbf'
p185
aS'Pistachio-ception!\xef\xbb\xbf'
p186
aS'One thing I don\'t get is when some Americans on social media show their \n"pride" with stuff like "how many times has anyone outside the USA won the \nSuper Bowl?" Seriously? How many times has anyone outside the USA even \ncared?\xef\xbb\xbf'
p187
aS"as a kid I was the only one out of my friends that really didn't like \nfootball but then when I got older I would host all these football parties\xef\xbb\xbf"
p188
aS'Wait did he actually almost get a commercial?????\xef\xbb\xbf'
p189
aS'Ich liebe deine Videos obwohl ich sie nicht versteh aber ein bisschen\xef\xbb\xbf'
p190
aS"my friends <3 football, AND I DONT GIVE A FIRETRUCK ABOUT IT!!!! (I'm not \nracist...)\xef\xbb\xbf"
p191
aS'0:20 and 0:24 XD!!!!!\xef\xbb\xbf'
p192
aS'What kind of sport has a headshot\xef\xbb\xbf'
p193
aS'I just recently realized that the part where Ryan says "Loud noises!" Is \nwhat Brick says in Anchorman. XD so funny haha, love that part. \xef\xbb\xbf'
p194
aS"Yah 49ers..... I don't what iam talking about\xef\xbb\xbf"
p195
aS"That's pretty fucked up\xef\xbb\xbf"
p196
aS'Nigahiga confused me and act smart at the same time like me\xef\xbb\xbf'
p197
aS"I don't like sports. :D\xef\xbb\xbf"
p198
aS'Three words New York Giants\xef\xbb\xbf'
p199
aS"ha ha... you should make some videos about 'how I never met your mother'!\xef\xbb\xbf"
p200
aS"I'm so confused...\xef\xbb\xbf"
p201
aS'Huge football fan! I have loved the same team since I was a little girl!\xef\xbb\xbf'
p202
aS"I think i'll post a comment and reply to it.\xef\xbb\xbf"
p203
aS'Lol "LOUD NOISES!" 0:55\xef\xbb\xbf'
p204
aS'I love this channel\xef\xbb\xbf'
p205
aS'Inception.\xef\xbb\xbf'
p206
aS'i may be a packers fan but the seahawks awsome\xef\xbb\xbf'
p207
aS'Ooh I get it!\nYou got Psy-ced!\nGet it?\xef\xbb\xbf'
p208
aS'So continuity according to google means the unbroken and consistent \nexistence or operation of something over a period of time.... Im not even \ngoing to try to understand what that means :(\xef\xbb\xbf'
p209
aS'"thats what she said" xD \xef\xbb\xbf'
p210
aS'TEE HEE\xef\xbb\xbf'
p211
aS"Ya I'm not really into football either \xef\xbb\xbf"
p212
aS'I love 49ers\xef\xbb\xbf'
p213
aS'GO SEAHAWKS! FOURTYWHINERS SUCK\xef\xbb\xbf'
p214
aS'Did you relly almost get in to a commercial\xef\xbb\xbf'
p215
aS'LOOOUUUDD NOISSEEESSS\xef\xbb\xbf'
p216
aS'seahawks\xef\xbb\xbf'
p217
aS'49ERS yaaaaaaaaaaaaaaeeee\xef\xbb\xbf'
p218
aS'My teacher said its rugby ball\xef\xbb\xbf'
p219
aS'"LOUD NOISES"\n~Brick\xef\xbb\xbf'
p220
aS'49ERS!!!!!!!!!!!!!!!!!!!!!!!!\xef\xbb\xbf'
p221
aS"um I'm kind of confused\xef\xbb\xbf"
p222
aS'Did no one notice Greg had a rat tail\xef\xbb\xbf'
p223
aS"What's continuity\xef\xbb\xbf"
p224
aS'Lol its so funny\n\xef\xbb\xbf'
p225
aS'lets go 49ers\xef\xbb\xbf'
p226
aS'The worst episode of himym is the finally \xef\xbb\xbf'
p227
aS'i love 49ers!!!!!!!\xef\xbb\xbf'
p228
aS'Das viedeo ist sooooooo lustig XD\xef\xbb\xbf'
p229
aS'Is it just me or was that really confusing??????\xef\xbb\xbf'
p230
aS'o m g u r awesome n funny\xef\xbb\xbf'
p231
aS'i was always that one kid XD\xef\xbb\xbf'
p232
aS'was this for real?\xef\xbb\xbf'
p233
aS'GO SEAHAWKS\xef\xbb\xbf'
p234
aS'I love how I met your mother. I thinkmits a great show.\xef\xbb\xbf'
p235
aS'Continuity\nn. noun\n 1. The state or quality of being continuous.\n 2.  An uninterrupted succession or flow; a coherent whole.\n 3. A detailed script or scenario consulted to avoid discrepancies from \nshot to shot in a film, allowing the various scenes to be shot out of \norder.\xef\xbb\xbf'
p236
aS'HAHAHAHAHAHAHAHA\n(LOL)\xef\xbb\xbf'
p237
aS'Lol\xef\xbb\xbf'
p238
aS'Just .. Continuity !!!\xef\xbb\xbf'
p239
aS'Um.... headshot lolol\xef\xbb\xbf'
p240
aS'This video was a mindf*ck\xef\xbb\xbf'
p241
aS'Continuity is the state of being a human being that actually does NOT shit \nhis trousers.... The opposite means a person that wears a shit bag and or \ndepends under garments... I think they call it incontinence or congenital \nbowel obstruction regularly.\xef\xbb\xbf'
p242
aS'that commercial would actually be on tv in my opinion\xef\xbb\xbf'
p243
aS'0:56 LOOOOUD NOISES. XD\xef\xbb\xbf'
p244
aS'1:55 when he says go long not so good acting...\xef\xbb\xbf'
p245
aS'yeah\n 49ers\xef\xbb\xbf'
p246
aS'HOME RUN!!!!!!!!!!!!!!!!!!!!!!!!!!!!!!!!\nH-HOLE IN ONE..?\nH-HEADSHOT..??\nLETS GO 49ERS?????\xef\xbb\xbf'
p247
aS"That's me every time I watch football with my friends..\xef\xbb\xbf"
p248
aS'49ers are the best time in the NFL\xef\xbb\xbf'
p249
aS'Cool\xef\xbb\xbf'
p250
aS"Sorry ain't a football fan. #Merica\xef\xbb\xbf"
p251
aS'is that vanoss gaming?\xef\xbb\xbf'
p252
aS'Me to\xef\xbb\xbf'
p253
aS'Very funny\xef\xbb\xbf'
p254
aS'SSSSSSSSEEEEEEEEEAAAAAAAAHHHHHHHHHHHAAAAAAAAAAWWWWWWWWWWKKKKKKKKKKKKKKSSSSSSSSSSSSSS\n\n\n\xef\xbb\xbf'
p255
aS'No copyright issues?\xef\xbb\xbf'
p256
aS'i failed math class but i dont know why? probably continuity just blame \neverthing on continuity  \xef\xbb\xbf'
p257
aS'mmmm....49ners huh? Intresting.....\xef\xbb\xbf'
p258
aS"3:24 - 3:30 The most hilarious scene and theme song ever- watched it 82 \ntimes, nearly killed myself from the laugh X'D\xef\xbb\xbf"
p259
aS'12th man for life!!!\xef\xbb\xbf'
p260
aS'1:21 Anthony Padilla has the same hoodie jacket thing, lol\xef\xbb\xbf'
p261
aS'The ad before this vid was a Super Bowl ad... Wow what a coincidence\xef\xbb\xbf'
p262
aS'LOOUUUUD NOISES!!!\xef\xbb\xbf'
p263
aS'CONTINUITY!!!!!!!\xef\xbb\xbf'
p264
aS'Higaception!\xef\xbb\xbf'
p265
aS'Continuity?\xef\xbb\xbf'
p266
aS'Its just like Inception.. Freaking Confusing\xef\xbb\xbf'
p267
aS'Plot twist!\xef\xbb\xbf'
p268
aS"lol,he's copying How i Met your Mother\xef\xbb\xbf"
p269
aS'49ers yay\xef\xbb\xbf'
p270
aS'Look at the credits at the end XD\xef\xbb\xbf'
p271
aS'49ers \xef\xbb\xbf'
p272
aS'49erzzz?!?!?!?!?!?!?...DIE\xef\xbb\xbf'
p273
aS'lmao MUSTACHE \xef\xbb\xbf'
p274
aS'me to I no what yu mean\xef\xbb\xbf'
p275
aS'So did he got the part? o_O\xef\xbb\xbf'
p276
aS'You just confused the hell outta me...\xef\xbb\xbf'
p277
aS'LOUD NOISES!\xef\xbb\xbf'
p278
aS'I would haveliked to see yours\xef\xbb\xbf'
p279
aS'Lol, Pause the video when it shows the credits for "How I never met your \nmother"! Lamp 1:Will, Lamp 2: Derrick!\xef\xbb\xbf'
p280
aS'I would have loved to see you on there\xef\xbb\xbf'
p281
aS'I love how I met your mother. I thinkmits a great show.\xef\xbb\xbf'
p282
aS'WTF\xef\xbb\xbf'
p283
aS'49ers\xef\xbb\xbf'
p284
aS'Lol Why its called football the american football when is played most time \nwith hands. And real football is called soccer! Nobody stand americans. \n(Dont get mad please).\xef\xbb\xbf'
p285
aS'Lol thx to this I know what continuity means\xef\xbb\xbf'
p286
aS'AWSOME RYAN!!!\xef\xbb\xbf'
p287
aS'But funny\n\xef\xbb\xbf'
p288
aS'Did he actually audition\xef\xbb\xbf'
p289
aS'same here Ryan but it was for british football\xef\xbb\xbf'
p290
aS'0:35 thats me\xef\xbb\xbf'
p291
aS"That's how I am I just want to fit in\xef\xbb\xbf"
p292
aS'CONTINUITY:the unbroken and consistent existence or operation of something \nover a period of time.\xef\xbb\xbf'
p293
aS'What.\xef\xbb\xbf'
p294
aS'Dear ryan if you had another name what would it be?\xef\xbb\xbf'
p295
aS'not a bad vide\xef\xbb\xbf'
p296
aS'what about the football?\xef\xbb\xbf'
p297
aS"I'm lauthing like never befor , you are amazing ! :-D \n\xef\xbb\xbf"
p298
aS'49ers!!!! High five SUCK!!!!!!! :)\xef\xbb\xbf'
p299
aS'same same\xef\xbb\xbf'
p300
aS'I \xe2\x9d\xa4\xef\xb8\x8f\xe2\x9d\xa4\xef\xb8\x8f\xe2\x9d\xa4\xef\xb8\x8f\xe2\x9d\xa4\xef\xb8\x8f\xe2\x9d\xa4\xef\xb8\x8f\xe2\x9d\xa4\xef\xb8\x8f\xe2\x9d\xa4\xef\xb8\x8f\xe2\x9d\xa4\xef\xb8\x8f\xe2\x9d\xa4\xef\xb8\x8f\xe2\x9d\xa4\xef\xb8\x8f\xe2\x9d\xa4\xef\xb8\x8f\xe2\x9d\xa4\xef\xb8\x8f\xe2\x9d\xa4\xef\xb8\x8f\xe2\x9d\xa4\xef\xb8\x8f\xe2\x9d\xa4\xef\xb8\x8f\xe2\x9d\xa4\xef\xb8\x8f\xe2\x9d\xa4\xef\xb8\x8f\xe2\x9d\xa4\xef\xb8\x8f\xe2\x9d\xa4\xef\xb8\x8f\xe2\x9d\xa4\xef\xb8\x8f\xe2\x9d\xa4\xef\xb8\x8f\xe2\x9d\xa4\xef\xb8\x8f\xe2\x9d\xa4\xef\xb8\x8f\xe2\x9d\xa4\xef\xb8\x8f\xe2\x9d\xa4\xef\xb8\x8f\xe2\x9d\xa4\xef\xb8\x8f\xe2\x9d\xa4\xef\xb8\x8f\xe2\x9d\xa4\xef\xb8\x8f\xe2\x9d\xa4\xef\xb8\x8f\xe2\x9d\xa4\xef\xb8\x8f\xe2\x9d\xa4\xef\xb8\x8f\xe2\x9d\xa4\xef\xb8\x8f\xe2\x9d\xa4\xef\xb8\x8f\xe2\x9d\xa4\xef\xb8\x8f the \n49ers\xef\xbb\xbf'
p301
aS'hhahahahahaha\xef\xbb\xbf'
p302
aS'home run hole in one head shot uhh lets go 49ers\xef\xbb\xbf'
p303
aS'0:09 I expected like a small fan with a football icon in the middle.\xef\xbb\xbf'
p304
aS'How I never met your mother. \xef\xbb\xbf'
p305
aS'spam 8 = mastuerbate\xef\xbb\xbf'
p306
aS"Very excited for this year's SuperBowl, it's either The Seattle Seahawks or \nthe Denver Broncos, I'm a Dallas Cowboys fan, so I'm not cheering for this \nteam or this team, but I do wanna see who wins SuperBowl 48!!! ^_^ :)\xef\xbb\xbf"
p307
aS'PistachiNO!!! Hahahha \n\xef\xbb\xbf'
p308
aS'the beginning was the best part hahahaha\xef\xbb\xbf'
p309
aS'i have the same football\xef\xbb\xbf'
p310
aS'HIMYM\xef\xbb\xbf'
p311
aS'Teehee\xef\xbb\xbf'
p312
aS'I think wilbur did a better job than luci\nWithout luci it would have been perfect...\xef\xbb\xbf'
p313
aS'I am really confused...\xef\xbb\xbf'
p314
aS'0:10 I\'m not living in the "you ass"\xef\xbb\xbf'
p315
aS"I'm the the same way Ryan \xef\xbb\xbf"
p316
aS'"Inception" Ryan style, but more confusing.\xef\xbb\xbf'
p317
aS'YEAH 49ERS!\xef\xbb\xbf'
p318
aS'0:20 LOL XD\xef\xbb\xbf'
p319
aS'this video broke my brain\xef\xbb\xbf'
p320
aS'the first minuet of this video is the same as when i was a kid\xef\xbb\xbf'
p321
aS'omg...how i met your mother <3\xef\xbb\xbf'
p322
aS'On the balz\xef\xbb\xbf'
p323
aS'Hahahaha\xef\xbb\xbf'
p324
aS'Wonderful Pistachios!!!\xef\xbb\xbf'
p325
aS'Platypode..\xef\xbb\xbf'
p326
aS'oh my gosh, at 0.56 thats the best!!! haha, LOUD NOISES!!\xef\xbb\xbf'
p327
aS"'LOUD NOISES!' brick from anchormen\xef\xbb\xbf"
p328
aS'that was almost as retarded as inception, but you saved it with silly \ncomedy! :) \xef\xbb\xbf'
p329
aS'So did he or did he not almost get a commercial?\xef\xbb\xbf'
p330
aS'Confusing\xef\xbb\xbf'
p331
aS'the thing you said about the super bowl being right around the corner, you \nsaid the same thing with Christmas 3 years ago.\xef\xbb\xbf'
p332
aS'Touchdown!!!\xef\xbb\xbf'
p333
aS'Dear ryan if you had another name what would it be?\xef\xbb\xbf'
p334
aS'*LOUD NOISES!!!!*\xef\xbb\xbf'
p335
aS'Stop comic sans!!!!!\xef\xbb\xbf'
p336
aS'Continuity\xef\xbb\xbf'
p337
aS"I'm so confused\xef\xbb\xbf"
p338
aS'What\xef\xbb\xbf'
p339
aS'continuity :I\xef\xbb\xbf'
p340
aS"I feel so out of place. What's Super Bowl? XD\xef\xbb\xbf"
p341
aS'Same\xef\xbb\xbf'
p342
aS'Awesome \xef\xbb\xbf'
p343
aS' Hahahaha Will xD\xef\xbb\xbf'
p344
aS'LOL HeadSHOT!!\xef\xbb\xbf'
p345
aS"49res? LET'S GO SEAHAWKS!!!\xef\xbb\xbf"
p346
aS'Err, For fuck sake Ryan, Every videos of yours so fucking goddamn cool!\xef\xbb\xbf'
p347
aS"I'm also that kinda kid that doesn't watch it but just pretends I know what \nI'm talking about it sucks lol\xef\xbb\xbf"
p348
aS'*LOUD NOISES!!!*\xef\xbb\xbf'
p349
aS'I go to the super bowl\xef\xbb\xbf'
p350
aS'0.20 the must hurt\xef\xbb\xbf'
p351
aS'LOOOOOOUD NOICES!!!!!! LOLZ!!!!\xef\xbb\xbf'
p352
aS'Wat?\xef\xbb\xbf'
p353
aS'2014 commercials were boring... :(\xef\xbb\xbf'
p354
aS'SEATTLE SEAHAWKS ALL THE WAY!!!\xef\xbb\xbf'
p355
aS'Dafuq just happened?! \xef\xbb\xbf'
p356
aS'Niner  NATION!!!!!\xef\xbb\xbf'
p357
aS"This is so awesome. I also try to make commercials on my channel, but yours \nare way better. I've learned a lot of stuff from your videos(about filming, \nediting), and I wanted to thank you. A lot of youtubers are great, but I \nthink you are the only one that I want my videos to be like. Thanks a lot, \nRyan!\xef\xbb\xbf"
p358
aS'Omfg Ryan u are soo awesome!!!!\xef\xbb\xbf'
p359
aS'pistachino = pissed at you, no!\xef\xbb\xbf'
p360
aS"This is like a total spoof of 'How I Met Your Mother'\xef\xbb\xbf"
p361
aS'going through his older videos and just noticed he made 0:03 that joke at \nleast twice.......this comment is relevant......\xef\xbb\xbf'
p362
aS'i am in shock. nice\xef\xbb\xbf'
p363
aS'4:13\nLOL, those credits tho XD\xef\xbb\xbf'
p364
aS'i hate psy\xef\xbb\xbf'
p365
aS'Are you Asian \xef\xbb\xbf'
p366
aS'nice skytops\xef\xbb\xbf'
p367
aS'How i met your mother \xe2\x9d\xa4\xef\xbb\xbf'
p368
aS'That is actually be great for a Super Bowl commercial\n\xef\xbb\xbf'
p369
aS'F*** ryans\xef\xbb\xbf'
p370
aS'Loud noises\xef\xbb\xbf'
p371
aS'\n\n\xef\xbb\xbf'
p372
aS"Lol another Asian to make a commercial. Wait I'm Asian!\xef\xbb\xbf"
p373
aS'49ers \xf0\x9f\x98\x9c\xef\xbb\xbf'
p374
aS'Continuity\xef\xbb\xbf'
p375
aS'Yo funny\xef\xbb\xbf'
p376
aS'RAIDERS\xef\xbb\xbf'
p377
aS'My sis loves the 49ers....... A lot I mean a lot\xef\xbb\xbf'
p378
aS'And if u do watch How I Never Met Your Motha u should watch teh series \nfinale.\xef\xbb\xbf'
p379
aS'The pistachios commercial was actually real with Psy. It was a bit like \nthis parody but Psy danced with the song going on as the Pistachios was \nprojected on the side of him.\xef\xbb\xbf'
p380
aS'0:56 "LOUD NOISES" lolol\xef\xbb\xbf'
p381
aS'Haha that sucks\xef\xbb\xbf'
p382
aS'he gets cuter and smarter as time goes on!!\xef\xbb\xbf'
p383
aS'I feel exactly like you.\xef\xbb\xbf'
p384
aS'Thats me \xef\xbb\xbf'
p385
aS'OMG I saw that commercial lol \xf0\x9f\x98\xb1\xf0\x9f\x98\xb1\xf0\x9f\x98\xb1\xf0\x9f\x98\xb1\xf0\x9f\x98\xb1\xf0\x9f\x98\xb1\xf0\x9f\x98\xb1\xf0\x9f\x98\xb1\xef\xbb\xbf'
p386
aS'49ers been gold diggers since they were a minor\xef\xbb\xbf'
p387
aS'that video was confusing\xef\xbb\xbf'
p388
aS"That's exactly how I am\xef\xbb\xbf"
p389
aS'49RS!!!!\xef\xbb\xbf'
p390
aS'0:42 MUSTACHES!\xef\xbb\xbf'
p391
aS'CONTINUITY!!!!!!!!\xef\xbb\xbf'
p392
aS'inseption skit within a skit within a skit within a skit\xef\xbb\xbf'
p393
aS'Boo 49ers\xef\xbb\xbf'
p394
aNaS'YEAH GO 49ers!!!\xef\xbb\xbf'
p395
aS'Headshot! :DDDDwhahaha\xef\xbb\xbf'
p396
aS'Same im not a fan if football\xef\xbb\xbf'
p397
aS'LOUD NOISESSSSSS\xef\xbb\xbf'
p398
aS'Somebody tell me what continuity means please?\xef\xbb\xbf'
p399
aS'hahaha "that\'s what she said" haha lmfao\xef\xbb\xbf'
p400
aS'LOUD NOISES\xef\xbb\xbf'
p401
aS'Who else loves pistachios?\xef\xbb\xbf'
p402
aS'PUNS!!!!!!\xef\xbb\xbf'
p403
aS'PISTACHINO HAHAHAHAHA\xef\xbb\xbf'
p404
aS'49ers are horible\xef\xbb\xbf'
p405
aS'40 whiners\xef\xbb\xbf'
p406
aS'Me too\xef\xbb\xbf'
p407
aS'How I met your mother. <3\xef\xbb\xbf'
p408
aS'LOOUUD NOOIISES!\xef\xbb\xbf'
p409
aS'GO 49ers!\xef\xbb\xbf'
p410
aS'home run xD\xef\xbb\xbf'
p411
aS'Dear Ryan, \nHow do you feel about how I met your mother ending\xef\xbb\xbf'
p412
aS'very lame\xef\xbb\xbf'
p413
aS'go ninners\xef\xbb\xbf'
p414
aS'I hate 49ers\xef\xbb\xbf'
p415
aS'LOUD NOISES!!! Hahaha lmao \xef\xbb\xbf'
p416
aS'I know how you feel\xef\xbb\xbf'
p417
aS'Home run headshot lol\xef\xbb\xbf'
p418
aS'How i never met your modrr i wanna watch dat ish .. Dear ryan do a hinmym!! \n\xef\xbb\xbf'
p419
aS'LOUD NOISES!!!!!!!! XD\xef\xbb\xbf'
p420
aS'Did you really audition\xef\xbb\xbf'
p421
aS'u see kids papapappa\xef\xbb\xbf'
p422
aS'My sis loves the 49ers................ Like a lot\xef\xbb\xbf'
p423
aS'Go 49ers!!\xef\xbb\xbf'
p424
aS'Canadiens know wat u mean by "football" too.\xef\xbb\xbf'
p425
aS'Stephen Colbert, my role model, has a wonderful Pistachios ad this year. It \nwas hilarious!\xef\xbb\xbf'
p426
aS'xD the first 7 sec\xef\xbb\xbf'
p427
aS"I'm that one person too\xef\xbb\xbf"
p428
aS'ummmmm English football is better\xef\xbb\xbf'
p429
aS'Ravens bi**h\xef\xbb\xbf'
p430
aS'hahahahaha 49ners :D \xef\xbb\xbf'
p431
aS'Ok so which one was supposed to be the best super bowl commercial ever? \nContinuity tho\xef\xbb\xbf'
p432
aS'Ryanception\xef\xbb\xbf'
p433
aS"Wow I live Ryan's new hair style......... I think its different\xf0\x9f\x98\xaf\xef\xbb\xbf"
p434
aS"To be honest I don't like football either!\xef\xbb\xbf"
p435
aS'Europian "football" is called soccer?\xef\xbb\xbf'
p436
aS'INCEPTION.... oh no wait its CONTINUITY\xef\xbb\xbf'
p437
aS'Lol Ikr\xef\xbb\xbf'
p438
aS'Best commercial ever!\xef\xbb\xbf'
p439
aS"I'm very lost! \xef\xbb\xbf"
p440
aS'lol in the how I met your mother credits he named his lamps\xef\xbb\xbf'
p441
aS'Mind blown....\xef\xbb\xbf'
p442
aS'GO SEAHAWKS\xef\xbb\xbf'
p443
aS'Continuity\xef\xbb\xbf'
p444
aS'GO 49ERS\xef\xbb\xbf'
p445
aS'2:38-2:45 Awesome!\xef\xbb\xbf'
p446
aS"I wasn't a fan of any sport then and i was a loser! I'm only 9 and I was \nwatching basketball and everyone said get out yesturday!\xef\xbb\xbf"
p447
aS"Tf did i just watch :'l \xef\xbb\xbf"
p448
aS'Im a 49ers fan\xef\xbb\xbf'
p449
aS'0:22 True... very very true...\xef\xbb\xbf'
p450
aS'i was also that kid :/\xef\xbb\xbf'
p451
aS'Dear Ryan can you do a short play with REGINA\xef\xbb\xbf'
p452
aS'haha Brick Tamland 0:55 "LOUD NOISES!"\xef\xbb\xbf'
p453
aS'ContinuiTEEHEE\xef\xbb\xbf'
p454
aS'GO HAWKS\xef\xbb\xbf'
p455
aS'that was me but now im obsessed with football\n \xef\xbb\xbf'
p456
aS'Hey hey hey Ryan hey hey Ryan hey hey hey teehee hwhahahaha\xef\xbb\xbf'
p457
aS'Cactuuuuus\xef\xbb\xbf'
p458
aS'HOMERUN OMUSOGH HAHAH\xef\xbb\xbf'
p459
aS'WHAT EVEN\n\nJUST WHAT\n\nWOAH AND WAT\xef\xbb\xbf'
p460
aS'Continuity...  HAHAHA  LOL\xef\xbb\xbf'
p461
aS'Me to\xef\xbb\xbf'
p462
aS'Help raise funds for Jamie!\nhttp://gfwd.at/1eksooQ\xef\xbb\xbf'
p463
aS'Continuity! :D\xef\xbb\xbf'
p464
aS'Dear rayn, can u lick ur nose and waste ur moneys\xef\xbb\xbf'
p465
aS'Did you go for seahawks \xef\xbb\xbf'
p466
aS'But in canada it sucks balls\n\xef\xbb\xbf'
p467
aS'Im totally loving the How I Met Your Mother inspiration\xef\xbb\xbf'
p468
aS'Continuity\xef\xbb\xbf'
p469
aS'Not many people do\xef\xbb\xbf'
p470
aS'wow those pistachios seemed wonderful. That song seemed wonderful too\xef\xbb\xbf'
p471
aS'hey guys the super bowl is around the corner... how did he know?\xef\xbb\xbf'
p472
aS'lol the credits\xef\xbb\xbf'
p473
aS'Another reason to hate Psy :P\xef\xbb\xbf'
p474
aS'I dare you to (in a walmart) moonwalk in only your underwear and a white \nshirt and day i love snickerdoodles\n\xef\xbb\xbf'
p475
aS'i dont get the continuity joke =/\xef\xbb\xbf'
p476
aS'LOL omg this is like the funniest video ever. Just generously done all \naround. I lost it at the continuity parts and the pistachio"no" part hahah\xef\xbb\xbf'
p477
aS'Okay it means someyhing can be hear and somewhere else simletaniusly just \nswach the vid whenever two things are the same thing at differt places he \nsays continuity\xef\xbb\xbf'
p478
aS'HOME RUN... HOME IN ONE.... GO 49RS? YAYAYAYAYAYA\xef\xbb\xbf'
p479
aS'This was uploaded on my birthday\xef\xbb\xbf'
p480
aS'Lol\xef\xbb\xbf'
p481
aS'Haha I thought my computer was lagging at the freeze frames! teehee\xef\xbb\xbf'
p482
aS'FUCK THE 49ERS \xef\xbb\xbf'
p483
aS'Dear ryan- can you become an animal\xef\xbb\xbf'
p484
aS'rock asome watch it now !!!!! +YouTube .com\xef\xbb\xbf'
p485
aS':DDDDDD\xef\xbb\xbf'
p486
aS'make a vid about the olympics\xef\xbb\xbf'
p487
aS'Were u can find it is comic con or the web to find more info about doctor \nwho go on the web as well teehee\xef\xbb\xbf'
p488
aS'me to i was te same\xef\xbb\xbf'
p489
aS'rlly funny\xef\xbb\xbf'
p490
aS'you see kids back in the day...\xef\xbb\xbf'
p491
aS' GO GREEN BAY PACKERS\xef\xbb\xbf'
p492
aS'Dear Ryan, What would you do if you were on a double date but the other \nguys girl falls in love with you?\xef\xbb\xbf'
p493
aS"What's with the dimension stuff? LOL\xef\xbb\xbf"
p494
aS'headshot... lol\xef\xbb\xbf'
p495
aS'HOMERUN!!!!!!\xef\xbb\xbf'
p496
aS'OH MY GOD\n\n\nI WAS EATING THAT EXACT BARND OF PISTACHIOS AND GOT UP TO GET THEM RIGHT \nBEFORE THAT PART\n\n\nOH MY GOD\xef\xbb\xbf'
p497
aS'I love how I met your mother, but your remake is so funny.\xef\xbb\xbf'
p498
aS'@ 3:52 my brain hurts because I tried to figure that out!\xef\xbb\xbf'
p499
aS"It's not continuity, its inception!\xef\xbb\xbf"
p500
aS"HOMERUN!! Ummmmm hole in one? Headshot? Let's go 49ers? YEAH LOUD NOISES!!\xef\xbb\xbf"
p501
aS"I'm one of those people\xef\xbb\xbf"
p502
aS':-)\xef\xbb\xbf'
p503
aS'hehe\xef\xbb\xbf'
p504
aS"49ers rule thanks Ryan mabey that showed people who's the best \xef\xbb\xbf"
p505
aS'Foot in the balls teehee\xef\xbb\xbf'
p506
aS'Mindfuck\xef\xbb\xbf'
p507
aS'Go Broncos\xef\xbb\xbf'
p508
aS'1:33. That RED jacket has been everywhere from Anthony, pewdiepie, Ian , i \nthink Toby and nighinga\xef\xbb\xbf'
p509
aS'49ers awesome\xef\xbb\xbf'
p510
aS'that should be a real superbowl commercial\xef\xbb\xbf'
p511
aS'49ers?! Unsubscribe!\xef\xbb\xbf'
p512
aS'Mind=blown\xef\xbb\xbf'
p513
aS'I hate football \xef\xbb\xbf'
p514
aS"I don't know anything about football. I'm like you for football. I don't \nlike or know anything about football.\xef\xbb\xbf"
p515
aS'continuity?\xef\xbb\xbf'
p516
aS'Seahawks\xf0\x9f\x92\x9a\xf0\x9f\x92\x99\xef\xbb\xbf'
p517
aS'That would be awesome I liked yours better\xef\xbb\xbf'
p518
aS"I'm one of those people \xef\xbb\xbf"
p519
aS'49ers suck\xef\xbb\xbf'
p520
aS'No broncos. ._.\xef\xbb\xbf'
p521
aS'You see kids.......TEEHEE. \xef\xbb\xbf'
p522
aS'49ers kill em\nbest football team\xef\xbb\xbf'
p523
aS"Lol that wasn't even an nfl ball haha \xef\xbb\xbf"
p524
aS'Haahahaha kick his balls\xef\xbb\xbf'
p525
aS'HOLLY SHIT, SO CONFUSING... HAS TO BE THE CONTINUITY :D\xef\xbb\xbf'
p526
aS'Is what u said true??\xef\xbb\xbf'
p527
aS'WTF is Super Bowl!?\n\xef\xbb\xbf'
p528
aNaS'Haha mimicking HIMYM\xef\xbb\xbf'
p529
aNaS'Id perfer this commetial than that Psy commercial !\xef\xbb\xbf'
p530
aS'\n"Louddd nosies\xe2\x80\x9d my favorite part lol\xef\xbb\xbf'
p531
aS'asains are sooo funny\xef\xbb\xbf'
p532
aS"When life gives you lemons.. don't slice em with a samurai sword.\xef\xbb\xbf"
p533
aS'you like the 49ers whatever idk how to spell it im not a big football fan\xef\xbb\xbf'
p534
aS'that  wasnot funny\xef\xbb\xbf'
p535
aS'Continuity!!!!!!\xef\xbb\xbf'
p536
aS'lol\xef\xbb\xbf'
p537
aS'y u no say platypus right\xef\xbb\xbf'
p538
aNaS"I don't care about football but does ryan have a Vincent Van Gogh painting \nstarry night in his house?\xef\xbb\xbf"
p539
aS'Mindfuck\xef\xbb\xbf'
p540
aS'HOMERUN!!!!!!!!!!!!!\xef\xbb\xbf'
p541
aNaS'Dear ryan how to dougie\xef\xbb\xbf'
p542
aS"'How i met your mother' very funny such great much cool\xef\xbb\xbf"
p543
aS'49ers rock yeeee\xef\xbb\xbf'
p544
aS'and to think it all started with the how to be a ninja video 6 something \nyears ago, we have been blessed with the antics of nigahiga\xef\xbb\xbf'
p545
aS'commercials sucked this year\xef\xbb\xbf'
p546
aS'Go Lakers XD \xef\xbb\xbf'
p547
aS"Its always continuity's fault.\xef\xbb\xbf"
p548
aS'Inception!!!\xef\xbb\xbf'
p549
aS"I'd buy it take my money \xef\xbb\xbf"
p550
aS'weird.. watching this during the superbowl......FATE!\xef\xbb\xbf'
p551
aS'LETS GO BRONCOS-- BOO SEAHAWKS (more like seacocks) :)\xef\xbb\xbf'
p552
aS'LOUD NOISES\xef\xbb\xbf'
p553
aS'I am the same as Ryan my friends adore over it\xef\xbb\xbf'
p554
aS'BRONCOS are going to stomp on the seahawks\xef\xbb\xbf'
p555
aS'yeah go broncos!!!!!!!!!!!!!!!!!!!!!!!!!!!!!!!!!!!!!!!!!!!!\xef\xbb\xbf'
p556
aS'LOUD NOISES!!!\xef\xbb\xbf'
p557
aS'Himym at 1:36\xef\xbb\xbf'
p558
aS'Sea Hawks all the way\xef\xbb\xbf'
p559
aS'Lol\xef\xbb\xbf'
p560
aS'He forgot to say Aussie rules football (AFL) \xef\xbb\xbf'
p561
aS'H\xef\xbb\xbf'
p562
aS'"LOUD NOISES!" That\'s me every time I\'m around people watching football! \no_O\xef\xbb\xbf'
p563
aS'when he takes the pistachos do you notice how its ryan playing both parts \nbut the one in the red jacket arm is on the same screen as the one in the \nshirt???????  1:27\xef\xbb\xbf'
p564
aS'Funny \xef\xbb\xbf'
p565
aS"If I don't see this commercial tomorrow on television.. there's something \nwrong!!\xef\xbb\xbf"
p566
aS'continuity? continuity.\n\nps 49ers suck GO BRONCOS\xef\xbb\xbf'
p567
aS'Lol\xef\xbb\xbf'
p568
aS'1:10 lol\xef\xbb\xbf'
p569
aS'Continuity?\xef\xbb\xbf'
p570
aS"Let's go hawks!!!!\n\xef\xbb\xbf"
p571
aS"did you actually get the commercial\n'\xef\xbb\xbf"
p572
aS'GO HAWKS!\xef\xbb\xbf'
p573
aS'I HATE PSY\xef\xbb\xbf'
p574
aS'Dude,Broncos gotta win, but if you are going for the Seattle Peacocks you \nare kidding me.\xef\xbb\xbf'
p575
aS'LOUD NOISES! 0:56\xef\xbb\xbf'
p576
aS'No broncos \nGO DENVER\nACCEPT IT\nWE WILL\nWIN!!!!!!!!!!!!!\niPod\n:-) \nLol\xef\xbb\xbf'
p577
aS'Seahawks are better! GO HAWKS\xef\xbb\xbf'
p578
aS'Dear Ryan, can you do flappy bird\xef\xbb\xbf'
p579
aS'Mustash \xef\xbb\xbf'
p580
aS"Hi \nIt's nick you remember me \n\xef\xbb\xbf"
p581
aS'Noo!!!!! GO HAWKS!!!!!!!!!!BOO BRONCOS!!!!\xef\xbb\xbf'
p582
aS'O nvm, just saw the video ._.\xef\xbb\xbf'
p583
aS'U should use a doctor who theme and get a sonic screwdriver\xef\xbb\xbf'
p584
aS'Go 49ers!!!!!!!! Love them\xef\xbb\xbf'
p585
aS'continuity lol\xef\xbb\xbf'
p586
aS'NigaHiga your AWESOME!!!!!!!!!!!!!!!!!!!!!!!\xef\xbb\xbf'
p587
aS'Ryan, your amazing!\xef\xbb\xbf'
p588
aS'platipeople\xef\xbb\xbf'
p589
aS'"LOUD NOISES!!!"\xef\xbb\xbf'
p590
aS'0:41 lol\xef\xbb\xbf'
p591
aS'Funniest Asian nigga on earth!\xef\xbb\xbf'
p592
aS'hopes he makes another one this year :)\xef\xbb\xbf'
p593
aS'HOMERUN!! thats when i lost it!\xef\xbb\xbf'
p594
aS'Go 49ers!... We lost anyways q.q\xef\xbb\xbf'
p595
aS'49ers\xef\xbb\xbf'
p596
aS"My story!  I'm judged by my glasses a ton!  One eye barely even works!  I'm \npretty near-sided too!  I like my glasses though and i won't be getting \ncontacts anytime soon.  You look good in glasses why is that so bad? \xef\xbb\xbf"
p597
aS'psy just gay. Higa FTW !!!!\xef\xbb\xbf'
p598
aS'Go 69ers :p\n\xef\xbb\xbf'
p599
aS'this vid is a year old\xef\xbb\xbf'
p600
aS'The super bowl is coming up u should make a football related commercial on \nyoutube\xef\xbb\xbf'
p601
aS'Broncos\xef\xbb\xbf'
p602
aS'YOU ARE AMAZING!!\xef\xbb\xbf'
p603
aS'Yeah 49ers\xef\xbb\xbf'
p604
aS'This was on my birthday! so tomorrow is my birthday\xef\xbb\xbf'
p605
aS'anyone else notice at around 1:45 seconds he says "you see kids", sounds \nexactly like how i met your mother!\xef\xbb\xbf'
p606
aS'I like the broncos\xef\xbb\xbf'
p607
aS'Hi\nTeehee\xef\xbb\xbf'
p608
aS'I need to meet you.. you are so adorable and hilarious.. are you coming to \nMA any time soon or possibly in the future? \xef\xbb\xbf'
p609
aS'Seahawks!\xef\xbb\xbf'
p610
aS'WHAT THE HELL IS CONTINUITY!?!??!?!?!?!?!?\xef\xbb\xbf'
p611
aS'One more week, and a day...\xef\xbb\xbf'
p612
aS'Wonderful Pistachios aergehryefggtrftgefretuj Pistachios\xef\xbb\xbf'
p613
aS'Dafuq did i just watch?\xef\xbb\xbf'
p614
aS'I love football\xef\xbb\xbf'
p615
aS'Ryan you blow my mind. So confusing\xef\xbb\xbf'
p616
aS'Omg how i met your mother\xef\xbb\xbf'
p617
aS'GO SEAHAWKS. i used to live in washington state :D\xef\xbb\xbf'
p618
aS"This was posted 1 year ago and it's still funny!\xef\xbb\xbf"
p619
aS'Do another Super Bowl commercial. And do it for Doritos!!\xef\xbb\xbf'
p620
aS"I'm confussed ???\n\xef\xbb\xbf"
p621
aS'49ers!!!!!!!\xef\xbb\xbf'
p622
aS'Like if your watching Jan 25 2014\xef\xbb\xbf'
p623
aS'At 1:24\xef\xbb\xbf'
p624
aS'Weird part there was a Super Bowl commercial paying before these video o.o\xef\xbb\xbf'
p625
aS'its been a year since this video was made lol its Jan 25 \xef\xbb\xbf'
p626
aS'1 year later\xef\xbb\xbf'
p627
aS'jajajajaa psy! xD\xef\xbb\xbf'
p628
aS'Why are there no comments about the HIMYM references?! Those were the best \n:) \xef\xbb\xbf'
p629
aS'NEW PAGE (COMEDY & MUSIC)\xef\xbb\xbf'
p630
aS'This video came out exactly a year ago!\xef\xbb\xbf'
p631
aS'that should be a commerical xD\xef\xbb\xbf'
p632
aS'the fuck lets go seahawks \xef\xbb\xbf'
p633
aS'49erzzzzzz!!\xef\xbb\xbf'
p634
aS"scary moment: the super bowl is literally around the corner, I'm not a big \nfan of football, but I'm a fan of the forty-niners and there's a bag of \nWonderful Pistachios right next to me as I watch this video...\n\nMust be continuity\xef\xbb\xbf"
p635
aS'im so confused......\xef\xbb\xbf'
p636
aS'Dear Ryan,\nMake a Doritos Commercial!  \xef\xbb\xbf'
p637
aS'My family are Dallas Cowboys fans well me and my parents not so much my \nsister\xef\xbb\xbf'
p638
aS'HAHAHA!!! GO BRONCOS!!!!!!!!!\xef\xbb\xbf'
p639
aS'Continuity? Continuity.\xef\xbb\xbf'
p640
aS'it was stephen colbert\xef\xbb\xbf'
p641
aS'MUUUSSTTTTACHE\xef\xbb\xbf'
p642
aS'exactly a year ago lol\xef\xbb\xbf'
p643
aNaS'Noo,,, inception brothaa\xef\xbb\xbf'
p644
aS'I love football and the commercials are better\xef\xbb\xbf'
p645
aS'It has to be said...INCEPTION!!!\xef\xbb\xbf'
p646
aS'LOUD NOISES\xef\xbb\xbf'
p647
aS'0:40 MUSTACCHHHEEEEEEEE\xef\xbb\xbf'
p648
aS"Umm, I'm new to your channel and I find this video quite confusing. So can \nsomeone tell me if they chose Psy's video because Psy's version of \nPistachios was absaloutly awful and I wouldn't get why they would choose \nPsy's over Ryan's.\xef\xbb\xbf"
p649
aS'Continuity\xef\xbb\xbf'
p650
aNaS'Nerd...\xef\xbb\xbf'
p651
aS'Yeah 49ers\xef\xbb\xbf'
p652
aS'lets go forty niners? YEAH!!!!!!!!!!!!!!!! THATS MY TEAM!!!!!!!!!! Playoffs \nnext year!\xef\xbb\xbf'
p653
aS'u are cute\xef\xbb\xbf'
p654
aS'When u said "Mom,dad, kid and stuff" u should add cat, dog and \nminion.........\xef\xbb\xbf'
p655
aS"what's continuity?\xef\xbb\xbf"
p656
aS"let's go 49er's!\xef\xbb\xbf"
p657
aS'Best super bowel commercial \xef\xbb\xbf'
p658
aS'my brain hurts\xef\xbb\xbf'
p659
aS'LOUD NOISES\xef\xbb\xbf'
p660
aS"So I'm going with he's a 49er fan cuz if he is dats awesome cuz I am too\xef\xbb\xbf"
p661
aS'Idl\xef\xbb\xbf'
p662
aS'Big fan I wish your camercial was there instead of psy\xef\xbb\xbf'
p663
aS'0:56 Anchorman reference. "LOUUUD NOISES!"\xef\xbb\xbf'
p664
aS'Dear ryan\nNiga higa and iisuperwomanii do a video together\xef\xbb\xbf'
p665
aS'ANTHONY PADILLA RED LEATHER \nJACKET!?!?!?!?!?!?!?!?!?!?!?!?!?!?!?!?!?!?!?!?!?!?!?!?!?!?!?\xef\xbb\xbf'
p666
aS'I live in sf but I hate the 49ers\xef\xbb\xbf'
p667
aS'None of then they both suck\xef\xbb\xbf'
p668
aS'HOW I MET YOUR MOTHER!!! Haahahha\xef\xbb\xbf'
p669
aS'Dear ryan can you walk on ur hands\n\xef\xbb\xbf'
p670
aS"I'm confused\xef\xbb\xbf"
p671
aS'Seahawks \xef\xbb\xbf'
p672
aS"Awwww, it would've been nice to see you on a commercial.. even if I didn't \nknow you then. But yeah, your commercial is better than his.\xef\xbb\xbf"
p673
aS'What does "continuity" mean?\xef\xbb\xbf'
p674
aS'what?\xef\xbb\xbf'
p675
aS'Its not even january 25\xef\xbb\xbf'
p676
aS'TEEHEE\xef\xbb\xbf'
p677
aS'I love the 49ers to bro\xef\xbb\xbf'
p678
aS'Doctor Who=continuity!\xef\xbb\xbf'
p679
aS'haha when all his friends are screaming and he is trying to scream and he \njust screams ya "random noises!" lol one of my favorite parts idk why i \nthought it was so funny\xef\xbb\xbf'
p680
aS'XD I love this so much\xef\xbb\xbf'
p681
aS'So close man\xef\xbb\xbf'
p682
aS'The Ryan as a kid is exactly like me\xef\xbb\xbf'
p683
aS"I saw psy's commercial and I liked your's better\xef\xbb\xbf"
p684
aS"I'm a bed!\xef\xbb\xbf"
p685
aS'I like the print on the wall behind him.\xef\xbb\xbf'
p686
aS'i may sound stupid but can someone explain continuity to me??\xef\xbb\xbf'
p687
aS'This is soooo what the fuck!\xef\xbb\xbf'
p688
aS'My brain hurts now\xef\xbb\xbf'
p689
aS'Hey guys, I make awesome animations. Check them out please. Thanks~\xef\xbb\xbf'
p690
aS'End of the world with raining cats and dogs for real and flying cheese\nMust be contneate \xef\xbb\xbf'
p691
aS'ohh American football\xef\xbb\xbf'
p692
aS'I love watching how I meet your mother\xef\xbb\xbf'
p693
aS'49ers in the playoffs\n\xef\xbb\xbf'
p694
aS'We have so much in common! I like himym (how I met your mother) and I also \nlike the walking dead! Poor Hershel though! ;(\xef\xbb\xbf'
p695
aS'WHAT IS CONTINUINTY\xef\xbb\xbf'
p696
aS'Lets go 49ers ?..... Lol\xef\xbb\xbf'
p697
aS'...riiiight...\n\xef\xbb\xbf'
p698
aS"What's continuity???\xef\xbb\xbf"
p699
aS'Plant 1 and 2 were the best\n\xef\xbb\xbf'
p700
aS'Lets go 49ers! Hell yah!\xef\xbb\xbf'
p701
aS'This should be a real commercial!\xef\xbb\xbf'
p702
aS'can u make another  video about Google glass human 2 or about ur pets\xef\xbb\xbf'
p703
aS'?\xef\xbb\xbf'
p704
aS'Lol dat ball\xef\xbb\xbf'
p705
aS'Yea Lauren go seahawks\xef\xbb\xbf'
p706
aS'*FRIENDS SCREAM    RYAN :  LOUD NOISES!!!!!      LOL\xef\xbb\xbf'
p707
aS'ew 49ers dude??? GO SEAHAWKS\xef\xbb\xbf'
p708
aS'LOUD NOISES\xef\xbb\xbf'
p709
aS"9ers aren't even in the SB...\xef\xbb\xbf"
p710
aS'loud noises haahahhahahahahahahha anchor man\xef\xbb\xbf'
p711
aS'Love it !!!!!!!!\xef\xbb\xbf'
p712
aS'Home Run xD\xef\xbb\xbf'
p713
aS'Best word ever continuity hahahaha \xef\xbb\xbf'
p714
aS'I paused it and it said the bed was was kyle hahahahahahahahahaaaaaaa\xef\xbb\xbf'
p715
aS'tumbs up for foot balls kicking\xef\xbb\xbf'
p716
aS'DO GAGNAM STYLE\xef\xbb\xbf'
p717
aS"I'm that kid... this happened with my friend once. Giancarlo (My friend): \nWHOO! Ravens! Me: Yeah, they really putt the soccer in the hoop! \nGiancarlo:... What? Me:...  *turns on Gangam Style* Giancarlo: WOW I \ntotally forgot what just happened about 3.74 seconds ago! Me: Of course.\xef\xbb\xbf"
p718
aS'ANTHONYS JACKET!!!!!\xef\xbb\xbf'
p719
aS'That was...interesting...\xef\xbb\xbf'
p720
aS"How did you get Mike Shinoda in the room? (the guy with the cool 'stache \nxD)\xef\xbb\xbf"
p721
aS'DUDE UR A FRIKING GENIUS\xef\xbb\xbf'
p722
aS"CHECK OUT OUR CHANNEL IF YOU THINK BABIES SHOULDN'T BE EATEN\xef\xbb\xbf"
p723
aS'psy is not asian he was born in north korea \xef\xbb\xbf'
p724
aS"Can't believe it's been a year.\xef\xbb\xbf"
p725
aS'0:19 to 0:24 LOLOLOLOLOLOLOLOLOLOLOL\xef\xbb\xbf'
p726
aS'So did u get it or not\xef\xbb\xbf'
p727
aS'Omg his was so much better that Psy they should have aired that instead\xef\xbb\xbf'
p728
aS'Umm... What is a Super Bowl?\xef\xbb\xbf'
p729
aS'dear ryan\ndoes the packers ever come by the house TEEHEE\xef\xbb\xbf'
p730
aS'home run people home run\xef\xbb\xbf'
p731
aS"What's the music at 1:58\xef\xbb\xbf"
p732
aS'BOO 49ERS GO SEAHAWKS\xef\xbb\xbf'
p733
aS'I\'m a ravens fan ._. And they won."......"......... SUKERS\xef\xbb\xbf'
p734
aS"My scream when I'm being held down by girls\n\n\n#everyoutdoorreccess\n\n\nTEEEEHHHEEE\xef\xbb\xbf"
p735
aS'hey this was on my birthday! cool ryan\xef\xbb\xbf'
p736
aS'xD!\xef\xbb\xbf'
p737
aS'The anchor man part :)\xef\xbb\xbf'
p738
aS"Psy sucks. His dance is retarded and he's a commie, just my opinion don't \nhate.\xef\xbb\xbf"
p739
aS'TEEHEE!!!!!!!\xef\xbb\xbf'
p740
aS'ryan:for those of you who dont live around the US i dont mean this \nfootball*kicks ball*,or this football*rises foot with ball on this*,or even \nthis foot ball *kicks a dudes balls then screams*i mean this one*catches \nfootball then kicks balls*\n\nMe:BWAHAHAHAHAHAHAHAHAH DAT SCREAM!!! XD \xef\xbb\xbf'
p741
aS'how i met your mother!!!!!!!!!!!!!!!!!!!!\xef\xbb\xbf'
p742
aS"C'mon Ryan, continuity\xef\xbb\xbf"
p743
aS'FARTS!!!!!!\xef\xbb\xbf'
p744
aS'i love 49ers\xef\xbb\xbf'
p745
aS'Same\xef\xbb\xbf'
p746
aS'0:22 tho XD\xef\xbb\xbf'
p747
aS'Your so funny\xef\xbb\xbf'
p748
aS"I'm sooooo confused!! DAFAQ just happened?!?!\xef\xbb\xbf"
p749
aS'I did not like the Super Bowl before but now I do and btw LOUD NOSIES\xef\xbb\xbf'
p750
aS'0:59 anchorman reference\xef\xbb\xbf'
p751
aS'Same\xef\xbb\xbf'
p752
aS'The Part at 3:39 just came true cause i just saw a commercial with psy\xef\xbb\xbf'
p753
aS'Is the guy with the mustache Mike Shinoda from Linkin Park?\xef\xbb\xbf'
p754
aS'TEEHEE\xef\xbb\xbf'
p755
aS'Uh... Lets go forty-niners?\xef\xbb\xbf'
p756
aS'This is how I fell every time I go to a friends house\xef\xbb\xbf'
p757
aS'HOW I MET YOUR MOTHER <3 YAYAY \xef\xbb\xbf'
p758
aS"Dude Ryan that's how I feel in school you totally describe me good job bro\xef\xbb\xbf"
p759
aS'Big fan I wish your camercial was there instead of psy\xef\xbb\xbf'
p760
aS'fuck the forty whiners!\xef\xbb\xbf'
p761
aS'Continuity? Continuity.\xef\xbb\xbf'
p762
aS'ikr \nthey should!!!\xef\xbb\xbf'
p763
aS'I have ADHD and ADD\xef\xbb\xbf'
p764
aS'at the end for how i almost but didnt get a commercial because of psy the \ncast is Ryan Higa played by Ryan Higa, Plant 1 Markey, Plant 2 Teddy \npainting Luci, bed Kyle\xef\xbb\xbf'
p765
aS'Dear Ryan, can you make a hit television show?\xef\xbb\xbf'
p766
aS'end credits: ryan higa:ryan higa, plant 1: marley, plant 2: teddy, \npainting:luci and bed:kyle\xef\xbb\xbf'
p767
aS'Dear Ryan, can you go door to door and sing christmas carols?\xef\xbb\xbf'
p768
aS'Ryan looks so cute with glasses :D\xef\xbb\xbf'
p769
aS'Were u actually going to get a comercial? WILL U EVER BE ON TV????\xef\xbb\xbf'
p770
aS'wtf is continuity ?????\xef\xbb\xbf'
p771
aS'Psy !!!!!! :)\xef\xbb\xbf'
p772
aS'"how i almost but didint get a comericcial because of TEEHEE\xef\xbb\xbf'
p773
aS'Dear Ryan, can you do a major parkour video?\xef\xbb\xbf'
p774
aS'What is your favorite football player?\xef\xbb\xbf'
p775
aS'\nHAHAH\xef\xbb\xbf'
p776
aS'PANCAKES\xef\xbb\xbf'
p777
aS'I agree with the person on the bottom\xef\xbb\xbf'
p778
aS'Hahahah ;) this is hilarious (2 minutes later) whaaa?\xef\xbb\xbf'
p779
aS' doe omegle vide plz\xef\xbb\xbf'
p780
aS'lol\xef\xbb\xbf'
p781
aS'where do you think of videos like this\xef\xbb\xbf'
p782
aS'My head hurts.... \xef\xbb\xbf'
p783
aS'LOUD NOISES\xef\xbb\xbf'
p784
aS'I watch it for no reason\xef\xbb\xbf'
p785
aS'Dear Ryan, can you catch them all?\xef\xbb\xbf'
p786
aS'Let me ask this...Was the Ryan commercial released?\xef\xbb\xbf'
p787
aS'See now I have to look up what continuity means.\xef\xbb\xbf'
p788
aS'Dear ryan,\nCan you win the hunger games?\xef\xbb\xbf'
p789
aS'i love 49ers\xef\xbb\xbf'
p790
aS'dear ryan can u do DBZ \xef\xbb\xbf'
p791
aS'Dear ryan, can you make a cartoon\xef\xbb\xbf'
p792
aS'Dear Ryan \nCan you win the hunger game\n\nTeehee\xef\xbb\xbf'
p793
aS"OMG! Is Ryan wearing Anthony Padilla's jacket?!\xef\xbb\xbf"
p794
aS'Dear Ryan, could you be in the new Marvel TV series Agents of Shield?\xef\xbb\xbf'
p795
aS'LOUD NOISES!!!!!!!\xef\xbb\xbf'
p796
aS'Lol\xef\xbb\xbf'
p797
aS'Why do I remember watching that on the Super Bowl once.....\xef\xbb\xbf'
p798
aS'Dear Ryan, can you be the Doctor? (Doctor Who?)\xef\xbb\xbf'
p799
aS'\xe2\x96\x91\xe2\x96\x91\xe2\x96\x91\xe2\x96\x91\xe2\x96\x91\xe2\x96\x91\xe2\x96\x88\xe2\x96\x88\xe2\x96\x88\xe2\x96\x88\xe2\x96\x88\xe2\x96\x88\xe2\x96\x88 ]\xe2\x96\x84\xe2\x96\x84\xe2\x96\x84\xe2\x96\x84\xe2\x96\x84\xe2\x96\x84\xe2\x96\x84\xe2\x96\x84       \n\xe2\x96\x82\xe2\x96\x84\xe2\x96\x85\xe2\x96\x88\xe2\x96\x88\xe2\x96\x88\xe2\x96\x88\xe2\x96\x88\xe2\x96\x88\xe2\x96\x88\xe2\x96\x88\xe2\x96\x88\xe2\x96\x85\xe2\x96\x84\xe2\x96\x83\xe2\x96\x82            \xe2\x98\xbb/   Roll Out!\nIl\xe2\x96\x88\xe2\x96\x88\xe2\x96\x88\xe2\x96\x88\xe2\x96\x88\xe2\x96\x88\xe2\x96\x88\xe2\x96\x88\xe2\x96\x88\xe2\x96\x88\xe2\x96\x88\xe2\x96\x88\xe2\x96\x88\xe2\x96\x88\xe2\x96\x88\xe2\x96\x88\xe2\x96\x88\xe2\x96\x88\xe2\x96\x88].       /\xe2\x96\x8c\n  \xe2\x97\xa5\xe2\x8a\x99\xe2\x96\xb2\xe2\x8a\x99\xe2\x96\xb2\xe2\x8a\x99\xe2\x96\xb2\xe2\x8a\x99\xe2\x96\xb2\xe2\x8a\x99\xe2\x96\xb2\xe2\x8a\x99\xe2\x96\xb2\xe2\x8a\x99\xe2\x97\xa4..    \xef\xbb\xbf'
p800
aS'Dear ryan:can u get married?<3\xef\xbb\xbf'
p801
aS'dear ryan can you lose/win the hunger games?\xef\xbb\xbf'
p802
aS'I know your pain....\n\xef\xbb\xbf'
p803
aS'Dear Ryan, can you make an inception video\xef\xbb\xbf'
p804
aS"So, it's all Psy's fault?...or society for only allowing one awesome Asian \nper Superbowl...lol&smh\xef\xbb\xbf"
p805
aS'I had to re-watch your wonderful pistachio commercial again. Hilarious lol \nXD\xef\xbb\xbf'
p806
aS'Dear Ryan can you make a sequel for Agents of Secret Stuff? :3\xef\xbb\xbf'
p807
aS'Ryan Higa is so AWESOME\xef\xbb\xbf'
p808
aS'Not 49ers seahawks!!!!\xef\xbb\xbf'
p809
aS'Dear Ryan can you be hulk\xef\xbb\xbf'
p810
aS'That was very stupid and wasted my time.\xef\xbb\xbf'
p811
aS'u never liked football too?\xef\xbb\xbf'
p812
aS'I could not stop laughing when i saw the pistachio commercial.\xef\xbb\xbf'
p813
aS'The hunger games\n\xef\xbb\xbf'
p814
aS"I'm South Korean. Psy's South Korean. I'm not racist against my own kind. \xef\xbb\xbf"
p815
aS'Dear ryan can you be goku\xef\xbb\xbf'
p816
aS'inception \xef\xbb\xbf'
p817
aS'Ryan, win the hunger games\xef\xbb\xbf'
p818
aS'i am from sf go niners\xef\xbb\xbf'
p819
aS"so you watch how i met your mother? i'd prefer the big bang theory any day\xef\xbb\xbf"
p820
aS'SEAHAWKS!!!!!!\xef\xbb\xbf'
p821
aS'Dear Ryan can you come in like a wrecking ball\xef\xbb\xbf'
p822
aS'my dad makes super bowl comercials\xef\xbb\xbf'
p823
aS'The hunger games Ryan\xef\xbb\xbf'
p824
aS'Dear Ryan \nAre you the very best like no one ever was?\xef\xbb\xbf'
p825
aS'Seahawks!!!\xef\xbb\xbf'
p826
aS'Dear Ryan,\nHow long could you fart?\xef\xbb\xbf'
p827
aS'lolz\xef\xbb\xbf'
p828
aS"Dude you should've won that commercial for pistachios \xef\xbb\xbf"
p829
aS'Dear ryan,\nCan you be lady gaga and sing bad romance\n\xef\xbb\xbf'
p830
aS'normal people who watch super bowl: YEAH FOTBALL!!!\n\nme:YEAH PUPPY BOWL AND COMMERCIALS!!!\xef\xbb\xbf'
p831
aS'EAGLES\xef\xbb\xbf'
p832
aS'ryanhigaception\xef\xbb\xbf'
p833
aS'i actually wanted some pistachios after watching this.\xef\xbb\xbf'
p834
aS'Dear Ryan, Can you win the hunger games\xef\xbb\xbf'
p835
aS'awesome haha\xef\xbb\xbf'
p836
aS'NIGGA HIGGA!!!!!\xef\xbb\xbf'
p837
aS'1:54 Commercial Time!\xef\xbb\xbf'
p838
aS'i found my new youtube addiction! good stuff\xef\xbb\xbf'
p839
aS"I'm an Asian \xef\xbb\xbf"
p840
aS'Mindfuck\xef\xbb\xbf'
p841
aS'49ers suck\xef\xbb\xbf'
p842
aS'LOUD NOISES!\xef\xbb\xbf'
p843
aS'Dear Ryan, can you be a pokemon?\xef\xbb\xbf'
p844
aS'Never heard of 49ers or seahawks. Only cowboys, giants, and longhorns\xef\xbb\xbf'
p845
aS'What the f does continuity mean?\n\xef\xbb\xbf'
p846
aS'RYAN! I KNOW SOMEONE WHO LOOKS EXACTLY LIKE YOU!!! AND HES FILIPINO! \xef\xbb\xbf'
p847
aS'Dear Ryan can you make a Mario Movie\xef\xbb\xbf'
p848
aS'This was posted on my b-day!!!\xef\xbb\xbf'
p849
aS'Love the how i met your mother reference :D\xef\xbb\xbf'
p850
aS'dear ryan, can you do the lazy song?\n\xef\xbb\xbf'
p851
aS'Dear Ryan can you be a Pokemon\n\xef\xbb\xbf'
p852
aS'Wut?\xef\xbb\xbf'
p853
aS'WOOO! 49ers and Seahawks!\xef\xbb\xbf'
p854
aS'Dear Ryan can u be a Pokemon\n\xef\xbb\xbf'
p855
aS'dear ryan can you be ichigo from bleach\xef\xbb\xbf'
p856
aS'HOMERUN!!!!\xef\xbb\xbf'
p857
aS'Fuck SEACOCKS,Patriots FTW.\xef\xbb\xbf'
p858
aS'Imagine what WHITE GENOCIDE would look like.\n You would have to flood EVERY and ONLY white countries with millions of \nnon-whites.\n Then you would have to demoralize ALL whites by screaming the R-Word! at \nthem if they objected\n Then you would have to pass laws to FORCE integrate all those non-whites \ninto every facet of White society\n Then you would have to\xe2\x80\xa6Oh wait. This is already happening!\n They say it\xe2\x80\x99s \xe2\x80\x9canti-racist,\xe2\x80\x9d but it\xe2\x80\x99s simply anti-White\n Anti-racist is a codeword for anti-White.\xef\xbb\xbf'
p859
aS'Seahawks rock and so do the Broncos\xef\xbb\xbf'
p860
aS'Psy vs Ryan? naahh probably go with Ryan\xef\xbb\xbf'
p861
aS'dear ryan can you kill yourself\xef\xbb\xbf'
p862
aS'LETS GO 49ERS\xef\xbb\xbf'
p863
aS'dear ryan can you do wrecking ball \xef\xbb\xbf'
p864
aS"I'm also an asian\xef\xbb\xbf"
p865
aS'LOUD NOISES!!\nAnchorman? LOL JK\xef\xbb\xbf'
p866
aS'did they actually give u that opportunity?\xef\xbb\xbf'
p867
aS"Ya let's go 49ERS\n\xef\xbb\xbf"
p868
aS'49ERS ROCK\xef\xbb\xbf'
p869
aS'continuity\xef\xbb\xbf'
p870
aS'Dear Ryan , Can you be you self?\xef\xbb\xbf'
p871
aS'Didnt know Josh Peck was here.... 0:56\xef\xbb\xbf'
p872
aS'check out my new track called perception you wont be dissapointed. \xef\xbb\xbf'
p873
aS'Please Dear Rayan do The Lazy Song!!!!!!\xef\xbb\xbf'
p874
aS'49ERS!!!!!!!!!!!!!!!!!!!!!!!!!!!!!!!! :D\xef\xbb\xbf'
p875
aS'If u really did get the audition they shud put that advert out its funny\xef\xbb\xbf'
p876
aS"I don't understand football either but I love super bowl commercials.\xef\xbb\xbf"
p877
aS"sometimes i get confused when ryan explains things. i have to ask my cat \nwhen i do. and he doesn't like it when i ask him. he says i bother him too \nmuch...\xef\xbb\xbf"
p878
aS'wtf\xef\xbb\xbf'
p879
aS'42, GET DOWN CONTINUITY IS HERE!\xef\xbb\xbf'
p880
aS'Dear ryan , can you do "The best pick up line" or "lines" ever :D\xef\xbb\xbf'
p881
aS'Yay 49ers\xef\xbb\xbf'
p882
aS'Inception \xef\xbb\xbf'
p883
aS'*mind explodes into skittles*\xef\xbb\xbf'
p884
aS'More like 69ER\xef\xbb\xbf'
p885
aS"They should make a commercial like that I mean his acting isn't any worse \nthan the people on the real ones\xef\xbb\xbf"
p886
aS'INCEPTION!!!!\xef\xbb\xbf'
p887
aS'LOUD NOISES\xef\xbb\xbf'
p888
aS'FOOTBALL IS EUROPEAN FOOTBALL.. that eggball shit should be called soccer\xef\xbb\xbf'
p889
aS"like this if you're watching this on Thanksgiving\xef\xbb\xbf"
p890
aS'Lol did u actually got a call\xef\xbb\xbf'
p891
aS"Isn't he vanoss????\xef\xbb\xbf"
p892
aS'0:43 I actually did that before, my dad yelled at me and my friends shook \ntheir head. Lol yeah not into it that much. Yet.\xef\xbb\xbf'
p893
aS'The plural of platypus is platypodes...\xef\xbb\xbf'
p894
aS'In real he is doing an ads for the pistach...\xef\xbb\xbf'
p895
aS'Continuity.\xef\xbb\xbf'
p896
aS'His videos are so confusing but I love them xD\xef\xbb\xbf'
p897
aS'Wut\xef\xbb\xbf'
p898
aS'An episode inside an episode, inside another episode? Seems legit. :/\xef\xbb\xbf'
p899
aS'When you were saying who people liked the football comercial and said the \ncat liked it, my cat meowed.\n(Weird) :)\xef\xbb\xbf'
p900
aS'Lmao LOUD NOISES\xef\xbb\xbf'
p901
aS'Continuity\n\xef\xbb\xbf'
p902
aS'YA GO 49ERS!!!\xef\xbb\xbf'
p903
aS'49ers!\xef\xbb\xbf'
p904
aS'You Live In SF?\xef\xbb\xbf'
p905
aS'OOOHHHH YEAAAH LOUD NOIZES!!! #OHHHYAHHHHHHBABYYY  \xef\xbb\xbf'
p906
aS'LOUD NOUISES IF THATS EVEN HOW YOU SPELL IT\xef\xbb\xbf'
p907
aS'SB was like... SpongeBob....\xef\xbb\xbf'
p908
aS'hhahahahah everyone who watches this is gonna look up what continuity \nmeans... XD\xef\xbb\xbf'
p909
aS'How is there glass between their balls\xef\xbb\xbf'
p910
aS'Dear Ryan, can you became mustache man?      \xef\xbb\xbf'
p911
aS"HOME RUN! Hole in one? Lets go 49'ers!!\xef\xbb\xbf"
p912
aS'Higa not high*\xef\xbb\xbf'
p913
aS"You are so weird!!! I likey don't stop make it pop dj turn more videos \ntonight\xef\xbb\xbf"
p914
aS'Loud noises lol. Brick\xef\xbb\xbf'
p915
aS"Ha that's my name holden\xef\xbb\xbf"
p916
aS'hmmmmmmmmmmmmmmmmmmmmmm its almost a year later so all those haters out \nthere SUBSCRIBE!!!!!!\xef\xbb\xbf'
p917
aS'Home Run!!! Lmao\xef\xbb\xbf'
p918
aS'Awesome video!\xef\xbb\xbf'
p919
aS'I like the painting in the background.....\xef\xbb\xbf'
p920
aS'PSY\xef\xbb\xbf'
p921
aS"Hey what's up youtube come check out our channel. Were currently making \nMINT clips for Call of Duty: Ghosts. Come check us out you wont be \ndisappointed. If you have experience with Photoshop or Video editing \nsoftware leave a comment and I will get back to you instantly!\xef\xbb\xbf"
p922
aS'Do you want to earn free gift cards? It is really easy to do, just download \nJunowallet for androids or Bamboowallet for iphones. When it gives you the \nchance to put in a code, put in frogsrus to earn 25 cents. Then just \ndownload apps and open them to earn money (afterwards you can just delete \nthem) you can also watch videos. If you are wondering how it works, all the \nyou money you get is money from adds, so it is perfectly legal. If you have \nany questions just ask.\xef\xbb\xbf'
p923
aS'Loud noises\n\xef\xbb\xbf'
p924
aS'Starry night by Vincent van gough\xef\xbb\xbf'
p925
aS'hey guys i am from south africa and i just started my chanel. can u guys \nhelp me out by checking it out, and i promise you wil laugh!! hope to c you\xef\xbb\xbf'
p926
aS'I love the ending credits song for how I never met your mother and the \nother .... Uh.... Thing I am too lazy to type the whole title so yeah \xef\xbb\xbf'
p927
aNaS'"LOUD NOISES!!!" Died at that part!\xef\xbb\xbf'
p928
aS'dear ryan can you do harry potter \xef\xbb\xbf'
p929
aS'I just relized hes talking to his self lol\xef\xbb\xbf'
p930
aS'Ur copying how I met your mother\xef\xbb\xbf'
p931
aS'Homerun!.....Hole in one.....Headshot.....Lol\xef\xbb\xbf'
p932
aS'This was so confusing.\xef\xbb\xbf'
p933
aS'holy fuck this guy still exists?\xef\xbb\xbf'
p934
aS'I was the 137,001 like\xef\xbb\xbf'
p935
aS'I know someone who was in a Super Bowl comercial\xef\xbb\xbf'
p936
aS'0:31-35 me to\xef\xbb\xbf'
p937
aS'Ryan Higa, you talk too fast, and whoever says you do, dont stop! YEAHHH to \nfast talkers!!! :D Keep the videos coming homie!\xef\xbb\xbf'
p938
aS'I knew it was continuity \xef\xbb\xbf'
p939
aS'That would of been the best commercial ever!\xef\xbb\xbf'
p940
aS'im the the same way with football my freinds always talks about it so i \njust nod along\xef\xbb\xbf'
p941
aS'\xc3\x92[]\xc3\x93 "LOUDD NOISES!" Best thing ever.\xef\xbb\xbf'
p942
aS'\xe2\x96\x91\xe2\x96\x91\xe2\x96\x91\xe2\x96\x91\xe2\x96\x91\xe2\x96\x91\xe2\x96\x88\xe2\x96\x88\xe2\x96\x88\xe2\x96\x88\xe2\x96\x88\xe2\x96\x88\xe2\x96\x88 ]\xe2\x96\x84\xe2\x96\x84\xe2\x96\x84\xe2\x96\x84\xe2\x96\x84\xe2\x96\x84\xe2\x96\x84\xe2\x96\x84          Bob is building an army.\n\xe2\x96\x82\xe2\x96\x84\xe2\x96\x85\xe2\x96\x88\xe2\x96\x88\xe2\x96\x88\xe2\x96\x88\xe2\x96\x88\xe2\x96\x88\xe2\x96\x88\xe2\x96\x88\xe2\x96\x88\xe2\x96\x85\xe2\x96\x84\xe2\x96\x83\xe2\x96\x82           \xe2\x98\xbb/   This tank & Bob are against Google+\nIl\xe2\x96\x88\xe2\x96\x88\xe2\x96\x88\xe2\x96\x88\xe2\x96\x88\xe2\x96\x88\xe2\x96\x88\xe2\x96\x88\xe2\x96\x88\xe2\x96\x88\xe2\x96\x88\xe2\x96\x88\xe2\x96\x88\xe2\x96\x88\xe2\x96\x88\xe2\x96\x88\xe2\x96\x88\xe2\x96\x88\xe2\x96\x88].      /\xe2\x96\x8c    Copy and Paste this all over \n  \xe2\x97\xa5\xe2\x8a\x99\xe2\x96\xb2\xe2\x8a\x99\xe2\x96\xb2\xe2\x8a\x99\xe2\x96\xb2\xe2\x8a\x99\xe2\x96\xb2\xe2\x8a\x99\xe2\x96\xb2\xe2\x8a\x99\xe2\x96\xb2\xe2\x8a\x99\xe2\x97\xa4..      / \\     Youtube if you are with us\xef\xbb\xbf'
p943
aS'HOME RUN\xef\xbb\xbf'
p944
aS'\xe2\x98\xbb/ This is Bob . Copy and paste him\n/\xe2\x96\x8c all over Youtube\n/ \\ so he can take over and take down Google+\xef\xbb\xbf'
p945
aS'how about afl\xef\xbb\xbf'
p946
aS'lol I love how you made fun of "How I Met Your Mother"\xef\xbb\xbf'
p947
aS'LOL HOW I NEVER MET YOUR MOTHER!\xef\xbb\xbf'
p948
aS'dear ryan can you do the harlemshake\xef\xbb\xbf'
p949
aS'I am that kid too!\xef\xbb\xbf'
p950
aS'HEADSHOT!!!!!!! LooooooooL\xef\xbb\xbf'
p951
aS'u look soooo sweet at 2:43 <3 haha ^-^\xef\xbb\xbf'
p952
aS'Cactapusses\xef\xbb\xbf'
p953
aS'If u r reading this your parent will die in 5 year to undo curse post this \non 5 other vids good luck\xef\xbb\xbf'
p954
aS'That was Awesome\xef\xbb\xbf'
p955
aS'LOUD NOISES!\xef\xbb\xbf'
p956
aS'I really like 0:23\xef\xbb\xbf'
p957
aS'\xe2\x98\xbb/ This is Bob . Copy and paste him\n/\xe2\x96\x8c all over youtube\n/ \\ so he can take over and take down Google+\xef\xbb\xbf'
p958
aS'Go 49ers\xef\xbb\xbf'
p959
aS"Let's go 49'ers\nYEAH!!\nFOOTBALLLLL!!\nLOUD NOISES!!\xef\xbb\xbf"
p960
aS'TOO MANY CEPTIONS!!!\n*Inception BWWWWWWWWWWWWAAAAAAAAAAWWB played 50 times*\xef\xbb\xbf'
p961
aS'Loud noises! Lol ryan\xef\xbb\xbf'
p962
aS'vanoss sent e \xef\xbb\xbf'
p963
aS"What is Inception's Cousin? Continuity! :D\xef\xbb\xbf"
p964
aS'what abouut australian football ??? GO COLLINGWOOD\xef\xbb\xbf'
p965
aS'LOUD NOISES!\xef\xbb\xbf'
p966
aS"I LOVE NIGAHIGA'S VIDEO'S,I WOUlD LOVE IF PEOPLE COULD CHECK OUT MINE\xef\xbb\xbf"
p967
aS'Continuity lol\xef\xbb\xbf'
p968
aS'I thought this is about a super bowl\n\xef\xbb\xbf'
p969
aS"Hey everyone!!! This channel is to make Google put the comments section \nback to its original form! Go here:\nhttps://www.change.org/petitions/google-change-the-youtube-comment-section-back-to-its-original-form \nto sign a petition to help everyone. Don't worry, You don't have to put \nyour personal information. Just make the information up and then sign it. \nShare this with your friends so they can contribute to this! I don't care \nif this account gets closed! I want to spread the news to help YouTube get \nback to its former Glory! Like this comment so everyone can see it and more \nsignatures can be made!\xef\xbb\xbf"
p970
aS'Emmmm mindfuck ? No ! Continuity :D\xef\xbb\xbf'
p971
aS"I don't like the 49ers\xef\xbb\xbf"
p972
aS'LOUD NOISES!!\xef\xbb\xbf'
p973
aS'26,078\xef\xbb\xbf'
p974
aS'I still am that kid that doesnt watch football\xef\xbb\xbf'
p975
aS'im a 14 year old dancer and i would really appreciate it if u guys could \nsubscribe to my channel, tips would really be great, i would like to get \nbetter!\xef\xbb\xbf'
p976
aS'Best episode of how I met your mother... Haha\xef\xbb\xbf'
p977
aS'I wanna buy pistachios :D\xef\xbb\xbf'
p978
aNaS'Dear Ryan,\nCan you win the Hunger games?\xef\xbb\xbf'
p979
aS'\xe2\x96\x91\xe2\x96\x91\xe2\x96\x91\xe2\x96\x91\xe2\x96\x91\xe2\x96\x88\xe2\x96\x88\xe2\x96\x88\xe2\x96\x88\xe2\x96\x88\xe2\x96\x88\xe2\x96\x88 ]\xe2\x96\x84\xe2\x96\x84\xe2\x96\x84\xe2\x96\x84\xe2\x96\x84\xe2\x96\x84\xe2\x96\x84\xe2\x96\x84          Bob is building an army.\n\xe2\x96\x82\xe2\x96\x84\xe2\x96\x85\xe2\x96\x88\xe2\x96\x88\xe2\x96\x88\xe2\x96\x88\xe2\x96\x88\xe2\x96\x88\xe2\x96\x88\xe2\x96\x88\xe2\x96\x88\xe2\x96\x85\xe2\x96\x84\xe2\x96\x83\xe2\x96\x82           \xe2\x98\xbb/   This tank & Bob are against Google+\nIl\xe2\x96\x88\xe2\x96\x88\xe2\x96\x88\xe2\x96\x88\xe2\x96\x88\xe2\x96\x88\xe2\x96\x88\xe2\x96\x88\xe2\x96\x88\xe2\x96\x88\xe2\x96\x88\xe2\x96\x88\xe2\x96\x88\xe2\x96\x88\xe2\x96\x88\xe2\x96\x88\xe2\x96\x88\xe2\x96\x88\xe2\x96\x88].      /\xe2\x96\x8c    Copy and Paste this all over\n  \xe2\x97\xa5\xe2\x8a\x99\xe2\x96\xb2\xe2\x8a\x99\xe2\x96\xb2\xe2\x8a\x99\xe2\x96\xb2\xe2\x8a\x99\xe2\x96\xb2\xe2\x8a\x99\xe2\x96\xb2\xe2\x8a\x99\xe2\x96\xb2\xe2\x8a\x99\xe2\x97\xa4..      / \\     Youtube if you are with us\xef\xbb\xbf'
p980
aS' \n\xe2\x96\x91\xe2\x96\x91\xe2\x96\x91\xe2\x96\x91\xe2\x96\x91\xe2\x96\x88\xe2\x96\x88\xe2\x96\x88\xe2\x96\x88\xe2\x96\x88\xe2\x96\x88\xe2\x96\x88 ]\xe2\x96\x84\xe2\x96\x84\xe2\x96\x84\xe2\x96\x84\xe2\x96\x84\xe2\x96\x84\xe2\x96\x84\xe2\x96\x84                   Dear Bob\n\xe2\x96\x82\xe2\x96\x84\xe2\x96\x85\xe2\x96\x88\xe2\x96\x88\xe2\x96\x88\xe2\x96\x88\xe2\x96\x88\xe2\x96\x88\xe2\x96\x88\xe2\x96\x88\xe2\x96\x88\xe2\x96\x85\xe2\x96\x84\xe2\x96\x83\xe2\x96\x82       \xe2\x98\xbb/\xef\xb8\xbb\xe2\x95\xa6\xe2\x95\xa4\xe2\x94\x80   \nIl\xe2\x96\x88\xe2\x96\x88\xe2\x96\x88\xe2\x96\x88\xe2\x96\x88\xe2\x96\x88\xe2\x96\x88\xe2\x96\x88\xe2\x96\x88\xe2\x96\x88\xe2\x96\x88\xe2\x96\x88\xe2\x96\x88\xe2\x96\x88\xe2\x96\x88\xe2\x96\x88\xe2\x96\x88\xe2\x96\x88\xe2\x96\x88].  /\xe2\x96\x8c             Why are u destroying nigahigas \n  \xe2\x97\xa5\xe2\x8a\x99\xe2\x96\xb2\xe2\x8a\x99\xe2\x96\xb2\xe2\x8a\x99\xe2\x96\xb2\xe2\x8a\x99\xe2\x96\xb2\xe2\x8a\x99\xe2\x96\xb2\xe2\x8a\x99\xe2\x96\xb2\xe2\x8a\x99\xe2\x97\xa4..  / \\             channel?\xef\xbb\xbf'
p981
aS' \n\xe2\x98\xbb/ This is Bob. Copy and paste him\n/\xe2\x96\x8c all over youtube\n/ \\ so he can take over and return the old comment section\n(\xd2\x82._.)                        People of YouTube we must get the old comment \nsystem\n                      Back, Copy and paste this\xef\xbb\xbf'
p982
aS'This is the best!!\xef\xbb\xbf'
p983
aS'Dear Ryan, Can u fuk yourself\xef\xbb\xbf'
p984
aS'BOO 49ers GO SEAHAWKS\xef\xbb\xbf'
p985
aS'I have rhe same stool in the beginning.\xef\xbb\xbf'
p986
aS'Wait, why did I just say that twice?\xef\xbb\xbf'
p987
aS'i saw this *HUGE* spider in my basement\nso i filmed it haha and made it into a *HORROR/COMEDY* video\nclick below to watch it!  *bold* *comments*\nhttp://www.youtube.com/user/plokmok\xef\xbb\xbf'
p988
aS'High and Vanoss, they look alike.\xef\xbb\xbf'
p989
aNaS"It's so funny.\xef\xbb\xbf"
p990
aS"I don't even like football XD\xef\xbb\xbf"
p991
aNaS'This is so pro\xef\xbb\xbf'
p992
aS'Best Super Bowl Commercial!\xef\xbb\xbf'
p993
aS'Lol Ryan higa makes his OWN pistachios commercial for super bowl\xef\xbb\xbf'
p994
aS'49ERS \xf0\x9f\x98\x83\xf0\x9f\x98\x83\xf0\x9f\x98\x83\xf0\x9f\x98\x83\xef\xbb\xbf'
p995
aS'FUCK SEACOCKS\n\xef\xbb\xbf'
p996
aNaNaS'heehehehehehehehehehhhhhhhhaaaaaaaaaa\xef\xbb\xbf'
p997
aS'\xe2\x96\x91\xe2\x96\x91\xe2\x96\x91\xe2\x96\x91\xe2\x96\x91\xe2\x96\x91\xe2\x96\x88\xe2\x96\x88\xe2\x96\x88\xe2\x96\x88\xe2\x96\x88\xe2\x96\x88\xe2\x96\x88 ]\xe2\x96\x84\xe2\x96\x84\xe2\x96\x84\xe2\x96\x84\xe2\x96\x84\xe2\x96\x84\xe2\x96\x84\xe2\x96\x84          Bob is building an army.\n\xe2\x96\x82\xe2\x96\x84\xe2\x96\x85\xe2\x96\x88\xe2\x96\x88\xe2\x96\x88\xe2\x96\x88\xe2\x96\x88\xe2\x96\x88\xe2\x96\x88\xe2\x96\x88\xe2\x96\x88\xe2\x96\x85\xe2\x96\x84\xe2\x96\x83\xe2\x96\x82           \xe2\x98\xbb/   This tank & Bob are against Google+\nIl\xe2\x96\x88\xe2\x96\x88\xe2\x96\x88\xe2\x96\x88\xe2\x96\x88\xe2\x96\x88\xe2\x96\x88\xe2\x96\x88\xe2\x96\x88\xe2\x96\x88\xe2\x96\x88\xe2\x96\x88\xe2\x96\x88\xe2\x96\x88\xe2\x96\x88\xe2\x96\x88\xe2\x96\x88\xe2\x96\x88\xe2\x96\x88].      /\xe2\x96\x8c    Copy and Paste this all over\n  \xe2\x97\xa5\xe2\x8a\x99\xe2\x96\xb2\xe2\x8a\x99\xe2\x96\xb2\xe2\x8a\x99\xe2\x96\xb2\xe2\x8a\x99\xe2\x96\xb2\xe2\x8a\x99\xe2\x96\xb2\xe2\x8a\x99\xe2\x96\xb2\xe2\x8a\x99\xe2\x97\xa4..      / \\     Youtube if you want the old comment\nReply  \xc2\xb7  \xef\xbb\xbf'
p998
aS'That picture in the back round is louis van gouge i think'
p999
aS'49ERS!!!!!!'
p1000
aS'hi my name is Karen im 9 years old i love you can ytf please!! come to \nSacremento California thanks!!! ;-)'
p1001
aS'Football'
p1002
aS'SHUT THE FUCK UP WITH THAT'
p1003
aS'Its not Football ryan, its a hands egg'
p1004
aS'Guess what I play football but its really flag football'
p1005
aS'FOURTY NINERS'
p1006
aS'OMG!!! That was great!!!'
p1007
aS'i did wait MISSLE COMMAND?'
p1008
aS'Loud noises :)'
p1009
aS'Genius'
p1010
aS"Poo that's it"
p1011
aS'This one want as good as the others but i still like'
p1012
aS'You were supras'
p1013
aS'Dear Ryan can you and your friends be the planets from the jimmy dean \ncommercials?'
p1014
aS"Haha i liked the whole video until you said ''Go 9ers'' jk but not really. \nGo Panthers."
p1015
aS'Fffhvvnnv'
p1016
aS'guys click here for a epic comment battle'
p1017
aS':D '
p1018
aS"I watched this like 5 times and I still don't get it."
p1019
aS'how do u get flagged for "i am sick of psy" ?'
p1020
aS"Anthony's jacket :DDDD"
p1021
aS'hes wearing anthonys jacket'
p1022
aS'Find'
p1023
aS'wow '
p1024
aS'I love you Ryan! And the Starry Night at the back! :)'
p1025
aS'How i met your mother??????????'
p1026
aS'there have been a fight!'
p1027
aS"It is funny when people have typos in their comment pointing out other \npeople's typos. For exemple, I believe your sentence lacks a period. Don't \nworry, I will add a typo in this comment for someone else to correct."
p1028
aS'ken lei if u say this is retarded why are watching it'
p1029
aS'What does continuity mean?'
p1030
aS'Before anyone writes something to this guy look at his name '
p1031
aS'continuity '
p1032
aS'Home in one?'
p1033
aS'go 49ers'
p1034
aS'Ba. Bapa bapa baaaaa. Bapa ba baaaa, bapa bapa bapppaaaa'
p1035
aS'Dear Ryan, Are you an mma fighter? '
p1036
aS'Yeah man this website here is just giving out free virus today only. You \nhave to fill out your addres but it is all real, I claimed mine a few \nminutes ago. Better hurry up! GETALIFEYOUSTUPIDCUNT.CO m '
p1037
aS'my brain... '
p1038
aS'Nash.... please retire'
p1039
aS'You can get it back with continuity.'
p1040
aS'It was on my birthday'
p1041
aS"No, I'm not even going to retaliate in an extreme way."
p1042
aS'I hate the super bowl and the overrated commercials.'
p1043
aS'This is so confusing. But hilarious!'
p1044
aS'do you mean *example. Dude your so stupid! ;)'
p1045
aS"Because it's fun. You're stupid, oh shit."
p1046
aS'there is already an ad like that'
p1047
aS'Dear ryan,can you do a cooking show?'
p1048
aS"I love the 49er's"
p1049
aS'psy makes me sick like hell '
p1050
aS'That was so clever :D'
p1051
aS'Ahahaa!! xD'
p1052
aS'I love this video'
p1053
aS'Mustache!!!!'
p1054
aS"It's the famous red jacket! Lol Plz check out my YouTube channel! It would \nmean so much to me! Thanks so much!"
p1055
aS'Dear Ryan, Can you be jeremy lin?'
p1056
aS'yayayay 49ers!!!!'
p1057
aS':40 MUSTACHE!!!!!!'
p1058
aS'Headshot'
p1059
aS'y 49ers'
p1060
aS'I like 49ers'
p1061
aS"@Nawar Ahmed: Yes, he is Hawaiian, but he's also half-Japanese.."
p1062
aS"Dude stfu it's just a fucking video "
p1063
aS'The best is ravens'
p1064
aS'Hey check out my channel if you can ^.^ thanks !'
p1065
aS'How about starsky'
p1066
aS'1.click anywhere other then the video. 2. type 1337 3. Take a look at the \ncomments and enjoy'
p1067
aS'My brother is friends with you on facebook!!!! :-)'
p1068
aS'Ryan: As most of you know, the super bowl is right around the corner... \nSuper Bowl: How did he know?'
p1069
aS'My mind just exploded... '
p1070
aS'oh my god i was actually in hysterics like what the hell is his life '
p1071
aS'Continuity'
p1072
aS"I agree. I don't watch football but all my friends do "
p1073
aS'But this is very funny'
p1074
aS'Ouh..*Munch*... *Munch*...Nom..Nom..Nom..'
p1075
aS'NO'
p1076
aS'How did he know'
p1077
aS'dear ryan can you fight a bboy ninja '
p1078
aS'That TEEHEE gets me everytime! XD'
p1079
aS'0:31 how i acted around friends when they start chanting '
p1080
aS'LOUD NOISES (x'
p1081
aS"YAY 49'ers"
p1082
aS'yo do you even live near san fransisco '
p1083
aS'Yes your a 49er fan me too!!!'
p1084
aS'wwww what?'
p1085
aS'con\xc2\xb7ti\xc2\xb7nu\xc2\xb7i\xc2\xb7ty (knt-n-t, -ny-) n. pl. con\xc2\xb7ti\xc2\xb7nu\xc2\xb7i\xc2\xb7ties 1. The state or \nquality of being continuous. 2. An uninterrupted succession or flow; a \ncoherent whole. 3. a. A detailed script or scenario consulted to avoid \ndiscrepancies from shot to shot in a film, allowing the various scenes to \nbe shot out of order. b. Spoken matter serving to link parts of a radio or \ntelevision program so that no break occurs.'
p1086
aS'what is the name of the music used? '
p1087
aS'Brain fucked at the end'
p1088
aS'Rian ur commersial os the best'
p1089
aS'What the heck is continuity?!'
p1090
aS'That was lengen-wait-for-it-DARY! LEGENDARY!'
p1091
aS"I don't think he even knows..."
p1092
aS'WOOO RAVENS HAHAHAHAHAHAHAHAHAHAHAHAHAHAHAHAHAHAHAHAHAHAHAHAHAH'
p1093
aS'Dear ryan can you be Indiana Jones?'
p1094
aS"I'm* misspelled*"
p1095
aS'Teehee'
p1096
aS'LOUD NOISES!! LOLOL <3'
p1097
aS'Where in vegas do u live in?'
p1098
aS'Mind fucked. xD'
p1099
aS'Im confused'
p1100
aS'49e'
p1101
aS'greg has a wonderful-moustachio'
p1102
aS'u spelled example wrong ur welcome theres at least one typo to continue.'
p1103
aS'YEAH, YEAH, FOOTBALL, LOUD NOISES!'
p1104
aS'My favorite part 3:38'
p1105
aS'what about peter chao'
p1106
aS'Omg that had me tripping'
p1107
aS'i know how he feels '
p1108
aS'Football is dumb, whats the big deal about a bunch of men running around \nplaying with BALLS? Football seems homosexual, a bunch of men running \naround playing with balls, touching and hitting each other, then afterwards \ngetting naked and showering together, yea football is homosexual.'
p1109
aS'0.0 ...... this makes my brain hurt'
p1110
aS'That was me'
p1111
aS'Hahaha'
p1112
aS'49ers woooooo'
p1113
aS'After seeing Ryan, I kinda got an asian fetish.. '
p1114
aS'am i the only one now wonderinng what continuity is......'
p1115
aS'You always have a way of blowing my mind Ryan.'
p1116
aS'love this :D and same here i love watching football now :)'
p1117
aS"Something big happened to me. That's what she said"
p1118
aS'mate '
p1119
aS'How I never met your mother? WTF!'
p1120
aS'Is this true?'
p1121
aS'LOUD NOISES'
p1122
aS'More like try hardition HAHAHAHAHAHAHAA'
p1123
aS'*exknnfnsdndbni'
p1124
aS'Awesome'
p1125
aS'Home run!!!!! :P'
p1126
aS'Continuity.'
p1127
aS'We r no diffrent'
p1128
aS'Anchorman reference'
p1129
aS'THE MAGICAL YOUTUBE JACKET!'
p1130
aS'Lol'
p1131
aS'LOUD NOISES! xD'
p1132
aS'AHHH NOISES! XD'
p1133
aS'How am i earning 0 dollars a hour from shubbing dick up my fan.. Step 1. \nGet a life Step 2. Knife yourself Step 3 . If your still alive jump off a \ncliff 4. PROFIT'
p1134
aS'LOUD NOISES!!!'
p1135
aS'LOUD NOISES! 0:55'
p1136
aS'TEEHEE!'
p1137
aS'I know that pic'
p1138
aS'I died when he said loud noises'
p1139
aS'Go niners'
p1140
aS'edward gonzales our football is called football cuz theyre runnin every \nplay. nd ur football is called soccer dnt ask me y. cuz i have no idea.'
p1141
aS"Right, fuck this shit. I'm off. You're all bellends. Bye."
p1142
aS'lol '
p1143
aS'dear ryan can you be a proffesional gamer'
p1144
aS"I don't even know..."
p1145
aS'Thank you.'
p1146
aS'YEA!!! NINERS!!!'
p1147
aS"You aren't alone... I'm also sick of him."
p1148
aS'WILL LOSE OR TIE 49ERS TILL I DIEEEE'
p1149
aS'i noticed that '
p1150
aS"HOME RUN! Um.. um.. Hole in one? Headshot? Let's... Go... 49ers? \nYEAHHHHHHHHHHHHHHHHHHHHHHHHHHHHHHHHHHHEYAHEYAHYAHYEH Ryan: LOUD NOISES!!!"
p1151
aS'*Ryan attempts to high five* *awkwardly high fives himself*'
p1152
aS"I know right... And i'm american."
p1153
aS'Your commercial would have been funny CD way better than phy'
p1154
aS'LOL EVERYTHINGS CONTINUITY '
p1155
aS'Hahahaha hahahaha'
p1156
aS"'Loud noises' anchor man!"
p1157
aS'continuity?'
p1158
aS'Headshott ??? loool'
p1159
aS'Dear Ryan-Dora the Explorer'
p1160
aS'Me to'
p1161
aS"It's keeping the shots consistent. Like if a person is talking and then in \nthe next shot has on new clothes even though nothing was supposed to \nhappen. If u r into filmmaking, it's pretty funny. Btw awesome video Ryan"
p1162
aS'no one saying, "Inception!" ahhh the internet is cleansing itself...this is \ngood'
p1163
aS'0:55 Best part.'
p1164
aS"...really? you're really... whatever... >.<"
p1165
aS'I thought you meant your sick of pussy.'
p1166
aS'I CANT BREATH!! LMAOOOO I DIED!'
p1167
aS'HOMERUN!...hole in one?'
p1168
aS'Dear Ryan, math teacher?'
p1169
aS'who doesnt know what continuity means?'
p1170
aS'Dangit Psy!!'
p1171
aS'Lol so funny!'
p1172
aS'LOUD NOISESSSSSSSS '
p1173
aS'Huh, continuity, hmmm well, yeup, my head just exploded'
p1174
aS'lol "Loud Noise!"'
p1175
aS'Continuity. Because that makes complete and utter sense.'
p1176
aS'Wait what?!? Confused but funny'
p1177
aS'FOOTBALL'
p1178
aS'I was eating Wonderful Pistachios while watching this...... 0_0'
p1179
aS'Bum bum bah ba tehee'
p1180
aS'I thought plant 2 was the best'
p1181
aS'Continuity!'
p1182
aS'Haha , how i met your mother'
p1183
aS'So funny'
p1184
aS"still think your commercial is better than psy's."
p1185
aS"Lol at how PSY was dancing xD and 'continuity'"
p1186
aS'Hey Can you make a hokey video?For the Chicago Blackhawks winning the cup?'
p1187
aS"No, you're just dumb. Oh, and nobody gives a shit. :P"
p1188
aS'MOUSTACHE!!!!!!!!!!!!!!! '
p1189
aS'Hey Ryan!! :D -- can you do muffin knight? (: please?(:'
p1190
aS'the how i met your song'
p1191
aS'LOUD NOISES!!! '
p1192
aS'TEEHEE'
p1193
aS"is that Anthony's jacket? "
p1194
aS'Shit. Youre hot as fuck'
p1195
aS'Dear Ryan, Can you be a titan slayer and shout to your neighbors that "THE \nTITANS ARE COMMING!!!!!!" and then make your own looking titan... Please \nRyan....'
p1196
aS'Same with me football sucks'
p1197
aS'looks like vanoss gaming'
p1198
aS'Contanuidy'
p1199
aS'...wot'
p1200
aS'Continuity.'
p1201
aS'The ball is 1 foot long. You have the fucking internet, use it idiot.'
p1202
aS'hmm ryan just wondering how do you feel about ppl post... ..advertising \nporn tapes on ur vids? just a thought ya kno...'
p1203
aS"I'm confused....."
p1204
aS'do u live in arizona?'
p1205
aS"I'm so confused"
p1206
aS'Self hi-five at 0:37'
p1207
aS'i have the exact same bowl as him with me LMFAO eating salad from it'
p1208
aS'"LOUD NOISES"'
p1209
aS'4:13 Ryan Higa: Ryan Higa Plant 1: Marley Plant 2: Teddy Painting: Luci \nBed: Kyle'
p1210
aS'Not sure but we roll with it anyway.'
p1211
aS'Pistachios and Super Bowl commercials equals perfect!'
p1212
aS'Panthers'
p1213
aS'how i met your mother reference '
p1214
aS'HOLE IN ONE'
p1215
aS'lol did anyone else search up continuity? :P '
p1216
aS'The "Fake" kind of Football...'
p1217
aS'._. i dont like football either'
p1218
aS'Very nice japaneses'
p1219
aS'continuity'
p1220
aS'How I Met Your Mother xD'
p1221
aS'Dude You Should Of Got It. Not Sy .-.'
p1222
aS'U live in SF?????'
p1223
aS'Do gentlemen please!!!'
p1224
aS'LOUD NOISES!!!!!'
p1225
aS'no one cares '
p1226
aS"I didn't watch sports"
p1227
aS'Home run!'
p1228
aS'GO 49ERS'
p1229
aS'Not this kind of footbal'
p1230
aS'3:25 the guy and girl in mustache are slopsmcgee.if you dot. Believe me \nthen pause it at the right time'
p1231
aS'lol 2:40'
p1232
aS'Not to be a dick or anything, but since you\'re already correcting someones \nspelling, i think i get a pass on this, despite how pretentious and \nunnecessary it is normally: you spelled "Misspelled" incorrectly. The real \nquestion now is, can anyone spell irony???'
p1233
aS'Was it really going to be a commercial'
p1234
aS'Continuity'
p1235
aS'LOUD NOISES'
p1236
aS'i thaught the super bowl was a giant bowl so my first time i braught a spoon'
p1237
aS'Most of ppl in asia think rugby n american football are the same sport.:))'
p1238
aS'i hav those nuts at home'
p1239
aS'2:39 when he looks the other way had me dying hahaha'
p1240
aS'continuity'
p1241
aS'HOME RUN'
p1242
aS'can you say product placement? '
p1243
aS'Arguments about arguments :D'
p1244
aS'Ravens kicked ass'
p1245
aS'Lolz.... ^.^'
p1246
aS'This was real except psy did it.on the Super Bowl'
p1247
aS'continuity'
p1248
aS'SAME, my frend sean kean love foot ball and i just wanted to fit in'
p1249
aS'No, saying "I am mad at you" is grammatically correct.'
p1250
aS'he got the chance but declined because those corporate bastards told him he \nwould have to remove his videos'
p1251
aS'My brain hurts I,dont know what I just watched'
p1252
aS'Now that was a great throw.'
p1253
aS'In usa we watch the same thing football not soccer so yeah'
p1254
aS'Continuity'
p1255
aS'i came here for splash and fun wtf!'
p1256
aS'What? Football and Rugby are separate sports.'
p1257
aS'you are an extremely gorgeous asian :)'
p1258
aS'A lot of people know that already'
p1259
aS'why are you getting mad? this does not involve you and you have no reason \nto say something like that to me'
p1260
aS'Aw love how I met your mother!:D'
p1261
aS'continuity '
p1262
aS'*What *is *wrong *with *you'
p1263
aS"We're not your kids either"
p1264
aS"Is that Anthony's jacket from smosh?"
p1265
aS'dont kill me! (Whats continuity?)'
p1266
aS'LOUD NOISES'
p1267
aS'Headshot? Lol'
p1268
aS'1337'
p1269
aS'90% of people bought those'
p1270
aS'"the maintenance of continuous action and self-consistent detail in the \nvarious scenes of a movie or broadcast."'
p1271
aS'Continuity solves everything!'
p1272
aS"The guy that said I can't wait to update my twitter look so sad"
p1273
aS'Your commercial was better than Psy....'
p1274
aS'HEADSHOT'
p1275
aS"I'm confused"
p1276
aS'Why are you so awesome'
p1277
aS"At that time, there weren't many famous Asians. *I present to you, Ryan, \nthis Grammy!* Enjoy! :) (Also, I love your humor, new fav!)"
p1278
aS'continuity'
p1279
aS'That is disgusting'
p1280
aS"That's what we call a spammer kids!!"
p1281
aS'Google definition con\xc2\xb7ti\xc2\xb7nu\xc2\xb7i\xc2\xb7ty - *The unbroken and consistent existence \nor operation of something over a period of time. *A state of stability and \nthe absence of disruption. Just in case anyone was wondering :{3'
p1282
aS'1337'
p1283
aS'I had saw dis. The day the superbowl'
p1284
aS'How does the original comment get flagged as spam, with no thumbs up.. But \nyours get fifty two and not flagged for spam..?'
p1285
aS"It would make my day if only one person would read this. My name is Wil and \nI'm 14. I make VFX and shortfilms, I've done this for a couple of years now \nand a thing that I've learned is that it's almost ipossible to get any \nattention or feedback on the hours of work I put in. This is what I'm left \nwith. I really hope you will like my videos if you watch them. Thank you \nfor your time /Wil H"
p1286
aS'Continuity XD'
p1287
aS'Continuity'
p1288
aS'wth is contanootie???'
p1289
aS'I as a teen find football barbaric.'
p1290
aS'0:37 haha ryan'
p1291
aS'continuity'
p1292
aS'Plank everywere'
p1293
aS'- Continuity? - Continuity. Yep.'
p1294
aS'I saw wonderful pistachios at the store, screamed, then bought ten packs.'
p1295
aS'How did he know'
p1296
aS'hahahahahahahaha'
p1297
aS'U failed at the first minute :-)'
p1298
aS'LOL'
p1299
aS'The super bowl was on my birthday last year'
p1300
aS"I didn't have to do this, I'm sorry, but it seems to be that nobody cares \nwhat people misspell."
p1301
aS'LOUD NOISES'
p1302
aS'Soccer is The best!!!!!'
p1303
aS'Legend...wait for it ... DARY'
p1304
aS'I laughed my ass off at psy just silenrly dancing there'
p1305
aS'Wow 0,0 did you really need to write an essay? To ysheyt.'
p1306
aS"I'm so blaming continuity xD"
p1307
aS'you mean how i never met your mother'
p1308
aS'The space, time, and so on can be explained by continuity lol'
p1309
aS'I am soo confused'
p1310
aS'Does my Virus come with a free taco?'
p1311
aS'Yeh'
p1312
aS'Are you Vietnamese?'
p1313
aS'*froze :3 continuity'
p1314
aS'LOUD NOISES!'
p1315
aS"Can someone explain to me what the definition is of continuity and how it's \nbeing used here to be funny cause I looked up the definition but I still \ndon't really understand it. "
p1316
aS"I don't understand it or care about it"
p1317
aS'Im so confused!'
p1318
aS'continuity ? continuity. '
p1319
aS'Lol'
p1320
aS'Teddy the dog was already named before the release of this video.'
p1321
aS"1:16 Anthony's jacket"
p1322
aS'fuck you!'
p1323
aS'this is boss'
p1324
aS'Although i am an asian myself and hate to be racist to my own kind but \nryanhiga has small ass eyes after he takes off his glasses kinda like PSY'
p1325
aS'Is he serious about the commercial part'
p1326
aS'Funny'
p1327
aS'you live near SF?????? '
p1328
aS'dear ryan teehee '
p1329
aS'Continuity'
p1330
aS'I just saw that gangnam style commercial just now lol...'
p1331
aS'Dear Ryan, can you do gentleman'
p1332
aS"Ryan 1: Wait how do you have that bag if I'm holding it right here? Ryan 2: \nContinuity? Ryan 1: Continuity"
p1333
aS'Check out my channel'
p1334
aS'That would of been the best commercial'
p1335
aS'steelers and packers!!'
p1336
aS"Ryan you're an inspiration, My favorite youtuber since the beginning, you \nare the main reason I started making sketches."
p1337
aS'Ryan you is the best'
p1338
aS'What is the Swedish Meal Time song doing here? They could have done a \ncommercial for PRE-DINNER MAYONNAISE :3'
p1339
aS'No I hate ppl That do that'
p1340
aS'Dear Ryan can you do a dragon ball z movie'
p1341
aS'yes'
p1342
aS'anybody sick of those rihanna sex tape comments '
p1343
aS'LOUD NOISES!!!'
p1344
aS'You mean Seahawks'
p1345
aS'LOUD NOISES'
p1346
aS'TEEHEE....cONTINUITY'
p1347
aS'Im confused now'
p1348
aS'Man every ducking video I click has some stupid gay shit about Rihanna \nhaving sex...'
p1349
aS'It keeps freezing at 1:43'
p1350
aS'0:56 "LOUD NOICES"'
p1351
aS"I'm always that one person in my entire family who doesn't like sports! I \nfeel like such an outcast, such a freak! I like Musical Theater better!!!"
p1352
aS"I don't care"
p1353
aS'Continuity'
p1354
aS'I live in Baltimore ha!'
p1355
aS'0:38 self hi-5'
p1356
aS'Inception'
p1357
aS'll'
p1358
aS'TEEHEE '
p1359
aS"0:38 lol *fine I'll just clap myself* "
p1360
aS'Loud Noises...... am i the only one that got that'
p1361
aS'DEAR RYAN can you do a short film? '
p1362
aS"Love football, don't know so much about it though, I mean, I've only been \nto a football game 8 years ago..."
p1363
aS'and could you learn how to write'
p1364
aS'Lolol cute! "Loud noises!"'
p1365
aS'How I met your mother Is AWESOME'
p1366
aS"OMG it's like How I Met Your Mother but better! HAHAHHA"
p1367
aS'How I met'
p1368
aS'Im confused. That is all.'
p1369
aS"49'ers!!!! Sorry, couldn't resist."
p1370
aS'Yours was better'
p1371
aS'and the 49ers Failed... YAY'
p1372
aS'LOOUUUUDD NOOIISSEEE'
p1373
aS'Omg I luv 0:30 to 1:00 so funny!!! :) :) :)'
p1374
aS'use bing search'
p1375
aS'psy .snsd. b2st. mplaq .rain. sistar. super juner. exo.4minute.btob. \nafterschool'
p1376
aS'Go Ravens :D :D'
p1377
aS'uhm go 49ers? '
p1378
aS'Dumbass Americans'
p1379
aS'IM so confused!!! LOL '
p1380
aS'Fuck psy I hope you get something better than a commercial one day'
p1381
aS'go steelers'
p1382
aS'0:19'
p1383
aS'What the fuck is brain.'
p1384
aS'WHAT THE FUCK THIS WAS THE MOST CONFUSING NIGAHIGA EPIAODE IVE EVER SE- \nContinuity...'
p1385
aS'Dear Ryan, Skyrim!!!'
p1386
aS'Im so confused'
p1387
aS'you spelt virus wrong'
p1388
aS'Highfiving himself :D'
p1389
aS'Continuity. '
p1390
aS'dtrix'
p1391
aS'continuity'
p1392
aS'homerun!!!!!!!!!...........'
p1393
aS'Dear Ryan are you awesome'
p1394
aS'wtf that is somewhat funny yet stuffed up'
p1395
aS'Not the 49ers! The Seahawks! '
p1396
aS'How I NEVER Met Your Mother'
p1397
aS'Headshot??'
p1398
aS'Dear Ryan would you do a Music Video Parody?'
p1399
aS'How I Never Met Your Mother hahah'
p1400
aS"the ' in i'm doesnt matter, its still the same...ish"
p1401
aS'i was totally the same kid'
p1402
aS'THAT *SELFFIVE* @ 0:38 HAHAHAHHAHAHAHAHA, LOVE IT RYAN! '
p1403
aS'HOMERUN!!!!!'
p1404
aS'You spelled "Virus" wrong.'
p1405
aS'Headshot?'
p1406
aS'continuity'
p1407
aS'Dear Ryan can you poop your pants'
p1408
aS'what is that? '
p1409
aS'lol.the superman s means hope on krypton'
p1410
aS'continuity lol'
p1411
aS'MOUSTACHE!!!!!!'
p1412
aS'GUYS... lets be honest, who already knew what to say at 4:03 xD'
p1413
aS'god bless wikipedia'
p1414
aS'Ravens!!'
p1415
aS"oh man! i'd totally love it if ryan had gotten the part"
p1416
aS'I actually have no idea'
p1417
aS"I'm confused."
p1418
aS'hole in one lol '
p1419
aS'We would be screwed!!!'
p1420
aS'He gave it when they did Rewind Youtube Style right..?'
p1421
aS'ryan rocks'
p1422
aS'Yup'
p1423
aS'continuity?.........continuity :D'
p1424
aS'How dear u'
p1425
aS"That's Anthony's jacket"
p1426
aS'I am confused '
p1427
aS'English fag '
p1428
aS'thts what she said! lololol!!!!!!!!!!'
p1429
aS'You see, some people are just too lazy to type (including me)'
p1430
aS'Continuity? Continuity. '
p1431
aS'LOUD SHOUTING!!'
p1432
aS'Jedslegomovies:mapoti'
p1433
aS'Continuity... Hm... *Google*'
p1434
aS'Haha'
p1435
aS'dear ryan can you play the scary maze '
p1436
aS'NO!!'
p1437
aS'wow psy this is all your god damn fault like ryan got famous before you and \nyou wanted to be all that never listenning to your dumb songs anymore im \nsorry for you ryan'
p1438
aS'1980 '
p1439
aS'not a good reason'
p1440
aS'I thought it froze... 1:41'
p1441
aS'i have no idea what he is talking bout'
p1442
aS' THE MOST FUNNIEST EPISODE EVER LOL'
p1443
aS'Yeah 49ers!!!!'
p1444
aS'"loud noises"- brick from the anchorman lol'
p1445
aS'Your typo is example. You spelled it with an e not an a. '
p1446
aS'Hey check out my channel if you can ^.^!'
p1447
aS'Ryan should be Jack Bauer for a day! '
p1448
aS'You mind fuck me in every video. So creative'
p1449
aS'home run... hole in one? headshot?'
p1450
aS'1:20 ANTHONY FROM SMOSH HAS THE SAME JACKET'
p1451
aS'Who else thought that around 1:41 their video froze? lol....'
p1452
aS'Continuity.'
p1453
aS'132,000th like'
p1454
aS'omg 1.27 anthony (smosh) red jacket from the latest gamebang xd'
p1455
aS'HAY'
p1456
aS'Best video ever.'
p1457
aS'How I naver met your motherseption'
p1458
aS'Continuity..... DUH'
p1459
aS'49ers ftw'
p1460
aS'MUSTACHE!!!'
p1461
aS'XD decided to favourite and shared after the first 5 seconds XD'
p1462
aS'Nice video!'
p1463
aS'Randomness is why I love Ryan higa'
p1464
aS'Go Yankees wooooo'
p1465
aS'Can somebody please tell me what the music starting at 1:58 is?'
p1466
aS'Ohhh now I understand the commnents on the Gangnam style Pistachio \ncommercial'
p1467
aS'Was that inception?'
p1468
aS'Continuity'
p1469
aS'Ha gangma style'
p1470
aS'LOUD NOISES!!!'
p1471
aS'How did he KNOW'
p1472
aS'lolllll '
p1473
aS'1:41 i thought my monitor froze '
p1474
aS'U piss me off'
p1475
aS'thank you! '
p1476
aS'That was heck a funny'
p1477
aS'stop playing with my mind.'
p1478
aS'actually the broncos but you were close'
p1479
aS'lol'
p1480
aS"I'm exactly like u when u try to fit in when"
p1481
aS'Dear Ryan- #thuglife'
p1482
aS'Love how the ball keeps flying '
p1483
aS'How the hell does this guy not stutter?'
p1484
aS'Is continuity randomness'
p1485
aS'Dear'
p1486
aS'anthony from smosh has the same red jacket :P'
p1487
aS'That sucks'
p1488
aS'0:56 anchorman refernece'
p1489
aS"this kid's hair says he's trying too hard"
p1490
aS'Excellent video! Really funny!!! '
p1491
aS'GLASSES!!!!!!!!!!!!!!!! LOL '
p1492
aS'TOUCHDOWN!!!!!! and i dont even live in the US'
p1493
aS"I'm not much of a 49er... I'm more like a 69er :/"
p1494
aS'LOL 0:56'
p1495
aS'Oh yeah! Home run! Uh hole in one? Head shot? Lets go 49ers?!?'
p1496
aS'continuity ? continuity .'
p1497
aS'Mustache!!!'
p1498
aS'Self high five at 40 seconds haha'
p1499
aS'Yeah its starry night'
p1500
aS'LOL he used himym storyline :D'
p1501
aS"Touchdown. It's a touchdown lol."
p1502
aS'LOUD NOISES! '
p1503
aS'LMAO *everyone* yeah!!!!! *Ryan* HOMERUN! XD'
p1504
aS"wow. There are so many top comments people can make, and yet they're filled \nwith fake iPad spam"
p1505
aS'Nigahiga is the best'
p1506
aS'the credits :p '
p1507
aS"I'm dizzy from watching that"
p1508
aS'"Lets... Go... 49ers?" xD'
p1509
aS'49ers suck '
p1510
aS'I just noticed that nigahiga looks exactly like VanossGaming!!'
p1511
aS'Continewitu?'
p1512
aS'Dear Ryan: Can you breathe in while breathing out?'
p1513
aS'Dear Ryan! Can you do WAT?'
p1514
aS'whos mt?'
p1515
aS'It also seems as though you added an extra "as" and misspelled \'miss \nspelled\' Because if it WERE written \'miss spelled\', it would be a beauty \npageant.'
p1516
aS'Continuity'
p1517
aS'Ooww ow ow owww ow ma head'
p1518
aS'Nice video'
p1519
aS'Its Van Gogh, not Da Vinci'
p1520
aS':D nice video'
p1521
aS'That\'s Leonardo de Vinci painting "Starry Night"'
p1522
aS'lol headshot'
p1523
aS'Piscatino hahahahaha'
p1524
aS'llllllllllllllllllllllloooooooooooooooooollllllllllllllllllllll'
p1525
aS'Hey I recently found a youtuber whos pretty funny but is not really famous \nso i decided to give him some promotion! So everyone please check out \nDanomitism!'
p1526
aS'European Football RULES!!!'
p1527
aS'Dear ryan can you be a dance instructor.'
p1528
aS'{^.^}'
p1529
aS'I liked right when you said "let\'s go 49ers!"'
p1530
aS'Haha the red jacket is what Anthony from smosh always wears'
p1531
aS'You mean REAL football.'
p1532
aS'9s'
p1533
aS'How I Never Met Your Mother XD'
p1534
aS'I like the never ending story'
p1535
aS'You know that your national sport is shit when, at the biggest tournament \nfor the sport, the best part is the adverts.'
p1536
aS'Shut up!!!! Lol'
p1537
aS'"LOUUUD NOISES"'
p1538
aS'"LOUD NOISES!!"'
p1539
aS'You need to hit reply for it to get to your bud.'
p1540
aS'Dear Ryan can you be Naruto?'
p1541
aS'Pistachio Pistachio nana na na Pistachio'
p1542
aS'wonderful pistachios smm.... pistachios '
p1543
aS'LOUD NOISES! Hahaha xD'
p1544
aS"It's example* not ''peoples''. You get owned BOIII!!!"
p1545
aS'That confused me so much!'
p1546
aS'Loud noises lol'
p1547
aS'MOUSTACHE!!!!!'
p1548
aS'how I met your mother refrence !!!!!!!!!'
p1549
aS'How I met your mother ahahaah omg'
p1550
aS'49ners lost haha'
p1551
aS'How i met your mothers'
p1552
aS'0:56 LOUDDDD NOISESS ! '
p1553
aS'The pistachio outro theme made me cry from laughter omg'
p1554
aS'Headshot'
p1555
aS"I think he's referencing steve carrell in Anchorman (Will Ferrell) when \nSteve yell's LOUD NOISES when Ryan pretends to like football with his \nfriends "
p1556
aS'Contenuty '
p1557
aS'i yell that in class when people (by which i mean swaggots) are being \nobnoxiously loud'
p1558
aS'what happened to the football '
p1559
aS'Psy sucks (my opinion)'
p1560
aS"Anthony's jacket from smosh"
p1561
aS'Check Our Channe Out: GandTOutdoors and are sponsor Reload Outdoors at \ntheir website.'
p1562
aS'Super boll'
p1563
aS'LOUD NOISES!'
p1564
aS'GO NINERS!!!!!'
p1565
aS"At 4:13 it said that plant 2 was Teddy So that means Ryan chose his new \npuppy's name six months before the video Maybe some hyper observant \nindividual saw that and knew the name six months in advance"
p1566
aS'LOUD NOISES!'
p1567
aS'That would make a good commercial 0.0'
p1568
aS'Football rocks!!!!!!'
p1569
aS"That painting on the wall that's in the background is at my school. LOL"
p1570
aS'What??? So cool'
p1571
aS'I laughed my ass off when he said "H-headshot?"'
p1572
aS'platapussy'
p1573
aS'Fn\xc3\xa6'
p1574
aS'LOUD NOISES!'
p1575
aS'Did you ever get called back for something else?'
p1576
aS'Im confused'
p1577
aS'Continuity'
p1578
aS'Bitch please, u call handegg football?'
p1579
aS'now i know im not the only person who didnt look up the word continuity lol'
p1580
aS'What the heck'
p1581
aS'Why ryan has anthonys jacket'
p1582
aS'Football 1.Soccer 2.Ball On Foot 3.Kick Balls 4.Football.... With a kick'
p1583
aS'Lol'
p1584
aS'my brain hurts now'
p1585
aS"I agree commercials during it is the best. The commercial that replace urs \nwas not better than your's at all lol"
p1586
aS'To fast'
p1587
aS'wtf'
p1588
aS'haha, my mom said that the only reason she watched the super bowl is \nbecause of the commercials '
p1589
aS'3. type 1337'
p1590
aS'XD fail'
p1591
aS'hahaha..'
p1592
aS'But pronounce it like starski'
p1593
aS"Hey guys! I found a guy on YouTube whos pretty funny but doesn't have \nattention! His names Danomitism!"
p1594
aS'Im sorry sir, but it seems as though as you miss spelled *you and *seems'
p1595
aS'too lazy so tell me :))))))))))'
p1596
aS"anthony's jacket"
p1597
aS'Continuity...'
p1598
aS'a million symbols really says virus'
p1599
aS'0:38 .'
p1600
aS'Do skyrimmmm'
p1601
aS'Imagine if Ryan Higa actually ended up in a Super Bowl Commercial...'
p1602
aS"We don't need you shoving your stupid christian ideals down our throats \nasshole! (I'm joking) "
p1603
aS'omg!he does!'
p1604
aS'HOME RUN'
p1605
aS'Penises'
p1606
aS'How am I looking at this if I am in your closet????? Continuity'
p1607
aS'I didnt watch it!.. I live when I experience Nigahiga T^T'
p1608
aS'Bo 49ers'
p1609
aS'Continuity'
p1610
aS'Is it an original van Gogh lol'
p1611
aS'What is super bowl? Can i have cereal with it'
p1612
aS'HAHAHA BEST PART WAS ALWAYS THE FAKE NG HAHA'
p1613
aS'Your honestly genius'
p1614
aS'guys, girls, moms, dads, grandpas, grandmas, cats, platypuses...platypai, \ncactuses...cacti :/ well ok then haha...ha...ha ummm..............'
p1615
aS'Ha ha very funny made me damn near piss my self when u kicked him in the \nballs'
p1616
aS'ahhhhh well played'
p1617
aS'I like the new sound when you dislike a comment even better...'
p1618
aS"Android and Apple users only! Get free iTunes, Steam, Amazon, PSN, or XBL \ngift codes straight from your Android or Apple device! 1. Open up the web \nbrowser on your Apple/Android device -> go to tinyurl .com /itunes4ever 2. \nInstall an app and keep it open for 30 seconds. 3. Open the web browser \nagain to redeem and receive one of the previously mentioned $10 gift cards \nof your choice! I've already received $30 worth of Steam gift codes this \nweek!"
p1619
aS'LOL XD 3:24'
p1620
aS'He trows soooo far'
p1621
aS'what does contiudie mean? '
p1622
aS'He lives in Hawaii not San Fran, if he did live in Cali he would live in LA \nthe youtube Capitol'
p1623
aS'Im assuming you live in San Fransisco consitering you were cheering for the \n49ers in one of the clips'
p1624
aS'INCEPTION,'
p1625
aS'The beginning made my day with the superbowl around the corner. hahahaha'
p1626
aS"He doesn't live in hawaii. He is from hawaii and he moved to Cali. He used \nto live by my cousin on the big island"
p1627
aS'Wait, was that real or not?!?'
p1628
aS'whats contunuity?'
p1629
aS'HOME RUN!! LOL!!! (P.s i love pistachios!!!)'
p1630
aS'LOUD NOISES!!!!!'
p1631
aS'fuckin...bastard...'
p1632
aS'you little badass, you'
p1633
aS'I am'
p1634
aS'Continuity? Continuity.'
p1635
aS'continuity '
p1636
aS'Dear ryan, SKYRIM!!!'
p1637
aS'well daaaa, im not stupid'
p1638
aS'LOUD NOISES'
p1639
aS'who else knew he was going to ketch the pistachios bag '
p1640
aS'Any smart person would know hes just trying to get top comment..'
p1641
aS'I hate football too'
p1642
aS'Starry night painted by Vincent Van Gogh'
p1643
aS'MUSTACHEEEEEEEE'
p1644
aS'he high 5s himself lol1 '
p1645
aS"it's commercial-ception"
p1646
aS'For reals?'
p1647
aS'Omg that was amazing'
p1648
aS'haha this is me'
p1649
aS'Does the Virus come in blue?'
p1650
aS'0:22 gets me every time XD'
p1651
aS'Dear Ryan, can you do the hot pepper challenge?'
p1652
aS"That psy was so stupid! Ryan's way much more brilliant than that!"
p1653
aS'Me too :P'
p1654
aS'I Luv HIMYM'
p1655
aS'Whats Conenu duplique'
p1656
aS'Sponge Bob'
p1657
aS'Im sorry sir, but it seems like you have horrible grammar.'
p1658
aS'MUSTACHE!!!'
p1659
aS'are we in a fucking English lesson?'
p1660
aS"49'ers are awsome "
p1661
aS'Wtf is contanoti'
p1662
aS'Fuck psy'
p1663
aS'mmmmuuuussssstttttaaaaahhhhhhhhh lol'
p1664
aS'Inception :o'
p1665
aS"it's van gogh ;)"
p1666
aS'your commercial was better!!!'
p1667
aS'Dear ryan can you do gangnam style'
p1668
aS'1:09 - 1:11 Yeah it did'
p1669
aS'Lol'
p1670
aS'NO.'
p1671
aS'can someone explain the "continuity" joke to me? '
p1672
aS'Por Que'
p1673
aS'Oh man this was a good one.'
p1674
aS'He kicked him in the ball sack'
p1675
aS'The first Higa video I ever saw, good times.'
p1676
aS'This is cool'
p1677
aS'Confusing'
p1678
aS'Continuity'
p1679
aS'Was this a real thing that happened?'
p1680
aS'im eating wonderful pistachios right now '
p1681
aS'1868 people had to research what continuity meant.'
p1682
aS'Their video would have actually been way more famous if they used yours and \nlasted the test of time...'
p1683
aS'Leave...Never Come Back'
p1684
aS'That actually wouldve been a funny commercial'
p1685
aS'continuity '
p1686
aS'HOME RUN !!!!!'
p1687
aS'Ryan is not wearing Anthony red jacket, they got the same jacket,dumbo'
p1688
aS"Darn that gangnam-dancing guy They should've picked Ryan"
p1689
aS'misspelled*'
p1690
aS'What does he says at the end??'
p1691
aS'Boobies '
p1692
aS'thatsuperbowl'
p1693
aS'The funny thing is they actually did used Psy!'
p1694
aS'same with me'
p1695
aS'Cool the Super Bowl !'
p1696
aS"I'm the same as ya Ryan! I never liked football"
p1697
aS'lol how i met your mother '
p1698
aS'What just happenened'
p1699
aS'"If you pick Ryan Higa, you get the song too." XD'
p1700
aS'It was ok I guess'
p1701
aS'1337'
p1702
aS':D im confused!'
p1703
aS'me too. i never liked him in the first place though \xc2\xac_\xc2\xac '
p1704
aS'Pause at 1:50'
p1705
aS'Continuity'
p1706
aS'priceless! '
p1707
aS'continuity'
p1708
aS'Continuity.'
p1709
aS'yes '
p1710
aS'*What *is *wrong *with *you'
p1711
aS'1980'
p1712
aS'that was so confusing'
p1713
aS'I like that picture he has in the backround'
p1714
aS'49ers? Ryan lives in Marin? MY GOD FOR ALL I KNOW I COULD BE HIS NEIGHBOR'
p1715
aS'I was there when the Miami heat hit a homerun and won the superbowl! '
p1716
aS'Continuity?'
p1717
aS'Uh..headshot?'
p1718
aS'pistachiNO!!! lol'
p1719
aS'Lol'
p1720
aS'and now my head was fvcked'
p1721
aS'Lol. Headshot'
p1722
aS'dear ryan, can u play an epic footbal game '
p1723
aS'What is the dramatic music? It begins at 1.58'
p1724
aS'i remembered the psy video '
p1725
aS"lol the ending I'm new to ur chanel becase I subcried to all the youtubers \nin rewind youtube styel"
p1726
aS'LOOUUUDDDDD NNNOOOIIISSEEESSS'
p1727
aS'Now I feel like pistachios'
p1728
aS'1:58'
p1729
aS'i compare so much to him...'
p1730
aS'Continuity'
p1731
aS"Would anyone watching this video happen to know the name of the song that \nstarts playing at 1:58? I've heard it a few times but have never been able \nto find it. Thank you."
p1732
aS'On my birthday :D '
p1733
aS'LOUD NOISES'
p1734
aS'0:55 "AAH NOISES" LMAO'
p1735
aS'Ive been watching since How to be gangster.'
p1736
aS'49ERS, 49ERS!!!!!'
p1737
aS'Canadians'
p1738
aS'INCEPTION!!!'
p1739
aS'I searched up continuity because of this.'
p1740
aS'LOUD NOISES!!!!!!!!!!!!'
p1741
aS'If these were the actual super bowl commercials I actually would watch'
p1742
aS'HOMERUN!!!!!!!!!'
p1743
aS"You didn't even mention AFL, Australian football :( "
p1744
aS'what does it do'
p1745
aS'Should be called "Handegg"'
p1746
aS'"wait, you can\'t freeze--" just then my video freezed xD'
p1747
aS'Hi'
p1748
aS"It's supposed to do."
p1749
aS'Loud noises'
p1750
aS'You said "Why are you getting mad?"'
p1751
aS"I'm am a Ravens Fan all the way Jk Ha GAY 49ers All the way Ladies"
p1752
aS"The way the packet was thrown at the end killed me :'D "
p1753
aS'Whenever there is mistakes in the footage I believe. Say there is a family \neating a meal and there is a picture at the end of the table. The camera \ngoes outside to the weather with cars going by and then back to the table. \nWhen it goes back to the table the picture is not there anymore OR \nsomething else is there. JacksFilms made a really good video about it: \n/watch?v=rSnCu43QzeY'
p1754
aS"49'ers suck!"
p1755
aS'Why is everyone hopping on the 49ers bandwagon'
p1756
aS'What does it do!? D:'
p1757
aS"So I found a guy on YouTube whos pretty funny but doesn't have a lot of \nattention so I decided to try to get him some exposure! His names \nDanomitism!"
p1758
aS'SUBSCRIBE ME!!!! Xd'
p1759
aS'INCEPTION'
p1760
aS"Wait that's true psy took your place"
p1761
aS'I watched the real Psy commercial it was actually cool'
p1762
aS'YET...'
p1763
aS'i love you Ryan!! and frikkin Psy stealing ur fame lolz! :) haha'
p1764
aS'btw im a gurl'
p1765
aS"What's continuity?"
p1766
aS'i was laughing so hard!!! :D'
p1767
aS'"Loud noices!!!" did you take that from the movie Anvhorman? :D'
p1768
aS'Keep up the work you could be the next tobuscus'
p1769
aS'omg u have the sm leather jacket as anthony padilla!!! 1:50'
p1770
aS"Why question anything when we've got.............continuity."
p1771
aS"49'rs took out my packers"
p1772
aS'Dear Ryan , please show us your parody about MTV Made XD lol:P'
p1773
aS'Cool'
p1774
aS'What shoes is he wearing?'
p1775
aS'Effing lol'
p1776
aS'/watch?v=CJtHHWYaMmE'
p1777
aS"Floater9066 same that's what happend with me :)"
p1778
aS'Okay.... So you just threw a giant leathery potato into a yellow metal \npole.... how is that cool?'
p1779
aS'Headshot?'
p1780
aS'Hahaha this is one of my favorite videos :D'
p1781
aS'1:20 Fruit Ninja shirt!'
p1782
aS'WHOOO!!! MAVERICKS!!!!'
p1783
aS'LOUD NOISES'
p1784
aS'Is that a real mustache because its so distracting lol'
p1785
aS"you stole anthony's jacket :P"
p1786
aS'forever alone old memes'
p1787
aS'they actual have commercials of psy'
p1788
aS'I love How I Met Your Mother, but Dear Ryan, can you make a parody of How I \nMet Your Mother (after it ends)???'
p1789
aS'LOUUD NOISES'
p1790
aS'why did I still not get an answer?'
p1791
aS'how did he know'
p1792
aS'this is beauutiful sh*t.. perfectly executed .'
p1793
aS'tap 1 wait 2 secs and press it again and repeat it'
p1794
aS'lololololol !this was so confusing !! '
p1795
aS"now dont make it too easy. *There's"
p1796
aS'HomeRun'
p1797
aS":D I don't get it. :)"
p1798
aS'YOU DESERVED THE COMMERCIAL!!!!!!!!!'
p1799
aS'We studied and drew that Vincent'
p1800
aS'Lets go 49ERS!!!'
p1801
aS'I have 1'
p1802
aS'XD that ending'
p1803
aS'U are so cute'
p1804
aS'Wonderfull, Pistachios, nana nana Pistachios'
p1805
aS'Or actually not lol teehee :O'
p1806
aS'pistachios pistachios! zsnznssn pistachios! i'
p1807
aS'Continuity'
p1808
aS':-D 1:10 "that\'s what she said" :-D'
p1809
aS'what is continuity?'
p1810
aS'This would be one of those super bowel commercial that doesnt stand for \nanything'
p1811
aS'Dear Ryan..Can you be -KEVJUMBA-? :)'
p1812
aS'tocen214'
p1813
aS'wait what?'
p1814
aS'LOUD NOISES!!'
p1815
aS'can u please check out my video at hyperpenguin805'
p1816
aS'LOUD NOISES!!'
p1817
aS'My head hurts..... Or does it!?!'
p1818
aS'Dear Ryan, can you do a funny American Idol? :^) '
p1819
aS'Anyone watch the F&F6 trailer before this video on a phone?? It looked all \ncheezy and cgi like... oh ya, cool story bra'
p1820
aS'Lol'
p1821
aS"It's hand egg, not football."
p1822
aS'Continuity'
p1823
aS'LOUD NOISES!!'
p1824
aS'Did anyone else read the credits at the very end? lol'
p1825
aS'Omg Ryan your videos always make my head hurt XD "."'
p1826
aS'please come cheak out my channel it is calld'
p1827
aS'ahaha awesome video!'
p1828
aS'Funguses Fungi'
p1829
aS'one word...HILARIOUS! Lov ur inceptions!'
p1830
aS'lol so funny '
p1831
aS'At 1:30, Ryan forgot his watch... #continuity'
p1832
aS'whats continuity?'
p1833
aS'Lol Ryan Higa- ryan higa Plant 1- Marley Plant 2- Teddy Painting- Luci Bed- \nKyle'
p1834
aS'SKYRIM?? '
p1835
aS'wow dude how did you know that? i just played that game while he was still \ntalking :D guess i am gonna have to watch the video again ;)'
p1836
aS'this is my first youtube argument and I won with beauty'
p1837
aS'YEAH 49ERs! HOWEVER ITS SPELLED!'
p1838
aS'continuity'
p1839
aS"Andy rice stfu plz? You said it once that's more than enough but 5 to 6 \nmore times its plain annoying"
p1840
aS'Yeah! 49ers!'
p1841
aS'omg pause at 0:56'
p1842
aS'LOUD NOISES XD'
p1843
aS'first vid and I love it LOL'
p1844
aS"I think you spelled example wrong. I've never been good in English so this \nis probibly wrong. Either way, what is the typo in your comment?"
p1845
aS'Come check out my new dance clip!!!! much love all'
p1846
aS"It's platypuses."
p1847
aS'Hey beautiful By the Solids '
p1848
aS'Continuity !!!! What does it even mean'
p1849
aS'headshot?jajajajajjaa :D'
p1850
aS'wtffffffffffffffffffffffffffffff fuckkkkkkkkkkkkkkkkkkkkkkkkkk is this so \nconfusing om gosh wtffffffffffffffffffffff'
p1851
aS' Whats Continuety??? '
p1852
aS'Dear Ryan, can you do skyrim'
p1853
aS'typo :p'
p1854
aS'Lol'
p1855
aS'TeeHee'
p1856
aS"Android and Apple users only! Get free iTunes, Steam, Amazon, PSN, or XBL \ngift codes straight from your Android or Apple device! 1. Open up the web \nbrowser on your Apple/Android device -> go to tinyurl .com /itunes4ever 2. \nInstall an app and keep it open for 30 seconds. 3. Open the web browser \nagain to redeem and receive one of the previously mentioned $10 ($20 for \nSteam and PSN) gift codes of your choice! I've already received $40 worth \nof Steam gift codes this week!"
p1857
aS'Friends are watching sports'
p1858
aS'He copied Anthony padilla with the jacket'
p1859
aS'MAKE MORE BEHIND THE SCENES VIDEOS!!! '
p1860
aS'dear ryan can u kill kevin jumba '
p1861
aS'Confusing!!!'
p1862
aS'did anyone else get lost throughout this video '
p1863
aS'LOUD NOISES'
p1864
aS'what channel is it on,on tv'
p1865
aS"I love football!and i'm from germany!!!"
p1866
aS'Two words: c-o-n-f-u-s-I-n-g'
p1867
aS'Hand egg?....'
p1868
aS'Mind fuck much!'
p1869
aS'What about AFL...'
p1870
aS'Dear Ryan, can you turn your dog into an international pop star overnight? '
p1871
aS'actually it can, you just have to think about it.'
p1872
aS'hahaha, this was quite entertaining!'
p1873
aS'Continuity'
p1874
aS'dude, I can relate.'
p1875
aS'Ryan: The Super Bowl is around the corner. Super Bowl: How did he know?'
p1876
aS'You should have gotten it. If it was real. Maybe. Idk.'
p1877
aS'That art in the back'
p1878
aS'i am so confuzzeld '
p1879
aS'Wonderful! Pistachios! Sifusjujahkjkas Pistachios!'
p1880
aS"That's me..."
p1881
aS'lets go... 49ers?'
p1882
aS'did that REALLY happen '
p1883
aS'continuity? continuity.'
p1884
aS'Continuity'
p1885
aS'PSY!!! '
p1886
aS'I see what you did there.'
p1887
aS'stfu, ur retarded '
p1888
aS'read the credits for how I never met your mother'
p1889
aS'IM SO CONFUSED!'
p1890
aS'How did he know?'
p1891
aS'How are You waching this at the dame tome as me'
p1892
aS'best. jingle. EVER'
p1893
aS':) :) This is such a cool video. '
p1894
aS'Your videos are hilarious please keep making more'
p1895
aS'continuity'
p1896
aS"Ok now I'm confused "
p1897
aS"This shoudve been the commerical instead of CRACK CRACK CRACK CRACK \nCRACKIN' GANGNAM STYLE"
p1898
aS'NFL is boring to watch .-.'
p1899
aS'This dued is mad funny'
p1900
aS'Loud noises! '
p1901
aS'O HELL NO WHITE BOY! now on my channel;)'
p1902
aS'What?'
p1903
aS"How i almost but didn't get a commercial because of Psy XD LMAO!"
p1904
aS'Huh'
p1905
aS'HE PREDICTED THE FUTURE'
p1906
aS'ZUNE'
p1907
aS'How I never met your mother.'
p1908
aS"I'm outdated but is that real that you nearly got that commercial??! Just \ncurious"
p1909
aS'youtubeception '
p1910
aS'YOU BROKE THE 4TH WALL RYAN!!'
p1911
aS'sooooooooooo confused hahahahaha!!'
p1912
aS'My head hurts....'
p1913
aS'Moustache'
p1914
aS'homerun!!! XD'
p1915
aS'this should have been in the superbowl '
p1916
aS'WAS THAT THE REAL PSY!!!!???'
p1917
aS"Well, I'm confused"
p1918
aS'Thats what im eating'
p1919
aS'LOOOOUD NOISES'
p1920
aS'How does he do it ?'
p1921
aS'I LOVE FOOTBALL'
p1922
aS'continuity'
p1923
aS'I laughed so hard i dropped my wonderful pistachios'
p1924
aS'Dude you look like siwon from SUPER JUNIOR'
p1925
aS'Hoe gaat t met je bakfiets man?'
p1926
aS'He\'s so cute wen he goes "Hey guys!"'
p1927
aS'Ur dogs played ur plants?! (I read the credits lol)'
p1928
aS'I think Ryan kinda looks like Kim Hyun Joong.'
p1929
aS'1:23 Take note, he has the same jacket as Anthony.'
p1930
aS'I like how you use yourself as another person, I sometimes am like "damn \nasians really do look alike" and then I notice its you'
p1931
aS'00:42 mmuuuuuucccchhhhhtttaasssjjjjjj'
p1932
aS'I hate football. I only watch the super bowl because of the commercials'
p1933
aS'Speed limit 15 ?'
p1934
aS"I'M SO CONFUSED."
p1935
aS'thats so halarious'
p1936
aS'What is the music that starts at 1:58 called?'
p1937
aS'I LOVE HOW I MET YOUR MOTHER'
p1938
aS'bb'
p1939
aS'what the hell are you trying to say. .-.'
p1940
aS'Continuity'
p1941
aS'nope lol'
p1942
aS'is this why you dont like psy'
p1943
aS'I was always like this hahahaha'
p1944
aS'HOMERUN '
p1945
aS'MOUSTACHEE!!!!!'
p1946
aS'Uh...I cant read the credits...'
p1947
aS'I got confused for a moment'
p1948
aS'Head shot hile in 1'
p1949
aS'something big happend to me. thats what she said. hhahaha i still say that \nall the time.'
p1950
aS'Continuity.'
p1951
aS'SAN FRANCISCO!!!!! I LIVE NEAR THERE'
p1952
aS'49ers Heck yea!'
p1953
aS'honestly I could just start an argument on your comment for using "gay" as \na bad thing.'
p1954
aS'Yeah 49ers!'
p1955
aS'Idk lol'
p1956
aS'Popular Asian? You said you were Hawaiian in your draw my life!'
p1957
aS"Psy, oppa gangnam style........didn't hear it."
p1958
asS'time'
p1959
ctime
struct_time
p1960
((I2013
I1
I25
I23
I3
I46
I4
I25
I-1
t(dtRp1961
sS'id'
p1962
Vm0PfjfXMv58
p1963
s.