(dp1
S'title'
p2
VSo Damn Stupid!
p3
sS'url'
p4
Vhttp://www.youtube.com/watch?v=MymMhj3Vgww&feature=youtube_gdata_player
p5
sS'image'
p6
Vhttp://i.ytimg.com/vi/MymMhj3Vgww/0.jpg
p7
sS'comments'
p8
(lp9
S"Is that Shawn, where's his beard\xef\xbb\xbf"
p10
aS"who's watching in 2015 :)\xef\xbb\xbf"
p11
aS'Who is watching this in 347q28359q98435? I am!\xef\xbb\xbf'
p12
aS'That change. XD\xef\xbb\xbf'
p13
aS'That video quality though...\xef\xbb\xbf'
p14
aS'How time flies...\xef\xbb\xbf'
p15
aS'aww he was only 17.\xef\xbb\xbf'
p16
aS'ryan is love ryan is life\xef\xbb\xbf'
p17
aS'Someone inform me of his hair\xef\xbb\xbf'
p18
aS'i am stupid\xef\xbb\xbf'
p19
aS'in reply to Voshon Tate\nsean is 15 and ryan is 16 in this video\ni know math lol\xef\xbb\xbf'
p20
aS'so much change XD\xef\xbb\xbf'
p21
aS'no clue why these two fiend soulja boy lol\xef\xbb\xbf'
p22
aS'This song back in those days is like what the nae nae is today 2014-2015 \nhhhawahh XD\xef\xbb\xbf'
p23
aS'2014 anyone?\xef\xbb\xbf'
p24
aS'So many of my brain cells just died\xef\xbb\xbf'
p25
aS'`=` DOII\xef\xbb\xbf'
p26
aS'Lol Nae Nae\xef\xbb\xbf'
p27
aS'I feel nostalgic \xef\xbb\xbf'
p28
aS'I felt myself losing intelligence ;P\xef\xbb\xbf'
p29
aS"Guys... Ryan was only 17 when he made this video... That's so crazy!\xef\xbb\xbf"
p30
aS'He was blonde back then??!\xef\xbb\xbf'
p31
aS'So his hair was always this nice..\xef\xbb\xbf'
p32
aS'So creative xD \nWhoop 2014 and watching! \nRyan looked good in blond:)\xef\xbb\xbf'
p33
aS' OMG lol\xef\xbb\xbf'
p34
aS'This is really damn old\xef\xbb\xbf'
p35
aS'you look like my cousin :-)\xef\xbb\xbf'
p36
aS'They were really obsessed with camel toes\xef\xbb\xbf'
p37
aS'i all of a suddenly feel a lot stupider \xef\xbb\xbf'
p38
aS'really he cant rap\xef\xbb\xbf'
p39
aS'Look\xef\xbb\xbf'
p40
aS'They look so much smaller\xef\xbb\xbf'
p41
aS'i have seen this so many times and over the years I still find it hilarious \nand creepy\xef\xbb\xbf'
p42
aS'Who watchin this in 2013\xef\xbb\xbf'
p43
aS'Holy crap\xef\xbb\xbf'
p44
aS'Dear Ryan, can you imitate Morgan Freeman? #dearryan #dear #ryan\xef\xbb\xbf'
p45
aS'Why the hell does Ryan have golden hair?! hahaha\xef\xbb\xbf'
p46
aS'2014 peoples :) lol\xef\xbb\xbf'
p47
aS'What is the video where he sing Barbie girl\nPlz reply!!!!\xef\xbb\xbf'
p48
aS'ahh back when ryan and sean were number 1! in subscribers I mean\xef\xbb\xbf'
p49
aS'Are they wearing the very first NigaHiga shirts??\xef\xbb\xbf'
p50
aS'Blondi! :3\xef\xbb\xbf'
p51
aS'So damb stupid\xef\xbb\xbf'
p52
aS'You think Sean and Ryan will ever have the "remember when we were blond" \ntype of flashback in a new video? X3\xef\xbb\xbf'
p53
aS'God I hate rap.\xef\xbb\xbf'
p54
aS'Lmao this still entertains me XD\xef\xbb\xbf'
p55
aS'Me\xef\xbb\xbf'
p56
aS'Lol\xef\xbb\xbf'
p57
aS'DEEEH!!!!\xef\xbb\xbf'
p58
aS'2:29- 2:31:):) like a boss!!!\xef\xbb\xbf'
p59
aS'2014 \xef\xbb\xbf'
p60
aS'I only made to 1:34 then i couldnt take it\xef\xbb\xbf'
p61
aS"I wasn't sure about that part. Didn't know whether to say dye blonde or \nbleach so thank you for clearing that up"
p62
aS'Yesterday, Today, Tomorrow.'
p63
aS'Ryan with brown hair :D'
p64
aS'Hahahahhahaha so cute'
p65
aS'So this is the first video of nigga.. Not bad.'
p66
aS"he's back now :) watch ryan's latest video"
p67
aS'ah miss the days with sean'
p68
aS"i came and put a like before watching the video and i regret it and feel \nlike putting a dislike now but i wouldn't since i'm a fan of you day day \nday :P"
p69
aS'wtf did i watch XD'
p70
aS'whats youlls presidents name there in the future :O'
p71
aS'what is ytf?'
p72
aS"don't hate bro."
p73
aS'I bet if soulja boy cs this he wood go 2 u 2 and beet u up!'
p74
aS'Haha i luv them lol'
p75
aS'Does he mean Tehee?'
p76
aS'Totes hilar'
p77
aS'ryan higa`s hair is ligth brown in so damn stupid video'
p78
aS'Deh debedu deH!'
p79
aS"When he was in high school he was on the wrestling team (sean was too) and \nthe whole team decided to dye their hair blonde hence ryan's and sean's \nblonde hair. Ryan made a video about it, but since the huge copyright thing \non youtube where lots of videos got removed I haven't seen it since."
p80
aS'LOVE THIS. if u love YTF as much as me; follow me on twitter @YTFfan_teehee'
p81
aS'i miss the old nigahiga!!'
p82
aS'university'
p83
aS'wheres sean nowadays?'
p84
aS'2880 ppl are retarded soulja boy fans'
p85
aS'Oh my god, this used to be my ringtone lmao'
p86
aS'Right, back when they were younger in 2008...'
p87
aS'Yep'
p88
aS'watching 2013 '
p89
aS'Dear Ryan, can you host a scavenger hunt?'
p90
aS'2 girls 1 cup? so he is into things like that ? ;)'
p91
aS"or maybe it's yesterday today forever , whatever :P"
p92
aS'I think he stayed in Hawaii...'
p93
aS'His wrestling tea bleached all their hair look up " nigahiga asians wrestle \n" and watch it'
p94
aS'I hope Ryan and Sean get together soon to make more videos.'
p95
aS'1:37 Ryans Face'
p96
aS"shucks, haven't seen this in awhile MADE Me LAUGH SO HARD!!! i always catch \nmyself making the silly faces they make. ^_^"
p97
aS'sean was in bromance'
p98
aS'Watching forma 2024'
p99
aS'man this quality SUCKS i like new nigahiga '
p100
aS'he went to college'
p101
aS'OMG NOT 2 GIRLS AND ONE CUP AGAIN Q__Q HORRIFING'
p102
aS'LoL'
p103
aS"Obviously you didn't even watch much if you don't even know his name"
p104
aS"Ooh my goodness (': MEMORIES xD"
p105
aS'ryan is blond?'
p106
aS"I'm watching this in 2012 YouTube wasn't invented until 2004 so how can you \neven post that comment "
p107
aS'In not going to lie... My brain felt weird during this!!!'
p108
aS'I should have listened to the warning at the beginning...I think my IQ \ndropped :/...great video funny and true :D'
p109
aS'hahah the song long time ago vids of nigahiga ..but still super epic ^_^'
p110
aS"This version is better than Soulja Boy's!!!"
p111
aS'nice one lol'
p112
aS'im watching this in your moms bedroom!!!'
p113
aS'@missepicpanda I know! it is just so great to have him back! I have been \nwatching Ryan sense \xc2\xabHOW TO BE EMO\xc2\xbb :)'
p114
aS'Stop with the thumbing up of your watching this is 2012 crap! When else are \nwe supposed to watch it!? In 3015!?!?!?'
p115
aS'I wonder if he looks back at these old vids and say "Wow i was soo... \nHANDSOME, OH AND SMART!!!" Im not gonna lie he is incredibly hot'
p116
aS'd-de d-de i like pie day day deeee i like pie de XD REMIX!!!'
p117
aS'ryan moved to los vegas and decided to do nigahiga by himself. thats what \nio heard'
p118
aS'No im fucking watching it in 2552 when the fuck do you think im watching it?'
p119
aS'Wonder what he has to say about " Lil\' Wayne" '
p120
aS'Do you want a dictionary thrown at your face?'
p121
aS'Ya'
p122
aS'You guys already ruined my brain'
p123
aS'haha '
p124
aS'Sean? Sean? Fu-ji-yo-shi?'
p125
aS'like if u see this in 2013'
p126
aS'hey this is a catchy song :) me like :)'
p127
aS'thumbs up if your watching this in 39712859 on your triclonhyroglific pod'
p128
aS'Yahh trick yahh'
p129
aS'But I still like you guys and Ryan I think you ruined your own brain'
p130
aS'i knew all the lyrics to this song xD'
p131
aS'Chatchy'
p132
aS'DEY DY DEY!!'
p133
aS'By the time the video was over I took the last bite of my bagel... perfect \ntiming.'
p134
aS'No teehee :('
p135
aS'Daydeeday'
p136
aS"Sean's making a new channel so you can see scenes with sean like you have \nnever seen before. There will be a lot of sean to be seen in the future"
p137
aS"Thumbs up if anyone is going back to the past and watching ryan's old videos"
p138
aS'haha '
p139
aS'NO TEEHEE :('
p140
aS"i'm watching this on 2012 and still won't get tired of watching this on \n2013 and so on... :D"
p141
aS'Roflmfao! Omg you guys are hilarious'
p142
aS"i still remeber al of the words even though I haven't seen this video in \nyears"
p143
aS"@beth11041999 he's back "
p144
aS'Aw I miss sean!'
p145
aS'nigahiga looks better with his hair black... just an opinion'
p146
aS'lolwut -Trauma Tize'
p147
aS'have you noticed that if you suck a wine gum candy it turnds transparent? \nblew my mind'
p148
aS'heheheHAHAHA'
p149
aS'Ahh, the memories of when this channel was good. so sad.....'
p150
aS'Better than the origional haha (: dai de dai lol!'
p151
aS"i literally didn't watch this becaues of the warning in the beggining"
p152
aS'2,894 people (and counting) are so damn stupid.'
p153
aS'Omg'
p154
aS'he went to college '
p155
aS'Ur hair was blonde *_*'
p156
aS'BEST EVER!!!! '
p157
aS'Ooooh LOL they totally want the D <3'
p158
aS'you got that right'
p159
aS'This is better than the soulja boy version'
p160
aS'Brown hair'
p161
aS"OMG i can't believe Sean is back thou"
p162
aS'@GirlyCoolgal none knows but he has his own accoun - fujiboy or something \nlike that '
p163
aS'@PamelaCover MOVED'
p164
aS"Thumbs up if you're watching this video is 2012 lol."
p165
aS'Dude love ur fuckin videos so awsome do some bout mexicans lol'
p166
aS'we meet again 240p -_-'
p167
aS'With'
p168
aS'yeah were the hell is sean?'
p169
aS'@savvanahbeagle oh ok make sure 2 tell every1 in the future i said hi '
p170
aS'Hahah'
p171
aS'teehee?'
p172
aS"Omg i seen all Nighiga's vids and i never seen this vid"
p173
aS'Haha this was made a couple of days before i turned 8'
p174
aS'Sean,if we all thought like you we all be dead'
p175
aS'This is so damn stupid!!!!'
p176
aS'The background music was too much x_x'
p177
aS'I dont like his hair here!!'
p178
aS"@BTGamingCinema Thanks. I see what you mean. He isn't doing videos with \nRyan anymore..."
p179
aS'@ToriDahShiz he is not this video \\was made in 2008 '
p180
aS"Nigahigas like eminem he used to be blonde and now he's a brunette"
p181
aS'Watching this video made me think how far has Ryan gotten from this.'
p182
aS'Chink'
p183
aS'What is more stupid is your tshirt'
p184
aS'thumbs up if u watchin this 4 billion years after 2012 on the igram (i \nhologram) '
p185
aS'he didnt move to hawaii'
p186
aS'I would love to see a newer version of this it will be hilarious.'
p187
aS'5 years ago? has it been that long '
p188
aS'Fatal car accident. It was all over the news. JK.'
p189
aS'Lol when ryan had highlights'
p190
aS'nigahiga you dye your hair why dye hair?'
p191
aS'haha omg every time this make me laugh xP '
p192
aS'Omg i remember this song!!! <3 it XD'
p193
aS'i think hes in a newer video '
p194
aS'Man I miss Sean...<3'
p195
aS'lol i remember this soulja boy song..'
p196
aS'people say that in every one of his old vids just to get top likes STOP!'
p197
aS'Eww soulja boy. Lol this video is funny tho :3'
p198
aS'@PamelaCover In your bedroom on your bed'
p199
aS"@purplefreak106 Actually, isn't Ryan in Nevada and Sean in Oregon, so they \ncan only make videos together when they are both in Hawaii?"
p200
aS"that's because he dyed it blonde once."
p201
aS'EPIC. HILARIOUSNESS!!!'
p202
aS'thumbs up for2012'
p203
aS'After being on YouTube for a while now, I know how much hate people can \ngive when reading these kinds of comments, but I think Nigahiga fans might \nbe nicer. My dream is to become a filmmaker, and I just got 480 subscribers \nwhich is quite impressive to me, but I\xe2\x80\x99ll never get noticed with these \nnumbers. EVANFRIESENFILMS does VFX, so if someone would have the heart to \nspend just a minute watching a video, and maybe SUBSCRIBE, or give this a \nthumbs up, it would mean the world. Thank you all.'
p204
aS'@xjapanhiderocks What happened to him?'
p205
aS"To the people who don't know: Ryan is now in L.A., and Sean is still in \nHawaii, so they can't make vids together anymore. :( But Ryan's latest \nvideo has Sean! :D"
p206
aS"hahahahah, nice job with the background thing, but the text didn't fit \ninside it LOL "
p207
aS'daayyyyy deeeeeeeeeeeee daaayyyyyyyyyyyyyyyyyyyyyyyyyyyyyyyyyy'
p208
aS"*bleach their hair, not die it blonde but other then that it's right"
p209
aS'This is exactly how i feel about soulja boy'
p210
aS'thumbs up if you want top comments that you havent read before :] and i was \nwondering, how can people still give thumbs up to the comments they read \nlike 37 times a day x)'
p211
aS'lol Funny!!'
p212
aS"@MrJmatthunter don't you read the description...he doesn't hate soulja \nboy....READ THE DESC...."
p213
aS'you guys should stop singing & just stay with making nikes......'
p214
aS'Monethingysomething i am not satanist'
p215
aS'what ever happend to shaun????'
p216
aS'ok....no offence....i had to stop watching at 39 sec. because it was SO \nTERABLE!!!!! you rock niga higa! i am now going to continue my niga higa \nmarothon.'
p217
aS'I think my IQ just dropped by at least 30 points.....DAYYY!! :D'
p218
aS"There are actually people who doesn't read the info below the videos they \nwatched before commenting. Guess that's a surprise for me, never thought \ndaftness is as rampant in Youtube as it is in Facebook. This was posted \nlast MARCH, 2008, people! Yabo productions had already ceased to exist \nduring this time. XP"
p219
aS'2850 people have Day Dee Day'
p220
aS'nigahiga really wasnt tht good at making videos in 2008, luckily now hes \nalot better'
p221
aS'my name is day , and i love this song <3'
p222
aS'Blonde Ryan is damn stupid lol.'
p223
aS"@folka18 i completely agree, what i mean was that the camera and sound \nquality weren't tht good"
p224
aS'ok sorry nigahiga get it now ok this si a funny song'
p225
aS'please watch my vids'
p226
aS'BEST SONG EVA'
p227
aS'people dont realise that this video is about 3 years old....'
p228
aS'this video is so damn stupid!(Day) but thats what makes it so hilarious'
p229
aS'@thxforreadingthis nigahiga was always amazing and ALL his videos r cool \nand i think the old ones with Sean hav more a bit heart to it but the new \nones r just as good'
p230
aS'I Think I Rapped The Replay Button'
p231
aS"this is totally a ''song worth knowing'' so its totally going into my book \nyep i do that :)"
p232
aS'Ahh the gud old hilo days. I used to live by them'
p233
aS'@thxforreadingthis suck s**t b**tc'
p234
aS'You Didnt get 5 views but you got 4,501,252 and counting'
p235
aS'unlike *eh hem* kevjumba..'
p236
aS'No teehee'
p237
aS'They want the D '
p238
aS'-__- i still miss sean '
p239
aS"It's not the same without sean"
p240
aS'Lmfao. haa'
p241
aS'pause at 0:44'
p242
aS'no im watching in 1985'
p243
aS'Ummm..... OK? :D'
p244
aS'Watchinq This on my iStone in 18bc -.-'
p245
aS'SO DAMN STUPID!!! LOL'
p246
aS'thumbs up if ur watchin this in 2012 and drinking'
p247
aS'I fink I I wost thome intwelligance *puts finger on mouth and mouth opens \nwhile drool comes out* duhhhhhhhhhhhhhh'
p248
aS'ikr!! <3 :D'
p249
aS'Miss these videos'
p250
aS'His new vids are just not the same'
p251
aS'SO DAMN STUPID DAY DAY'
p252
aS'This should be on iTunes'
p253
aS'You guys are so funny. I sit here for hours watching and rewatching your \nvideos.'
p254
aS'Scene!!!! (Sean)^^'
p255
aS'Hahahahaha'
p256
aS'First, his hair was black, then brown, and then black again. What the hell?'
p257
aS'Nice song. :D'
p258
aS'go to 0.42 '
p259
aS'it nigahiga without the niga saying that WE NEED SEAN BACK HE IS THE NIGA \nIN NIGAHIGA THUMBS UP YOU AGREE lol'
p260
aS"*reads beginning disclaimer* Well, if it drops any lower, I probably won't \nnotice much. >8D"
p261
aS"U watch porn that's distigusting"
p262
aS'Why so funny!?!?'
p263
aS'thumbs if you are watching this in 2012 oh wait.'
p264
aS'lol so funny hahahahahahahahahahahahahahahahahahahaha'
p265
aS'we need sean back........... also this is how the actuall song should be'
p266
aS'AFTER WATCHING THIS VIDEO SEARCH [iretrobaby-fatality]...15 YEAR OLD RAPPER \nWITH A KOOL ASS SONG GETTIN THOUSANDS OF VIEWS BY THE MINUTE! I CANT \nBELIEVE YOU GUYS HAVENT HEARD IT! GO SEARCH IT UP RITE NOW FOR PROOF!'
p267
aS'I love the whack a mole part LOLZ!!! ^O^'
p268
aS"TO\xef\xbb\xbf ALL\xef\xbb\xbf NIGAHIGA FANS! RayWilliamJohnson\xef\xbb\xbf has now has more\xef\xbb\xbf subscribers\xef\xbb\xbf \nthan\xef\xbb\xbf nigahiga! Lets\xef\xbb\xbf help\xef\xbb\xbf\xef\xbb\xbf nigahiga\xef\xbb\xbf to have more\xef\xbb\xbf subs.\xef\xbb\xbf RWJ\xef\xbb\xbf doesn't \ndeserve 3 million\xef\xbb\xbf subs\xef\xbb\xbf for just reviewing\xef\xbb\xbf a\xef\xbb\xbf video!Ever seen him\xef\xbb\xbf in the \ndesert?The reason nigahiga\xef\xbb\xbf\xef\xbb\xbf doesnt have more subs is\xef\xbb\xbf\xef\xbb\xbf because\xef\xbb\xbf at the end \nof the\xef\xbb\xbf video he\xef\xbb\xbf\xef\xbb\xbf doesnt beg people to subscribe to him like all those \nother youtube celebritys. copy and\xef\xbb\xbf paste this if\xef\xbb\xbf to other videos\xef\xbb\xbf to\xef\xbb\xbf \nhelp nigahiga.\xef\xbb\xbf Thank you Thumbs up people see "
p269
aS'xDDDD funyy vid'
p270
aS'Nigahiga is awesome not stupid'
p271
aS'same green ball eh?'
p272
aS'on youtube only ryans videos take a longer time to load! i think they have \nto load his awsomeless <3 '
p273
aS'@Phoenix9888 okay o-o'
p274
aS"@Phoenix9888 the videos where his hair is dyed is when he was still a teen \nor close to it o-o up to this day he is 21, so he dyed it a LOOOOOOOOOONG \ntime ago, and now it's to it's normal color o-o"
p275
aS'I Luv This Sonqq <3 x3 '
p276
aS'DEAH'
p277
aS'should a "ax" wut this is about?'
p278
aS'Free Replay: 0:00 '
p279
aS'i do have a life and dude y does he hate if he hates haters so dude \nnigahiga u realy are a nigga'
p280
aS'Ryan.... Did you dye your hair?'
p281
aS'I think 1:27 is my fav part(;'
p282
aS"Dammit the song isn't on itunes"
p283
aS"Ryan's voice; hahahahahaa. puberty & cracking. "
p284
aS'@Angelika08gagafan thats so old and lame who cares if were watching this in \n2011 when else would we watch it??'
p285
aS'oh man i miss sean QwQ they should do a reunion video. that would make my \nyear :D'
p286
aS'Wat happened to Sean'
p287
aS'HOPSIN!!!!!!'
p288
aS'no teehee!?'
p289
aS'@BLUEBEETLE8 NO im watching this in3025 what year do you think were \nwatching this in?'
p290
aS"thumbs up to play sean's hit in the head"
p291
aS'@kickproductionz Have you seen his recent videos? He is back :)'
p292
aS'Hey you should NOT wear that shirt.'
p293
aS'Ryan~!~!~!~!~!~!~!\xe2\x99\xa1\xe2\x99\xa5\xe2\x9d\xa4'
p294
aS'college'
p295
aS'@PamelaCover he is on some of the HigaTV videos '
p296
aS'<3 HA'
p297
aS'oh right i ment to do that but i accidentaly wrote tomorrow'
p298
aS'2+4=.......... um............'
p299
aS'Still better than Soulja Boy and Lil Wayne'
p300
aS'nigahiga is more popular than 2 girls n 1 cup '
p301
aS'deeh!!!!!!!'
p302
aS'What happened to seannnn.'
p303
aS'yahh trick ya! haha that song is hilarious haha'
p304
aS"Yea your parents must be ashamed of you as well. Being the fact that all \nyou have to do is sit in their basement and comment on videos that you \nchose to watch. Now that doesn't make sense does it? "
p305
aS'no im watching this on 2013.. '
p306
aS'This song used to scare me ._.'
p307
aS'HAHAHAHAHAHAHAHAHAHA!'
p308
aS'AH! ITS THE BIG BOUNCING INFLATABLE GREEN BALL!!!!!!!!!!!!!'
p309
aS'What happened to Sean?'
p310
aS'i <3 pinus!!!! '
p311
aS"@DJUnion09 kevjumba can't even touch Sean, he's not a natural like Sean i \nlike the nigahiga's original group better than now"
p312
aS'@courtney444102 he bleached his hair because his whole team for some \nkarate/kiung fu (whatever) bleached their hair blonde and he had to fit \nin:P he explains it in some of his first videos. Check this channel out \nthis guy saved loads of his old videos that got removed due to copyrighted \nmusic! :D JonSuperWii is his channel name!'
p313
aS'this is better than the actual song'
p314
aS'looking through all these old vids... i miss these days they were awesome~ \nin general not bc your vids arent funny anymore bc they are ^^ sorry you \ncan blame my ADD lol :D'
p315
aS'funny mother pwned'
p316
aS'@MaDie1168 he went to college, i dont know where, but its too far from Ryan \nto do vids'
p317
aS"Thumbs up if you're watching this is 1893"
p318
aS'SEAAAAAAAAAAAAAAAAAAAN D: ! '
p319
aS'The very last part was so damn stupid'
p320
aS'Did u dye ur hair Ryan?'
p321
aS'@courtney444102 this was made b4 he bleached it '
p322
aS'i remember seeing this before i knew who niga higa was... and this will \nalways be one of my favorite videos lol'
p323
aS'@maxomega3 they cant make videos together anymore, because Sean went to \nsome college and Ryan stayed (something like that) Sean poppes up in Ryans \n2million (or 3million) subscribers video & I think he sais what happened in \nthe description i cant remember o_O'
p324
aS'no TEEHEE???'
p325
aS'I lost 146.7 brain cells'
p326
aS'His name is Sean'
p327
aS'@DJUnion09 wat happened to sean?'
p328
aS'whos the other guys name not ryan but the other guy'
p329
aS'hahahaha fucking halirious. he should make more videos like this '
p330
aS'even though i luv this video i think i got dummer'
p331
aS'what happen to Sean'
p332
aS"I haven't heard the original version and already I prefer this one!"
p333
aS'thumbs up if you want sean back!!!!!!!!!!!!!'
p334
aS'i actual do feel more stoopider '
p335
aS'Im watching this in year 3000'
p336
aS"He is a success! He's rich, he has nice homes, and he made a 10-Year Old \ndeseased kid's dream come true!"
p337
aS'whoa i was cross eyed at 2:29 i thought there was 3'
p338
aS'Uhhh uhhhh... 1x1=11 yadarb'
p339
aS'DAE DEE DAE'
p340
aS'What the fu......'
p341
aS'He wants the D!'
p342
aS'YES'
p343
aS'wow. look at the process. from nigahiga with a bad camera in 240 p to 2011 \nwith like 480p and up'
p344
aS'YTF is yesterday tomorrow forever :| '
p345
aS'"i made a fart" "dippity day dippity day"'
p346
aS'NigaHiga marathon in the middle of the night :D'
p347
aS'dede in filipino means b****....'
p348
aS'Yo Ryan! Why do some of your older videos like this not have a teehee in \nthem? i believe i remember that you saying that all of your videos have a \ndifferent "teehee" in them? And don\'t use the A.D.D. excuse!!! haha'
p349
aS'@mrlegopenguin23 i miss the bad qualitys especially if this kind of humor \nis behind it'
p350
aS'Ryan, can i have your Nay-nee-deae?'
p351
aS'Man there parents must be ashamed I mean like for real retard asain u have \nall just witnessed it'
p352
aS'i listened to this and the real song at the same time. took a minute to get \nthe timing right but totally worth it'
p353
aS'i mean sean : / '
p354
aS'where is Sean Fujiyoshi now ? and why aren`t they making videos anymore? '
p355
aS'Leave it to the youtube community to thumbs up dumb ass comments like \nyours. Way to go'
p356
aS"where's sean now?"
p357
aS"Memories :')"
p358
aS'this my freinds theme song '
p359
aS'@footballman10000 whats wrong wit asians '
p360
aS'1:40-1:58 is the funniest'
p361
aS'@MaekinTehCakez bit**'
p362
aS'Holy shit!!!RWJ!!! | | | \\/'
p363
aS'HAHA OMG the end is win xD'
p364
aS'sooooooooo funny hahahaha'
p365
aS'i miss the old nigahiga'
p366
aS'hey nigahiga spoof that song Friday by rebbeca black'
p367
aS'keep pressing numbers 1-9 while the vid is playing u get a funny effect :)'
p368
aS'LULZ'
p369
aS"next time you make your version of songs, can you put and exclamatiion mark \nso I know that it's a song??"
p370
aS"I've never seen this one!"
p371
aS"ooww make videos like this again :'("
p372
aS'If YOU LOVE NIGAHIGA thumbs up!'
p373
aS'@a3har101 its still 2011 you fool'
p374
aS'LAG!'
p375
aS"You know something's wrong when a Parody song rhymes better than the \noriginal song.... and it even made more sense than the original video... at \nleast what these guys are saying are the Truth... "
p376
aS'@JORG380 YOU ARE A RACIST YOU BASTARD!! SCREW YOU!'
p377
aS'ryan looks better without brown hair... :]'
p378
aS'description lyrics'
p379
aS'so true'
p380
aS'YOU ARE A RACIST!!!! WHATS WRONG WITH YOU YOU BASTARD?!'
p381
aS'I miss Sean :('
p382
aS'@DJUnion09 what happened to him?'
p383
aS'dibety day dibety day lololol'
p384
aS'whack-a-sean!!'
p385
aS'wow i havent seen this in forever miss the old days man'
p386
aS'lol i made a fart, ddae dibididae dae dibidedaaee xD'
p387
aS'@johnerichards100 ikr lol'
p388
aS'im eating rice :)'
p389
aS'``DAYYYDEE DAAAAAAYYYYY``!!! :p'
p390
aS'There should be a love button cause this awesome its fun looking at his \nolder vids'
p391
aS'lol i actually danced 2 this'
p392
aS'Hey Ryan I have something to tell you... YOU ROCK!!! I HAVE ALL YOUR SONGS \nON ITUNES !!! all of them but Its 7 am and i go back to sleep...'
p393
aS'In pretty much all of his old videos, the top comment is something along \nthe lines of "thumbs up if your watching in 2012!" '
p394
aS'anyone else read the tags? :)'
p395
aS"you're*"
p396
aS'Sooo daaam blooond\xee\x84\x87\xee\x84\x87'
p397
aS'look at the dislike bar it is the same size like your dick '
p398
aS'2,877 people are so damn stupid.'
p399
aS"@MrBrandon453 That's Sean! :)"
p400
aS'Hei Ry :P i totally still say tha word retarded.. cuz i got probs XD >< \nlol.. but i just thought itd benefit u to bring this to ur attention... ur \npretty big now bro. u might want to consider taking this vid down, as it \nmight offend your dev dis/delayed persons& their proponents. jus sumthing \nto consider <3.'
p401
aS'IKR?!'
p402
aS'4 million subs u did it Ryan u are fucking awesome'
p403
aS'@MomoRawrsYouForever No **** I know that e.e'
p404
aS'@jokerjaker1 LOLOLOLOLOLOLOLOLOL'
p405
aS"i\xef\xbb\xbf was watching how to be gangster with my snuggo,and the i dropped my bi \nbam bop,so i had to use my shamwoohoo to clean it up,but i realized i had \nto go to the store so i got my ipod human filled with\xef\xbb\xbf my childrens bop and \nleft. I used my\xef\xbb\xbf iNavigator to\xef\xbb\xbf\xef\xbb\xbf guide me, and i ended up at Carl Jr.'s \neating a Portobello Mushroom Burger. Then someone called me on my Nexus \nPhone, and because\xef\xbb\xbf of hook on fonik i\xef\xbb\xbf realized that i had to\xef\xbb\xbf go home \nbecause my FadEx package was coming. It was\xef\xbb\xbf my TeeHee\xef\xbb\xbf Band"
p406
aS'no its not the others got removed '
p407
aS'@footballman10000 someone likes having asian boys blow this faggott =) '
p408
aS"i don't care if you worry about it. It's my opinion and yeah you don't have \nto cry becourse of some shit like this"
p409
aS'XD OMG LMFAOOOO XD'
p410
aS'damn you guys are gonna put soulja boy outa buisness :P'
p411
aS'lol im going through every video that theyve made cause i missed like 53 of \num and i want to see them'
p412
aS'@TheKingdomfan123 yeah thanks (:'
p413
aS'I want a nigahiga shirt!'
p414
aS'I MISS SEAAN !!!'
p415
aS'@ZiggyGreen123 they go to different schools. cuz they go to college and \nryan got all the fame and sean didnt. but they made like 40 min movie'
p416
aS'omg im only seeing this now,, this is so awesome and true,,, soulja sucks, \nhe SHOULD be lucky if even one fan wants to talk to him'
p417
aS'omg! this is tooooo funny!!! i lvoe ittt!! :P '
p418
aS'@iPuREikilla me too! I want a Niga Higa shirt! :)))'
p419
aS'Dumb'
p420
aS'2778 people are so damn stupid'
p421
aS'lmfao this video makes me burst out lauhging!!!!'
p422
aS'nigahiga never say thank you to ppl when they say i love it '
p423
aS'0:44 lol hahaha'
p424
aS'i peed myself with seans dibededay'
p425
aS'what happen to shean hes not in anymore videos'
p426
aS'Thumbs up to all who searched 2 girls 1 cup. :D jk lol'
p427
aS'Omfg lmfao xD ahh you guys are effin awesum :=D and yur videos are \nhilarious <3.'
p428
aS'lmao! love it! 2 girls and a cup! wow! goin to UH at Manoa right now! Love \nur vids! Keep it up!'
p429
aS'oh, that sucks coz sean is funny too'
p430
aS'too funny!!! omg. i love this video!!!! any other song spoofs? '
p431
aS'LOL '
p432
aS'@War10ckfull big inflatable green ball you mean'
p433
aS'Lmfao'
p434
aS'wat ever happened to sean?!!'
p435
aS'I love that you always bring the green ball :) I love it!! '
p436
aS'@Louisroxsox look just sit down with ur legs closed and itz the V that u \nsee down there...if you no wat i mean. itz the same with the guys'
p437
aS'This is my ringtone for my Siblings :) lol'
p438
aS'soulja boy is so damn stupid like day dee day'
p439
aS'Kono kyoku wa, yori orijinarudesu. Sore ga yori ri ni kanatte!! K\xc5\x8dry\xc5\xab d\xc5\x8di \nsuru baai wa oyayubi! XD'
p440
aS'i love all of u videos u guys r so funny '
p441
aS'@ilbinoblacksheep WHAAAAA??? JK LOLOLOLOLOLOL!'
p442
aS'i made a fart daydibiddiday'
p443
aS'This song has been stuck in my head for two weeks straight!!!!! I Love It! \n:P'
p444
aS'well it is a basic beat with stupid rap lyrics song and this parody is \nfunny as'
p445
aS'@blumoon102 hes in college at oregon sadly i wish he werent =(('
p446
aS'even if they did u cant say u didnt enjoy urself while they did ^_^'
p447
aS'Do you have the disease called, Distol Uranium Masticular Bi Acetone \nSystolic Shit? help us find a cure!'
p448
aS'2807 people are so damn stupid -__-'
p449
aS'Dafaq did I just read ? Seen , sean , scene....'
p450
aS'Hahahahaha So fucking funny!!'
p451
aS"What happened to Sean and that green ball you always used? I don't think \nyou explained to us specificly about Sean. o.o"
p452
aS'Fuck You -_-'
p453
aS'Haha yank the camel toe'
p454
aS'he is like... 17 in this video? O.O :D his hairs is weird'
p455
aS'This should be aired on the radio xDDD'
p456
aS'4,598,065 views with 240p quality '
p457
aS'watching these older videos is actually a form of nostalgia, takes me back \nto freshman year of highschool :D'
p458
aS'so damn catchy *YAY*'
p459
aS'I want this as a ringtone!!!! blaahhh'
p460
aS'i think i actually got dumber....nope never mind its just me'
p461
aS'You guys are so funny , after 2 and a half year u still get daily comments \n(y)'
p462
aS'I fucking hate thumbs up comments.'
p463
aS'No dont Crank Dat. YANK DAT CAMELTOE.'
p464
aS'ur video badass... '
p465
aS'2771 ppl like soulja boy lool'
p466
aS'@0snow1in2august3 .__. all i have to say is. SO DAMN STUPID!!!!!!'
p467
aS'youtube classic'
p468
aS'haha roflmfao this is funny i never get tired of it, but u shud bring sean \nback!!!'
p469
aS"Lol one part of 'day day' Sean moves his boobs up and down \xee\x90\x92 so hilarious!!!"
p470
aS'ryan, can you be a spartan?'
p471
aS'this is so damn stupid and i like it'
p472
aS'Lol'
p473
aS'lmao '
p474
aS'dear ryan can you make a video about the matrix'
p475
aS'2,758 people are so damn stupid and this song offends them'
p476
aS'We WANT SEAN BACK '
p477
aS'LOL i showed mi mom this and she started cracking up and she doesnt even \nthink alot of things is funny so this must rly b funny'
p478
aS'haha i love all of your videos.If you vissit my channel do not take my name \nseriously'
p479
aS'haha i like this version better'
p480
aS'gibbaga gibbaga'
p481
aS'@santascaresme2 Nah soulja boy is more like O.o :or: e.o'
p482
aS'THIS IS SO FUNNY! can we be friends im one of 120 elyias friends '
p483
aS'Dear Ryan; Can you bring Sean back? Thanks :)'
p484
aS'Nohoho... No reminds of 2g1c next time, pls :@'
p485
aS'two words awe some'
p486
aS'soula boy is like 0.0 im like^.^ and my moms like X.x'
p487
aS"See I don't understand how 2758 people can hate this lease people are so \nfing funny xD"
p488
aS"@Mistergameandwatch1 lol i've watched them all like 5 times. i'm obsessed:)"
p489
aS'i finally watched all his vids!!!'
p490
aS'soulja boy is a fag'
p491
aS"what happend to sean? he's not in your videos anymore D:"
p492
aS'LOL'
p493
aS"don't you just love 2:30 ryan's face is so cute and they dance funny "
p494
aS'im trying to look for the first person to comment i just cant fine it!!'
p495
aS'This came out on my 17th birthday!'
p496
aS'hahah soulja boy really sucks :D'
p497
aS'Where is Sean Fujiyoshi????'
p498
aS"You two are so inspirational nigahiga and sean =) I have a major sense of \nhumour in everything but everyone seems so damn serious these days and you \nwonder why they're unhappy most of the time gosh don't be so boring lol \nserious is fine but all the time c'mon it's like a job that you don't like \nbut get paid for"
p499
aS'Ryan, have you ever thought of putting out a CD? I would buy it!'
p500
aS'Ryans hair lol'
p501
aS'lol i actually danced 2 this '
p502
aS'Caution hater below!'
p503
aS'Day'
p504
aS"he's eighteen in this video"
p505
aS'i cant believe nigahiga subscribed to my channel, tnx mann :D'
p506
aS'0.o what?!'
p507
aS'University happned'
p508
aS'LOL popular like 2 girls 1 cup'
p509
aS'@MrLoco57'
p510
aS'how can you not understand it, all he says is YAA TRICC YA'
p511
aS'@MrSmileyNumber1 haha soo truee lol'
p512
aS'hahahahahaha.. souljaboy just got abused .. ROFL'
p513
aS'i made the lyrics! but im never gonna put dat crap on youtube!'
p514
aS'AWESOMENESS AS ALWAYS!!! XDDD'
p515
aS'big bouncing inflatrable gren ball rockz'
p516
aS'Dear Ryan, can you be a rockstar?'
p517
aS'NigaHiga > Soulja Boy'
p518
aS'Dear Ryan, can you be a pirate?'
p519
aS'@MexicanMan551 '
p520
aS'Hey Ryan you should make some of those shirts for fans man cuz i really \nwant one. and u will make alot of money plz make some of those T-shirts for \npeople.'
p521
aS'@iFlossyJoe he actually has add so do ii'
p522
aS'@prinschelli91 i think cuz he was in wrestling they dyed their hair for a \ntournament'
p523
aS'lol did you actually slap him? sounds so real ! your like my youtube \nidoll!!!'
p524
aS'r they mkin fun of dave days and solja b?? so dm stupid days??'
p525
aS'@iFlossyJoe yeah this was offensive'
p526
aS'so damn funny'
p527
aS"I love this song! Acually, I love all of nigahiga's videos. He is a true \ncomedic genius and I think he should pursue a career in comedian."
p528
aS"people that keep hatin' on this video dont watch it because he has ADHD too "
p529
aS'Just like 2 girls 1 cup! Lolz!'
p530
aS'love that green ball hahaha ;D'
p531
aS'@xRiioTz Well I got the 4,016,863rd view, and its funny because for both of \nus, NO ONE GIVES A SHIT.'
p532
aS'soulja boy just got PWNED!'
p533
aS'So funny but the timing is off. Just helping.'
p534
aS'XDDDDD'
p535
aS'hey can u make into a downloadable version just that #awesum:)'
p536
aS'4000000th view =D im soo awesome'
p537
aS'0:47'
p538
aS'the song is funny is a stupid and idiotic way'
p539
aS'240p lol'
p540
aS'thumbs up if your watching this in 2069 '
p541
aS'@Angelika08gagafan EVERYONE WHO SEES YOUR COMMENT IS WATCHING THIS IN 2011. \n.____. why are you thumb up whores so fucking dumb'
p542
aS'@kiwwi223 u wrote "awesomeLESS" but i think u mean awesomeNESS! lmao'
p543
aS"They all want the D, it's a lot funnier to say today"
p544
aS' dee dee!!!'
p545
aS'Where is my IQ?'
p546
aS"hey man I'm retarded and find this... i like CHOcolate milk"
p547
aS'Brown hair? 0_0'
p548
aS'(I made a fart) Daybededay Daybededay xD'
p549
aS'WRONG RYAN MOVED TO CALI '
p550
aS'and there goes my intellegence derp...'
p551
aS'@fuzepanic123 he went to a different college apart for ryan'
p552
aS'@footballman10000 i bet its small...'
p553
aS'Its my first time watching this video. this wasnt here before, right? I \nmean after youtube removed some of his videos.'
p554
aS'@SuperSochoa he did, it was "7 am and i go back to sleep" :) the end'
p555
aS'Ryan had blonde hair back then.'
p556
aS'An old video of Nigahiga. ;p'
p557
aS'it way better then the original version!'
p558
aS"I can't believe this was only 4 years ago O_O"
p559
aS'\xd8\xa7\xd8\xaf\xd9\x8a\xd8\xa8 \xd8\xa7\xd9\x86\xd8\xaa \xd8\xb3\xd8\xae\xd9\x8a\xd9\x81 \xd9\x88\xd9\x85\xd9\x82\xd8\xb7\xd8\xb9\xd9\x83 \xd8\xb2\xd9\x8a \xd9\x88\xd8\xac\xd9\x87\xd9\x83'
p560
aS'this iz soo funny this iz better than yahhh trick XD'
p561
aS'\xd8\xa7\xd9\x86\xd8\xaa \xd8\xb3\xd8\xae\xd9\x8a\xd9\x81 \xd9\x8a\xd8\xa7\xd8\xa7\xd8\xaf\xd9\x8a\xd8\xa8 \xd9\x88\xd9\x85\xd9\x82\xd8\xb7\xd8\xb9\xd9\x83 \xd8\xb2\xd9\x8a \xd9\x88\xd8\xac\xd9\x87\xd9\x83'
p562
aS'nerd=best'
p563
aS'Your funny'
p564
aS'Where can I buy a nigahiga T-Shirt?? they Rock!!!'
p565
aS'i find ryan is a better rapper then sean seans never in his videos anymore \nso damm stupid!'
p566
aS'Man you guys rap GOOD. XDDDD this is hilarious. :DDDD'
p567
aS'i Hate soulja boy he is so retarded how the hell did he get a record deal \nanyway i rather listen to charlie and he doesnt even sing.!'
p568
aS'omg so friggin awsome!'
p569
aS'so damn stupid!day! so damn stupid!day! so damn stupid!day! so damn \nstupid!day!day! so damn stupid!day! so damn stupid!day! so damn stupid!day! \nso damn stupid!day! day! dammit ya guys are so F*cking \nawesome!!!!!!!!!!!!!!!!!!!!!!!!!!'
p570
aS'ROFL DEH DEH DEH'
p571
aS'DUDE'
p572
aS'Lol when I heard this... my brain went blank'
p573
aS'EPIC'
p574
aS'soldja boy<kid cudi'
p575
aS'HILARIOUS'
p576
aS'omg that is funny. i LOVE ALL your videos!! you rock man!'
p577
aS'dafsjgnd'
p578
aS'Teehee!! Nice song lolz (Stop putting comments to ask ppl to go see your \nchannel WTF!!)'
p579
aS'haha cool check out my videos and please subscribe'
p580
aS'So Damn Stupid DAY!!!!'
p581
aS'Debededay debededay!!!'
p582
aS'DEH DE DEH'
p583
aS"you're an inspiration."
p584
aS'so jdm'
p585
aS'oh wow :) ok uhh.. i like ur hair Ryan'
p586
aS'Old vid still hilarious'
p587
aS'DAY DEE DAY!'
p588
aS'ok..'
p589
aS"i cant even stand Soulja Boy's ugly ass but man i love this song, i have \nthis on my mp3 lolz"
p590
aS"so damn stupid indeed! i'm talking about the song... not ryan and sean"
p591
aS'best song ever!!!!!!!!!!!'
p592
aS"@prinschelli91 How would we know? And hwo cares about his hair? it's the \namazing person that counts :D"
p593
aS'He actually didnt move to Hawaii, he never left Hawaii, when Ryan moved to \nthe main land Sean stayed back to do more schooling as around that time he \nwas accepted into a film school (if I remember his Draw My Life video well \nenough) and so he left Sean and everyone in Hawaii and then only recently \ndid Sean decide to move to the main land to not only be closer to his best \nfriend but also do whatever it is he is doing.'
p594
aS'WTF is a cameltoe'
p595
aS'Suggestion: get Sean for another retarded song, those were the best, i \nstill remember all of the 2008 videos hahahaha'
p596
aS"I've never seen this one! hahahaha"
p597
aS'@0snow1in2august3 how does it does like ADD'
p598
aS'ahaha....so funny...and tru...'
p599
aS'THAT QUALITY but this brings back memories xD'
p600
aS'I wonder why he bleached his hair? I think he looks cuter with black;) -3'
p601
aS'haha seans so funny 0:43'
p602
aS'"Again we don\'t hate soulja boy!!!" Well Yall Should His Songs Are So Damn \nStupid & They Do Get On My Nerves'
p603
aS'made me stupid'
p604
aS'lol today i was doing an exam then i listened to this yesterday and it was \nlike i dunno how to do this paper and then i was thing i was so stupid \nlikedaydeeday Llol'
p605
aS'He went to engineering school.'
p606
aS'0:22 voice crack FTW!'
p607
aS"yeah , me too. Mainly because of comments like these. People just don't \nhave a sense of humor. This video is pretty creative and takes a while to \ncome up with and record. Why do you feel the need to say someting negitive? \nIt's people like you that I worry about. "
p608
aS'sean is hot'
p609
aS"That superman song er watevr it's called makes me want to stick my head in \na toilet"
p610
aS"ahaha. boppin' alligators is totally better than souljaboy"
p611
aS'nigahiga you RULLLLE'
p612
aS'if numeracy=100 what does mathamatics???? lol any way yh good vid'
p613
aS'Haha that was great!'
p614
aS'i am losing braincels \naaaaaaaaaaaaaaaaaaaaaaaaaaaaaaaaaaaaaaaaaaaaaaaaaa!!!!!!!!!!!!!!!!!!!!!!!!!!!!!'
p615
aS'does anybody notice how in some vids he has either half-black and \nhalf-blonde hair, blonde hair(kind of), or black hair? I dunno I just sorta \nnoticed it. Anyways....nigahiga is hilarious.'
p616
aS'lol you just screamed out so bizarre lol'
p617
aS'i feel like listening to that soulja boy song now listening to this one. \nbut still lmfao good job'
p618
aS'hahahhaha!!!!'
p619
aS'i love this lol'
p620
aS'lol does rly everyone know 2 girls and 1 cup ? xD ?? ??'
p621
aS'day day! =D'
p622
aS'i want to put this song in my ipod! so funny most the video :D'
p623
aS'luv the color of ur hairs :D'
p624
aS'its so awsome how you write your own stuff'
p625
aS'LOL ownage 2:40'
p626
aS'funny man'
p627
aS'my head hurts'
p628
aS'Lol @ liltude'
p629
aS'This is why Asians are sooooo much cooler than Blacks. LMAO.'
p630
aS'"I made a fart" :D XDDD'
p631
aS'Thats stupid in the most fucking hilarious way!!'
p632
aS'awcome de ,de de, deedee'
p633
aS'lmfao.'
p634
aS'heehee'
p635
aS'lol'
p636
aS'so thats where the "interview" came from'
p637
aS'lol soo funny <33'
p638
aS'I thought you hated music with stuff just repeating in it. Remember that \nrant you made? XD omg anyway your funny'
p639
aS'is their hair green?'
p640
aS'lol'
p641
aS'lol still funny in 2010'
p642
aS'teehee!'
p643
aS'nice song and very funny love nigahiga'
p644
aS'u watched 2 girls one cup?? roflmao'
p645
aS':)'
p646
aS'Hell yea soulja boy sucks donkey dicks'
p647
aS"If everybody thought like me you wouldn't even sale 5... lmao... gotta love \nSean."
p648
aS'where did shawn go???'
p649
aS'awwwww 2 girls and 1 cuo is so naste'
p650
aS"Im not trying to be rude, and i love all of ur videos, but acting like a \n'handicapped' person wasnt too funny to me. I have a brother with autism \nand 3 cousins who are 'handicapped' and i found it offending. It was a \nfunny video, just be more careful not to offend ppl in ur other videos."
p651
aS'thumbs up if u are watching it in 2012'
p652
aS"I don't know why so many people fucking hating like did he ever do anything \nto you and for those people that say his parents are ashamed of him like \nyour not his parents and Do you even know,no so Stfu"
p653
aS'i love you ryan! i watched all of your videos! honest!'
p654
aS'ahahhaha very funny '
p655
aS'4 years later, still makes me laugh xD'
p656
aS'worst of your videos ever'
p657
aS'EPIC PARODY!... DEH?'
p658
aS'i love this song nice u guys are halarious'
p659
aS'hello!!!!'
p660
aS'i swear u guys are genius! LOL keep it up NIGGAAHIIGGAA'
p661
aS'lmfao rotfl wtf itz stupid bt funni'
p662
aS'Wtf? Um okay lol. I hate soulja boy he stupid.'
p663
aS'haha i like when ryan slaps sean haha'
p664
aS'The two girls one cup part was damn funny.'
p665
aS'Lol...'
p666
aS'was this the same quality as how to be gangsta and how to be emo? i heard \nit was like shitty quality like more crapy than this this aint that bad \nlike its clear and stuff'
p667
aS'"Hey Asian boy" LMAO!!!!!!!!!!! I saw this a long time ago and had to watch \nit again xD.'
p668
aS'LOL soula boy..but the song they are making fun of is so stupid it deserves \nthis lol'
p669
aS"that's true, he didn't. it's a good thing you pointed that out, so people \ncan stop saying that they dissed souljaboy. they LOVE him!"
p670
aS'iknow'
p671
aS'soo cool i love it'
p672
aS'HAha. I love this! I watch it more then I probably should:)'
p673
aS'guy in the white shirt looks like a asian version of leonardo decaprio, now \ni know who he reminds me of :D yay'
p674
aS'pause @ 1:37'
p675
aS'id agree mrawsome1197'
p676
aS'Bbbdebbbde lol'
p677
aS'check out my funny video. its just a preview the real video is way more \nfunny but the preveiw is worth watching.xD'
p678
aS'haha his face at 39 secs.'
p679
aS"Hey, nigahiga! I'll have to admit, you're one cool guy for being so famous \non YouTube! Why don't you come visit my channel sometime? :)"
p680
aS'lmao'
p681
aS"Hey, nigahiga! I'll have to admit, you're one cool guy for being so famous \non YouTube! Why don't you come visit my channel sometime? :)"
p682
aS'roflmao!!! popular like 2 girls 1 cup haha'
p683
aS'hooray for the giant green ball!'
p684
aS'nice song'
p685
aS'@muizerific no one gives a crapp about your comment !!!!!!! they \nRock!!!!!!!!!!!!!!'
p686
aS'hahhahahahahahahah so fuking funnnnnyyyy where did soulja boy go?'
p687
aS'are u stupid? ryan and sean never said this was shit'
p688
aS'LOL!! xD AWESOME SPOOF!! xD'
p689
aS'the intro scared me. i jumped out of my seat'
p690
aS'so funny I put it as a favorite and thanks for subscribeing me'
p691
aS'love it'
p692
aS"you're awesome:D"
p693
aS'da da de............................hilarious'
p694
aS'nice lol xD'
p695
aS'Damn...DAMN...Damn'
p696
aS'omg this song is better then ANYTHING soulja boy has ever come up with'
p697
aS'lmfaoyou guys neever disapoint me x}'
p698
aS'no teehee'
p699
aS'hahahahahahahah:D Love Love Love Love Love<3'
p700
aS'Fantastico.'
p701
aS'Omagad. I really did lose part of my intelligence. @_@ DX'
p702
aS'love it!!!!!!!!'
p703
aS'where sean'
p704
aS'KOOL , and odd'
p705
aS"@JonnyBoyGir hey now that's a bulb above my head! LOL"
p706
aS'omg this is so funny!!!! AWSOME!!!'
p707
aS'3 WORDS 4 U MY FAV SONG HOLA!!!!!'
p708
aS'nice copy'
p709
aS'Cooooll<3'
p710
aS'Omg, 2:30 is hilarious!!!Lol'
p711
aS'i miss sean ( :'
p712
aS'i like pop rock its awsome'
p713
aS'Hilarious shit ever'
p714
aS'cool..XD'
p715
aS'i like this alittle bit but not so much'
p716
aS'you should make a spoof justin biber'
p717
aS'why is it out of sync now?'
p718
aS'hhaha souljaboy dis xD'
p719
aS'u guys should make a remix for this is why im hot by mims'
p720
aS'if u follow ryan on twitter he sad he just moved abck into hilo in hawai!!!'
p721
aS'reatared ..... but fucking funny ... i really like it but the idea is \nstupeid and u did it well ... keep this funny things up'
p722
aS'I feel the same way...lol.'
p723
aS'both of you are sooooooo awesome and funny. you guys will both make a \nawesome and tpo 1 asain reality show in comedy time or idk well yu guys \ncould!!!!:D:)))GOD BLESS YOU GUYS!!'
p724
aS'hahah @ how he had the fork and knife 1:56'
p725
aS'what the buck?'
p726
aS'LMFAO'
p727
aS'that was so funny i shit my pants'
p728
aS'They really sound asian.and no im not being racist cuz im asian. Tee Hee'
p729
aS'wow'
p730
aS'i like the slap part ^^'
p731
aS'1:43-1:44 is so NERDY'
p732
aS'yahhh by soulja boy'
p733
aS'rofl'
p734
aS'\xe2\x82\xac\xe2\x80\xb9\xe2\x80\xba\xef\xac\x81\xef\xac\x82\xe2\x80\xa1\xc2\xb0\xc2\xb7\xe2\x80\x9a\xe2\x80\x94\xc2\xb1\xe2\x81\x84\xe2\x80\x9a\xc2\xb7\xc2\xb0\xef\xac\x82\xc3\x86\xc3\x9a\xcb\x98\xc2\xbf"\xc3\xa6\xc3\xa6\xc3\xa6\xc3\xa6\xc3\xa6'
p735
aS'LOl u deserve a slap LOL i laugh that gotta hurt'
p736
aS"Soulja Boy=One hit wonder of the 00's (although he did manage to comeback \nwith 'Kiss me Thru the Phone')."
p737
aS'this would be how i describe my brother'
p738
aS'freakin hillarious'
p739
aS'wwooooooooww that is.....wow'
p740
aS'DEH!!!'
p741
aS'proof that rap takes no tallent'
p742
aS'the fuck are u guys doin lol !!!'
p743
aS'day day day ditch'
p744
aS'lmfao i love it hahahahahahahahahahahahahahahahahahahahaahahahahahahahaahaha'
p745
aS'omg ur accent is so cute =3'
p746
aS'COOL ..XD'
p747
aS"Finally someone who don't like this dumb shit that soulja boy considers \nmusic. Ryan and Sean rule!!"
p748
aS'funny realllllllllyyyyyyyyyyyyyyy funnnnnnnnyyyyyyyyyyyyy'
p749
aS'that is so funny'
p750
aS'@ucanblogitnicky Tho, Rucka rucka gets banned all the time.'
p751
aS'Lolzzzzzz soooo funny I wish your funny music was on iTunes'
p752
aS'wow man u dont hate souja boy '
p753
aS'Thank u i hate this dong and i had to lip sinc for theater arts'
p754
aS'I MISS SEAN !! ;/ WHERE IS HE NOW ? '
p755
aS'yo i like solja boy but i like dis song way betta! i want it az a ring tone!'
p756
aS'day dee dayLOL 10-5'
p757
aS'Lol this made me smile after a horrible day at school, Ryan you always make \nme laugh or smile with your vids -3'
p758
aS'Yep. So damn stupid!'
p759
aS'just wondering y hasnt sean been in any recent vids?'
p760
aS'R...O...F...L...!!'
p761
aS'man this video is so damn stupid!'
p762
aS'Oh yea... HOTT lol xD you guys are cool'
p763
aS'this and housewuld have to be my favourites buty did how to be nerd and \nthat get removed'
p764
aS'lol'
p765
aS'Ahahahahahaha'
p766
aS'you do realize they parodied him because they love his music?'
p767
aS'LOL. Grab a camel toe!!!'
p768
aS'hahaahhaha well funnyy day dee day haha foflmaoooo x'
p769
aS'HAHAHAHA LOOK AT SEAN 1:13 HAHAHA LMAO'
p770
aS'LMAO'
p771
aS'lol "i made a fart" "dibbiddy dae dibbiddy dae"'
p772
aS'Day Day xD Read The INfo Box Before You Comment'
p773
aS'lol wut are yu talkin bout? this vid is funny as hell.get it the name of \nthis vid is "So damn stupid" amd i said this vid is "So damn stupid!" lol \nyur a dumbass XD'
p774
aS'I cant believe that this video id doo old and people still comment on it... \nwell.... im just sayin...'
p775
aS'nice vid lmfao'
p776
aS'Funniest Shit ever'
p777
aS'0:39 - 0:44 sean was funny'
p778
aS'i got a headache while watching i think i became stupider than i am already'
p779
aS'Lmao! I was singing along to this! Day Dee Day! xD'
p780
aS'I totaly agree!!!!! Ps u awesome!'
p781
aS'yo i have something 4 u 2 here: DAYDAYDAY'
p782
aS'DAE'
p783
aS'heyy what ever happened to sean?'
p784
aS'2 GIRLS 1 CUP LAMO'
p785
aS'funny as hell!!!!!!!!!!!'
p786
aS'lol nobody ever said XD makes yu cool. ive been using it for years! lol and \nby saying it makes only yu look cool,makes yu look lame! Goodbye!'
p787
aS'lmao wtf hahaha i think this song totally explains soulja boy'
p788
aS'lol'
p789
aS'how am i the dumbass cuz yu didnt understand wut i said? XD i swear You \nYoutubers are funny as fuck!'
p790
aS'i love this video but its so sad that the quality of your new videos has \ndeclined so far from that of the classics such as this'
p791
aS'i got a picture wit soulja boy'
p792
aS'man this video is awesome makes me laugh everytime i watch it'
p793
aS'Soulja boy, **** you! Asian boy, Keep it up :D'
p794
aS"it's ur b-day present from him lol"
p795
aS'lol this so funny. I hate when people talk in a continuous bluur of "uuuh" \nand softly spoken consonants, and assume I can understand them.'
p796
aS'yep souljaboy dont know what the HELL is real rap is'
p797
aS'LOL 0:44 XDD'
p798
aS'NIGAHIGA ALL DAY!!!'
p799
aS'damn this video is..... so damn stupid\xc2\xac\xc2\xac'
p800
aS'That was so damn stupid! (just kidding i was trying to make a pun =P)'
p801
aS'cool'
p802
aS'wow day dee dee? lol'
p803
aS'It got removed because of copyright'
p804
aS'Haha. Still cracks me up. I miss Sean though.'
p805
aS'man i miss Sean and that green ball'
p806
aS'lol this is funnier and better than the real version. luv all ur vids'
p807
aS'2 girls one cup part was SO funny'
p808
aS"I was actually looking for a video with no recent comments so if I \ncommented you could actually read it :) but couldn't find any, so I'm here \nlol, I miss you Ryan, but I know you are a grown-up now, and don't have \nmuch time to make videos and all that, so I have to suck it up :) love you \ny miss you famous Asian guy from YouTube ;)."
p809
aS"Hey, I can't understand what the hell hes saying, so I'm gonna write \nsomething new for y'all. Man sometimes his songs are so stupid and it gets \non my nerves and I don't want to hear it. So stupid like DayDeeDay!"
p810
aS'lol lov it and i agree dat song yaaah trick yaaah is so anoying it is \nbasically like their rap 2 a tune lol'
p811
aS"lol so funny && freakin' awsome:D"
p812
aS'just like 2 girls 1 cup! BURN! that was fucking beautiful...'
p813
aS'dude thats funny'
p814
aS'He should make for videos with sean..... i miss sean...... not that i dont \nlike you ryan i do'
p815
aS'LMAFFFOOOOOOOOOOO'
p816
aS'Yeah Trick Yeah'
p817
aS'this made me die of laughter. (L)'
p818
aS'soulja boy - yahhhhhhh'
p819
aS'My name isboob.'
p820
aS'yes'
p821
aS'that was awesome!!!!'
p822
aS'Omg!!Daii Dee Daii'
p823
aS'this vid is cool. why does sean always gets slapped'
p824
aS'I KNOW RIGHT!!!'
p825
aS'all of there vids are over a million WOW!'
p826
aS'ik its sooo grose'
p827
aS'So Damn Stupid, performed by ryan higa, sean fujiyoshi, and te big bouncing \ninflateable green ball!!!!!!!!!:)'
p828
aS'very funny Yank dat cameltoe is funny too!'
p829
aS"he gets loads of friend requests on facebook,myspace and so on so he can't \nadd you in 1 day..."
p830
aS'lol! luv it'
p831
aS"I never seen it, but I bet it's scarier than the Exorcist movie."
p832
aS'Bahahah,i loove this (:'
p833
aS'OMG!you are awesome!xD'
p834
aS'fuken luv it!!!!!!!!!!!!!!!!!!!!!!'
p835
aS'Remix of parody of soulja boy - yahhh'
p836
aS'AWESOMMMEMEEEEEEEE :DDDDDDDDDD'
p837
aS"this song is stupid. but i don't think nigahiga think rap is stupid. Soulja \nboy shouldnt be classified as rap. i reckon nigahiga like real rap music."
p838
aS'hahahahaaaa omg XDDD LOL 1:54'
p839
aS'they are amazing i cant wait until their next video :)'
p840
aS'hey this video is asome'
p841
aS'this is wut i say about the phillies cuz they goin to lose the world series'
p842
aS"You're good at rapping Ryan =)"
p843
aS'UhhhK 2 girls and 1 cup again lol it was gross.'
p844
aS'haha i miss sean :('
p845
aS'day de day lolololololololloloolololol'
p846
aS'i love the retarded face hahahaha!!!!!'
p847
aS'day!!!!!'
p848
aS'Awesome freakin hilarious!'
p849
aS'omg i love this vid its so funny'
p850
aS'he made a fart shiit ! he made a fart shiit ! he made a fart shiit ! shiit !'
p851
aS'D!'
p852
aS'day!deedee'
p853
aS'my names sean !!!'
p854
aS'hell yeah'
p855
aS'And*'
p856
aS"I guess 50 people can't"
p857
aS'Subscribe to me...'
p858
aS'lololololo'
p859
aS'Just shut up MEG! If thats your name'
p860
aS'saddly yes and it only gets worse durring the vid.'
p861
aS'this is better than the original song -soulja boy sukks'
p862
aS'parody of ya trick ya - souljah boy'
p863
aS"I think i just lost some brain cells. haha. But its true soulja boy's music \nis dumb."
p864
aS'u guys r awesome!'
p865
aS'1:12 so fckn funny'
p866
aS'lmaoo woww heyy im asainn too anddd youhh guyss aree soooo funny my sister \nis like in love with youhh guyss.!!!'
p867
aS'when i first saw this video i was cracking my a** off!'
p868
aS'apparently it is'
p869
aS'=P i love this. especially wen sean does the tit thing ha'
p870
aS'shut the fuck up'
p871
aS'best bestes ever man!!!'
p872
aS'there right RAP IS GAYY!!!!!! its for a bunch of ppl who repeat the same \nthing OVER AND OVER!!!! go u guys!!~subscribes~'
p873
aS'Awesome !!!'
p874
aS'Day!'
p875
aS'lol, he has a girl friend(maybe its a sister) and has 45 videos all with a \ncouple million views. wat do you have? a computer and a job at mcdonalds?'
p876
aS'Lol u cant even Spell Douche bag Right u artard dont hate on nigahiga if u \ncant spell it right'
p877
aS'my frend definition of rap is some black dude (or eminem) fitting every \nword in the dictionary into a 3 min song'
p878
aS'lol soulja boy suck ball she cant sing and this song is so perfect for his \nass. and 2:23 is so freakin funny!!!!'
p879
aS'same here c;'
p880
aS'ryan and sean whats up with your hair man lol'
p881
aS'you guys rock'
p882
aS'isant that sick that some people actuly get off on that 2girls 1 cup video \ni know i cant spell:( lol'
p883
aS'2girls1cup, its not funny its the nastiest thing every created by 2 humans'
p884
aS'lol'
p885
aS"their videos r so funny idk y ppl r hatin on them just cuz they r youtube's \n#1"
p886
aS'haha whack-a-sean'
p887
aS'I love your remake.'
p888
aS'ya i was tyred whan i typed this so i like dont spell check nothing'
p889
aS'yo im an asian dude and you guys are awesome and ive seen all your videos \npeace'
p890
aS'awsome song DUDE !!!!!!!!'
p891
aS'wat do u mean by "2 girls and a cup"'
p892
aS'so when its 2013 we dislike this?'
p893
aS'wow i didnt know 2 girls 1 cup was that old'
p894
aS'Is this on iTunes??'
p895
aS"AAH IT'S TOO CATCHY, GET IT OUT OF MY HEAD"
p896
aS'Is that a threat mate?'
p897
aS'Lol hows this so damn stupid if 44,518 likes this?!lolz :3 :3 :3 :3 :3 :3 \n:3 :3 NAH NAH NEW NI :3'
p898
aS'@TabshiMagical Only on 2012 the end of the world because he was visiting'
p899
aS'lmfao soulja boy rocks'
p900
aS'nice men '
p901
aS"i'd send this to soulja boy if i could, thumbs if you would too "
p902
aS'ahahahha xP'
p903
aS'you both always colour your hair the same... interesting... True Love?...=P'
p904
aS'original YTF'
p905
aS'hey ryan, some bitch called " soulja boy" made a parody of youre song'
p906
aS'nigahiga had over 65 OR MORE videos in youtube but youtube removed it for \nno reason. maybe there is a reason but i dont know'
p907
aS"@lovelife8888 Ryan lives in LA apparently w/ Dominic Sandoval (D-Trix) and \nKevJumba. he was majoring in nuclear med (i believe in Nevada). but he \nswitched to film (its in his youtube story thing) so i don't know if thats \nwhy he's in LA now and Sean goes to college in Oregon still as far as we \nknow. "
p908
aS'thumbs up if u are watching this is 2012 '
p909
aS'LMFAO i wish you did hate soulja boy cuz this would be the toughest vid \nagainst him'
p910
aS'Wow...it did make me stupider.'
p911
aS"I think you're jealous of them. Rap sucks, anyway, and so does Soulja Boy."
p912
aS'this is so funny man my sides hurt'
p913
aS'you guys need to make more videos making fun of retarded people.. haha it \nwas awesome!'
p914
aS'better than the actual song lol'
p915
aS'wow this is my third time watching this video lol cant get it out my head \nlol'
p916
aS'i loved it was hilarious'
p917
aS'wait...did u mind ur business??'
p918
aS'this is awsome'
p919
aS'omg i feel old...'
p920
aS'You are >=l'
p921
aS'hey asianboy YAH TRICK YAH'
p922
aS'1:50 -1:52 funni!'
p923
aS'dude ur vids r like hella funny keep making them'
p924
aS'soulja boy - yaahhh.'
p925
aS'i think thats just you'
p926
aS'Funny'
p927
aS'this is sooo funny lmfao'
p928
aS'1:13'
p929
aS'dude but SERIOUSLY what happened to shawn? he just vanished!'
p930
aS'better than soulja boys version. this is better'
p931
aS'Best spoof ever!!! xD DAYDIDAY! XD'
p932
aS'Tee Hee! :)'
p933
aS'One of my fave vids theyv made'
p934
aS'nvm oh yeah the vid was awesome'
p935
aS'ryan was right....the song did make me feel stupider...lol...this is \nhilarious..'
p936
aS'this was so funny.'
p937
aS'D: I feel stupid!'
p938
aS'sean i really like your day-da-da-dah-ay'
p939
aS"he says stupid so many time that's why u feel stupid"
p940
aS'haha :)'
p941
aS'funny'
p942
aS'i mean "sean"!'
p943
aS'omg 2girl 1 cup.. 1:56 thats fukn halarious dudes LOL'
p944
aS'i feel... STUPIDER!!! YAAAAAAAAAAAAAY!'
p945
aS'what is the original?'
p946
aS'yea but i hate soulja boy lol'
p947
aS'this isnt gay ur mom is gay, not ryan\'s mom but "vamprano"s mom'
p948
aS'hey you use the retarted singe'
p949
aS'lol nice vid'
p950
aS'Wait. . .did you read the "More Info"?'
p951
aS'dey de dey!'
p952
aS'this song has a point it is annoying and stupid'
p953
aS'@verhappytoast how?'
p954
aS'by the way... ytf stands for yesterday, tomorrow, forever. so you just sayd \nforever twice.'
p955
aS'Sean Fujioshy :D'
p956
aS"This isn't funny"
p957
aS'soulja sucks!!!! great song'
p958
aS'Nigahiga shirts?'
p959
aS'i agree solger boy should not be so famous he is so dumb'
p960
aS'LOL at the wack a mole part at the end :)'
p961
aS':P what happened to all the older videos???'
p962
aS'haha, i love this! sean is a better retard! love all of your videos'
p963
aS'copyright -.-'
p964
aS'lolz XD nice rap i like it'
p965
aS'racist'
p966
aS'V!VA ASIAN RAP .. LOOOOOOL'
p967
aS'please send me a copy of this song and the ninja song too....i want sooo \nbad....pretty please with a cherry on top'
p968
aS'u racist puff'
p969
aS'dude how do u come up with this shit im impressed'
p970
aS'XD i like how you really wrote a song'
p971
aS'WOOOOOOOOOW I THINK IT REALLY DID MAKE ME STUPIDER lol jk'
p972
aS'wow!ryan ur so hot!I luv you!i just want to kiss you'
p973
aS'the 2 girls and 1 cup part was soo funny'
p974
aS'even after one year this shit owns xD luv u guys <3333'
p975
aS'soulja boy suks ass!!!!!'
p976
aS'lmao'
p977
aS'view it on JonSuperWii`s channel.He has alot of nigahiga videos'
p978
aS'thats gotta be the dumbest comment anyone has ever typed'
p979
aS'This song is so true and funny. Nigahiga deserves to have a record deal. \nHes just like Wierd Al Yankovic but so much better. Keep Making good songs'
p980
aS'i agree should try and spell'
p981
aS'Both of you are good in rapping! XD'
p982
aS'lol...'
p983
aS'Daybededay Daybededay my favorite part'
p984
aS'love the nigahiga t-shirts!!'
p985
aS'2 girls & 1 cup XDDDD lmao'
p986
aS'day dee day!!'
p987
aS'i member when u first started makin vid they were awsome still r'
p988
aS'yeah same'
p989
aS'Da Di Da! lolz. cleaver!'
p990
aS'oo so funny......2:33 i like it and 2:38'
p991
aS'LMAO! XD 1:56'
p992
aS'i didnt mean u'
p993
aS'0:24 xD'
p994
aS"LOL you're hard fail :D Nigahiga pwns."
p995
aS'real nice'
p996
aS'you are so funny xD and ryan you are so cute <3'
p997
aS'lol'
p998
aS'i want this song as a ringtone! that and the ninja glare!!!'
p999
aS'lol insted of cranking that, lets yank the camel toe!! LOL'
p1000
aS'Why hate Ryan and Sean? They make the song better.. They the best...'
p1001
aS"This is an old vid for nigahiga, yet it's still funny! Their own lyrics are \nhilarious! DEYDEYDEY!!!"
p1002
aS'thats bogus when he hita his hand on his chest thats really offensive to \nalot of people'
p1003
aS'I can c alot of ppl have watched this recently like yesterday and stuff and \nthis vid was made in 2008. Ryan ur videos never get old!'
p1004
aS'da da deee lmao'
p1005
aS'lol wtf soo restarted but hella funny X[)'
p1006
aS'you are right 2,787 people just lose their intelligent '
p1007
aS'i get really scared when sean touches his... you-know-whats.'
p1008
aS'ryan went to cali to go to collage and sean didnt make it in or went to a \ndifferent school ryan and explain it it one of there videos'
p1009
aS'thats your real hair colour ?'
p1010
aS'AGREEEEEEEED'
p1011
aS"all my friend luv soulja boy i only hav one song of his on my phone and \nthats kiss me thru the phone cuz there's no YAAAH YAAH B!#@H IN IT \n...YAAAAAAAH!"
p1012
aS'haha:) that was epic'
p1013
aS'muahahahahaha'
p1014
aS'Lol! Five stars for the two girls one cup reference, Hilarious!'
p1015
aS'lmao this is sooo funny luv ur rapping'
p1016
aS'no offense burt ur hair before looked like bullcrap now it looks cool'
p1017
aS'u are so funny!!!!!!!!!!!!!!!!!!!!!!!'
p1018
aS'daydeeday means retarded'
p1019
aS'nigahiga has the most subscribers,it beat fred.'
p1020
aS'haha'
p1021
aS'Lmfao I love his spoofs.... Hah Yankin Dat Cameltoe muss hurt doe..... Lol !'
p1022
aS'YANK DAT CAMEL TOE!'
p1023
aS"Well, I'm not taking sides!"
p1024
aS'this better than the real one..'
p1025
aS'Sweet vid'
p1026
aS'you should make a spoof of his song the one where they go "yeeeaaaahhhhh, \nturn my swwaaggg onnnn!!!" because honestly, that\'s the only part of the \nsong that anyone can understand, lol.'
p1027
aS'i love this song its freken funny'
p1028
aS'0:29 big bouncing inflatable green ball lol'
p1029
aS'i think he looks cuter'
p1030
aS'hey theres no way that i can download that song on lime wire or something?? \nlol'
p1031
aS'they are doing comedy its not their doing it cuz its cool or sumthin like \nur thinkin that they think they can do it and michael cant....no...its a \ncomedy that ryan and sean are doing'
p1032
aS'yall stupid as hell!!!! lmfao'
p1033
aS'lolololololololololololololololol!'
p1034
aS'SO DAMN TRUE!:D love it'
p1035
aS"so you do the crotch grab in one video,then practically call michael \njackson an alien in another video? i don't get your logic."
p1036
aS'sean is funny in glasses'
p1037
aS'yo asian boy can i hav a day de day this is hillarious'
p1038
aS'Hahahahahhaa'
p1039
aS'omg so lol sean can i have ur day dee day so funny and its so cool how its \nsound'
p1040
aS'so damn good!'
p1041
aS'solja boy is a dumbass. lol'
p1042
aS"lol i understand like half of solja boy's words but most of thhe time i \ndont get it. GOOD VID!!!"
p1043
aS"I wanna ask you Soulja Boy How the hell you became a star. You don't even \nrap or sing, You just shout its so bizarre. How you sold so much copies, \nThat everybody wants to jive. If everybody thought like me, You wouldn't \neven sell five."
p1044
aS'i wish i was as good as u are'
p1045
aS'LOL I LOVE THE "SO DAM STUPID! DEY! -retarded face ROFL-"'
p1046
aS'LOL omg u are funny WTF NO TEEHEE WERE IS THE TEEHEE'
p1047
aS'haaaaaaaahahahahahaha oh man that is funny'
p1048
aS'Solja boy cried on twitter'
p1049
aS'y was he using a tothbrush for a phone im a big fan'
p1050
aS'HAHAHAAH Lol ;p'
p1051
aS'no teeheee!!!!!!!!!!!1'
p1052
aS'Awesome!'
p1053
aS'lol i realy hate rap but i like this song lol realy funny'
p1054
aS'He looks better with black hair xD'
p1055
aS'This song/vid makes me laugh every f**king time ! It`s the best spoof ever \n=) I can watch it over and over again, and it still makes me laugh \nuncontrollably ! Gr8 job dudes ^^'
p1056
aS'i miss the old days with ryan!!!!!'
p1057
aS'u need 2 get a life'
p1058
aS'HELLZ...EW'
p1059
aS'fk u! sorrii 4 not knoing wat it means! im only 12 dick-shit!'
p1060
aS'what the fuck was soulja boy thinking'
p1061
aS'hey doesint hate soulja boy read description... your so damn stupid \nlolllllll'
p1062
aS'so much better than the original'
p1063
aS'ha "ur poppy learn just like two girls and 1 cup" lols'
p1064
aS'honestly you remind me of someone'
p1065
aS'haha this rules! Deey Deey!'
p1066
aS'i want to download this song !'
p1067
aS'that was fuckin amazing man'
p1068
aS'avgn and nigahiga owns youtube!'
p1069
aS'YAHH BITCH YAHHHH'
p1070
aS'lol 2 girls at one cup'
p1071
aS'make a CD'
p1072
aS'dey dee dey'
p1073
aS'lol rofl'
p1074
aS'2:18 LOL! i made a fart day day dee!'
p1075
aS'Ryan is cute!!'
p1076
aS'3,583,000 th view!'
p1077
aS'there right about soulja boy'
p1078
aS'lol'
p1079
aS'dude that was amazing cause its true lol'
p1080
aS'Loolz Funni Funni'
p1081
aS'you guys rule'
p1082
aS'nice video n i like it bt its not funny to make fun of the mini ppl \n(retarded)'
p1083
aS'HAHAHAHA LOLZ NICE!!!!!!!!'
p1084
aS'omg but i luv souja boy and ryan higa but soja boy made so much money off \nthat song and ryan isnt getting any money off his vids im not trying to \nhate im just saying that there r diffrent opinions'
p1085
aS'XD...lmao'
p1086
aS'congratssss'
p1087
aS'lol'
p1088
aS'lol so funny'
p1089
aS'Judith, why are you asking?'
p1090
aS'this is the best song ever'
p1091
aS'lol i a gred with ryan higa'
p1092
aS'lol hahaha u da blondie! loll...nope...well...i got a test tmro...lolll but \ndas all...bum:P'
p1093
aS'XDDDDD genius ~'
p1094
aS"lol hahaha guessin van's gona read this...so lol...hey:P"
p1095
aS'lolz ya i am omg blondie dnt u got anythin betta to do? xD'
p1096
aS'lol i made a fart'
p1097
aS'day day dee... dibbidy gay'
p1098
aS'lolz again lmao'
p1099
aS'dey dee dey l0l omg hahahahaha a++++++'
p1100
aS'i wish i was as funny as you guys! keep this awesomeness up!'
p1101
aS'lol'
p1102
aS'take off those ugly highlights'
p1103
aS'=3 haha so funny X3 luv ya guys'
p1104
aS'hahaha your the best '
p1105
aS'I know must af the words.. Is that a bad thing... :)'
p1106
aS'I loved the part when they say "da" and Sean sticks his finger up his \nnose!! XD'
p1107
aS'sean is in it'
p1108
aS'i liked the part when he siad DEEAAA'
p1109
aS'2 girls one cup LMFAO!!!!!!!!!!!!!!!!!!!'
p1110
aS'sean nice shirt lol xD'
p1111
aS'HATERS'
p1112
aS"yes lol I've never seen it but my friend described it for me O__o"
p1113
aS'ryan is soo cute n sxy!'
p1114
aS'Stupid ass its a spoof'
p1115
aS"You seriously don't wanna know google it... But don't blame me if you are \nsick. I could tell you that they are lesbians and they do disgusting things \nyou wouldn't see coming!"
p1116
aS'wat does 2girls 1cup meen i heard of pplz talking bout it but idk'
p1117
aS'1:56 FUNNY SHIT'
p1118
aS'Ha! OMG THIS IS HILARIOUS! P.S can sumone plz tell me what happens in \n2girls1cup? i know its about lesbians but i hear its disgusting'
p1119
aS'yah why would u guys watch 2 girls and a cup?'
p1120
aS'so damn stupid deh deh'
p1121
aS'mega hater'
p1122
aS'i agree i hate rap i like rock!'
p1123
aS'is there a real song for this?'
p1124
aS"LOL!! I don't like soulja boy"
p1125
aS'Sorry forgot the ?'
p1126
aS'i thought he was SAYING ADD LOL!!!'
p1127
aS'man why they gotta make fun of him'
p1128
aS'HA that was funny'
p1129
aS'Awesome. :D'
p1130
aS'Disgusting would be a MAJOR understatement... O__o'
p1131
aS'this is wicked'
p1132
aS"it's digusting."
p1133
aS'haha funny stuff'
p1134
aS'fuck u ........ u r a bad person =('
p1135
aS'read the description'
p1136
aS'LOL. All Di-bi-dibity-DAY nice.'
p1137
aS'its THAT bad'
p1138
aS'o yeah and nigahiga is tellin the truth in the discription so u guys shut \nup about that he hates soulja boy u assholes. JUST READ U BLIND ASSHOLES'
p1139
aS'i have download link for this'
p1140
aS"I think I'm too scared XD"
p1141
aS'oh...wow..O_O'
p1142
aS'I just found out what 2girls and 1 cup is... Brb going to be sick! that was \ndisgusting'
p1143
aS'its called spoof, theyre just kidding'
p1144
aS'lol...so funny!!!!!'
p1145
aS"it's a nasty video showing two girls makin out, crapping in a cup, putting \nit in their mouth 'nd making out again 'nd then puking on it 'nd making out \nagain. it's grosss! ineva seen it buht we made my cousin watch hah."
p1146
aS"It's a joke your just taking things seriosly."
p1147
aS'sorry 4 being lazy-but can someone tell us in a comment?---i dont want any \ngross things coming up,so id rather one of yous tell us please (: ryan and \nsean rock!'
p1148
aS'cool story bro'
p1149
aS'LMAO ! haha TEE-HEE this is so funniiee DayDayDee so damn stupid lol'
p1150
aS'yes its called YAHHH BITCH by Soulja Boy'
p1151
aS'u gotta admit soulja boys music sucksss alot its doesnt suck but that its \njust annoying and makes people retarded'
p1152
aS'funny'
p1153
aS'yo i wonder if Soulja boy saw cameltoe and damn stupid if he will be like \nREALLY pissed or Laughing? makes you guys wonder huh'
p1154
aS"@iFlossyJoe i have a cousin who has autism, and i didn't find the video \noffending in any way... you should try and relax and not take stuff like \nthis personally"
p1155
aS'@FinalFantasyLover69 i THINK you can go on there page, and the might have \nthere own website and yea good look finding one'
p1156
aS'soulja boy: day dee day?'
p1157
aS'\xe2\x96\xac\xe2\x96\xac\xe2\x96\xac\xe2\x96\xac\xe2\x96\xac\xe2\x96\xac\xe2\x96\xac\xe0\xae\x9c\xdb\xa9\xdb\x9e\xdb\xa9\xe0\xae\x9c\xe2\x96\xac\xe2\x96\xac\xe2\x96\xac\xe2\x96\xac\xe2\x96\xac\xe2\x96\xac\xe2\x96\xac SHUT UP AND WATCH THE VIDEO!!! \xe2\x96\xac\xe2\x96\xac\xe2\x96\xac\xe2\x96\xac\xe2\x96\xac\xe2\x96\xac\xe2\x96\xac\xe0\xae\x9c\xdb\xa9\xdb\x9e\xdb\xa9\xe0\xae\x9c\xe2\x96\xac\xe2\x96\xac\xe2\x96\xac\xe2\x96\xac\xe2\x96\xac\xe2\x96\xac\xe2\x96\xac'
p1158
aS"@ZiggyGreen123 lol you spelt sean wrong ! it doesn't matter but sean is \ngone because they go to different colleges. example sean is still in Hawaii \nand ryan is in California"
p1159
aS"yeah solja boy makes money... he's a grown fuckin man. ryan isnt, and i am \nsure he makes money from his dvd..... so think. =) Ryan I just watched your \nmovie last week and its hilarious. great job :P"
p1160
aS"Ryan's Smile at 1:50 is hilarious"
p1161
aS'lmao u guys rock'
p1162
aS'love this song'
p1163
aS'lol so funny lmao'
p1164
aS'wats up with ryans hair??!!'
p1165
aS'LoOoOoOoL !!!!'
p1166
aS'So Damn Stupid- Dayy, so damn stupid- Day dayyy! XDD LMAOOO AWESOOMME WOOT \nAZN WILL RULE THE WORLD!'
p1167
aS'thats awesome!'
p1168
aS'daydeeday'
p1169
aS'My I.Q. just droped 2 ponts.'
p1170
aS"whos the stupit one? you! you hate nigahiga now that's f*ckin stupid! oh ya \nand... SOLJA BOY IS THE STUPITTEST GUY IN THE WORLD! F*ck that niga solja \nboy! Bow to Nigahiga The Best Of The Best!"
p1171
aS'lol'
p1172
aS'So.Fucking.True'
p1173
aS'daydeday u make me wanna smack souja boy'
p1174
aS'u should put all of ur movies in minutes characters all in one and ur \ncharacters that u made up. lollyxx'
p1175
aS'Lol! i love it! XD'
p1176
aS'lmfao! awesome!!'
p1177
aS'lol great video'
p1178
aS'fuck yea'
p1179
aS'dibbly day dibbly day....haha. :))'
p1180
aS'XD! dayday'
p1181
aS'Nigahigaaaa FTW'
p1182
aS'o.O'
p1183
aS'lol'
p1184
aS'lol 5 stars !'
p1185
aS'TRUE .'
p1186
aS'LoL u Guys r so0Ooo Funny like KevJumba and JumbaFund LOL Yay!! Daydee Day \nI made a fart Daybededay Daybededay LOLOLOLOL Laugh'
p1187
aS'day dee day lmfao'
p1188
aS'deh dee deh!!!'
p1189
aS'lol nice :)'
p1190
aS'LOve it and loling so much i cant even type properly...'
p1191
aS'You guys rock !!'
p1192
aS'hahaha 5 STARS'
p1193
aS'how did u do this ?!'
p1194
aS'hahahahah very funny!!'
p1195
aS'yeah he was just college, but he is back now '
p1196
aS'I really hated that original solja boy song. .'
p1197
aS'@Moosterton lol, then DONT watch like a good boy....... the song started, \nmy friends were singing and.....: everybody - NOW IM FELLING SO FLY..... me \n- Like a good boy! like a good boy, nah nah nah nah now im following the \nrules.. everybody - wat the heck r u singing?'
p1198
aS'wat song did u spoof'
p1199
aS'dam man these music videos u do is freaking awesome XD'
p1200
aS'He moved to Hawaii'
p1201
aS'wow'
p1202
aS'did u make ur own lyric if u did wow mad good'
p1203
aS'lol he was hitting sean on the head'
p1204
aS'Asain people this days!!!'
p1205
aS'lol'
p1206
aS"i only liked this because it's incomprehensibleness goes so well with the \nvideo :D"
p1207
aS'I love you guys you guys are so funny and I just read through all the \ncomments on this video and you are right about the Haters thing LOVE YA'
p1208
aS'i dont no wat to say wtf or awsome'
p1209
aS'omg that was ummm stuped but funny i guess lol man'
p1210
aS'lol...two gurls one cup...hehehe'
p1211
aS'wow!!! u guys r hilarious!i couldnt stop laughing!!!!!!!!!!!'
p1212
aS'GReeeeeeeeeeaet'
p1213
aS'"You\'re popular just like two girls and one cup." ROFLMAO!!!!!!!'
p1214
aS'i LOVE this song.....its so funny'
p1215
aS'way better than any soulja boy song ever made'
p1216
aS'so danm stupid! lol'
p1217
aS'I made a fart... that was hilarious'
p1218
aS'were is the : "TEEEHEEEE !!" ??'
p1219
aS"fuck thats so true, iv'e always hated souja boy and his repetitive songs. \nit pissed me off"
p1220
aS'ok this is awesome and stupid'
p1221
aS'This really is stupid but its so funny!!!! LOL'
p1222
aS"actually soulja boy does suck ass. i'm dearly glad tht they made this vid \nbecuz soulja boy songs might make u dance but it has no meaning and he's \nfuckin stupid"
p1223
aS'lmao'
p1224
aS'2 girls n one cup,,,,,,thats just grosss!!!! hahaha but funny vid!'
p1225
aS'ROFLMFAO'
p1226
aS'haha'
p1227
aS'woah. this is AMAZING. (: hay asian boy; can i date you. (;'
p1228
aS'DayDeeDay! LOL!'
p1229
aS"it looked like they were lip singing a bit!but the funniest part was when \nRyan said i'm hearing all of this,and you deserve a slap,and when sean was \nbeing choked!LOLERCOPTER!"
p1230
aS'Yhurrr actually sooo cool!! Luv Ur Videos =]'
p1231
aS'DAYYYY LOL THIS WAS SO FUNNY'
p1232
aS'These words are great wizdom xD'
p1233
aS'haha'
p1234
aS'this is stupidly funny'
p1235
aS'love it funny as hell totally showing this to my friends'
p1236
aS"that wasn't funny that was hilarious"
p1237
aS'lol that is so damn stupid! well i have a request for you...why dont you \nmake another music video with our favorite fluffy bunny Sean!'
p1238
aS"AWESOME nigahiga u should make fun of all souljafagboy's songs"
p1239
aS'da da deeeee so daum stupid'
p1240
aS'stop it at 0:40 ryan looks retarted! but, i still love him!'
p1241
aS'where is the teehee?????? but the vid was so funny!'
p1242
aS'I thought it was sooo stupid until I heard the verse which actually made \n200% accurate statements about soulja gay, excuse me soulja boy'
p1243
aS'Damn, U guys are good!'
p1244
aS'lmao love you guys muchly your vids own the world nigahiga FTW'
p1245
aS'YES'
p1246
aS'that was hilarious,stupid, and cool at the same time'
p1247
aS'I completely agree...hahaha Good Video'
p1248
aS'greatest video of the world 2 be made'
p1249
aS'TEEHEE?!?!?!?!?!'
p1250
aS'lmao funny'
p1251
aS'well down very nice vids lol i like yank dat cameltoe'
p1252
aS'that was rly catchy haha love it <3'
p1253
aS'that was sooo stoopid but rue!!!!!!!!!'
p1254
aS'AHAHAHA'
p1255
aS'y did ppl flagged this video'
p1256
aS'lol \xe2\x98\x85\xe2\x98\x85\xe2\x98\x85\xe2\x98\x85\xe2\x98\x85/\xe2\x98\x85\xe2\x98\x85\xe2\x98\x85\xe2\x98\x85\xe2\x98\x85 stars'
p1257
aS'ummm am i the only one who doesnt get the incident with the cup and fork at \n1:54 ? probably :D nigahiga rocks.....'
p1258
aS'lol your popular like 2 girls and 1 cup!'
p1259
aS'somehow i like his old hair better'
p1260
aS'souljia boy got famous off yotube at 1st .'
p1261
aS'god i luv u guys so much! ur so funny!'
p1262
aS'nice'
p1263
aS'U LOOK LIKE A BABOON! COOOOL'
p1264
aS'im asian'
p1265
aS'now my little sister runs around the house singing "yahhh" by soulja boy!'
p1266
aS'awesome lmao. i agree'
p1267
aS'you are popular just like 2 girls and 1 cup !? LOL funny as hell'
p1268
aS'It is just a retard noise, to show who "damn stupid" Soulja Boi is.'
p1269
aS'Lmao I Agree'
p1270
aS'ahaha i made a fart'
p1271
aS'it was funny but thats so wrong man u mean'
p1272
aS'LOL (II) pausse @ 2:27 Ryan is funny!!!'
p1273
aS'dude, these guys are great. if you don\'t think so, then DON"T BOTHER \nWATCHING THEIR VIDEOS. no one wants to hear yall complain all the time. if \nyou don\'t like it, go waste your time elsewhere.'
p1274
aS'DAH DEH DAH'
p1275
aS'lmaooo u guys r hilarious'
p1276
aS'lol you dont even rap or sing you just shout its so bizarre! daydeeday!'
p1277
aS'yea the new hair looks like something'
p1278
aS'near the end he was playing "whack-a-sean" lol how do you get that game?'
p1279
aS"You're popular just like 2 Girls and 1 Cup lmao"
p1280
aS'you people are fuuuunny'
p1281
aS'hey, can i get your yahh! dade day!'
p1282
aS'ahaha rly classy rly :D....no..-.- just stfu if u dont like dont comment'
p1283
aS'lmao'
p1284
aS'lmao, i love you.'
p1285
aS'lol'
p1286
aS'i love this'
p1287
aS'so frekkin funny'
p1288
aS'1: 33 is soo funny if u pause it'
p1289
aS'2:38 serious lol xD'
p1290
aS'lol this was really funny'
p1291
aS'lol tru'
p1292
aS'lol i love it <3'
p1293
aS'SOOOO FUN'
p1294
aS'Thats exactly how i feel about my videos.................. but mine \nactually do suck!'
p1295
aS'i made a fart!'
p1296
aS'fuk all the haters nigahiga vids are good'
p1297
aS'hahaha nice'
p1298
aS'no 1:34 is more funny'
p1299
aS'ahhaa I love this song. the endd is fucking hilarious'
p1300
aS"Remember when Ryan still had blond hair and when he made vids with Sean . \nI'm not saying his new vids are dumb"
p1301
aS'ha ha. nice'
p1302
aS'hahhaahaahh lmfao'
p1303
aS'another funny one yo'
p1304
aS'looool it kinda looks as if hes lip singing'
p1305
aS'the first time i had to stop the vid so i could stop laughing XD'
p1306
aS'DAY DI DAY'
p1307
aS'what he said v'
p1308
aS'LMAO ! iDont Like soulja boy cohs his music is reallllyy Annoying , iLOVE \nthis vid !'
p1309
aS'hahaha'
p1310
aS'I MADE A FART'
p1311
aS'"Your popular just like 2 Girls and 1 Cup" thats FAwkign right man :p'
p1312
aS'all their videos are really good i love'
p1313
aS'i made a fart :D'
p1314
aS'thi songis already stuck in my head and thats my first time hearing it'
p1315
aS'eww'
p1316
aS'SO DAMN STUPID DAYDEEDAAAAAY!'
p1317
aS'hahahahahaha man tottaly argree with u soulja boy is da worst'
p1318
aS'i think this one is my favorite out if all of em'
p1319
aS'i miss sean ):'
p1320
aS'man this song is great :D ur version is so much better'
p1321
aS'f@ckin like it'
p1322
aS'ano......'
p1323
aS'lol at 0:41'
p1324
aS'two girls one cup is fuckin sick'
p1325
aS'Daydeeday!'
p1326
aS'lol they look like the muppets when they were running! XD'
p1327
aS'you are 100 times better than soulja boy'
p1328
aS'omg lol'
p1329
aS'so damm funny Lmao de de d'
p1330
aS'agreed.'
p1331
aS'lol 1:48 - 1:51'
p1332
aS'i like 0:37 - 0:50'
p1333
aS'LOL" I made a fart, Dipadaday Dipadaday" XD'
p1334
aS'cool nose picking'
p1335
aS'lmao \ndeeeeeeeeeeeeeeeeeeeeeeeeeeeeeeeeeeeeeeeeeeeeeeeeeeeeeeeeeeeeeeeeeeeeeeeeeeeeeeeeeeeeeeeeeeeeeeeeeeeeeeeeeeeeeeeeeeeeeeeeeeeeeeeeeeeeeeeeeeeeeeeeeeeeeeeee--de'
p1336
aS'lol u guys r my fav!! lol'
p1337
aS'im scared for life...'
p1338
aS'That was a great rap!'
p1339
aS';DDDDDDDDDDD'
p1340
aS'wtf just wtf'
p1341
aS'lolo rofl'
p1342
aS'you guys are officailly my favorite.'
p1343
aS'hey everyone you should wacth the video called evil robots and yo yos,its \ngreat and funny to'
p1344
aS'bahahahah!! '
p1345
aS"You're popular just like 2 girls and 1 cup! lol"
p1346
aS'wtf lol! :) gaa this is too funny'
p1347
aS'u guys r the best... i cant stop watching your videos... do u have aim ryan?'
p1348
aS'l0l 2 girls and 1 cup'
p1349
aS'I love this song! But i miss sean! :('
p1350
aS'@Flankr7 time travel ftw'
p1351
aS'aaaaaaaaaaaaaaaaahahahahhahahahahahaha!! daamn this isss ssssooooo funny \nand true!! XD i love it'
p1352
aS'Ha ha okay'
p1353
aS'yeh man pac4eva soulja boy is ruining hip-hop this vids was funny'
p1354
aS'this is souja boys face 0: he must be mad but you to are right he is so \ndamn stupid da dee da'
p1355
aS'this video is awsome '
p1356
aS"WHERE'S SEAN?!"
p1357
aS'what ever happened to shawn?? '
p1358
aS'what happened to sean??'
p1359
aS':L shiiii , thats awesome =]'
p1360
aS'lol 2:22'
p1361
aS'LMFAO!! Awesome!! You guys rock!!'
p1362
aS'then vomiting on each other'
p1363
aS'love you you rock'
p1364
aS'This should be a cd'
p1365
aS'me either'
p1366
aS'hahahahahaha!!!!! 1:55 - 2:00!!!!! hahahaha'
p1367
aS'his is awesome:) i love :) hilarious!!!'
p1368
aS'SO TRUE!'
p1369
aS'omg 2 girls one cup..lolllll'
p1370
aS'hahahaha xD'
p1371
aS'This is so darn stupid'
p1372
aS'1:50 LOL it looks so real'
p1373
aS'again, niiiiccceeeee'
p1374
aS'ROFLMFAO'
p1375
aS"C':"
p1376
aS'one of the best parts at 1:42'
p1377
aS'@ 1:56 all the guys at my skool execpt the nerds hav seen tht'
p1378
aS'LMFAO!! ;D'
p1379
aS'oh wow'
p1380
aS"this song is better than souljaboy's version !"
p1381
aS'i freaking love yall u guys really funny u should become famous l0l idk if \nu r but yall r really funny i love the video (how to be gangster) rofl!!'
p1382
aS'put your hands up for nigahiga!!! Awesome!!! "So Damn Stupid!" YOU SHOULD \nCOPYRIGHT THAT SONG!!! xD'
p1383
aS'dam.....dat waz a nice rap'
p1384
aS'you guys should have your own cd out with all your songs xD'
p1385
aS'you\'re right, "so damn stupid!"'
p1386
aS'omg when your like hitting his head!! lol thats funny the two girls one \ncup, dayday, the slap and the end'
p1387
aS'dudes, what happened to ur hair??'
p1388
aS"man someone should say'd something about soulja boy :D and here are there 2 \nstars dissin at him ;) like it !!!"
p1389
aS'cool...!!!'
p1390
aS'loll real funnee :D'
p1391
aS'day d day'
p1392
aS'ohyess'
p1393
aS'really cool video just one question: do you speak german? I always \nunderstand: so dass du bist D! xDD'
p1394
aS'LMFAO!!!!!!!!!!! i love it'
p1395
aS"Hey, I can't understand what the hell hes saying, so I'm gonna write \nsomething new for y'all. Man sometimes his songs are so stupid and it gets \non my nerves and I don't want to hear it. So stupid like DayDeeDay! \nllllllllllllllllllllllllllooooooooooooooolllllllllllllll"
p1396
aS'haha awsome :D'
p1397
aS'lmfao...i liked it wen ryan slaped him in the face'
p1398
aS"I don't get the 2 girls at 1 cup bit"
p1399
aS'i made a fart'
p1400
aS'haha this is better then the originalxD'
p1401
aS"i like jewfrodude's fake interview with u using this song. 1 of his \nquestions were: what have u done recently and the vid said: i made a fart! \nits sooooo funny and i love this song!!! =) =)=)=)=)=)=)=)=)=)=)=)"
p1402
aS'Souljah boy your poupular like 2 girls had 1 cup lol funniest part of the \nsong'
p1403
aS'i cant understand it. buti bet if i could then i would be funny, haha'
p1404
aS'umm...... ok then...'
p1405
aS'hahaha you guys rock !!! an i totally understand how u dont hate solja boii \nbut found a fantastic idea for a video keep up the good work'
p1406
aS'Is it bad that i know how the song goes?? and man this is pretty old...'
p1407
aS'omg u guys rock!...i always disliked soulja boy...but i think i like \nthis...lol..'
p1408
aS'Hahaha sean at the end! He bounces off the green ball.. lmao!'
p1409
aS'Me to!'
p1410
aS'i actually like this version better than the original'
p1411
aS'da de da wow this vid is F***** funny i wish i cood subsribe again'
p1412
aS'i mean 1:37'
p1413
aS'ahhh that was so freakin funy i couldnt stop laughing!!'
p1414
aS'All of you are funny... NOT AT ALL JAPANESE OR KOREAN, THEY BOTH ARE \nSINGAPOREAN!!'
p1415
aS'XD lol!'
p1416
aS"lol you're so damn stupit when you don't like this video/musik!!"
p1417
aS'ooo the green ball! XD nice vid'
p1418
aS'i agree with this video. ^_^'
p1419
aS'the old song is stupid . this song beats the old song. you guys rock.'
p1420
aS'1:44'
p1421
aS'goo camel toe!!'
p1422
aS'Its funny because Souja Boy Doesnt rap he just yells out stories and crap. \nHa ha ha ha ha!!!!! =:D'
p1423
aS'DAY? lol roflmfao'
p1424
aS'at 1:40 when he says dayday its kinda out of tune or something like \nthat.... i mean out of the beat.... or out of... you know what... just see \nit god dammit!!! i love nigahiga!!!!!!'
p1425
aS'this was the WORST song EVER sorry soulja boy but i agree with nigahiga on \nthis one'
p1426
aS'lol this shit is funny =)'
p1427
aS'funny lol! when sean got slapped, seemed like it hurts lol'
p1428
aS'freakin hilarious'
p1429
aS'ryan is japanese'
p1430
aS'lol no teehee?'
p1431
aS'de de day de de day......'
p1432
aS"i hate soldja boy. he's sooooooo stupid. his songs are pointless and have \nno beat. and idk what they are for sure, but i think Ryan is part Korean \nand i think Sean is Hawaiian."
p1433
aS'WHACK-A-MOLE 2:33'
p1434
aS'The best :) : P :D'
p1435
aS'Yahhh! by soulja boy'
p1436
aS'I love this!!! <3'
p1437
aS'if want this song as on ur i pod/mp3 player or on ur computer watch my \nvideo!!!!!'
p1438
aS'this is funny'
p1439
aS'the thing that was wrong in this video was 2 girls 1 cup'
p1440
aS'haha'
p1441
aS'whats the song in the beginning'
p1442
aS"it's a spoof... get over it."
p1443
aS'ryan is japanese'
p1444
aS'awesome'
p1445
aS'i love this.'
p1446
aS'LMAO xD'
p1447
aS'that 2 girls 1 cup real video made me throw up'
p1448
aS'hahaahahahahah this is so funny'
p1449
aS'dude dont disrespect soulja boy and sean so dude nuga higa just like in \nyoure hate video well go f u c k youre self 2'
p1450
aS'This is like 50 times better than the real song'
p1451
aS'does 2 girls and a cup mean wat i fink it means??? if so errrrrrr...........'
p1452
aS'Hahahah pause on 2:19!!'
p1453
aS'wait this was 2008.......he said 2 girls 1 cup.......its 2012......why do \nwe find it so fascinating now? lol'
p1454
aS'i like your hair better brown/black :D'
p1455
aS'He has his own channel : Fujiboi '
p1456
aS'u deserve a slap ... lmfao'
p1457
aS'klkl'
p1458
aS"are you guy's really singing this song ? if so you'r great .. ! funny video \nLOL ;D :D :P"
p1459
aS'hahaha lool Funny! :)'
p1460
aS'LOL'
p1461
aS'3,472,025'
p1462
aS'it was alright'
p1463
aS'funny!!'
p1464
aS'Why does this vid only have 3 million views DX this is their best song!'
p1465
aS'LOL ROFL'
p1466
aS'did you use a bad camera? its phasing like one pic to another .'
p1467
aS'Yah trick Yah! lol. Soulja boy is funny! DDD. :)'
p1468
aS'he day day'
p1469
aS'yeah, where can i downlode this song??'
p1470
aS'what song is he making fun of?'
p1471
aS'3,473,439'
p1472
aS'day dit day'
p1473
aS'lawl'
p1474
aS'SOULJA BOY SUCKS NIGAHIGA ROCKS!!'
p1475
aS'hahahaahahaha You guys are so right'
p1476
aS'hahahahha nice dancing'
p1477
aS'so hilarious at 1:49 u deserve a slap I cant stop laughing'
p1478
aS'after watching a minute of this i had to check out the real song.. i \nthought you were making it worse tthan it was (btw i hate soulja boy =P) \nbut after watching about 1 minute of the real video by soulja boy i relized \nthere video might be even more stupid :D nice video nigahiga'
p1479
aS'it ses in da description box....'
p1480
aS'LMAO~'
p1481
aS'Soulja boy is so stupid'
p1482
aS'l0l so funny'
p1483
aS'yes they are'
p1484
aS'cool song , i also kinda hate soulja boy. kiss me thru the phone, that \nruined there fame for me'
p1485
aS'THANK YOU Soulja boy = stupid music'
p1486
aS"I like the interpretation of the song, but 'Soulja Boy' aint stupid tho."
p1487
aS'read up my commet'
p1488
aS'its a satire...'
p1489
aS'dee day dee dee so stoopid do day to!'
p1490
aS'LOL. that is soo funny :P'
p1491
aS'this is like my favorite song EVER!!!!no offense but soulja boy is cute and \ni sort of like YAHHH! well im random with the YAHHH TRICK YAHHH thing but u \nguys are so awesome!!!!i also love the grudge movies in minutes one!!! u \nguys are soooo awesome!! :D'
p1492
aS'LMAO haha i love you guys ;D haha'
p1493
aS':( i would feel bad if is my son would call me retard cus i love a song...'
p1494
aS'lmao!!!'
p1495
aS'awsome lol'
p1496
aS'I love Nigahiga.........=]'
p1497
aS'lmao...pretty good.'
p1498
aS'sooo fuckin funnii hahaha there sooo rite about souja boy!!'
p1499
aS'OMG SUN!!!'
p1500
aS'do you change you hair color?'
p1501
aS'Seeing these all over again:) always fun to watch!! \xe3\x85\x8b\xe3\x85\x8b'
p1502
aS'loal i lovee this song =D im from the netherlands too =)'
p1503
aS"s'ok, i'll do it for you- TEEHEE"
p1504
aS'This is definitely one of his best videos in my opinion. And another thing, \nthis somehow reminded me of my mother.. =______='
p1505
aS'1:58 lol you guys are very funny!!!'
p1506
aS'"jive" ahaa:DD i love dat wuurd'
p1507
aS'u got that right'
p1508
aS'lol click 40 sec and then watch lol'
p1509
aS'HA HA HA this is funny'
p1510
aS'okay...'
p1511
aS"'I made a fart =D' hahhaha xD"
p1512
aS'1:58 lol'
p1513
aS'XDDD'
p1514
aS'thats so funny lol how do u guys come up with this stuff'
p1515
aS'"De De!"'
p1516
aS'lol'
p1517
aS'WELL YOUR SO DAMN FUNNY!!!!'
p1518
aS'funny shit lol!!!'
p1519
aS'he should be the number one! not stupid gay fred'
p1520
aS'Awesome. !! xDD~'
p1521
aS'HAhaha Pause the video at 1:31:D x'
p1522
aS'ahh you guys are HILARIOUS.'
p1523
aS'solja boy u make me so damn sick!'
p1524
aS'What does ADD means?'
p1525
aS'wen ryan and sean rite b4 the end they out the green ball between them and \nbouch off of it TRY IT ITS SOOOOOO FUN, just b carful not to do it outside \ncuz i tried it once and i fell back and scarped me knee soo b carrful P.S \ntry it it is sooooooooooooo fun'
p1526
aS'cant stop laughing =D'
p1527
aS'teeeheee!!!!!!!'
p1528
aS'LOL CAMELTOE LOL'
p1529
aS'heh,heh, lol.'
p1530
aS'i want 2 see your movie ryan higa'
p1531
aS'i effin love this !!'
p1532
aS'Fck SOULJA BOY!'
p1533
aS'ROFLLLL OMFG!ahahahha! omfg! that is LMAO worthy dudes!'
p1534
aS'lol yahhh gyhaaa'
p1535
aS'whack-a-Sean lol. how much to play? still a awesome vid'
p1536
aS'The reason his hair is orange is because in one of his vids (became a \nprivate vod) he was wrestling and his team painted their hair orange'
p1537
aS'that was funny'
p1538
aS'hahaha awsome luv it nigahiga you make the funniest and craziest shit iv \never seen lmao !!!!!'
p1539
aS'no offence but what in the fuck does this have to do with anything'
p1540
aS'once again u guys fuckin make my day hahaha LOL LOL LOL u guys r hilarious \nthnx 4 tha awsome vids'
p1541
aS'ha ha i love this'
p1542
aS'do u say ddd or add'
p1543
aS'look it up. Attention Deficit Disorder. smart one.'
p1544
aS'this guy made a terrible rap song into something funny. by the way what \never happened to hip hop. i guess good music faded away'
p1545
aS'lol!I favorite & rated 5 stars!!!'
p1546
aS'ur popular as 2 girls 1 cup O.o eww it WAS DISSCUSTING'
p1547
aS'why do guys have blonde-ish looking hair?? lol..'
p1548
aS'@a3har101 u know your rite'
p1549
aS'WOW'
p1550
aS'i love it!!!'
p1551
aS'what is the subject of the song?'
p1552
aS'i don get the D word'
p1553
aS'nice'
p1554
aS'how old are you guys ?? :0'
p1555
aS'(Hey Asian Boy, can I) DayDeeDay (Yo Sean, I really like your) DayDeeDay (I \nmade a fart) Daybededay Daybededay (Hey man, I was just wondering can I get \nyour) DayDayDee. So Damn Stupid! (Day) So Damn Stupid! (Day) So Damn \nStupid! (Day) So Damn Stupid! (DayDay) So Damn Stupid! (Day) So Damn \nStupid! (Day) So Damn Stupid! (Day) So Damn Stupid! (DayDay)'
p1556
aS'I Love This Video :)'
p1557
aS'You make me wish i was Asian!!!'
p1558
aS'lol one of ur best movies :D'
p1559
aS'... I cant believe i didnt watch this yet...'
p1560
aS'Love your sence of humor : D'
p1561
aS'NIGAHIGA ROCKS!!!!'
p1562
aS'LMAO need an itunes link or somethin for this too its awesome'
p1563
aS'azn prideee ^^'
p1564
aS'Fuck off. Nigahiga could beat u any day in a comedy contest!!'
p1565
aS"I can't understand what the hell he's saying so im so im gonna write \nsomethin new for yall' lol"
p1566
aS'old times a lot of singing'
p1567
aS'shut the fuck up its fuckin hillarious and like u can do better'
p1568
aS'umm i think fred and nigahiga are both pretty awsome but nigahiga is better'
p1569
aS'2:33 LMFAO'
p1570
aS'lol'
p1571
aS'lol havent heard this in a while couldnt find it'
p1572
aS'yeh'
p1573
aS'Dam this video is funny !!'
p1574
aS'rofl 1:57'
p1575
aS'LOLOLOLOL i like seans face on most of them'
p1576
aS'DayDeeDay!!!'
p1577
aS'lol look at 1:44 and 1:57'
p1578
aS'Oh my.'
p1579
aS'i was talking about the recent ones'
p1580
aS'(Hey Asian Boy, can I) DayDeeDay (Yo Sean, I really like your) DayDeeDay (I \nmade a fart) Daybededay Daybededay (Hey man, I was just wondering can I get \nyour) DayDayDee.'
p1581
aS"all nigahiga's r on my ipod lol they rock"
p1582
aS'ryan is 18 now but idk sean'
p1583
aS'Hahaha This shit is HILARIOUS'
p1584
aS'pause at 2:23'
p1585
aS"I wanna ask you Soulja Boy How the hell you became a star. You don't even \nrap or sing, You just shout its so bizarre. How you sold so much copies, \nThat everybody wants to jive. If everybody thought like me, You wouldn't \neven sell five. And your lucky that you even have 1 fan that wants to talk \nto you. (DeeDayDayDee So Stupid DayDayDoo) This song is so stupid,"
p1586
aS"Retire now, might as well give up. You're popular just like 2 Girls and 1 \nCup! (DeeDayDee) (DeeDayDee) (DeeDay, DayDay, DayDay, Day, Aww Debededay) \nomg awsome"
p1587
aS'GET BACK TO INDIA'
p1588
aS'wow'
p1589
aS'lost hope in humans...'
p1590
aS'of course he puts it on the video that is getting 4mil views if they r so \nfunny y cant they get their own views??'
p1591
aS'i like nigahiga when they werent that famous there stuff is more funnier i \ndont like them now :('
p1592
aS'wtf is this'
p1593
aS'FUCKING ASIANS SUCK MY HUGE HARRY DICK'
p1594
aS'uh, phasing from one shot to another? DURRR, its called editing.'
p1595
aS'nice video ryan -Ray'
p1596
aS'all that crap about soldier boy is so true u suck'
p1597
aS"niga higa u aint gotta lie souljaboy's music is garbage ...really!!! how \nDID he become a star...his all garbage making dumb ass songs.......grabage \nass nigga......ahahahah"
p1598
aS'yahhh is a pretty cool song but i like this one better'
p1599
aS'watch asian people wrestle nigahiga'
p1600
aS'well they really suck now'
p1601
aS'Yes ;D'
p1602
aS'awesome vid guys!!! this was a very funny one with the day dee day and \nstuff and all ur other vids are funny too!! keep making ur vids!!'
p1603
aS'xDDD lmfao haha'
p1604
aS'hahahahaha funny!!'
p1605
aS'NigaHiga is the best'
p1606
aS'nice soooo true i am likin it'
p1607
aS'lol 1:08'
p1608
aS'AHA this is good :)'
p1609
aS'xD LMFAO LOLSZ HAHA JAJA HAJA LMAO HAHA'
p1610
aS'he lives in hilo-Hawai\xc3\x8f'
p1611
aS'NIGAHIGA RULES'
p1612
aS'wow lolz'
p1613
aS'i think this is the best video u ever have made'
p1614
aS'dont forget he a lil faggot'
p1615
aS'SOOOOOOOOOO FUNNY!!!!'
p1616
aS'Cool vid'
p1617
aS'so stupid like daydeeday lol!!!! rotfl \nx99999999999999999999999999999999999999 i made a fart daybededay im hearing \nall of dis nd u deserv a slap lol u guys r so damn funny'
p1618
aS'1:56 lol'
p1619
aS'you guys dyed youre hair the same color? btw awesome vid!'
p1620
aS'where do u live its soo funny'
p1621
aS'so damn funny!'
p1622
aS'no they r best friends'
p1623
aS'dude shuit the fuck up! if he cant take a joke which he should be able.... \nalso... look at description u bitch! get info... they dont hate him!!!'
p1624
aS'R U 2 brothers'
p1625
aS'lol 2 girls and 1 cup :P'
p1626
aS"HAHAHAHAHAHA LOL I can't understand half the things souljia boy says but he \nis cool"
p1627
aS'hey if you stop at 92:27 you will notice that its nothing!'
p1628
aS'NIIIGGGAAAAAAAAAAAHIIIIGAAA is awesome smosh is sweet and fred is retarded'
p1629
aS'haaaaaaa like two girls one cup :P'
p1630
aS'OMG IT REALLY IS SO DAM STUPID!!!!'
p1631
aS'...what is this?'
p1632
aS'wen my video youtube vs myspace gets 1000 views im subbing everyone who \ncommented it COMMENT MUST BE RELAVENT TO VIDEO'
p1633
aS'So Damn Stupid!'
p1634
aS'They make so funny videos!! Plz check mine!!'
p1635
aS'GReat Video,'
p1636
aS'what the'
p1637
aS'You bitches dont appreciate the class that they have. FUCK YOU!'
p1638
aS'yeah wathc my video of my grandma it is funny aunt and grandma'
p1639
aS'LMFAO'
p1640
aS"Hey kids! Remember to read the whole description box located at the right \nside of the screen when watching a video! You won't look like a complete \ndumbass complaining and bitching about things that have already been \ncleared in the description box. And remember kids, education is important, \nand don't do drugs! :D"
p1641
aS'ROFL u did gooddddddddddddddd :]'
p1642
aS'THUMBS UP IF YOU WATCH THIS VIDEO FOR HIS 6TH ANNIVERSARY '
p1643
aS'most gay request on youtube :)'
p1644
aS"I don't know what the f**k are you takling about But it sounds werry funny \n:D Hahahahaha"
p1645
aS'i like the song better when nigahiga sings it'
p1646
aS'Soulja is famus becuz he is black ;)'
p1647
aS'2 girls and one cup is a video of 2 girls eating crap out a cup'
p1648
aS'COPY AND PASTE If you will be one of the people unsubscribing to Fred on \nJune the 1st. FRED SUCKS FOREVER \xe2\x97\x8f\xe2\x96\xac\xe2\x96\xac\xe2\x96\xac\xe2\x96\xac\xe2\x96\xac\xe0\xb9\x91\xdb\xa9\xdb\xa9\xe0\xb9\x91\xe2\x96\xac\xe2\x96\xac\xe2\x96\xac\xe2\x96\xac\xe2\x96\xac\xe2\x96\xac\xe2\x97\x8f NIGAHIGA RULES! His \nvideos are better and more funny! FRED SUCKS FOREVER!'
p1649
aS'that was hilarious! i love u guys! u rock! :)'
p1650
aS'Are youu japanese? cos i saw your second name and it seems to be a japanese \nname..'
p1651
aS"darkcowlord I didn't know soulja boy was a fag"
p1652
aS'oh... sorry didnt see that ^^;'
p1653
aS'im gonna put this song on my dsi'
p1654
aS'Sean "Fluffy Bunny" Fujiyoshi ^_^'
p1655
aS'ROFL!!! this is teh best!!!! go nigahiga!!!!!! your awesome!!!'
p1656
aS'STOP AT 1:40 ITS FUNNY'
p1657
aS'LMAO x 10000000000201101 (^_^)'
p1658
aS'nigahiga fucking rocks!'
p1659
aS'nice one'
p1660
aS'yeah i can'
p1661
aS'LMFAO!'
p1662
aS':] xD'
p1663
aS'the frist one i sead i mean go at 1:42'
p1664
aS'I made a fart:)'
p1665
aS'this is boring but the other videos are much cooler'
p1666
aS'(Hey Asian Boy, can I) DayDeeDay (Yo Sean, I really like your) DayDeeDay (I \nmade a fart) Daybededay Daybededay (Hey man, I was just wondering can I get \nyour) DayDayDee.'
p1667
aS'1:57 =))'
p1668
aS'funny shit at 1:50-1:57'
p1669
aS'hahaha omg u guys are soo funny'
p1670
aS'actually its not to ryan higa or nigahiga it was for someone else'
p1671
aS'haha i actually like ur version better ROFL'
p1672
aS'i love this so haters screw off'
p1673
aS'this is not funny compare to THE REAL COMICS so niggahigga is very very \nboring!!!!!!!!!!!!!!!!!!!!!!!'
p1674
aS'you should a remake of kiss me thru the phone or birdwalk that would be \nhella funny'
p1675
aS'LOL funny'
p1676
aS'so freaking funny!'
p1677
aS'(Hey Asian Boy, can I) DayDeeDay (Yo Sean, I really like your) DayDeeDay (I \nmade a fart) Daybededay Daybededay (Hey man, I was just wondering can I get \nyour) DayDayDee.: haha nice XD'
p1678
aS'i remember 2 girls 1 cup... nasty nasty stuff weirdo fetish peaple'
p1679
aS'OMG i cant stop damn laughin'
p1680
aS'"DayDeeDay!" lol! love it'
p1681
aS'I love the dance at 2:30'
p1682
aS'yes ...yes i can.'
p1683
aS'its sappost to'
p1684
aS'Why the fuck is this funny?'
p1685
aS'So 2 girls 1 cup, was also popular back then.'
p1686
aS'what the fuck is your fuckin hair color? cuz first its black and now its \norange and then its black and then its orangey'
p1687
aS'that comment i wrote was to megatron i love nigahigas video i put it up on \nmy ipod and i think he is hilarious plus megatron was saying his video \nsucks in past comments'
p1688
aS'i like there older video. like when ryan had braces'
p1689
aS'why the fuck isnt this on itunes?!?!'
p1690
aS'ROFLMFAO.'
p1691
aS'I dont think nigahiga needs u to protect him.'
p1692
aS'2girls1cup xDDD'
p1693
aS'hi a lot of his vids got deleted wicch suckz'
p1694
aS'Noone cares about what? What are you replying to me for? Shut the fuck up.'
p1695
aS'love this song'
p1696
aS'Thumbs if your watching in 2011!:D'
p1697
aS'Dam they always make me lough to tears XDDD'
p1698
aS'LOL I love you dude! xD Your vids rock, all of them deserve 5/5 from \neveryone. x3'
p1699
aS'*laughs* well you look at his newest video he has just got 1,000,000 \nSubscribers.. so i guess you are wrong... *laughs again* :D'
p1700
aS'wat is actually dis song title??'
p1701
aS'ESTE SI ES UNA MIERDA DE VIDEO JAJAJA'
p1702
aS'LMAO nicce 5/5... lol'
p1703
aS'what is the title of this song>??'
p1704
aS'hahahaha i love the camel toe part lol!'
p1705
aS'so why do you watch all of them?'
p1706
aS'NICE'
p1707
aS'souljaboy sucks you guy were right and you rock'
p1708
aS'omg!! so damn true. but u didnt have to go so hard lol'
p1709
aS'i love nigahiga and i kindof dislike fred but still he shouldent lose his \nfans :) there both funny :D'
p1710
aS'lol'
p1711
aS'dude wats with that green ball its like in bout all there videos'
p1712
aS'DEJA VU'
p1713
aS"Everybody who agrees that nigahiga is the king comedian on youtube and fred \ndoesn't deserve his popularity, copy and paste this on many other videos so \nwe can show the world you need to subscribe to nigahiga, NOT FRED!!!"
p1714
aS'1:48 is funny'
p1715
aS'XD...'
p1716
aS'soulja boy sucks nigahiga rox'
p1717
aS'i think i lost some too...'
p1718
aS"potala12, what kind of comedian are you if you can't take a joke?"
p1719
aS'LMAO 2GIRLS 1 CUP HAHAHAHA'
p1720
aS'LITTLE HARSH BUT FIGGIN FUNNY! kinda'
p1721
aS'so true'
p1722
aS'funny shit at 1:50-1:57'
p1723
aS'i dont think you get 100 subscriptions'
p1724
aS'hahaha lol 2.22'
p1725
aS"OMG we love this video, we freakkin think that soulja boy sucks nuts he \ndoesn't even know what music is you guys rockk our sockks"
p1726
aS'yo i love soulja boy but this is funny as hell. 5 stars'
p1727
aS'i tink i losd inteligengs'
p1728
aS'2:11 is funny too'
p1729
aS'this is so good XD'
p1730
aS'i think my I.Q. went down by 10 points. =]'
p1731
aS'YEA!!!!'
p1732
aS'i actually lost some intellegence.'
p1733
aS'lol!!!!!!!!!!!! <3'
p1734
aS"Hey, I can't understand what the hell hes saying, so I'm gonna write \nsomething new for y'all. Man sometimes his songs are so stupid and it gets \non my nerves and I don't want to hear it. So stupid like DayDeeDay!: nice \nyour texte nigahiga"
p1735
aS"now this is great...fred??? don't get it"
p1736
aS'(I made a fart) Daybededay Daybededay xDD Man ur right, the only good \nSouljaBoy song was Crank Dat, after that, so far, he made only stupid \nnon-sense screaming songs like "Yahhh" and also he made a gay song like \n"Kiss Me Thru The Phone", I hope he make a good song again, if not, make a \nparody of his stupidity again =D!'
p1737
aS"I don't get why that annoying little kid has so many subscribers. Anyone \nable to fill me in? His videos were too annoying to watch."
p1738
aS'tonces pa ke lo andas viendo'
p1739
aS'2844 people are so damn stupid'
p1740
aS'so damn stupid!! LOL'
p1741
aS'that was soooooooooo funny'
p1742
aS'haha, i didnt like this one as much as the others though.. but it was still \ncoolz'
p1743
aS'imperial army shirt?'
p1744
aS'LOLLLL haha hilarious as always'
p1745
aS'lmao 1:50 he slaps the shit outta him'
p1746
aS'lol yoou rouls man... keep on going'
p1747
aS'this is hella funny, lol, so so so funny, i dislike soulja boy either, big \ndisgrace to the music industry :/'
p1748
aS'i so agree w you guys soulja boy is so fucking wack i honestly dont know \nhow he got famous but hes not what i call hip hop or even music hes a \ndisgrace to hip hop real shit people neeed to open there eyes anywaysss \nthis video was maad funny.'
p1749
aS'LoL!'
p1750
aS'Amazing! I really did lose intelligence...'
p1751
aS'I love soulja boy, but i think its hilarious when Ryan Higa makes fun of \nhis songs. "I miss you soulja boy all the time." "So Damn Stupid, So Damn \nStupid, So Damn Stupid!"'
p1752
aS'I made a fart DAY DEE DAY LOLOLOLOL'
p1753
aS'SO DAMN STUPID'
p1754
aS'oh wow lol'
p1755
aS'I think I actually just lost some entallajanse'
p1756
aS'where are all your videos???'
p1757
aS'LOL LOL'
p1758
aS'"you don\'t even rap or sing, you just shout it\'s so bizzare" lolloolll, \ngenius line. so true.'
p1759
aS'if everyone thought like me you wouldent even sell 5'
p1760
aS'lmfao'
p1761
aS'this got a higher rating than the actual soulja boy yaaa song'
p1762
aS'<3 you guys and ur videos but yeah the warning was true.. I think I lost \nbrain cells watching this LOL'
p1763
aS'hahahaha your videos.. i love them!'
p1764
aS'Lol. I wonder if Soulja Boy has seen your videos...'
p1765
aS'They made these because they hated soulja boy but now they changed minds i \nguess'
p1766
aS'Wow i actually find the song very nice! Teehee'
p1767
aS'Well yeah, because we can relate to this song lol'
p1768
aS'if everyone thought like me they would rate this vid a 5'
p1769
aS'how do i download this song?'
p1770
aS'Better than fred'
p1771
aS'i showed my teacher this on friday and he really pissed him self and hr \nshowed this to his whole class and evan his wife lol'
p1772
aS'you mean Sean?'
p1773
aS'so funny and so right'
p1774
aS'great lol i wish i was as good as use ur da bob :):):)'
p1775
aS'Omg, I love Nigahiga!!! He has the best songs ever!'
p1776
aS'anyone know where to download this song??'
p1777
aS'AWSOME~!!!!!~!~!~!'
p1778
aS'yea all of soulja boys songs are the same'
p1779
aS'looove you guys <3'
p1780
aS'holy shi% 3million views and u still go "5" star rating =[] u know some \nidiot gonna ruin it...'
p1781
aS'i sooooo agree w you guys soulja boy is so fucking wack i honestly dont \nknow how he got famous but hes not what i call hip hop or even music hes a \ndisgrace to hip hop real shit people neeed to open there eyes anywaysss \nthis video was maad funny.'
p1782
aS'your popular jus like 2 girls and 1 cup. hahaha. cup and his ready to eat \ntha shit. lol. lmao. nigahiha the best!!!!!!!!!'
p1783
aS'ROFL'
p1784
aS'lol.. who is your friend? he is funny ass heck!!! lmao and rofl'
p1785
aS'fred is GAY as hell, nigahiga pwns 5/5 as always'
p1786
aS'hahahah hilarious omg i laughed so hard you know that everytime im mad,sad \nor wutever i come to you for a smile.your vids are so funny,no matter wat \nyou do it is always funny!'
p1787
aS'like they said in tje video they nvr said they dont like him good songs to \nspoof'
p1788
aS'oh my... all ready fixet my msn to DeeDayDayDee So Stupid DayDayDoo XD love \nyour songs'
p1789
aS'that was gay'
p1790
aS'AMEN. that soulja boy is so stupid. tupac is turning in his grave'
p1791
aS'not one of ur best music and voice was a little off i guess didnt blend \nright idk'
p1792
aS'I have deduced which time zone you live. Be careful.'
p1793
aS'THAT WAS SO FUNNY!!!!!!!!!!!!!!'
p1794
aS'1:13 is so funny!!'
p1795
aS'good. that so funny. i love R&S so much'
p1796
aS'LOL SO TRUU'
p1797
aS'awesome'
p1798
aS'so damm stupid lmao hahaha'
p1799
aS'Nice you guys are funny but you should check to see what people say on your \nvids! XD'
p1800
aS'2 girls and 1 cup roflmfao!'
p1801
aS'thats so true about soulja boy XD. lol you guys are hilarious!!'
p1802
aS'hahaa what are you harold and kumar'
p1803
aS'good one'
p1804
aS'very FUNNY song!!'
p1805
aS'ryan, yuhr so0o0 fukin sex-c'
p1806
aS'DeeDayDayDee So Stupid DayDayDoo'
p1807
aS'if you only said day dee dee instead of day day dee... :('
p1808
aS'lol'
p1809
aS"Haha, this is so funny. xD Wow, you guys look like you guys have soo much \nfun together. o.O even if you guys act dumb and attempt a retard look, it's \njust so adorable. xD"
p1810
aS'this made day after mny bday'
p1811
aS'why did you RAPE him?'
p1812
aS'Soulja Boy gt pwnd!!'
p1813
aS"Really, don't feel bad, guys. What the hell is Soulja Boy supposed to be, \nanyway? All that kid does is slur his words together and make a fool out of \nhimself. I LOVE you, NigaHiga!!"
p1814
aS"yo i'm watching this at about 1:00 am yaaaaaaaaaaaaaaaaaaaaaaaaah"
p1815
aS'when i started watching your vids you only had like 200,000 veiws :P'
p1816
aS'lol lol lol xP'
p1817
aS'haha i cant stand soulja boy. this is great though xD'
p1818
aS'"day"?'
p1819
aS"well it's quite true soulja boy sucks. pussy rapper (hell, he cant even rap)"
p1820
aS'tell me there is an mp3 of this cuz its so addicting XD'
p1821
aS'haha i love it u guyz r so awesome lol'
p1822
aS'(Yo Sean, I really like your) DayDeeDay haha. xP'
p1823
aS'lmfaooo "i made a fart and DAY DEE DAY" so damn stupid lol too funny'
p1824
aS'He just got SERVED!'
p1825
aS'i made a fart.......really i did'
p1826
aS'ryan u r so hot!! <3'
p1827
aS'do u rly believe in this crap ?'
p1828
aS'Good Lyrics by tha way:P'
p1829
aS'I HATE soulja boy IM GLAD YOU DID THIS!!'
p1830
aS'yeah soulja boy sucks... >.> you wouyld sell more than him lmfao!!!!!'
p1831
aS'YALL R HILERIOUS'
p1832
aS'Yank dat cameltoe'
p1833
aS'I like Soulja Boy too ,but thats much better than dat Soulja Guy!'
p1834
aS'nah..your not funny.. instead ur a d1ck at making vids baron'
p1835
aS'copy and paste if u think fred is gay and smosh or nigahiga should be \ncompeting cuz fred is a homo who doesnt deserve a single fan'
p1836
aS'hahha.. i find you two so sweet :P i mean, you two are just so close.. its \ncute :) and i love that you guys are so silly! x)'
p1837
aS'haha cool check out my vids'
p1838
aS'1:56 wtf :D'
p1839
aS'LOL stop at 1:03'
p1840
aS'YA trick YA'
p1841
aS'learn to spell funny bitch souja boy is awseome'
p1842
aS"ROFL So damn stupid! Dang, I can't stand SB. Yall rock man.."
p1843
aS'hahaha you guys are awesome xD'
p1844
aS'this vid isnt my favourite yet although it was ok'
p1845
aS'(so hawt) as i said before-sorry..But u guys are like freakin funny...wat \nmovie are you going to be in?'
p1846
aS'how the f you guys come up w/ these stuff.. brilliant!! hahaha'
p1847
aS'this lifts my mood up xD'
p1848
aS'u guys r beter than weard al! XD lolz'
p1849
aS'its true'
p1850
aS'what wait what happens if we did stop on 1:03'
p1851
aS'ok, someone is gunna MAKE me watch 2 girls and 1 cup -.- im like... "oh \nshit no! do i have to?!" theyre like "yea, its inevitable" they kept at it \nfor months now!!!'
p1852
aS'I love this song!!!'
p1853
aS'lol'
p1854
aS'Punch your ****ing head right up my ***'
p1855
aS'WOW LMFAOOOOOOOOO'
p1856
aS'dude this was awesome!! kewl kewl xDDD'
p1857
aS'lol'
p1858
aS"Not that I'm disagreeing with you but.. it's rapist not raper. >.>"
p1859
aS'nice facial expression!'
p1860
aS'i like this song!!!!!'
p1861
aS'video was funy'
p1862
aS'i know right!!'
p1863
aS'souija boyy,,,, go rott ina sackk(: hahaha i so agree!.!.!'
p1864
aS'haha that was hilarious!!!!!!!! but i do like soljia boy.. lmao u guys rock'
p1865
aS'i love soulja boy but this was hilarious! i love ryan and his videos, too!!!'
p1866
aS'LOL! Thats all I can say'
p1867
aS'this guy is funny WOOHOO'
p1868
aS'lololololol 5***** lol XD XP XD XP'
p1869
aS'nice song'
p1870
aS'Ryan is the best'
p1871
aS'i m a big fan of Ryan Higa!!!!!'
p1872
aS'he is still in the vids if you havent noticed...'
p1873
aS'ryan, if u are reading dis comment, i think u r a talented person, sean u \ntoo. U ROX!'
p1874
aS'ahahahaha exactly what im thinkin when their songs come out! XD'
p1875
aS'to all u fuks that like souja fag sorry to tell u but hes the worst raper i \never herd but the video was funy'
p1876
aS'da day'
p1877
aS'yall gay ass'
p1878
aS'lmao sinc when is soulja boy awesom who ever fucking likes him clearly has \nmental problems'
p1879
aS'wow no offense but this is a pretty damn weird song'
p1880
aS'1:56 HOLY CRAP HAHA. =)) so awesum!'
p1881
aS"You're popular just like 2 Girls and 1 Cup! rofl =)"
p1882
aS'it rele does sound like u r hatin on soulja boy =/'
p1883
aS'WHAT THE HELL?!'
p1884
aS'Cameltoe is how you spell it...'
p1885
aS'dudes u rule i love ur videos'
p1886
aS'crank that camell toe... i cant spell camell'
p1887
aS'this video is too funny especially when sean says day day twice it sounds \nlike he said tittie'
p1888
aS"what's a soulja boy ?"
p1889
aS'hahahahhahahaha ur awseome lol'
p1890
aS'that doesnt even make sence'
p1891
aS'your a poser hahahahaha im just kidding just that a video sayed your a \nposer but i dont belav theam'
p1892
aS"What can one say that would expand upon the title of the video. Sometimes \nit's best to add nothing."
p1893
aS'beast vid and song!'
p1894
aS'hhahahahahahahahah! i agree, i hate that song. lmfao.'
p1895
aS"That's so funny I'm sure Soilja Boy is watching this and laughing."
p1896
aS'because he dyed it yellow before'
p1897
aS'lmao that was good'
p1898
aS'hahaha this is hilarious!!!! XD'
p1899
aS'nice done and I agree with you 2.'
p1900
aS"i don't get it xD"
p1901
aS'ur so cuuute!!!!'
p1902
aS'LOL EPIC!! You guys kick ass lmao DEE DEE DEE :D!!! i made a fart, dibadi \ndibadi!! XDDD <33333'
p1903
aS"ryan and sean still best you tube video makers till now i've been watching \nthey're videos since 2 yrs =D"
p1904
aS'llllllllloooooooooooollllllllll'
p1905
aS'ahahahahaha'
p1906
aS'no, i am french and in france we haven\'t "soulja boy" so what is it ?'
p1907
aS"oh woops i didn't notice your other comment. ahah it's just some retarded \nrapper who made this song called 'crank that' that everyone thinks its so \ncool for some reason. theres also another song called 'yahhh' which is this \nsong"
p1908
aS'how do u noe it works? did u die?'
p1909
aS'i agree soo much i am asian too!!!!!!'
p1910
aS'wow that was stupid LOL! but in a funny way DAYDEEDAY!'
p1911
aS'love this song ha ha way better then the original'
p1912
aS'veryy dumb and veryy funnyy! :]<3 i l o v e y o u n i g a h i g a <3333'
p1913
aS'i seriusly wana buy the song'
p1914
aS'dea de dea'
p1915
aS'LOL! 1:43 when he dresses as a nerd xDDDD NICE WORK FAVORITES'
p1916
aS'that explains the tittle'
p1917
aS'lolll asians are hot...'
p1918
aS'lmfao 1:13'
p1919
aS'soulja boy is a singer look it up on you tube'
p1920
aS'i under stand almost nothing so... boy says so nice job!!!!!!'
p1921
aS'i luv this XD lol umm whats a camel toe'
p1922
aS'So Damn Stupid!'
p1923
aS'what happened to sean'
p1924
aS'DAAAAA DAAAA DEEEE haha'
p1925
aS'i miss Sean ):'
p1926
aS'this the most stupidest vid you made'
p1927
aS'a penis'
p1928
aS'rap is horrible'
p1929
aS'this is offensive to actual mental retardation =('
p1930
aS'these guys have the best fken inventions'
p1931
aS'hahahhahahaaaaa. :) <3'
p1932
aS'kevins the best'
p1933
aS'Why do you always talk about fart?? LoL Well its Funny Anyway Keep Komin \nwith The Vids!!'
p1934
aS'solja boy is overated!!!'
p1935
aS'DuDe.. I dont @#@#@# ( Fucking ) care.. vv'
p1936
aS'lol'
p1937
aS'hahahahaha so god song'
p1938
aS'agreed'
p1939
aS'this song makes my mood up in a second'
p1940
aS'1:56 LMAO!!!!!'
p1941
aS'So not true.'
p1942
aS'i like the end its like whack a mole or wat ever the name of that game'
p1943
aS'DayDay :-D'
p1944
aS'oh my god a so true'
p1945
aS'your so talented to think of all this'
p1946
aS'lol'
p1947
aS'i made a fart dibidaydibididay'
p1948
aS'can u make a new song by asian-boy plzzz. u rock!!!!!'
p1949
aS'lol'
p1950
aS'i love this song its sooo funny'
p1951
aS'lol xD COOL :D'
p1952
aS'i loved it.'
p1953
aS'moalo'
p1954
aS'Day-D-Day I am dumber already thanks'
p1955
aS'This is so funny! :D'
p1956
aS'u gay >>'
p1957
aS'its funny just like the camel toe'
p1958
aS'how do they cum up wid this stuff its soooo funyyyyyyyy i luv it'
p1959
aS'Your so right xD Soulja Boy sux as s'
p1960
aS'does solja boy let u do that?'
p1961
aS'search for it on google... make sure your parents done see it ;)'
p1962
aS'wtf is 2 girls and one cup?????'
p1963
aS'LMFAO i love this song!Daddaday'
p1964
aS"pssh they're too good for icarly"
p1965
aS'u guys r so funny XD i culdent stop friging laghing'
p1966
aS'its a porno were they shit in a cup and masturbate with it'
p1967
aS'It is his special random thing, like deideras Hmm'
p1968
aS"Damn no one cares but he got cuter now that's all"
p1969
aS'This aint racist but Rucka rucka is? '
p1970
aS'gays xD'
p1971
aS'hahahahaha he got burned.'
p1972
aS'This is big BUUUUURN on soulja boy'
p1973
aS"I know you guys might like him but I'm no fan of soulja boy so this is \nawesome :D"
p1974
aS'~ :D'
p1975
aS'soulja boy sucks nigahiga rox'
p1976
asS'time'
p1977
ctime
struct_time
p1978
((I2008
I3
I22
I12
I13
I19
I5
I82
I-1
t(dtRp1979
sS'id'
p1980
VMymMhj3Vgww
p1981
s.