(dp1
S'title'
p2
VNEW NIGAHIGA MOVIE (TEASER)
p3
sS'url'
p4
Vhttp://www.youtube.com/watch?v=NJRYzZD87js&feature=youtube_gdata_player
p5
sS'image'
p6
Vhttp://i.ytimg.com/vi/NJRYzZD87js/0.jpg
p7
sS'comments'
p8
(lp9
S'FOR SOME REASON EVEN THOUGH IVE WATCHED THE FILM OVER THREE TIMES I JUST \nNOW GOT THE SEX JOKE AT THE BEGINNING OF IT FROM THIS TRAILER\xef\xbb\xbf'
p10
aS'Can someone give me a link of the movie?\xef\xbb\xbf'
p11
aS'2:01 a look that every female wants to be on the receiving end of :S\xef\xbb\xbf'
p12
aS'Lmao\nHey, no Pewds?\xef\xbb\xbf'
p13
aS'The girl looks like Kira from teen wolf\xef\xbb\xbf'
p14
aS'Plz do an agents of secret stuff ep.2\xef\xbb\xbf'
p15
aS"Omg that's kira from teen wolf I just realized that but I loved that video \nA.S.S\xef\xbb\xbf"
p16
aS'hOW DO I WATCH THE MOVIE!!!\xef\xbb\xbf'
p17
aS'yes! starcraft!\xef\xbb\xbf'
p18
aS'I FREAKING LOVE STARCRAFT 2 WINGS IF LIBERTY, shhh but make a video about \nit too its awesome ; )\xef\xbb\xbf'
p19
aS"I never would have seen Sky if i hadn't seen him vlogging earlier today\xef\xbb\xbf"
p20
aS'No teehee sound ! HULK ANGRY!!!!!\xef\xbb\xbf'
p21
aS'Cool\n\xef\xbb\xbf'
p22
aS'Look like full metal panic\xef\xbb\xbf'
p23
aS'Hey guys, check out Awesome Movies Inc! They have some really funny videos \nbased off of nigahiga! Btw great vid\xef\xbb\xbf'
p24
aS'hiimrawn and smosh.....interesting\xef\xbb\xbf'
p25
aS'the movie was so great\xef\xbb\xbf'
p26
aS'And it is\xef\xbb\xbf'
p27
aS'I WATCHED IT ITS AWESOME\xef\xbb\xbf'
p28
aS'Hi! :D\xef\xbb\xbf'
p29
aS'i love starcraft do u play it ryan?\xef\xbb\xbf'
p30
aS'Starcraft!\xef\xbb\xbf'
p31
aS'I thought he said One Direction. Totally messed up my expectations\xef\xbb\xbf'
p32
aS'Ian was skinny back then.\xef\xbb\xbf'
p33
aS'I saw the movie\xef\xbb\xbf'
p34
aS'was that leage of legends !!!!!!!!!!!!!\xef\xbb\xbf'
p35
aS'ryan i love the movie it was just awesome please make more movies like \nthis!!!\xef\xbb\xbf'
p36
aS'looks like a great film\xef\xbb\xbf'
p37
aS'Or have smosh p.s. anthony got his but kicked\xef\xbb\xbf'
p38
aS'It,s 2014\xef\xbb\xbf'
p39
aS'Make a sequel Ryan!!!!!!!\xef\xbb\xbf'
p40
aS'Dear Ryan can you a polite gangster?\xef\xbb\xbf'
p41
aS"I know it's the year 2014 but I just randomly wanted to share a fact that \nour schools name shortened is A.S.S(Ashcroft Secondary School)\xef\xbb\xbf"
p42
aS'Are Ian and Anthony the bad guys?\xef\xbb\xbf'
p43
aS'Love it :)\xef\xbb\xbf'
p44
aS"You don't do movies is minutes anymore :(\xef\xbb\xbf"
p45
aS'Lol\n\xef\xbb\xbf'
p46
aS'Saw it.\xef\xbb\xbf'
p47
aS'Dear ryan can you be superheroe\xef\xbb\xbf'
p48
aS'Funfact: This is the only video he made with the Channel Name in it\xef\xbb\xbf'
p49
aS'Movie in minutes. Fast and furious\xef\xbb\xbf'
p50
aS'Push on through\xef\xbb\xbf'
p51
aS'Haha I love smosh\n\xef\xbb\xbf'
p52
aS'Ian and anthony (smosh)\xef\xbb\xbf'
p53
aS'Sweet\xef\xbb\xbf'
p54
aS'We are asses lol\xef\xbb\xbf'
p55
aS'Ian and Anthony <3 omg I love smosh so much\n\xef\xbb\xbf'
p56
aS'Okay, that last bit, with the explosion, did NOT happen! But it would be \nkinda cool if it did...\xef\xbb\xbf'
p57
aS'\n \n\xe2\x96\x91\xe2\x96\x91\xe2\x96\x91\xe2\x96\x91\xe2\x96\x91\xe2\x96\x88\xe2\x96\x88\xe2\x96\x88\xe2\x96\x88\xe2\x96\x88\xe2\x96\x88\xe2\x96\x88 ]\xe2\x96\x84\xe2\x96\x84\xe2\x96\x84\xe2\x96\x84\xe2\x96\x84\xe2\x96\x84\xe2\x96\x84\xe2\x96\x84                   Bob is building an army.\n\xe2\x96\x82\xe2\x96\x84\xe2\x96\x85\xe2\x96\x88\xe2\x96\x88\xe2\x96\x88\xe2\x96\x88\xe2\x96\x88\xe2\x96\x88\xe2\x96\x88\xe2\x96\x88\xe2\x96\x88\xe2\x96\x85\xe2\x96\x84\xe2\x96\x83\xe2\x96\x82       \xe2\x98\xbb/\xef\xb8\xbb\xe2\x95\xa6\xe2\x95\xa4\xe2\x94\x80  This tank & Bob are against Google+\nIl\xe2\x96\x88\xe2\x96\x88\xe2\x96\x88\xe2\x96\x88\xe2\x96\x88\xe2\x96\x88\xe2\x96\x88\xe2\x96\x88\xe2\x96\x88\xe2\x96\x88\xe2\x96\x88\xe2\x96\x88\xe2\x96\x88\xe2\x96\x88\xe2\x96\x88\xe2\x96\x88\xe2\x96\x88\xe2\x96\x88\xe2\x96\x88].  /\xe2\x96\x8c              Copy and Paste this all over\n  \xe2\x97\xa5\xe2\x8a\x99\xe2\x96\xb2\xe2\x8a\x99\xe2\x96\xb2\xe2\x8a\x99\xe2\x96\xb2\xe2\x8a\x99\xe2\x96\xb2\xe2\x8a\x99\xe2\x96\xb2\xe2\x8a\x99\xe2\x96\xb2\xe2\x8a\x99\xe2\x97\xa4..  / \\              YouTube if you are with us\xef\xbb\xbf'
p58
aS'text me ryan i have to ask u a important question '
p59
aS'"Let me tickle you with a teaser." Mind p-rape. ;~;'
p60
aS"And it's Anthony at 1:52"
p61
aS'now to go watch the movie... Again!!!!!!!!!'
p62
aS'anyone notice the old man spits while talking lmao!!'
p63
aS'OMG SMOSH WAS THERE I LOVE YOU SMOSH'
p64
aS'anthony and ian'
p65
aS'Ian & Anthony x))'
p66
aS'Please make a Naruto based movie... like naruto fights '
p67
aS'Seen it 14....billion times'
p68
aS'then see it'
p69
aS"oh and it's only 35 minutes long Ryan XD"
p70
aS'Oh what the fuck !'
p71
aS'Where I can watch it?'
p72
aS'XD ITS SMOSH!!!! :D '
p73
aS'PLEASE DO A PART 2 OR ANOTHER MOVIE '
p74
aS"It's pronounced zealot not zeelot. /watch?v=nLVnQWOxKoY"
p75
aS'It was an estimate. this video was made before the movie so they may have \nedited out some stuff'
p76
aS'Its mr. Tutaloo '
p77
aS'WTF 1D commercial AGAIN?????!!!! Ughhhh'
p78
aS'fuck yeah smosh is here'
p79
aS'BIEBER FEVER'
p80
aS'like if you watched on july 2013+ and seen candy crush movie first'
p81
aS'love this mkovie can u make more ??????'
p82
aS'@GamerGirl7634 as ryan said,there will be youtubers which is why smosh was \nthere.Just watch "Agents if Secret Stuff".It was good.'
p83
aS'oh shit right now im reading starcraft2 guide '
p84
aS"Omg Ryan make more short films! Ninja Melk was good, Agents Of Secret Stuff \nwas awesome, and that's it? Take a break from comedy videos and make some \nmore movies!"
p85
aS'Ian and anthony!!'
p86
aS"There's always gotta be an asian to complete the most amazing film o-o I'm \nkidding; have yet to even see it. xD -Trauma Tize"
p87
aS'is it sad if i could tell who was ian from the back?'
p88
aS'I was tickled be the teaser'
p89
aS'agents of secret stuff :)'
p90
aS'hey '
p91
aS'Smosh'
p92
aS'make more agent videos please'
p93
aS'at 1:16 the guy on the right had trouble folding his arms haha'
p94
aS'When is it done ??'
p95
aS'Heh, nice bellybutton ryan'
p96
aS'Why not? c:'
p97
aS'smosh and nigahiga! CLASSIC! '
p98
aS'cool i actually wanted to see it'
p99
aS'that eww in the beginning of the vid XD LOOOOOL'
p100
aS'Smosh!!!'
p101
aS'Ian & Anthony <3'
p102
aS'more like 35 mins..'
p103
aS'this isnt on the internet, right? '
p104
aS"we are ass'es "
p105
aS'I love that movie! I just watched it!'
p106
aS'Where is the movie'
p107
aS"Dear Ryan, can you be a gamer? :D Btw do you play League of Legends? I'm \nFlaming Turnip! :D And my other one is Enchanted Potato."
p108
aS'Really??? omg smosh was in the video for like 15 seconds and half the \ncomments are "smosh" "anthony and ian" "fuck yeah smosh!" and "WOOOO \nANTHONY AND IAN"... its not that i hate smosh, they\'re rlly funny. but can \nwe please comment about the video and not about the people?'
p109
aS'smosh is there!!! yay!!'
p110
aS'My cousin plays starcraft '
p111
aS"Can't sleep"
p112
aS'Omg i remember watching that movie like 3 years ago :O'
p113
aS'whats the differnce with the teaser?'
p114
aS'Anthony and umm ugly face. there from smosh'
p115
aS'zerglins suck '
p116
aS'Ian and Anthony would be in there hell ya'
p117
aS'SMOOOOSHHHHHHHHHHHHHH'
p118
aS'They actually made that? Why did they put Ian that is disgusting :) just \nkidding'
p119
aS'2:17'
p120
aS'SMOOOOOOSSSSSSSSSHHHHHHHHH!!!!!!!! is there'
p121
aS'Where is movie located on YouTube?'
p122
aS'Already saw it and it was AMAZING!! I ve watched it about 20 times, and I \nreccomeneded it to all my friends :)'
p123
aS'heh heh ian...'
p124
aS'no its not the movie is called ASS :D *Inserted Troll face*'
p125
aS'smosh '
p126
aS'SMOSH'
p127
aS'the movie was awsome'
p128
aS'Wow Ryan you got play dotq?!'
p129
aS"Like if you've watched the movie before watching this!"
p130
aS'Omg....smosh!'
p131
aS'MAPOTI BITCH'
p132
aS'Ur so funy mate'
p133
aS'Smosh'
p134
aS'Ryan would be good in a real movie he has the nice cute face,and he can act'
p135
aS"I saw the movie it's Awsome I love it"
p136
aS'"Agents of Secret Stuff"'
p137
aS'That teehee makes my kids scared'
p138
aS'Is the LAN'
p139
aS"It's already out 3 years ago :P "
p140
aS'so did I!'
p141
aS'I want to watch that'
p142
aS'well this is cooler..... and i saw SMOSH ....oh hell no... '
p143
aS'\xe2\x98\x80\xef\xb8\x8f\xe2\x9b\x85\xef\xb8\x8f\xe2\x98\x81\xef\xb8\x8f\xe2\x98\x94\xef\xb8\x8f\xe2\x98\x94\xef\xb8\x8f\xe2\x9b\x84\xef\xb8\x8f\xe2\x9b\x84\xef\xb8\x8f\xe2\x98\x8e\xef\xb8\x8f\xe2\x8f\xb3\xe2\x8c\x9b\xef\xb8\x8f\xe2\x8f\xb0\xe2\x8c\x9a\xef\xb8\x8f\xe2\x9b\xaa\xef\xb8\x8f\xe2\x9b\xba\xef\xb8\x8f'
p144
aS'I saw the movie it was so good'
p145
aS'How can ppl dis like this???'
p146
aS'Ian and Anthony c:'
p147
aS'Just look up Agents of Secret stuff. Its hilarious and about half an hour \nlong :) '
p148
aS'I want to watch that movie'
p149
aS'Smosh'
p150
aS"SOMSH can't wait"
p151
aS"We're you playing league of legends?"
p152
aS'Anthony and Ian :D'
p153
aS'#dear Ryan , is this a real movie?'
p154
aS'Hey Ryan make another short film :D this one is so funny I love it.'
p155
aS"\xe3\x82\xb9\xe3\x82\xbf\xe3\x83\xbc\xe3\x82\xaf\xe3\x83\xa9\xe3\x83\x95\xe3\x83\x88\xe4\xba\x8c\xef\xbc\x81 It's always nice to find someone who plays that."
p156
aS'Do you actually play starcraft2 ?'
p157
aS'Ian and Anthony!'
p158
aS'God It went out about 1-2 years ago'
p159
aS'So is the movie out??'
p160
aS"Smosh! Yes Ian and Anthony are creepy in this movie! I'm so gonna f*** \nthem! O-o"
p161
aS"actually,niga higa and smosh's videos are both good.please don't be \ndisrespectful in youtube. we are here to watch not to make fun of videos \nbut to leave helpful comments xD"
p162
aS'Seen the movie its so awesome! Well done! X3'
p163
aS'It looks awsome'
p164
aS'SMOSH O.O'
p165
aS'Lost it at 2:21 xD'
p166
aS'Oh jeez. Sweetie, he made this before he made the movie. You know that \nthing in your head called a brain? It helps in life to use it.'
p167
aS'WERE THOSE GUYS ANTHONY PADILLA AND IAN HECOX FROM SMOSH'
p168
aS'Wow. Smosh is in there.'
p169
aS'u met smosh?'
p170
aS"Yes, it's two years ago it was released."
p171
aS'Ian and Anthony!!!'
p172
aS'Make the candy crush movie!'
p173
aS"I've seen agents of secret stuff. In fact, I watched it before this one"
p174
aS'lol Ian and Anthony'
p175
aS'Yo hi can u check my cchannel christopherclubb566'
p176
aS'We are brothers and sisters belonging to one faith and one story. I appeal \nto lovers of folk music of Kazakhstan. Come to my channel to find out more \nabout the brotherly people and their culture. Or just listen to music. Hav\xd0\xb5 \nnice day Citizens of the land )))'
p177
aS'good job on the movie. Lol A.S.S. ha teehee '
p178
aS'smosh XD '
p179
aS'Lol I love starcraft, and...was that.... SMOSH?!?'
p180
aS"You should watch the movie it's totes aws"
p181
aS'ya '
p182
aS'Tee-Hee-Ser lol'
p183
aS'thanks captain obvious'
p184
aS'Higafever!!!'
p185
aS'Seen*'
p186
aS'Why is Anthony and Ian there from SMOSH?!?!?!?!'
p187
aS'about 30 mins'
p188
aS'starcraft'
p189
aS'SMOSH :D'
p190
aS'looks boss man'
p191
aS'You are so cute actually the nicole is a bitchvi think hahahaha'
p192
aS'Omg smosh!!!'
p193
aS'Go smosh'
p194
aS'Smosh'
p195
aS'Best movie'
p196
aS"I'd like watching that movie:D"
p197
aS'Tell me the name plz'
p198
aS'I saw this as a featured video when I was watching how to twerk videos.'
p199
aS'i can only identify 3 ppl :\\ ian, anothony and ryan'
p200
aS'oh yeah agents of secret stuuf i remember this movie i already seen it.'
p201
aS'IllYouLaugh shut up. Telling ppl to subscribe to ur channels makes ppl not \nwant to u idiot.'
p202
aS"1:04 isn't he the kid from spy kids?!"
p203
aS'Smosh!!!!'
p204
aS'Will this be a real movie looks interesting'
p205
aS'Ian + Anthony + Ryan = TOTAL EPICNESS'
p206
aS'OMG the ad before the video you made was Barbie commercial. LOL '
p207
aS"You should make another agent movie, Also you should include more smosh :\xc3\x9e \n(That's just what I think)"
p208
aS'I saw that like ten time xD Agents of seceret stuff is an awesome short \nmovie! :D'
p209
aS'D trix hahaha'
p210
aS'SMOSH!!!!!'
p211
aS'how nice, im on nigahigas side idiot'
p212
aS'Well... They have different styles...... I respect and like both Smosh and \nnigahiga ^^ '
p213
aS'XD smosh !!!'
p214
aS'lol.asses '
p215
aS'Dude I really hate to be "that" person so dont get mad but... its better \nnot more better. '
p216
aS'Another YouTuber. Last time I checked he was the 3rd most subscribed to and \nRyan was number 2 most suscribed. But I checked like 3 months ago so it \nprobaly changed.'
p217
aS'@Halil Kelebek its been out......'
p218
aS"No they're not. They're just more goofy than Ryan."
p219
aS'LOL itot'
p220
aS'LOL I tot that a clicked off the pill bieber fever'
p221
aS'Well... They both have different styles of making vids.... I respect both \nSmosh and nigahiga thouht ^^'
p222
aS'in my opinion Smosh is better and way funnier'
p223
aS'Actually it\'s true.. It\'s called "Agents of Secret Stuff". Check it out in \nhis channel.'
p224
aS' what is the movies name ? '
p225
aS'We are asses '
p226
aS'lol'
p227
aS'Smosh is waaaaaaaaaaaaaay better than nigahiga and nigahiga is funny too \nthey btoh are good but for me smosh is better'
p228
aS'Epic pose when something explodes behind you lol'
p229
aS'@kelzgurl11 im on nigahigas side dumbass. So maybe u should stfu. Okay? :)'
p230
aS'When will it comeout and can we see the trailer'
p231
aS'this is a good video'
p232
aS'thumbs up if you got a WOW ad '
p233
aS"1:54, It's Ian from @Smosh"
p234
aS'Smosh'
p235
aS'Smosh'
p236
aS'I really didnt expect smosh to be on here Smosh,Kassem G and Nigahiga are \nall great'
p237
aS'smosh was in there'
p238
aS'yeah well this was made BEFORE the movie dumb ass'
p239
aS'I saw smosh....my life is complete'
p240
aS"I dig you and you're kinda hot. Hahahaha, you're so funny that I keep \ndying... "
p241
aS'Omg anthony and IAN'
p242
aS'Them. Smosh are Ian & Anthony.'
p243
aS'No it was a dove comertial'
p244
aS'wooooohhhhoooohhh IAN and Anthony with Ryan Higa !!!:D:D:D'
p245
aS"Why'd you have to beat up smosh"
p246
aS'Ian and anthony'
p247
aS'Dtrix!!!!'
p248
aS'That was awesome !!!!'
p249
aS'Oooo god ian and anthony *^\xe2\x96\x81^*'
p250
aS'NO TEE HEE OMFG >:O'
p251
aS"Isn't supposed to be 35 mins long"
p252
aS'WHERES CHESTER!!!!!!!!!'
p253
aS'For everyone who is asking, the video name is agents of secret stuff'
p254
aS'Smosh is on it yat'
p255
aS'Yeah. Agents of Secret Stuff'
p256
aS'Teehee'
p257
aS'Omg cool!!!'
p258
aS'The background music sounds like Call of Duty Modern Warfare 2 or something \nlike that'
p259
aS'Is it bad that I scream when i saw Ian and Anthony? xD'
p260
aS'Yay Anthony and Ian'
p261
aS"But it's still better and more serious than his other videos"
p262
aS'SMOSH'
p263
aS'no feet!! 2:22'
p264
aS'Playing dota?'
p265
aS'is sean in it? '
p266
aS'and one second '
p267
aS'haha i just finished watching the video that had that bieber joke in it'
p268
aS'yay smosh'
p269
aS'Funny as hell'
p270
aS'OMG!!!! i saw smosh!!!!!!!!!!!!!!'
p271
aS'its star craft i think i only red the cover next to him :-):-!'
p272
aS'Why do people call a two-hour long movie if it has 1 hour and 45 minutes?'
p273
aS'SMOSH'
p274
aS'Is it out?'
p275
aS'yea'
p276
aS'niga higa.......u are totally better than smosh...........by far'
p277
aS'What is the name of the movie??'
p278
aS'smosh...... nice!!! i love this video + the shots are nice! pls subscribe \nto my channel'
p279
aS'Pls Subscribe me i subscribed you now!!pls'
p280
aS'please is the moviee real ? '
p281
aS'Dear Ryan can you make another A.S.S video?'
p282
aS'KASEMG'
p283
aS'SMOSH YAAAAAAAAAA!!!!!!!!!!!!!!!!!'
p284
aS'Yes. It\'s uploaded to youtube and it\'s name is: "Agents of secret stuff."'
p285
aS'ERMAHGERD!!.... SMOSH!! :o'
p286
aS"what's smosh?"
p287
aS"You know smosh Ryan that's fantastic"
p288
aS"...i've been tickled..."
p289
aS'so, about this movie thing.... '
p290
aS'Movies in Minutes - The Lord of the Rings'
p291
aS'best shit everrr '
p292
aS'Smosh'
p293
aS'lol, "we are asses"'
p294
aS'the only teaser part was at 2:21 '
p295
aS'Is this a real movie?'
p296
aS'agent of secret stuff'
p297
aS"It's a teaser. "
p298
aS'YAY SMOSH!'
p299
aS'Smosh??'
p300
aS'ow lol i just saw the movie xDD'
p301
aS'you play sc2!'
p302
aS'Hahahahaha This was the trailer'
p303
aS"I've seen this, it's hilarious!"
p304
aS'elmo'
p305
aS'I was TICKLED by that teaser Ryan...'
p306
aS'AFTER you gtfo.'
p307
aS'That movie was so funny! Good job!'
p308
aS'35 minutes and one second. :p'
p309
aS'were do you see it at '
p310
aS'I saw the movie before the trailer xD I watched it with my best friend and \nwhen I saw Anthony and Ian, I\'m like "WHAT THE!!!"'
p311
aS'I cant wait to c it'
p312
aS'you mad bro?'
p313
aS'where can i watch the film?'
p314
aS' Tomorrow , make sure too check Ryanmovienotarealchannel2524 too watch the \nmovie'
p315
aS'Kassem!'
p316
aS"2:22 LOL Nigahiga's face."
p317
aS'LOVED THE MOVIE! Please make another one SOON! '
p318
aS'YUP'
p319
aS'21 jump street totally ripped this off'
p320
aS'i love love love love love love him he is so so so so so so so awesome '
p321
aS'AGENTS OF SECRET STUFF!!!'
p322
aS'Smosh and D-trix XD'
p323
aS'movie:)'
p324
aS'Zerglings. Thats Protoss '
p325
aS'MAKE THIS!!! TAKE MY MONEY!!!!!'
p326
aS'LOL the tv show or the movie?'
p327
aS'what the h why is ryan bullying ian D:'
p328
aS'um YEAH they did'
p329
aS"didn't notice smosh was in this -_-"
p330
aS'slow'
p331
aS'smosh :3'
p332
aS'lol hes playing league of legends not starcraft '
p333
aS'wait nvm'
p334
aS'thumbs up if you saw ian and anthoy rom smosh XD'
p335
aS'That looks soo cool =)'
p336
aS'Please make another nigahiga movie becuz it wa great'
p337
aS'haha best movie XD'
p338
aS"You're an ass"
p339
aS'i saw this be fore i even knew about smosh and was like these people look \nfamiliar'
p340
aS'Who else watched the movie befor the trailer'
p341
aS'not surprised since this video was made 2 years ago......'
p342
aS'Lol, That made me want to go watch it again xD'
p343
aS'I have that backpack! :D'
p344
aS'agents of secret stuff'
p345
aS'popin cookin lol'
p346
aS'The best you tubers combined Amish and big shiva'
p347
aS"I wanna watch it what's it called"
p348
aS'best green screen at 2:21 '
p349
aS'Cinamon challenge'
p350
aS'smosh @ 1:55 '
p351
aS'i like nigahiga but smosh is better...'
p352
aS'HAHA lol '
p353
aS'where can i see it? '
p354
aS'2:23 look at it!!!'
p355
aS'Seen it'
p356
aS'But the movie is 35 mins '
p357
aS'HOLY CRAP I HAVE THE SAME BACKPACK'
p358
aS'what!!! i didnt know you were friends with smosh (lucky)'
p359
aS'Thumbs up if you saw the movie before the trailer! '
p360
aS'I saw D-TRIX of quest crew :)'
p361
aS'LoL :D'
p362
aS"it's not what it seems =)))))"
p363
aS'STARCRAFT\xe2\x99\xa5'
p364
aS'Seems like 21 jump st'
p365
aS'its in recommended videos, it came like 2 years ago......'
p366
aS'why are you doing a teaser of your own movie?'
p367
aS'smosh????'
p368
aS"At 2:22, that didn't really happen! There was D-trix (Dominic Sandoval), \nSmosh (Ian and Anthony), nigahiga/higaTV (Ryan Higa) Wong Fu Productions, \nand kevjumba (Kevin Wu). Kevjumba was at the very end of the movie for only \n3 sec."
p369
aS'Yesssss SMOSH is also there,I gott to watch it right now! LOL'
p370
aS'Great not- really- a- movie'
p371
aS'It really tickled us'
p372
aS'i love Anthony and Ian:) thay are smosh'
p373
aS'....that hair....dafuq!?0.o'
p374
aS'WAS IN THEIR'
p375
aS'2:22 best pose ever'
p376
aS'Is that League of Legends?'
p377
aS'I saw this nigahiga movie it.Called agent secret movie its 35 mins long'
p378
aS"I am watching that if it's the last thing I do! Well, not really, I'm sorry \nfor the exaggeration. Yeah I'm not gonna watch it. XD jk jk"
p379
aS'ya they are u know them right? if u do, me too.'
p380
aS'kassemG '
p381
aS'SMOSH!'
p382
aS'Smosh!'
p383
aS'dear lord....sounds painful 1:11-1:22 hahahahaha'
p384
aS'well im sick whit bieaber fever no im not goin to make that joke again xDDD '
p385
aS'The movie looks awesome'
p386
aS"SMOSH RULES!!!!!!!!! don't hurt Ian"
p387
aS"Source of all the problems in the world? Definitely stupid people don't \nknow how to search or anything about grammar (mainly capitalization)"
p388
aS'When is it coming out'
p389
aS"At 2:04, isn't the teacher Epic Dante from the epic rap battles of history \ncrew?"
p390
aS'Guys pls stop putting up comments on other things tht r not related to \nnigahiga. Pls this is suppose to b for him and his videos'
p391
aS'SC2!!!!!!!!!!!!'
p392
aS'uh, it is 35:01 minutes long, Ryan Higa, get your own facts straight!! :)'
p393
aS'smosh and ryan omg yes!!!!!!!!!!!!!!!!!'
p394
aS'SMOSH IS IN IT????? GOT TO SEE IT NOW!!!'
p395
aS'I dont want that...'
p396
aS'How about pewdiepie and ray william johnson'
p397
aS"What's the name of the movie please tell me"
p398
aS'why is smosh there '
p399
aS'Make more short fillers'
p400
aS'Did i just ee the smosh guys'
p401
aS"wait a minute, Ryan's playin' Starcraft 2: Wings Of Liberty!!!"
p402
aS'smosh!!!!!!!!!!!!'
p403
aS'i see SMOSH!!!!'
p404
aS'LOL 2:21'
p405
aS'he did it already'
p406
aS'OMG NIGAHIGA + SMOSH = Best movie of all time'
p407
aS'Smosh'
p408
aS'lol '
p409
aS'The movie is real its has about 25 million views'
p410
aS'I saw the movie and it was halirious oh. "let me tickle u with a teaser". \nLol'
p411
aS'* 0:18 '
p412
aS'he has a macbook pro'
p413
aS'SMOSH!!!!!!!!!!!!!!!'
p414
aS'Did this come out already? :D'
p415
aS'Smosh and nigahiga together is awasome'
p416
aS'It looks totaly awsome'
p417
aS"This movie is real type in 'agents of secret stuff'"
p418
aS'Fashl jda - \xd8\xb9\xd9\x86\xd9\x82\xd9\x84\xd9\x8a\xd8\xb2\xd9\x8a \xd9\x85\xd8\xb9\xd8\xb1\xd8\xa8\xd9\x8b'
p419
aS'I love this movie so much ive watched it about 12 times now'
p420
aS'real. type in agents of secret stuff. thats the title of the movie'
p421
aS'Is the beginning from the movie salt?'
p422
aS'you go Ian and anthony but it needs box man'
p423
aS'Anthony and ien'
p424
aS'SMOSH!!!!!!!!!!!!!! '
p425
aS'I knew that was kassem! And good job getting smosh'
p426
aS'0:25 rage quit'
p427
aS'This movie was awesome! Especially because smosh was in it! You usually \nnever see nigahiga and smosh in the same video! Good job wongfu productions!'
p428
aS'Haha I love starcraft 2'
p429
aS'We are asses lol'
p430
aS'SMOSH!!'
p431
aS'smosh er awesame '
p432
aS'Smosh! AMAZING!!!!!!'
p433
aS'Can someone link me in the video?'
p434
aS'D-trix is so handsome *_______________*'
p435
aS'thumbs off if you thought he was going to say something gross at 0:17 XD '
p436
aS'I know right :D'
p437
aS'is this a real movie? '
p438
aS'Dam it I hate star craft'
p439
aS'Smosh,nigahiga,wongfu are amazing'
p440
aS'That really tickled'
p441
aS'Omg smosh is in this video :-)'
p442
aS'OMZ!!! Ian and Anthony! I totally love Smosh!! Now it just needs Shane \nDawson in it!!!'
p443
aS'Awesome! I saw Ian and Anthony and freaked out'
p444
aS'Saw it loved it'
p445
aS'Is it for real or just a teehee thing ????'
p446
aS'Awesome!!!'
p447
aS'Smosh nigahiga kassemg ok'
p448
aS'Kevjumba is in at 1:30'
p449
aS'I see smosh'
p450
aS'i actually meant that i dont get why people are paying attention to smosh \nwen its nigahigas channel. GOSH!'
p451
aS'agents of secret stuff '
p452
aS'fullmetal panic'
p453
aS'I bet you Dominic is the bag guy'
p454
aS'When is it coming out?'
p455
aS'Bitches'
p456
aS'1:51 Antony Padilla? 1:53 ian hecox? '
p457
aS"Guys he already posted it to YouTube a long time ago so if your looking for \nit it's called: agents of secret stuff"
p458
aS'Smosh!'
p459
aS'Wow he got famous :O yesterday he was filming home videos!'
p460
aS'This was awesome i saw that video before this teaser. Well...'
p461
aS'Hey are you friend with smosh'
p462
aS"Uhh that shit was straight up filmed in Galt okay. That's my old Vice \nPrincipal at 2:04 no joke."
p463
aS'1:59 I have that exact same watch...'
p464
aS'I love how anthony and ian from smosh come out'
p465
aS'@jasdaher: same here!'
p466
aS'Smosh!! :)'
p467
aS'Thats epic!'
p468
aS'TEHEE its good!!!'
p469
aS'It was a good movie lol so funny'
p470
aS'u miss spelled updates '
p471
aS'I thought that he was gonna say "we are farmers" at 1:09'
p472
aS'PNM is born!!!!!!!!! Wht its a channel so check it out jk not now once we \nget vids'
p473
aS'Yea I saw the movie too'
p474
aS'"Agents of secret stuff" is the name of the movie'
p475
aS'WHAT. IS ANTONY AND IAN FROM SHOSH THERE?'
p476
aS"AWESOMENESSSSSSSSSSASSSSSASSSSSSASSSSSSASSSSSSSAASSSSSSASSSSSASSSSS I CAN'T \nWHAT TO SEE THE VID"
p477
aS'SCsaAASascaSdSxsxASCSAasCDCsaccsaEGRWvrdsRGERwefeFEWSFDdsefEGWWWDAsveffescEGRGSgrrgeSDVDSVsgEFSCDDfsfeSSDDFSsffsdHUGAGIFahfljahfjkfdahjda'
p478
aS'how come i didnt see that explosion in the short'
p479
aS'We -3 u Ryan!'
p480
aS'OMG I want to see it so bad -.- it was cool when I saw smosh'
p481
aS'the timing goes straight to 2:30 from 2:28'
p482
aS'Andrew!!'
p483
aS'Yes smosh going to wacth it'
p484
aS'starcraft rage quit lol'
p485
aS'Yay Smosh ,~!!'
p486
aS'With beiber frve4'
p487
aS'"... And missunderstood szzsizszzsiszes..."'
p488
aS'Taylor, you are my daughter But your so old! But yo mama was so young!!'
p489
aS"I saw that movie it's good"
p490
aS'I watched that movie a million times!'
p491
aS'SMOSH!!!!'
p492
aS'What is the movie called'
p493
aS'i wanna be an ass too'
p494
aS"Isn't this from 21 jump street"
p495
aS'thumbs up if u saw smosh'
p496
aS'1:52 TO 1:55 SMOSH!!!! d'
p497
aS"it's already posted... it's called the agent of secret stuff - - search in \nu tube"
p498
aS'It already is out'
p499
aS'thats my high school galt high '
p500
aS'SMOSH!! :D'
p501
aS'What is it called'
p502
aS'I wish this was REAL. ;n;'
p503
aS'Smosh!!!!!!!!!!!!!!!'
p504
aS'Ugh I wanna see this so bad!'
p505
aS'Smosh is in it!!! '
p506
aS'It was a good movie'
p507
aS'smosh are in the movie'
p508
aS'dear ryan can u spongbob '
p509
aS"It's called agents of secret stuff"
p510
aS'this is movis '
p511
aS'WE ARE ASSES!!!=)))))))))))'
p512
aS'Thumbs up if you saw Smosh at 1:52'
p513
aS'Lol Starcraft'
p514
aS'We Are Asses x3 Cute.. This Mvie Should Be In Th theaters <3(:'
p515
aS' thumbs up if you saw ian and anthony'
p516
aS'Lol'
p517
aS'A Teaser that tickles hahah how sweet x3'
p518
aS'Is that xJawz at 1:52???'
p519
aS'@gamester890 Duh. Like a year ago.'
p520
aS'smosh!!!'
p521
aS'WE ARE A.S.Ss! LOL =D i luv this movie'
p522
aS'Nigahiga and Ian Anthony and Kassem G!!!!!...THIS IS AWESOME!!!!:)<3'
p523
aS'HEY.LOOK ITS SMOSH .'
p524
aS'@LETSD0THIS its called A.S.S which stands for Agents of Secret Stuff'
p525
aS'no matter what the sircumstances we push on through LOL '
p526
aS'The minute i saw anthony & ian i screamed like a little fan girl :D'
p527
aS'Antvenom at : 1:47'
p528
aS'was that game league of legends?>?'
p529
aS'ahaha i saw smosh and kassem and thought, this shit. will be BRILLIANT'
p530
aS'OMG Smooooooooooosh!!'
p531
aS'Spit on 1:24'
p532
aS'2:20 smosh getting beat up'
p533
aS'Smooosshhhh!!'
p534
aS'lol 4 probes queed up and pylon blocked at same time, no gas at that stage \nlol. And how can u say "i said zealots not zerglings" it doen\'t work that \nwas funny i know u did it on purpose. Can i add u on Sc2'
p535
aS'u need to be a partner, you are too funny'
p536
aS'what is this movie called i wanna watch it!'
p537
aS'35 mins'
p538
aS'@rockstarnorth11 hahahahahaha thats so funny!'
p539
aS'THIS. IS. AWESOME !'
p540
aS'Oh I remember this'
p541
aS'@VegitarianWolf I was gonna ask.'
p542
aS'YAY A.S.S is on Yip yip yipee'
p543
aS'TROLOLOLOLOLOL on your pronunciation of Zealot=P'
p544
aS'my smoshy anthony... LUV YA'
p545
aS'why dont u make any more vids'
p546
aS'@LETSDOTHIS agents of secret stuff'
p547
aS"Hey it's smosh"
p548
aS'Wow nigahiga and smosh! I half expected to see Robert Benfer and Julian \nSmith.'
p549
aS'IVE BEEN TRAINED TO BE AN ASS!!!! :3'
p550
aS'WTF SMOSH'
p551
aS"No hes playing starcraft. check 0:20. There's even the box there, and he \nmakes two starcraft refrences (zealots and zerglings)"
p552
aS'Dear Ryan, can you continue with the BEST CREW videos??? :)'
p553
aS'Soooooooo handsome!!!!\xf0\x9f\x98\x8d'
p554
aS'Just watch the actual movie.'
p555
aS'can some one send me a link to the actual video because i cant find it'
p556
aS"lol I've been training to be an ass!!!"
p557
aS'Loved it and it was 35:00 not 45:00 minutes'
p558
aS'can you make a dragonfable'
p559
aS'Is that gonna be a real movie'
p560
aS'@Gamerbrick EVERYONE saw them...idiot'
p561
aS'smosh and nigahiga makeing a movie together? i just nerded in my pants.'
p562
aS'wat the ? ian and anthony in a movie with nigahiga ?! ( dunno he real name \n) is so totally awesome ! 3 funny people in youtube in 1 movie! must see ! \nxD'
p563
aS'OMG I SAW SMOSH TOO! THUMBS UP IF YOU SAW THEM'
p564
aS'I knew when he said favorite YouTube stars I knew it would be SMOSH'
p565
aS'1:50 SMOSH!!!'
p566
aS'smosh smosh smosh smosh smosh, the first time i watched this movie i didnt \nknow about smosh there awsome but ryan is better still.'
p567
aS'i luv smosh and higa im happy theyre doin a movie together'
p568
aS'SMOSH!!!!!!!!'
p569
aS'SMOSH!!!!!!!!!!!!!!!!!!!!!!!!!!!!!!'
p570
aS'i need to see that movie'
p571
aS'lol ian and anthony'
p572
aS"It's Ian and Anthony!"
p573
aS'smosh lol '
p574
aS'smosh!!'
p575
aS"It's KassemG and Smosh!"
p576
aS'SMOSH!!!'
p577
aS'Must be EPIC!!!'
p578
aS'smosh'
p579
aS'SMOSH! THE PEANUTS GUY!! '
p580
aS'So.., anyone else bisides Ian and Anthony?'
p581
aS'OMG u guys I just saw Ian and Anthony:)'
p582
aS'I wanna see it all !!!!(ahhh)'
p583
aS'Did somewone see Ian and Anthony?'
p584
aS'1:25 The guy spit!'
p585
aS'Dear Ryan, can you be a professional Pokemon trainer? :)'
p586
aS'Wherecangetthatdamnmovie?'
p587
aS'Higa looked like Link from Skyward Swords when he rolled at 1:53'
p588
aS'Smosh : D'
p589
aS'hey isnt that where they shot easy A? 0.o'
p590
aS"Are y'all seriously making a movie?"
p591
aS'That looks awesome do u know one sided films?'
p592
aS'I got chills when I saw Smosh :D'
p593
aS"My Friend showed me him, he's so funny"
p594
aS"He's not in america right?"
p595
aS'Smosh'
p596
aS'"Favorite Youtubers"... Is Tobuscus in it? :-3'
p597
aS'I LUV THIS MOVIE!!! But I only KINDA wish I was an ASS and got my ASS HOLE \n:D'
p598
aS'when is it coming out? =) '
p599
aS'The guy spits on 1:23'
p600
aS'Subscribmeee!! Everyone can subscribme and chek my videos plzzz!!!!!'
p601
aS"It's already out"
p602
aS'we push on thew i cryed haaaaa'
p603
aS'@TheGParkour i know right'
p604
aS'Fake ass alex rider'
p605
aS'WTF'
p606
aS'ur obsessed im guessing........................'
p607
aS'Hahahaha ha watched the movie b4 this'
p608
aS'Why did I put a t in the end lol'
p609
aS'Smosh and ryan and dtrix?? This is gonna be fucking awesome'
p610
aS'SMOSH FTW!!!!'
p611
aS"What's with the end?? It isn't in the movie! XD the search the movie it's \ncalled 'Agents of secret stuff'"
p612
aS'@cponfantage12 where did you watch the movie?(:'
p613
aS'where do we watch the movie at?'
p614
aS'1:24 :) Look at his mouth XD'
p615
aS'I was here ro see Ryan,Ian and Anthony. Hehe'
p616
aS'SMOSH!!!!'
p617
aS'Smooooooooooooosh !!!!!!!'
p618
aS'I want to see the movie now\xf0\x9f\x98\xad'
p619
aS'i like rwj and nigahiga smosh sucks '
p620
aS'@VampirifiedAngel like!!! : DDDDD'
p621
aS'When the movie coming out?!!?'
p622
aS'This video came out on my birthday.. :3'
p623
aS'@JasmineNacole1 his channel'
p624
aS'lmfao nice pose on 2:21'
p625
aS'tickled with a teaser!!'
p626
aS'@ISRAVILLEG its already out just search agents of secret stuff in the \nsearch bar'
p627
aS'Smosh smosh smosh smosh smosh smosh smosh smosh'
p628
aS'Smosh??????'
p629
aS"Dear nigahiga, Will the credit scenes have all the actors saying 'TEEHEE'?"
p630
aS'all the action is in 2:21!'
p631
aS'haha i watched the movie, its funny xD'
p632
aS'@Trollingtrolls131 it is look up Agents Of Secret Stuff'
p633
aS'Y he beat up ian and Anthony?'
p634
aS'I have that watch!!! 2:00'
p635
aS'@AmericanPesos its in the side bar , called agents of secret stuff'
p636
aS'i was thinking when he said we are asses i thought he was gonna go: We are \nA.S.Ses buh buh buh buh buh buh buh.'
p637
aS'Awesome smosh! I wanna see this movie'
p638
aS"thumbs up if you saw ian and anthony from Smosh! (you don't have to thumbs \nup though."
p639
aS'@AngiesSpell12 it already has'
p640
aS'2:20 that wasnt in the movie :( and freddiew shouldve been there lol'
p641
aS'We are ass. We push on through'
p642
aS'HOLY *beep* SMOSH WERE THERE!'
p643
aS'thumbs up if u play sc2 as well'
p644
aS"Does anybody remember the short film Ryan and Sean made during High School. \nIt was a drama and it was pretty intense. I can't find it. Does anybody \nknow where I can watch?"
p645
aS'I will watch this movie !! haha very funny ryan :* love you !!'
p646
aS'Ian and anthony!!!!'
p647
aS'TEEHEE!'
p648
aS'is this a real movie?'
p649
aS'I saw Ian and Anthony from Smosh!'
p650
aS'The best you tubers combined smosh and nigahiga'
p651
aS'nigahiga+smosh=awesomesauce'
p652
aS"Looks great! Can't wait to watch ;p"
p653
aS'Can You Give Me Link To The Movie Please ? :D '
p654
aS'LEAGUE OF LEGENDS!!!'
p655
aS'BEST MOVIE EVER!'
p656
aS'i did 2'
p657
aS'What the name of the movie?'
p658
aS'I love sc2'
p659
aS'1:12 ASSets!'
p660
aS'Trace is awesimnme'
p661
aS"It's real I watch it and it was funny :)"
p662
aS'yAy.IAN AND ANTHONy'
p663
aS'lolololololololololololololololololololol....................lol '
p664
aS'Starcraft :D'
p665
aS'i saw ian and anthony at 1:52 and 1:53 lol!'
p666
aS'btw, gratz on getting 1 BILLION views!'
p667
aS'Omg wheres Michelle Phan D: '
p668
aS'tickle you with a teaser?LAME...lol jk'
p669
aS'1:53 is that Jon Cozart?'
p670
aS'where is da moviee'
p671
aS'He already made the movie'
p672
aS'Smosh was in it!'
p673
aS'Is this legit? And if it is, where can I find the actual movie?? '
p674
aS'd-trix!'
p675
aS'thumbs up if you already saw the movie and you were onfused...like me '
p676
aS'smosh!'
p677
aS"Sounds like ''The Avengers'' to me!"
p678
aS'1:22 SPIT YUCKIES!!!!!!!'
p679
aS'What movie is this?'
p680
aS"If you didn't I would hunt you down"
p681
aS'this movie will rock!!!'
p682
aS'@JishandSgtPickles Its call "Agents of scret stuff" and the url is.. \n/watch?v=kMy-6RtoOVU&feature=channel_video_title just put the \'w\'s\' and \nyoutube and dot and com before you put the link^'
p683
aS'SMOSH!!!! :DD'
p684
aS'LOL'
p685
aS'smosh + nigahiga = awesome'
p686
aS'idiots the movies on wongfu produstions website :P its a good movie'
p687
aS' I Almost died at 1:52...'
p688
aS'did anyone else notice smosh? ha'
p689
aS'omg Kassem , Ryan , Ian , and Anthony :DDDD'
p690
aS"@ScazzaGrace Yes, yes it is legit. It's on Ryan's channel. It's 30 mins \nlong and there is another one called Ninja Melk.... It is funny but isn't \namazing. But entertaining. "
p691
aS"anyone who kept asking where the movie is, just go to nigahiga's chamnel \nand you'll find it there -.-"
p692
aS'Smosh, nigahiga, and Kadeem g... They should make more like this but with \nmore YouTube celebrities like rwj, sd, Frediview, fine bros,'
p693
aS'if this is fake im unsubscribing'
p694
aS'I have the same logitech head set!!'
p695
aS'my name is david lol'
p696
aS'Thumps up if you saw smosh and kassem G'
p697
aS'omg you play starcraft you should add me! :) Im a boss'
p698
aS'okay?? then why does he have more subscribers? stfu...'
p699
aS"It IS real. Duh, haven't u seen it??"
p700
aS'Wow...Anthony and Ian (Smosh) is there'
p701
aS'It already came out'
p702
aS'I want to see movie'
p703
aS"What's the movie called?"
p704
aS'Omg i justsaw smosh they r in a movie'
p705
aS'I just relise, when you put all the youtube stars in one hi school movie, \nit casually fits priddy nice :D'
p706
aS'i know this is old and you might not read this ryan but you should of said \ncoming soon to a higa near your niga'
p707
aS'I have the headphones he wears when he plays StarCraft.'
p708
aS'They are awesome and funny'
p709
aS'@alexkristian1234567 nice'
p710
aS'how do you play league of legends on mac? '
p711
aS"hi my name is jeremiah, and I'm a big fan of yours "
p712
aS'lozl. Lozl? lozl- FUCK! loz- UGH! lolz. YES! I DIDN- FUCK! I DINT- WHAT THE \nFU- I DID IT@... @? I DID THI! WAT? I DID IT! I WIN! I CAN TYP! Typ? TUIP! \nTuip? TULIP- THE HELL?! TYPE! YEAH@! @? YEAH!! I am epci! Epci? I am epci- \nFUCK! I am ape- what the? I AM EPIC! YEASH- no, YEH- YES! I PWN U ALL!'
p713
aS'@WarriorDutch LOL'
p714
aS'The guy spit'
p715
aS'SMOSH!!!'
p716
aS'\xe2\x94\x8f\xe2\x94\x81\xe2\x94\x81\xe2\x94\x81\xe2\x94\x81\xe2\x94\xb3\xe2\x94\x81\xe2\x94\x81\xe2\x94\x81\xe2\x94\xb3\xe2\x94\x81\xe2\x94\x81\xe2\x94\x81\xe2\x94\xb3\xe2\x94\x93\xe2\x95\x8b\xe2\x94\x8f\xe2\x94\xb3\xe2\x94\x81\xe2\x94\x81\xe2\x94\x81\xe2\x94\xb3\xe2\x94\x81\xe2\x94\x81\xe2\x94\x81\xe2\x94\x93 \xe2\x94\x83\xe2\x94\x8f\xe2\x94\x93\xe2\x94\x8f\xe2\x94\x93\xe2\x94\x83\xe2\x94\x8f\xe2\x94\x81\xe2\x94\x81\xe2\x94\xab\xe2\x94\x8f\xe2\x94\x81\xe2\x94\x81\xe2\x94\xab\xe2\x94\x83\xe2\x95\x8b\xe2\x94\x83\xe2\x94\x83\xe2\x94\x8f\xe2\x94\x81\xe2\x94\x81\xe2\x94\xab\xe2\x94\x8f\xe2\x94\x81\xe2\x94\x81\xe2\x94\x9b \n\xe2\x94\x97\xe2\x94\x9b\xe2\x94\x83\xe2\x94\x83\xe2\x94\x97\xe2\x94\xab\xe2\x94\x97\xe2\x94\x81\xe2\x94\x81\xe2\x94\xab\xe2\x94\x97\xe2\x94\x81\xe2\x94\x81\xe2\x94\xab\xe2\x94\x97\xe2\x94\x81\xe2\x94\x9b\xe2\x94\x83\xe2\x94\x97\xe2\x94\x81\xe2\x94\x81\xe2\x94\xab\xe2\x94\x97\xe2\x94\x81\xe2\x94\x81\xe2\x94\x93 \xe2\x95\x8b\xe2\x95\x8b\xe2\x94\x83\xe2\x94\x83\xe2\x95\x8b\xe2\x94\x83\xe2\x94\x8f\xe2\x94\x81\xe2\x94\x81\xe2\x94\xab\xe2\x94\x8f\xe2\x94\x81\xe2\x94\x81\xe2\x94\xab\xe2\x94\x8f\xe2\x94\x81\xe2\x94\x93\xe2\x94\x83\xe2\x94\x8f\xe2\x94\x81\xe2\x94\x81\xe2\x94\xab\xe2\x94\x8f\xe2\x94\x81\xe2\x94\x81 \n\xe2\x95\x8b\xe2\x95\x8b\xe2\x94\x83\xe2\x94\x83\xe2\x95\x8b\xe2\x94\x83\xe2\x94\x97\xe2\x94\x81\xe2\x94\x81\xe2\x94\xab\xe2\x94\x97\xe2\x94\x81\xe2\x94\x81\xe2\x94\xab\xe2\x94\x83\xe2\x95\x8b\xe2\x94\x83\xe2\x94\x83\xe2\x94\x97\xe2\x94\x81\xe2\x94\x81\xe2\x94\xab\xe2\x94\x97\xe2\x94\x81\xe2\x94\x81\xe2\x94\x93 \xe2\x95\x8b\xe2\x95\x8b\xe2\x94\x97\xe2\x94\x9b\xe2\x95\x8b\xe2\x94\x97\xe2\x94\x81\xe2\x94\x81\xe2\x94\x81\xe2\x94\xbb\xe2\x94\x81\xe2\x94\x81\xe2\x94\x81\xe2\x94\xbb\xe2\x94\x9b\xe2\x95\x8b\xe2\x94\x97\xe2\x94\xbb\xe2\x94\x81\xe2\x94\x81\xe2\x94\x81\xe2\x94\xbb\xe2\x94\x81\xe2\x94\x81\xe2\x94\x81\xe2\x94\x9b'
p717
aS'Funny'
p718
aS'2:21 Gay End... '
p719
aS'i watched this vid 6 times and i just figured the smosh are in it!'
p720
aS'Its weird how just finished watching the movie and now I found this \nvideo... WEIRD xD'
p721
aS'@airsoft5761 cool! :) '
p722
aS'when is the movie gonna come out? '
p723
aS"@EgilFearFactor it's already out. :) can't post the url here, but you can \nsee it in ryan higa's channel. It was posted last Nov. 23, 2010"
p724
aS'1:24 ew old guy spit.'
p725
aS'Thumbs up if you see the comments first because you need to wait for the \nvideo to load :)'
p726
aS'im watchin a supah ninjas episode with nigahiga in it right now!! :D'
p727
aS'@alexkristian1234567 lololololol epic :D'
p728
aS"lol what's your Starcraft ID let's play ^___^"
p729
aS'Poop'
p730
aS'1:51 - 1:54'
p731
aS"It has Smosh in it...Crap. I guess I'm not watching that."
p732
aS'SMOSH<3'
p733
aS'haha smosh antony padilla and ian hecox :)'
p734
aS'StarCraft II = ="'
p735
aS'0:20 StarCraft !xD'
p736
aS'@SGGFriends4Ever I KNOW RIGHT!!!'
p737
aS'@firellamas1 It\'s already out. It\'s called "Agents of Secret Stuff".'
p738
aS'i wanna c this movie! :)'
p739
aS'youtube. com/watch?v=GOR60Tn4O3E '
p740
aS'This will be EPICLY EPIC with smosh dominic and others'
p741
aS'Poop'
p742
aS'SMOSHHHHHH!!!!!!!!!!!!'
p743
aS'cool better than mine '
p744
aS'@dhorrorpt nice i got it recorded on my dvr'
p745
aS"Wasn't that a trailer? lol"
p746
aS'YES uploaded on my birthday I THINK THAT DESERVES A TEEHEE'
p747
aS'thumbs up! if you saw d-trix of "quest crew" on the movie clip! ahahah ^_~ \nstar craft II....'
p748
aS'The movie was awesome :-)'
p749
aS'WOOOOOO ANTHONY AND IAN'
p750
aS'Hye hes working with himself, freddiew, smosh, and idk RWJ'
p751
aS'Smosh?!?!'
p752
aS'did anyone else see the spit that shot out of that dudes mouth at 1:24?'
p753
aS'Fucking Saramago at 2:03. Kind of thrilled this was filmed in Galt.'
p754
aS"But we're asses lol"
p755
aS'omfg its anthony and ian from smosh!!!'
p756
aS'can some1 send a direct link to the movie?'
p757
aS'Wow'
p758
aS'Smosh :D'
p759
aS'No Ray WJ?'
p760
aS'@darkglass34 I think smosh is the lucky one -.-'
p761
aS'@lululy1993 its on his channel :)'
p762
aS'FUCKING SMOSH!!!! Oh, and when is this coming out :L'
p763
aS'Dear Ryan can you do every thing\xee\x84\x8c'
p764
aS'We very funny wan you watch us wan'
p765
aS'Smosh!!!!!!!!!!!!!!'
p766
aS'OMG!with ian and anthony in a class?! AWESOME'
p767
aS'Dear Ryan, Can you be Ryan and Sean at the same time????'
p768
aS'@7980748 no!'
p769
aS'@Aparajitataneja haha its not illegal :) its on youtube, he uploaded it so \njust go through his videos until you find it'
p770
aS'ASS agent.of.secret.stuff lol...:D..,..'
p771
aS'The movie was actually pretty good, and only 30 minutes long. Do more vids!'
p772
aS'SMOSH!!!!'
p773
aS'@adinela100 its on higatv.com '
p774
aS'1:23 , 1:24 SMOSH!!!'
p775
aS'ass XD'
p776
aS'Make it a movie it looks epic!'
p777
aS'@lyssalove123able hahahah i saw it already but thanks la~ :D'
p778
aS'But zealots are toss and Lings are zerg.....'
p779
aS'At 1:24 the old man spits... i nvr noticed dat watching the movie'
p780
aS'Smosh your friends with smosh'
p781
aS'It is on youtube'
p782
aS'SMOSH'
p783
aS'where can I watch this movie online? i know its illegal but pleeeaassee'
p784
aS'Omg smosh'
p785
aS'WE ARE ASSES!'
p786
aS'dear ryan-can you be in the olimpics?'
p787
aS'so wheres the movie?'
p788
aS"Where Can i watch this online? :D.. for free ....without virus???.... coz \ni'm a cheapskate asian :D"
p789
aS'wth with the agent hair'
p790
aS'@ZaleraExdeath Yeah I know i feel so stupid now because as soon as I saw \nthis, I was the real movie! HAHAHA. thereason I wrote this was because some \ngirl on yahoo had asked where she could see it and I thought we have to \nlike buy it or something :P'
p791
aS'Ian and Anthony are gonna be on the movie!!!'
p792
aS'Mission Teehee'
p793
aS'The movie is pretty good'
p794
aS'@robbister4 /watch?v=kMy-6RtoOVU&feature=related'
p795
aS'Dear Ryan, can you be an astronaut'
p796
aS'Meh, the book was better.'
p797
aS"wow is it Antony and Ian in this film too ? Lol This film will break \nTitanic's record"
p798
aS'where can i find this!?'
p799
aS"Smmmmmmmooooossssssshhhjhhh in the movie?! I'm gonna watch it!!!"
p800
aS'STOP BEATING IAN AND ANTHONY'
p801
aS'Is this real cause I want to watch'
p802
aS"Ryan:Ok that's not true kinda,maybe..."
p803
aS"Hey!!! STOP RIGHT THERE!! YES! RIGHT THERE ON MY COMMENT! Click the blue \nname below, that says: PeterKielJensen. This will lead you to my page! A \nfresh new page, that you HAVE to subscribe to! :) I've goet one video out \nso far... It's me, introducing myself in FRENCH! Im not very good at it.... \naw we'll.... CLICK!"
p804
aS'Did they ever make this movie?'
p805
aS'Ian is playing a perv and Anthony is playing a bully'
p806
aS'ASS lol'
p807
aS's,b'
p808
aS'When I first saw the movie I didn\'t recognaise all the YouTubers, but now I \nwatch it and go "Hey! There\'e Anthony and Ian! And there\'s D-trix!" How I \nhave changed...'
p809
aS'The movie is on YouTube, people. Called agents of secret stuff. Geeeeez.(:'
p810
aS'STARCRAFT!!! Zealotz not zerglings!!! xDD'
p811
aS'dear Ryan can u be any funnier???????'
p812
aS'YO BRO! . . ahem i mean, Dear Ryan. What is your Starcraft 2 Usernames and \nCharacter code? :D'
p813
aS'spoiler the bad guy is bad OMG SUPER SECRET '
p814
aS'Dear Ryan can you CUT the HAIR of KEVJUMBA?'
p815
aS'@therosalina91 Starcraft :)'
p816
aS'The new movie is called TEASER?'
p817
aS'LMFAO @ D-TRIX'
p818
aS'tee hee at the end scared me... '
p819
aS'This is almost exactly the same premise as Full Metal Panic. I liked it but \nthey coulda gave FMP some credit.'
p820
aS'where could i find to watch the movie ??'
p821
aS'is this a real movie??'
p822
aS'Ryan can u be serious?'
p823
aS"i watched the film like 24 times, and i'm not tired yet"
p824
aS"omg youtube people are better and WAY more famous then tv and sing people \nbecause they make their own stunts, scenes, sounds and they are FUNNY and \nthey know how to have a good time like RWJ's vlog with his party and \nanthony was there and more ps. WHERE WAS IAN!?"
p825
aS'what is that game is it League of Legends??'
p826
aS'awww'
p827
aS'For everyone who wanted to know this is how much NigaHiga makes in a \nday/year: $704.74 - $4,580.82 /day $257,231 - $1,671,999 /yr this is all \nthe estimation and rough adding up the best we can do and also here: \nCurrent # of subscribers: 4321694 :: Gaining 6156.3 per day on average \nCurrent # of views: 935669855 :: Gaining 1409482.5 per day on average'
p828
aS'@brooklynparis100 Lol your like almost one year late....'
p829
aS'HAPPY 1 YEAR ANNIVERSERY OF THIS VIDEO'
p830
aS'It seem very interesting.. I really liked the teaser. I would like to see \nit ^_^ Really every day you surprise me more'
p831
aS'is this really a movie?'
p832
aS'SMOSH :D'
p833
aS'A.S.S'
p834
aS'hahahhahahah 0:47'
p835
aS'899 people are members of the S.I.N.S.'
p836
aS'dear ryan ; can u be teacher '
p837
aS'love him '
p838
aS'The'
p839
aS'yeah '
p840
aS'SMOSH!!!'
p841
aS'@therosalina91 Starcraft2'
p842
aS'@funkymomo1467 its on youtube its called "agents of secret stuff"'
p843
aS'i watched that movie just so i could see smosh'
p844
aS'I have seen the move and I love the pencil sharpener part! :D'
p845
aS'1:51-1:54...smosh'
p846
aS"TO ALL NIGAHIGA FANS! RayWilliamJohnson now has more subscribers than \nnigahiga! Lets help nigahiga to have more subs. RWJ doesn't\xef\xbb\xbf deserve 3 \nmillion subs for just reviewing a video! The reason nigahiga\xef\xbb\xbf doesnt have \nmore subs is because at the end of the video\xef\xbb\xbf he\xef\xbb\xbf doesnt beg people to \nsubscribe to\xef\xbb\xbf him like all those\xef\xbb\xbf other youtube celebritys. Kindly copy and \npaste this if can to other video to\xef\xbb\xbf help nigahiga. Thank you Thumbs Up\xef\xbb\xbf\xef\xbb\xbf \n(so everyone\xef\xbb\xbf can see.) "
p847
aS"LOL-ing everytime someone touches him and he goes like i'm ready to fight \nbro. trolololol X))"
p848
aS'SMOSH!!!!'
p849
aS"I can't believe there was smosh."
p850
aS'no shit sherlock'
p851
aS'Wher do i go to see it'
p852
aS'Dear Rayn can you be a fashion designer?'
p853
aS"@HAlyssa14 it's agents of secret stuff"
p854
aS'(See\'s smosh) "IT\'S SMOSH!!"'
p855
aS'been there done that -__________________-'
p856
aS'OMFG THEY GOT THE FUCKING SMOSH GUYS'
p857
aS'where do ou get your jackets they so awesome?'
p858
aS'SMOSH ~ XD'
p859
aS"@TheMw2QuickScopePro What's that supposed to be?..."
p860
aS'where on earth is kevjumba ??????? chester see ?????'
p861
aS'@royalassassin2010 TeeHee'
p862
aS'Im jay'
p863
aS'2:21 epic ryan higa fart'
p864
aS'wow smosh'
p865
aS'wheres the video? is there actually one? '
p866
aS'I love how he says its 45 mins when its 35 XD'
p867
aS'@TheMw2QuickScopePro o_o .... >_> .... o_o'
p868
aS'@FossaHans I LOVE SC2!!!!! I BET IM BETTER THAN HE IS...... probably not :D '
p869
aS'@Lanoosh97 dont forget victor kim'
p870
aS'I seen your name on the New Call Of duty zombie map Moon :0'
p871
aS'do you want to laugh????? watch my video on my account if you want to see 7 \nBUSES jammed in a street and could barely move ;)'
p872
aS'THUMBS UP FOR STARCRAFT 2!! :D'
p873
aS'@Lunaofthedarkwolf it came out last year lmao'
p874
aS'We Are ASSES! Lol that killed me.... :P'
p875
aS'1:51 , That Guy looks like the person from SMOSH.'
p876
aS'@TemplarKiel it is lol '
p877
aS'2:21 epic ryan higa fart, the smell coming soon to your local theater'
p878
aS'i thought only koreans played starcraft 2 but nvm al asians'
p879
aS'iiiiiiiiiiiiiiiiiiiiiiiiiiiiiiiiiiiiiiiiiiiiiiiiiiiiiiiiiiiiiiiiiiiiiiiiiiiiiiiiiiiiiiiiiiiiiiiiiiiiiiiiiiiiiiiiiiiiiiiiiiiiiiiiiiiiiiiiiiiiiiiiiiiiiiiiiiiiiiiiiiiiiiiiiiiiiiiiiiiiiiiiiiiiiiiiiiiiiiiiiiiiiiiiiiiiiiiiitieieihieieiiiiiiiiiiiiiiiiiiiiiiiiiiiiiiiiiiiiiiiiiiiiiiiiiiiiiiiiiiiiiiiiiiiiiiiiiiiiiiiiiiiiiiiiiiiiiiiiiiiiiiiiiiiiiiiiiiiiiiiiiiiiiiiiiiiiiiiiiiiiiiiiiiiiiiiiiiiiiiiiiiiiiiiiiiiiiiiiiiiiiiiiiiiiiiiiiiiiiiiiiiiiiiiiiiiiiiiiiiiiiiiiiiiiiiiiiiiiiiiiiiiiiiiiiiiiiiiiiiiiiiiiiiiiiiii'
p880
aS'@TheMw2QuickScopePro \xe2\x94\x8f\xe2\x94\x81\xe2\x94\x81\xe2\x94\x81\xe2\x94\x81\xe2\x94\x93\xe2\x95\xb2\xe2\x95\xb2\xe2\x95\xb2\xe2\x95\xb2\xe2\x94\x8f\xe2\x94\x93\xe2\x95\xb2\xe2\x94\x8f\xe2\x94\x93 \xe2\x94\x83\xe2\x94\x8f\xe2\x94\x93\xe2\x94\x8f\xe2\x94\x93\xe2\x94\x83\xe2\x95\xb2\xe2\x95\xb2\xe2\x95\xb2\xe2\x95\xb2\xe2\x94\x83\xe2\x94\x83\xe2\x95\xb2\xe2\x94\x83\xe2\x94\x83 \xe2\x94\x97\xe2\x94\x9b\xe2\x94\x83\xe2\x94\x83\xe2\x94\xa3\xe2\x94\xbb\xe2\x94\x81\xe2\x94\xb3\xe2\x94\x81\xe2\x94\x81\xe2\x94\xab\xe2\x94\x97\xe2\x94\x81\xe2\x94\x9b\xe2\x94\xa3\xe2\x94\x81\xe2\x94\x81\xe2\x94\xb3\xe2\x94\x81\xe2\x94\x81\xe2\x94\x93 \n\xe2\x95\xb2\xe2\x95\xb2\xe2\x94\x83\xe2\x94\x83\xe2\x94\x83\xe2\x94\x83\xe2\x94\x81\xe2\x94\xab\xe2\x94\x83\xe2\x94\x81\xe2\x94\xab\xe2\x94\x8f\xe2\x94\x81\xe2\x94\x93\xe2\x94\x83\xe2\x94\x83\xe2\x94\x81\xe2\x94\xab\xe2\x94\x83\xe2\x94\x81\xe2\x94\xab \xe2\x95\xb2\xe2\x95\xb2\xe2\x94\x83\xe2\x94\x83\xe2\x94\x83\xe2\x94\x83\xe2\x94\x81\xe2\x94\xab\xe2\x94\x83\xe2\x94\x81\xe2\x94\xab\xe2\x94\x83\xe2\x95\xb2\xe2\x94\x83\xe2\x94\x83\xe2\x94\x83\xe2\x94\x81\xe2\x94\xab\xe2\x94\x83\xe2\x94\x81\xe2\x94\xab \xe2\x95\xb2\xe2\x95\xb2\xe2\x94\x97\xe2\x94\x9b\xe2\x94\x97\xe2\x94\x81\xe2\x94\x81\xe2\x94\xbb\xe2\x94\x81\xe2\x94\x81\xe2\x94\xbb\xe2\x94\x9b\xe2\x95\xb2\xe2\x94\x97\xe2\x94\xbb\xe2\x94\x81\xe2\x94\x81\xe2\x94\xbb\xe2\x94\x81\xe2\x94\x81\xe2\x94\x9b '
p881
aS'I wonder, has somebody been watching full metal panic? And I am so ready \nfor this!'
p882
aS'where the black ppl lol'
p883
aS'\xe2\x94\x8f\xe2\x94\x81\xe2\x94\x81\xe2\x94\x81\xe2\x94\x81\xe2\x94\xb3\xe2\x94\x81\xe2\x94\x81\xe2\x94\x81\xe2\x94\xb3\xe2\x94\x81\xe2\x94\x81\xe2\x94\x81\xe2\x94\xb3\xe2\x94\x93\xe2\x95\x8b\xe2\x94\x8f\xe2\x94\xb3\xe2\x94\x81\xe2\x94\x81\xe2\x94\x81\xe2\x94\xb3\xe2\x94\x81\xe2\x94\x81\xe2\x94\x81\xe2\x94\x93 \xe2\x94\x83\xe2\x94\x8f\xe2\x94\x93\xe2\x94\x8f\xe2\x94\x93\xe2\x94\x83\xe2\x94\x8f\xe2\x94\x81\xe2\x94\x81\xe2\x94\xab\xe2\x94\x8f\xe2\x94\x81\xe2\x94\x81\xe2\x94\xab\xe2\x94\x83\xe2\x95\x8b\xe2\x94\x83\xe2\x94\x83\xe2\x94\x8f\xe2\x94\x81\xe2\x94\x81\xe2\x94\xab\xe2\x94\x8f\xe2\x94\x81\xe2\x94\x81\xe2\x94\x9b \n\xe2\x94\x97\xe2\x94\x9b\xe2\x94\x83\xe2\x94\x83\xe2\x94\x97\xe2\x94\xab\xe2\x94\x97\xe2\x94\x81\xe2\x94\x81\xe2\x94\xab\xe2\x94\x97\xe2\x94\x81\xe2\x94\x81\xe2\x94\xab\xe2\x94\x97\xe2\x94\x81\xe2\x94\x9b\xe2\x94\x83\xe2\x94\x97\xe2\x94\x81\xe2\x94\x81\xe2\x94\xab\xe2\x94\x97\xe2\x94\x81\xe2\x94\x81\xe2\x94\x93 \xe2\x95\x8b\xe2\x95\x8b\xe2\x94\x83\xe2\x94\x83\xe2\x95\x8b\xe2\x94\x83\xe2\x94\x8f\xe2\x94\x81\xe2\x94\x81\xe2\x94\xab\xe2\x94\x8f\xe2\x94\x81\xe2\x94\x81\xe2\x94\xab\xe2\x94\x8f\xe2\x94\x81\xe2\x94\x93\xe2\x94\x83\xe2\x94\x8f\xe2\x94\x81\xe2\x94\x81\xe2\x94\xab\xe2\x94\x8f\xe2\x94\x81\xe2\x94\x81\xe2\x94\x9b \n\xe2\x95\x8b\xe2\x95\x8b\xe2\x94\x83\xe2\x94\x83\xe2\x95\x8b\xe2\x94\x83\xe2\x94\x97\xe2\x94\x81\xe2\x94\x81\xe2\x94\xab\xe2\x94\x97\xe2\x94\x81\xe2\x94\x81\xe2\x94\xab\xe2\x94\x83\xe2\x95\x8b\xe2\x94\x83\xe2\x94\x83\xe2\x94\x97\xe2\x94\x81\xe2\x94\x81\xe2\x94\xab\xe2\x94\x97\xe2\x94\x81\xe2\x94\x81\xe2\x94\x93 \xe2\x95\x8b\xe2\x95\x8b\xe2\x94\x97\xe2\x94\x9b\xe2\x95\x8b\xe2\x94\x97\xe2\x94\x81\xe2\x94\x81\xe2\x94\x81\xe2\x94\xbb\xe2\x94\x81\xe2\x94\x81\xe2\x94\x81\xe2\x94\xbb\xe2\x94\x9b\xe2\x95\x8b\xe2\x94\x97\xe2\x94\xbb\xe2\x94\x81\xe2\x94\x81\xe2\x94\x81\xe2\x94\xbb\xe2\x94\x81\xe2\x94\x81\xe2\x94\x81\xe2\x94\x9b'
p884
aS'@icemike121 they were 1v1 platinum. I dont know how the ranking system works'
p885
aS'when you were playing on the computer you totally acted like my brother '
p886
aS'smosh is in it because ryan higa was in pokemon theme song revenge'
p887
aS'Hahaha I was laughing my ass off'
p888
aS'U know smosh lucky'
p889
aS'@Ball4184 I KNOW RIGHT :D'
p890
aS'when does this come out?'
p891
aS'@TemplarKiel thats because he is moron '
p892
aS'what is your starcraft name'
p893
aS'@TheMw2QuickScopePro OOOOOOOOOOOOOOOHHHH!!!!!!!!!!!!!! *TeeHee...'
p894
aS'@icemike121 :D :) :( i had bad experiences today with starcraft :( stupid \nignoramus platinum players crap on bronze players >:('
p895
aS'thumbs up for smosh'
p896
aS'hey this is gonna be pretty epikkk '
p897
aS'hey I play starcraft too!!'
p898
aS'so, where is the movie?'
p899
aS'go to watch?v=kMy-6RtoOVU for the real movie'
p900
aS'But For Now, Let Me Tickle You With A Teaser xD'
p901
aS'guy from smoosh'
p902
aS'kassem'
p903
aS'I see Ian and Anthony from SMOSH!'
p904
aS'Has This movie come out yet.'
p905
aS'No Tobuscus? Livelavalive? Julian Smith???'
p906
aS"Pero cuando chico?!?! Jk just wanted to scare u. Ok maybe not scare but \nconfuse u. I said 'but when, boy?' Is it out yet?"
p907
aS'@CallMeTehRealz the title of the movie is "agent of secret stuff".....or \na.s.s..haha lol~~'
p908
aS'2:21... AWESOME!!!!!!'
p909
aS'@mermaidsRcool1 it dissapeared it was TEEHEE'
p910
aS'By the way, Zealot is pronounced: "Zell-it". :P'
p911
aS'We need Ray in the video :)'
p912
aS'aww i watched that 1 hour ago :( i thought there was another one :( <3'
p913
aS'I wonder if hes actually any good at starcraft lol '
p914
aS"ITS SMOSH :D YAAAA :D you should've added Shane Dawson :) Like if you \nagree! ;)"
p915
aS'D-TRIX!!!!! <3'
p916
aS'1:50 is anthony from smosh and at 1:53 is ian from smosh '
p917
aS'ASSM= Agent of Secret Stuff LMMFAOzors'
p918
aS"DON'T HURT MY ANTHONY. <|3 "
p919
aS'So is it real'
p920
aS'How niice both kassemG, Anthony and Ian os also within it 8D'
p921
aS"@KingMonk10 O.O cuz maybe it was!? ...-.-'"
p922
aS'KASSEM G!!!'
p923
aS'haha loved it xD smosh where freaking hilarious xD'
p924
aS'@mastergamer142 were not blind'
p925
aS'If you shop at Karmaloop or Plndr , use this Rep. Code to get 20% off your \npurchase! : Swagg1'
p926
aS'haha loved it xD smosh where freaking hilarious xD'
p927
aS'0:07 ewww LMFAO'
p928
aS'@miserybusiness2423 you just said LAN not ian?'
p929
aS'smosh!'
p930
aS'You see that ? 1:22'
p931
aS'OMG STARCRAFT!!!!! WHATS YOUR USERNAME!!! lol'
p932
aS'keep pressing 0:47 to see Ryan be disturbing with his finger :D'
p933
aS'OH MY GOSH IAN, AND ANTHONY, I AM SO HAPPY THAT THERE IN THAT MOVIE THIS IS \nGOING TO BE THE BEST SHORT FILM EVER. FUCK YA.'
p934
aS'i want the movie '
p935
aS'IAN AND ANTHONY WOOO YEA YAAAAAAAAY i screamed like a girl wen i saw them'
p936
aS'awesome film :))'
p937
aS'"EW!"'
p938
aS'@nigahiga is tht Warcraft? O.O'
p939
aS'We are ASSES!'
p940
aS'@GamerStation117 yea but thts just the box,my bro plays tht game. it is \nWarcraft.'
p941
aS'Hey guys, if you havent noticed,ive been gone for a while, because i have \nbeen sick, WITH BIEBER FEV-- LOL LMAO I LAUGHED SO HARD AT THIS'
p942
aS'\xe2\x94\x8f\xe2\x94\x81\xe2\x94\x81\xe2\x94\x81\xe2\x94\x81\xe2\x94\x93\xe2\x95\x8b\xe2\x95\x8b\xe2\x95\x8b\xe2\x95\x8b\xe2\x94\x8f\xe2\x94\x93\xe2\x95\x8b\xe2\x94\x8f\xe2\x94\x93 \xe2\x94\x83\xe2\x94\x8f\xe2\x94\x93\xe2\x94\x8f\xe2\x94\x93\xe2\x94\x83\xe2\x95\x8b\xe2\x95\x8b\xe2\x95\x8b\xe2\x95\x8b\xe2\x94\x83\xe2\x94\x83\xe2\x95\x8b\xe2\x94\x83\xe2\x94\x83 \xe2\x94\x97\xe2\x94\x9b\xe2\x94\x83\xe2\x94\x83\xe2\x94\xa3\xe2\x94\xbb\xe2\x94\x81\xe2\x94\xb3\xe2\x94\x81\xe2\x94\x81\xe2\x94\xab\xe2\x94\x97\xe2\x94\x81\xe2\x94\x9b\xe2\x94\xa3\xe2\x94\x81\xe2\x94\x81\xe2\x94\xb3\xe2\x94\x81\xe2\x94\x81\xe2\x94\x93 \xe2\x95\x8b\xe2\x95\x8b\xe2\x94\x83\xe2\x94\x83\xe2\x94\x83\xe2\x94\x83\xe2\x94\x81\xe2\x94\xab\xe2\x94\x83\xe2\x94\x81\xe2\x94\xab\xe2\x94\x8f\xe2\x94\x81\xe2\x94\x93\xe2\x94\x83\xe2\x94\x83\xe2\x94\x81\xe2\x94\xab\xe2\x94\x83\xe2\x94\x81\xe2\x94\xab \n\xe2\x95\x8b\xe2\x95\x8b\xe2\x94\x83\xe2\x94\x83\xe2\x94\x83\xe2\x94\x83\xe2\x94\x81\xe2\x94\xab\xe2\x94\x83\xe2\x94\x81\xe2\x94\xab\xe2\x94\x83\xe2\x95\x8b\xe2\x94\x83\xe2\x94\x83\xe2\x94\x83\xe2\x94\x81\xe2\x94\xab\xe2\x94\x83\xe2\x94\x81\xe2\x94\xab \xe2\x95\x8b\xe2\x95\x8b\xe2\x94\x97\xe2\x94\x9b\xe2\x94\x97\xe2\x94\x81\xe2\x94\x81\xe2\x94\xbb\xe2\x94\x81\xe2\x94\x81\xe2\x94\xbb\xe2\x94\x9b\xe2\x95\x8b\xe2\x94\x97\xe2\x94\xbb\xe2\x94\x81\xe2\x94\x81\xe2\x94\xbb\xe2\x94\x81\xe2\x94\x81\xe2\x94\x9b '
p943
aS'Where I can download Thefilm?'
p944
aS'i was tickled. LOL'
p945
aS'looks good'
p946
aS'watch?v=kMy-6RtoOVU for those who wanna see it (:'
p947
aS'Can someone tell me what this is called? :o'
p948
aS'@KuleTube What the heck?!?! When i looked at that it was an 11!!! AH! My \nbrain is weird.'
p949
aS'I have trained to become an ASS WE ARE ASSES, WE PUSH UP THROUGH ROFL'
p950
aS'SMOSH!!!!!!.LOL'
p951
aS'Omg smosh is in there'
p952
aS'You and smosh should do more videos together yall are halarious!!!! I bet \nyall will get way more subscribers! XD'
p953
aS'lol ian '
p954
aS'Okay :)'
p955
aS'What is it called I want to wach it'
p956
aS'ANTHONY??!!!'
p957
aS'Smosh was in there'
p958
aS'whats your starcraft?:)'
p959
aS'Yum.'
p960
aS'thumbs up if you saw the guy at 1:38 with the purple backpack'
p961
aS'Smosh!'
p962
aS'dear ryan can you lvl up 85 lvls on world of warcraft'
p963
aS'SSSSSSSSSSSSSSSSSSSSSMMMMMMMMMMMMMMMMOOOOOOOOOOOOOOOOOOOOOOOOOSSSSSSSSSSSSSSSSSSSSSHHHHHHHHHHHHHHHHH \n'
p964
aS'yeah!!!!!! with smosh its so funny '
p965
aS'Kassem is the teacher, oh Jesus...'
p966
aS'Smosh in this video!!!!'
p967
aS'lol'
p968
aS'dear ryan can you lvl up 85 lvls on world of warcraft in a week'
p969
aS'NO CANDIES'
p970
aS"He's hot! (:"
p971
aS'Wtf'
p972
aS'Smoosh ppl.:)'
p973
aS'Help me be the white girl version of nigahiga w/ entertainment, etc. I \ndon\'t see many girls doin that... RT this - fatescalling24 on twitter. \nthumbs this up so others can see! My featured video & song "famous" also \nchek me out if u want ;0 trying to send a positive message that its about \ncreativity, and imperfection to attract haters, hence, key to success, as \npeople will like you, not everyone is going to hate you, and if you believe \nin yourself enuf u will go far.. ~Miss FAMOUS aka cute blond '
p974
aS'CUMING SOON :P'
p975
aS'bikes and candy! ahahha (: '
p976
aS'@02AJProductions ya pretty much its a cool and funny movie :)'
p977
aS'i saw the movie and its sooooo funny, oh yea and it has smosh in it! :)'
p978
aS'dear ryan can you be a sumo wrestler?'
p979
aS'@kittytthatkatty lol it was posted on 9/9, and why is that a broken heart?'
p980
aS'@SonicXD79 search in youtube agents of secret stuff its 35 mins long'
p981
aS'wtf this came out a year ago where is it?'
p982
aS'you know, if this was actually a real movie, i would go and watch it.'
p983
aS'SMOSHXD '
p984
aS'This was posted on 9/11... God bless. </3'
p985
aS'dear ryan can you be a video game nerd'
p986
aS'we are.. ASSES!!! lol :D'
p987
aS"@XXnublinglolXX Yeah, you got a problem ? don't complain and stfu !"
p988
aS'dTrix and Smosh FTW!!!!!!!!!!!!!!!'
p989
aS'lol how can you get zelots and zerglings mixxed up.... there two different \nraces..DERP :P'
p990
aS'Dear Ryan can you fly?'
p991
aS'Tickle me, tickle me Ryan : D'
p992
aS'ASS= Agents of Secret Stuff.'
p993
aS'pause at 1:11'
p994
aS'Poor Ian xD'
p995
aS'@TheAngypie wait were did u see this movie '
p996
aS'Did I just see smosh?!'
p997
aS'@kittytthatkatty o.0??? no it wasnt...'
p998
aS'and when i say smosh i mean the makers which are ian and anthony :) '
p999
aS'Smosh! All my favorite youtubers r in this except for Tobuscus'
p1000
aS'That asian chick is cute.'
p1001
aS'you play sc2?!'
p1002
aS'WOOHOO STARCRAFT 2!!!!! LOL '
p1003
aS'yay smosh & kassem g'
p1004
aS'True!'
p1005
aS'Oww.. i wanna watch the movie! :D Is it done? haha '
p1006
aS'Sooooo is there actually a movie???'
p1007
aS'@KingMonk10 ot was agents of secret stuff is already out'
p1008
aS'Omg Ian and Anthony'
p1009
aS'Dear Ryan, Can you be a fashion designer?'
p1010
aS'May you kindly click the thumbs up button please?'
p1011
aS'why the fuck the movie was removed??? '
p1012
aS'I want to be an A.S.S!'
p1013
aS'OMG!! THIS MOVIE IS NOW IN CINEMAS! THE TICKETS ARE 100$ EACH! Lol'
p1014
aS'Kassem G!'
p1015
aS'is dis real?'
p1016
aS'Awesome!!!'
p1017
aS'what is it called???'
p1018
aS'This is awesome!!! Where does he get all of this movie supplie, and stuff!!'
p1019
aS'ASSes'
p1020
aS'i saw the movie before i saw the ttrailer i didnt even know it was his \nmovie LOL the movie was amazing though!'
p1021
aS'Well where is it?'
p1022
aS'wow starcraft lol'
p1023
aS'Soo stereotipical'
p1024
aS'sc2 ftw! '
p1025
aS'too bad mychonny wasnt in this'
p1026
aS'WANNAH SEE IT!!!!'
p1027
aS'STARCRAFT II FTW'
p1028
aS'i like the guys from Smosh :D'
p1029
aS'U have the best videos pleas keep making more \nplzzzzzzzzzzzzzzzzzzzzzzzzzzzzzzzzzzzzzzzzzzzzzzzzzzzzzzzzzzzzzzzzzzzzzzzzzzzzzzzzzzzzzzzzzzzzzzzzzzzzzzzzzzzzzzzzzzzzzzzzzzzzzzzzzzzzzzzzzzzzzzzzzzzzzzzzzzzzzzzzzzzzzzzzzzzzzzzzzzzzzzzzzzzzzzzzzzzzzzzzzzzzzzzzzzzzzzzzzzzzzzzzzzzzzzzzzzzzzzzzzzzzzzzzzzzzzzzzzzzzzzzzzzzzzzzzzzzzzzzzzzzzzzzzzzzzzzzzzzzzzzzzzzzzzzzzzzzzzzzzzzzzzzzzzzzzzzzzzzzzzzzzzzzzzzzzzzzzzzzzzzzzzzzzzzzzzzzzzzzzzzzzzzzzzzzzzzzzzzzzzzzzzzzzzzzzzzzzzzzzzzzzzzzzzzzzzzzzzzzzzzzzz!!!!!!!'
p1030
aS'fricken awesome i wanna see the whole thing!!'
p1031
aS'Ahhh! Ian and Anthony were in this!'
p1032
aS'lol starcraft 2'
p1033
aS'dear, ryan could you be the zohan'
p1034
aS'@TheLittleBragaStar Because he likes NigaHiga, but hates all these annoying \npetition-fags'
p1035
aS'LMFAO A.S.S. Agent of Secret Stuff'
p1036
aS'whats your starcraft adress '
p1037
aS'TEEHEE :D'
p1038
aS'Pause at 2.21 Ily Ryan!!'
p1039
aS'you know if you switch teaster it makes the word easter fun fact TEEHEE'
p1040
aS'Haha u should play stafcraft2 with me haha'
p1041
aS'@o0Blahh0o why are you even watching his videos if he annoys you'
p1042
aS'is tht kassem G? 1:45'
p1043
aS"HOLYFUCKTHATWASSMOSHWASN'TIT?!?!?!?!?!?!"
p1044
aS'@o0Blahh0o '
p1045
aS'smosh!!!!!!! OMG OMG!!!'
p1046
aS'plz ryan do psrt by part of it n put it on utube'
p1047
aS'We are A.S.Ses ;)'
p1048
aS'Ryan + Anthony + Ian = Dream come true :D :D'
p1049
aS'SMOSH!!!!!!!!!!!!!!!!!!!!'
p1050
aS'Asians playing SC2'
p1051
aS'AngelzOfLifex, so what does that have to do with it. I DON`T GET \nIT!!!!!!!!!!!!!!'
p1052
aS'did any body notice at 1:52-1:53 are the smosh guys'
p1053
aS'@leonguanajuato1992 its on his channel, its called: "Agents of Secret \nStuff" :)'
p1054
aS'all u guys who hate nigahiga are bloches '
p1055
aS'i SAW THAT MOVIE!!ITS FUNNY LIKE ALL HIS OTHER VIDEOS.assholes!! :p'
p1056
aS'Not ninja Melk'
p1057
aS"Wait, is this why kevjumba was in one of Smosh's videos?"
p1058
aS'lol nice '
p1059
aS'your shadow at 1:09-1:11 looks like a giraffe C:'
p1060
aS'Lol d trix was in that'
p1061
aS'OH MY JESUS CHRIST SMOSH :DDDDDDDDDDD <3'
p1062
aS'LOL 2:21!'
p1063
aS'dear ryan can you fly'
p1064
aS'Bolo TIES! '
p1065
aS'KASSEMG =D'
p1066
aS'@tarkinfish i suscribe to both...'
p1067
aS"@tarkinfish Dude. 1. Who cares who has the most subs? We still love Ryan. \nI'm subscribed to both of them. 2. You are being a troll. 3. If RWJ has \nmore subs, than there is a reason for that. People are not stupid (well..) \nand it doesn't mean Ryan is less good. 4. The reason Ryan doesn't beg for \nsubs is because he doesn't really care about that. He just wants to make \npeople laugh. So do you really think he cares about this?"
p1068
aS'lol seems more like a trailer than a teaser lol'
p1069
aS'@natethecreation well there equaly awesome so shut ur pipe hole BITCH!'
p1070
aS'only 5000 subscriber to hit 4million, doesnt matter that he makes it \nsecond, he will still thank us. Not like RWJ, he didnt give any thanks. '
p1071
aS'Look here, to all the ppl who r posting a certain comment about rwj having \nthe most subers than ryan, STOP IT ok. Ur being trolls and rwj does deserve \nthose subers. Ryan just wants u to laugh thats y it doesnt say plz \nsubscribe, he just wants u to laugh. Oh and for all u trolls, have some \nCOMMEN SENSE'
p1072
aS"KassemG's in it sweet."
p1073
aS'smosh!!!!!!'
p1074
aS'it already did'
p1075
aS'@HOUSEMDSB7 NO !!!!! lol just kidding yea i agree with you'
p1076
aS'RWJ more subscribers then nigahiga!? Nigahiga kevjumba de best'
p1077
aS'Really? You\'re really making a movie??? Cooool. "Let me tickle you with a \nteaser!" '
p1078
aS'is aidan the purple shirted eye stabber???'
p1079
aS'i cant stop rewinding wen he says " hey guys if u havent noticed ive been \ngone for a while now because ive been sick *music plays* with bieber fever" \nlmfborofl its so dang funny how he gets excited '
p1080
aS'Let Me Tickle You With A Teaser! :) hehehe'
p1081
aS'i luv u'
p1082
aS'Ryan how did u think of the move thing'
p1083
aS'@tarkinfish Im Fans Of Both It Is Who It Is Leave It Alone.'
p1084
aS"@tarkinfish you must be a complete tard if you think that NigaHiga is \nsecond because RWJ begs youtubers to subscribe - often he promotes other \nppls channels as well as his own....and more importantly, who cares? why \ncan't we just sub them both and enjoy both - isn't that the point of \nYouTube?"
p1085
aS'TEEHEE:)'
p1086
aS"Didn't frankie munez already do this? Lol"
p1087
aS'OMG Ian and Anthony from Smosh are in there XD'
p1088
aS'love the fact that when u have ASS and SINS it kinda sounds like assassins \n:) '
p1089
aS'/watch?v=sdQRLOzHY_Y&feature=mfu_in_order&list=UL'
p1090
aS'Is the teacher KassemG? cuz it looks exactly like him...'
p1091
aS" why can't my school have hot asians like that?!"
p1092
aS'TEEHEE'
p1093
aS'if thats actually a movie, charlie sheens never had sex'
p1094
aS'Me is a ASS'
p1095
aS'lol whats ur starcraft2 account name?'
p1096
aS"We are ass's we PUSH on THROUGH did anyone else get that? Haha!"
p1097
aS'sweet,cool, awesome,HA HA HA. p.s. chek out GAMEBROS125 '
p1098
aS'no offense'
p1099
aS'I loved that you filmed yourself filming SCII :3'
p1100
aS'have you ever herd of the XBOX 360 game EndWar RYAN?????'
p1101
aS'Yay smosh'
p1102
aS'This was a great movie... Every now and then I watch it again and just \nlaugh at the utter brilliance... ^^ *DiehardNigaHigaFan* Make another!!! ^^'
p1103
aS'You guys can watch Agents of Secret stuff this movie on his channel it is \nso freaking hilarious!'
p1104
aS'You call that just a teaser? LOL'
p1105
aS'Kassem kassem kassem kassem kassem kassem kassem kassem kassem kassenm \nG!!!!!!!!!!!!!!!!!!!\xc2\xa1'
p1106
aS'was that anthony and ian?'
p1107
aS'the videos already out ive seen it already'
p1108
aS'Ryan and WongFu should get paid for giving 21 Jump Street this idea'
p1109
aS'WAS THAT D-TRIX?!'
p1110
aS'No kevjumba?!?!?!?!'
p1111
aS'HAHAHAHAHAHAHHAHAHAHAHAHHAHAHAHAH XD'
p1112
aS"TO ALL NIGAHIGA FANS! RayWilliamJohnson now has more subscribers than \nnigahiga! Lets\xef\xbb\xbf help nigahiga to have more subs. RWJ doesn't deserve 3 \nmillion subs for just reviewing a video! The reason nigahiga\xef\xbb\xbf doesnt have \nmore subs is because at the end of the video\xef\xbb\xbf he doesnt beg people\xef\xbb\xbf to \nsubscribe to him like all those\xef\xbb\xbf other youtube celebritys. Kindly copy and \npaste this if can to other video to\xef\xbb\xbf help nigahiga. Thank you Thumbs Up (so \neveryone can see.)"
p1113
aS'ryan gets sick very often :S'
p1114
aS"its been a year when is it done??? :'("
p1115
aS"@XxxB34sTXxXB01xxX the name is agent of secret stuff yeah it's real"
p1116
aS'1:17 thats what she said'
p1117
aS'Is this real???'
p1118
aS'STAR CRAFT!!!!!'
p1119
aS'I wish i was an ASS.'
p1120
aS'stupid advertisment!!!!!!!!!!!!!!!!!!'
p1121
aS'Is it really'
p1122
aS'the last part was a lie '
p1123
aS'Dear Ryan can you be a stylist?'
p1124
aS'2:02 is sooo speechless XD'
p1125
aS'Yah thts dia trix'
p1126
aS'0:19 rage quit'
p1127
aS'@tarkinfish Fuck you RWJ does deserve 3 million subscribers because people \nsubscribe to what they like and apparently more people like RWJ than \nNigaHiga.'
p1128
aS'my life wont be complete until i walk away frum an explosion with epic \nmusiq playing in da background'
p1129
aS'smosh '
p1130
aS"OMG Ryan Higa is too cool, I wish I was like him I have made a coupla vids \nbut they're not as good and awesome as yours..... The only thing that we \nhave in common is that we're asians and we like noodles! Just \nkidding............ But Seriously... :D"
p1131
aS'@SiroisMarcus Oh yea! Ur right, good eye!'
p1132
aS"This looks cool... Might watch it.., Hmmm -ZOMFG THERE'S FUCKING SMOSH IN \nIT I AM SO FUCKING WATCHING IT WHERE IS IT?????"
p1133
aS'rayan please be a astronaught '
p1134
aS'Best teaser EVAR!! '
p1135
aS'@JBFanForever1999 a long time ago, the name is Agent of Secret Stuff'
p1136
aS'cool smosh in it'
p1137
aS'I miss Sean'
p1138
aS'Do all popular youtubers live in the same neighborhood? like seriously!'
p1139
aS"When is the movie coming out? I can't find it anywhere so it must have not \ncome out yet... :("
p1140
aS'@MisteryJZ the movie is on youtube its called agent of secret stuff'
p1141
aS'*yah thats d trix'
p1142
aS"I've been training to become an ass XD "
p1143
aS'dear ryan can you be rebbeca black'
p1144
aS'how to get fat'
p1145
aS'i love starcraft ryan ( if u wanna lol ) my name is SirNico ( lmao watch u \njust borrowed it ) and my code 671'
p1146
aS'2:00 i have that watch'
p1147
aS'lol smosh in this video...'
p1148
aS'thumbs up for SMOSH'
p1149
aS'you know smosh! '
p1150
aS'0:55 - 1:01 HAWT'
p1151
aS'@EpIKwaffle you didnt listen no ryan in this video huh? he said ALL YOUR \nFAVORITE YOUTUBERS: you should notice like 3 other youtubers in this video'
p1152
aS"I've watched this movie he made he already posted it it was awesome!!"
p1153
aS"Please tell me this video is real :D 'cause I want to watch it >:D"
p1154
aS'Gud movie'
p1155
aS'SUPER SMOSH!!!!! Dear Ryan, can you plank, snail, or bend and snap?'
p1156
aS'Dear ryan can u make funny faces'
p1157
aS'Hi Ryan Make a movie of expandibles'
p1158
aS'Ha ha ha ha ha :()'
p1159
aS"He's also sick in his latest VIDEO"
p1160
aS"IAN!!!!!! ANTHONY!!!!!!!!!!! I SAWZ 'EM :P "
p1161
aS'haha lookin at the girl then failed '
p1162
aS'@TheRudi1000 look it up '
p1163
aS"@safadiyyeh can't u just believe him when he said all the teehees are \ndifferent??"
p1164
aS'wait, really? did you actually make that?'
p1165
aS'THUMBS UP IF YOU SAW THAT UPDATES HAD NO "P" AT THE END ANNOTATION'
p1166
aS'XD IAN and the other guy. awesome^^ ps: for this movie i even would pay \nmoney^^'
p1167
aS'STAR CRAFT!!!!!!!!! FTW!!!!'
p1168
aS'We are ASSES!!! :3'
p1169
aS'wow is this a real movie or is he kidding '
p1170
aS'sorta like agent cody banks lol'
p1171
aS'@awesomeemma22 its out ages ago'
p1172
aS"It wasn't 45 minutes it was 35!! LIES!!!"
p1173
aS'isnt the girl whos in the viedo in a movie too '
p1174
aS'ASS= A-Asian S-Super S-Security'
p1175
aS'He has so many views because he makes awesome videos! So stop being stupid \nand asking why he has so many views because your being plain stupid...'
p1176
aS'its called agents of secret stuff just type that'
p1177
aS'I lik it already..:)'
p1178
aS'The old guy spitted from his mouth lol'
p1179
aS'XD IAN and the other guy. awesome^^'
p1180
aS"wow! ian and anthony!!!!!!!!!!!!!!!!! smosh, nigagiga, and rwj shoul make a \nvideo together and it should beat justin beiber's gay song from being the \nmost watched on youtube! thumbs up if you agree!"
p1181
aS'MY DAD SAID HE WILL QUIT SMOKING IF I GET TO 50,000 SUBSCRIBE.. so plz help \nme,,,but dont worry soon i will be uploading videos ^_^ thanks + ADD ME AS \nA FRIEND'
p1182
aS"I want to be asian, so my chance of getting into one of ryan's movies and \nworking with him."
p1183
aS'SMOSH!!!!'
p1184
aS'@thefuzzywarrior Its called "Agents of Secret Stuff" type that you\'ll get \nit. '
p1185
aS'lol At 1:25 the guy spits!!!'
p1186
aS'i just figured out that me and ryan have the same computer mouse !! XD'
p1187
aS'@1rajes1 attention much?'
p1188
aS'is the movie really coming soon ? '
p1189
aS'@racheybaby99 were is the vid'
p1190
aS'i loved the 2:22 picture :D'
p1191
aS'lol the old guy SPITS at 1:24 lol'
p1192
aS'kewl'
p1193
aS'i like the beginning'
p1194
aS"wtf i started watching it yesterday, and now i can't find the video!"
p1195
aS'Mwahahahahahahaha WHAT DER HELL!!! xD Your level of randomness is making me \nhigh hahahaha xD (Y) '
p1196
aS'SMOSH YEAH!!'
p1197
aS'@Secretsomeone123142 lol EWW'
p1198
aS"Wait tht last scene wasn't in the video!"
p1199
aS"I've seen it twice! (so far, teehee). =]"
p1200
aS'Can I add you on starcraft 2?'
p1201
aS'why do you have so many views?'
p1202
aS'@ardaturan199 my starcraft name is SantaClauz if u ever see me ryan plz \nfriend me :D'
p1203
aS'Mandatory explosion ending'
p1204
aS'i supppper like your vidoe and i like that!'
p1205
aS'Dramatic moment at the end.. TEEHEE! -.-"'
p1206
aS'saw it '
p1207
aS'Yay smosh is her- SHUT UP!!!'
p1208
aS'rip off cody banks '
p1209
aS'Ian and anthony'
p1210
aS'Nice guys finish last thats why ill treat you like trashit (sounds like \ntrash/shit)'
p1211
aS'it is funny and 35 mins long '
p1212
aS'omg it just sounded like Point Blank :DDD'
p1213
aS'@JuliannaLuvsJames the movie is on this channel: Agents of secret stuff \n(A.S.S)'
p1214
aS'Ian and Anthony (Smosh) are is this movie Ian is a pervert and Anthony is \nBrycen'
p1215
aS'The exploshin is not in the movie!!!!'
p1216
aS'love starcraft '
p1217
aS'@bentivegnafamily me!'
p1218
aS'Shane and Ian = 1:52 - 1:54 '
p1219
aS'@deathlordnwa where do you find it?'
p1220
aS'i would watch that.....TEE HEE:):):):)'
p1221
aS"OMG it's smosh!!!!!! i <3 those guys! but nigahiga is also great!"
p1222
aS'press 9 for a fainting dude'
p1223
aS'Idra...RAGE QUIT '
p1224
aS'STARCRAFT 2 WHOHOOOOOOO'
p1225
aS'who wants that to be an actual movie!'
p1226
aS'i thought this would be a rickroll'
p1227
aS'i know its been out for a long tine but wats the name?!'
p1228
aS'i love nigahiga ur the best i\'ve watched all ur videos and i\'m not tired of \nkeep on clicking replay..more power to u guyz n make more some of ur funny \nvideos ..... "TEEHEE!!!'
p1229
aS"That's freaken lagit!"
p1230
aS'send a message to me in my youtube inbox saying hi and I will sub you!'
p1231
aS'1:48 D-trix face :D'
p1232
aS'Hey itz smosh'
p1233
aS'@makemovies123 its already out.'
p1234
aS'THE GUYS FROM Smosh ARE IN IT??? Can someone tell me the name? '
p1235
aS'1:48 LMAO'
p1236
aS'lollolololol were do we get the movie'
p1237
aS'he is funny '
p1238
aS'agent of secret stuff '
p1239
aS'when ryan said iuhh it sounded like regina'
p1240
aS'i wached it just now its so funny'
p1241
aS'WHEN IS IT COMING OUT? '
p1242
aS'I wanna be an ASS!!!!!!!!!!! D:<'
p1243
aS'WTF is he doing with smosh?'
p1244
aS'niga higa Vs. smosh?????? omg....it must be incredible!!!!!'
p1245
aS'is it out yet?'
p1246
aS'this looks amazing when does it come out??? cause i saw smosh '
p1247
aS'@GirlsRockVideoClub it IS real. its a half hour little movie. and its cool \n:P'
p1248
aS"@1rajes1 of corse!! i'm asian. =-D"
p1249
aS'@jlhfjhfkhgf search: agents of secret stuff. Then you will find it '
p1250
aS'Thumbs up if you watched this vid more than once cause of Starcraft '
p1251
aS"@FossaHans He's asian, nuff said."
p1252
aS'I saw the movie and I personally feel that you guys and gals did a great \njob!'
p1253
aS"Nigahiga's friends with SMOSH????? since when??? "
p1254
aS'Ian and anthony!!!!'
p1255
aS'SMOSH!!!!!'
p1256
aS'Wow nice'
p1257
aS'Is it wierd it gave me a boner?'
p1258
aS'i love nigahiga ur the best i\'ve watched all ur videos and i\'m not tired of \nkeep on clicking replay..more power to u guyz n make more some of ur funny \nvideos ..... "TEEHEE!!!"'
p1259
aS'Starcraft 2 is epic'
p1260
aS'smosh and nigahiga should do a music video together!!!!!! epic combo!'
p1261
aS"2:20 lol Ryan looks like he's having the time of his life XD"
p1262
aS'Thumbs up for smosh!'
p1263
aS'@oracle1775 We have to just PUSH ON THROUGH!!!'
p1264
aS'it looks awsome i want to watch it'
p1265
aS'1:01 you look like johnny Tr\xc3\xad Nguy\xe1\xbb\x85n......one of Vietnamese actor =/'
p1266
aS'i love when he looked away from the girl lol '
p1267
aS"@jlhfjhfkhgf look up : nigahiga agents of secret stuff and it's the first \none. /watch?v=kMy-6RtoOVU"
p1268
aS'A.S.S-Agents of Secret Stuff!'
p1269
aS"press 9 for Ryan's seductive touch"
p1270
aS'wow SMOSH :D'
p1271
aS"@jlhfjhfkhgf Look in the video responses. Maybe you'll see it."
p1272
aS"Can't wait to be promoted to an A.S.S-H.O.L.E"
p1273
aS'@jlhfjhfkhgf agents of secret stuff'
p1274
aS'Where can I watch the movie? xD It looks awesome. xD'
p1275
aS'@jlhfjhfkhgf just look up agents of secret stuff.'
p1276
aS'SMOSH !!!!!!!!!!!!!!'
p1277
aS'Omg iLove This Guuy Hees Soo Frekin Funny'
p1278
aS'@jlhfjhfkhgf it is the agents of secret stuff it is on his channel'
p1279
aS'@jlhfjhfkhgf look up Agents of Secret Stuff'
p1280
aS'@jlhfjhfkhgf its called youtube.Look it up.'
p1281
aS'@TheAwesomeJoce I second that!'
p1282
aS'Anthony and IAN :)'
p1283
aS'@100bunnyboo he is mine, paws off bunnyboo'
p1284
aS'thumbs up for smosh and nigahiga being the best combonation on earth'
p1285
aS'@StickFigure690 lmfao i seen the movie like 3 months ago an im just \nwatching the teaser xD'
p1286
aS'you know who i just remembered? SEAN!@!!!!'
p1287
aS'@StickFigure690 where u find the movie'
p1288
aS'WE ARE ASSES!!!'
p1289
aS'2:29'
p1290
aS's 4 s'
p1291
aS'omg ryan do u really play starcraft 2?? '
p1292
aS'I saw Ian and Anthony from smosh!'
p1293
aS'Smosh!'
p1294
aS'OMG anthony and ian from smosh!!!!!!!!!!!!!!!!'
p1295
aS'dear ryan, can you find waldo??'
p1296
aS'niga higa is it true you live on kauai '
p1297
aS'Ex Questcrew member ? there'
p1298
aS'its RYAN DTRIX IAN and ANTHONY YAY'
p1299
aS"WE ARE A.S.S's! xDDD"
p1300
aS'pause the video at 0:00 hold down the left arrow key for 2 seconds then \nhold down the up arrow key for 2 seconds YOU CAN PLAY SNAKE ON YOUTUBE!! \nthumbs up plz'
p1301
aS'@BLymiric you willl never be an ass hole ur to much like a bitch big \ninconsideride teenage chunky husbands'
p1302
aS'THUMBS UP IF YOU THINK THAT ASIANS ARE COOL!'
p1303
aS'885 people hate asses.'
p1304
aS'Ive been training to become an ass xD'
p1305
aS'I know'
p1306
aS'Is this movie still in the works or hass it been released?? cause if its \nreleased i wanna get it, and where do i get it??'
p1307
aS'lols'
p1308
aS'@kokobanana1000 yes..the name of the mvie is agents of secret stuff... '
p1309
aS'WOOOOO!!! IAN AND ANTHONY ARE IN'
p1310
aS'omg!!! i about died when he says "tickle u with a teaser!" omg!! haha'
p1311
aS'I luv ya manh ryan!!!!!!!'
p1312
aS'is it like full metal panic ? '
p1313
aS' is it just me or this guy is always sayin\' ""hey guys"" upon the intro????'
p1314
aS'wat is the real movie called'
p1315
aS"What's it called? I wanna watch it"
p1316
aS'Play 0:08 over again! :) Like this if you did! :)'
p1317
aS'Is it just meh or at 2:12does tht guy look like D-Trix from ABDC? o.o... or \nw/e his name iz i 4get =o..'
p1318
aS'did anyone recognise the guy spits at 1:24'
p1319
aS'@hyperbon4321 nigahiga ish not a country hes a person >_<'
p1320
aS'@candyfloss0013 is Ryan asian?'
p1321
aS'yup that tickled me alright...haha'
p1322
aS'i love this movie cuz of ryan nd D-Trix both super hawt'
p1323
aS'HEY GUYS! , I know this is not the place for advertising, but i had just \nuploaded a new video and needed support by people viewing and rating my \nvideo. I would really appreciate if u view and comment to advise me on how \nto improve my video. Thanks in advance! :)'
p1324
aS'ZERGS FTW'
p1325
aS'Has the movie came out yet?'
p1326
aS'ryan do you still play starcraft 2 ?? plz answer me '
p1327
aS'awesome '
p1328
aS'he says the movie is 45mins long... but its actually only 35 mins'
p1329
aS'haha this funny'
p1330
aS'smosh from1:52 to 1:55'
p1331
aS'@ashleighjohn yup.'
p1332
aS'@XxGinoDxX oh. welllll that was an epic fail 4 me'
p1333
aS'Where the eff can i whatch this?'
p1334
aS'rip off of alex rider'
p1335
aS'i cant wait til the movie comes out :)'
p1336
aS'@angrybirds1998 Hes hometown is in hawaii and u took his seriously it was a \njoke!'
p1337
aS'WOW'
p1338
aS'ANTHONY AND IAN WOOHOO x)'
p1339
aS'@HuggyOnFire tbh it does but...its his friend tho hug....sometimes i worry \nabout chu like u do me XD'
p1340
aS'I HATH SEEN DIS MOVIE!!!!!!!!!!!!!!!!!'
p1341
aS' is that d-trix??'
p1342
aS'@Drgreenking its alr out long ago '
p1343
aS'1:47 is that dtrix from abdc?!'
p1344
aS'i thot hes gonna say:: WE ARE ASSES, WE PUSH IT THROUGH(UR ASSES) AND TAKE \nIT (IT=crap)'
p1345
aS'the old dude spits at 1:23 or around that thumbs up if you see like a white \nline shoot from his mouth....XD'
p1346
aS'Dear Ryan, can you be a tech support guy?'
p1347
aS'which country is nigahiga?thumbs up if you think this question is good.'
p1348
aS'2:22 #LOL'
p1349
aS'@jasonsworld212 its starcraft nooffense learn to read'
p1350
aS'tickle me?'
p1351
aS'Longest teaser trailer Ive ever seen, where is iJustine? '
p1352
aS'@Sparklystar48 you got 13 thumbs and tarkin gots 45 thumbs....'
p1353
aS'can u do more songs about cows thx'
p1354
aS'I saw Smosh in the teaser!'
p1355
aS'Thanks dawg'
p1356
aS'i love this movie'
p1357
aS"Ray has more because he's funny and nigahiga doesn't post daily for the \nviewers even if he's awesome"
p1358
aS'1:14 thats what she said :3'
p1359
aS'ahah that movie seems really cool and funny^^ wish to watch it soon.'
p1360
aS"AHAH he's playing starcraft. He's DEFINITELY KOREAN"
p1361
aS'The movie already came out -.- '
p1362
aS'Lol. He is training to be an ASS. I wanna be an ASS. o3o'
p1363
aS'I like how smosh is in the movie too'
p1364
aS'dear ryan can u be a tech deck rider? '
p1365
aS'Look At The Date! :O Year: 2010, Sep 9'
p1366
aS'shut the fuck up girls'
p1367
aS'Dear Ryan, can u be an noob '
p1368
aS'hotest asian EVA <3 u ryan '
p1369
aS'U made this video on 9 sep 2010 and yet uploaded it already. i watched the \nmovie already.'
p1370
aS'dear ryan can you do a document for your carreen at you tube ??'
p1371
aS'great! i will seriously watch this :D'
p1372
aS"@cacodemon226 he's japanese"
p1373
aS"it's the AGENTS OF SECRET STUFF MOVIE!!!!!!!!! I LOVE THAT MOVIE!"
p1374
aS'how to kiss a girl '
p1375
aS'@ponacho97 \xe0\xb2\xa0_\xe0\xb2\xa0 '
p1376
aS'Dear Ryan, Can you be my boyfriend? <3'
p1377
aS'Im 20% japanese'
p1378
aS'at 1:46 is that d-trix from quest crew?!?!'
p1379
aS'ass really Agents of Secret Stuff'
p1380
aS'Thumbs up if you saw the old asian guy spit at 1:24'
p1381
aS'I WANT IT NOW!'
p1382
aS'Dude! you are very funny! (and cute) I want to see the ASS movie completly! \nthanks for your vids'
p1383
aS'find the Q \nGGGGGGGGGGGGGGGGGGGGGGGGGGGGGGGGGGGGGGGGGGGGGGGGGGGGGGGGGGGGGGGGGQGGGGGGGGGGGGGGGGGGGGGGGGGGGGGGGGGGGGGGGGGGGGGGGGGGGGGGGGGGGGGGGGGGGGGGGGGGGGGGGGG \nthumbs up if u found the Q'
p1384
aS'he is wearing the spygear watch'
p1385
aS"@XxGinoDxX seriously? no he's japanese he said so himself in one of his \nvideos"
p1386
aS'Thumbs up if you saw Smosh'
p1387
aS"Dear Rayan can you be the #1 justin bieber ''HATER''"
p1388
aS'LOL!!! A.S.S.!! I could NOT stop laughing!!! '
p1389
aS'where did sean go?'
p1390
aS'Dear Ryan, can you be a supermodel? '
p1391
aS'press 1 for lols'
p1392
aS'@lesleythecuttie yea IKR!'
p1393
aS'@XxGinoDxX where can i watch it ?'
p1394
aS'@angrybirds1998 Nope, hes hawaiin'
p1395
aS"@09Darky It's Already Posted On YouTube: Agents of Secret Stuff Best Movie \nEver ! : D iLU Nigahiga : ) -3"
p1396
aS'Can u b cheese?'
p1397
aS'@StickFigure690 lol me too'
p1398
aS'Dear Ryan, can you be your evil twin brother?'
p1399
aS'ryan* '
p1400
aS'this is going to be the best movie EVA!!'
p1401
aS'haha i am an A.S.S '
p1402
aS'u guys rok wens the movie gonna come out'
p1403
aS'dear ryan, can you be gay?'
p1404
aS'push hard through ...lol'
p1405
aS'he made this on my 10 birthday'
p1406
aS'spy gear watch really '
p1407
aS'anthony and ian'
p1408
aS'Starcraft nice, d-trix looks kind of like a Lil kid'
p1409
aS'Dear Ryan , can you be a World of Warcraft addict !'
p1410
aS'Dear ryan,can you do Kung Fu?'
p1411
aS'Tht end bit never happens'
p1412
aS'Seriously? Smosh? '
p1413
aS'Dear Ryan,can you be binladen?'
p1414
aS'dear ryan can you be a stripper :D'
p1415
aS'I loved the real video I watched it over and over'
p1416
aS'xD so funny '
p1417
aS"You're one DUMB ass..."
p1418
aS'the US-Chinese girl at 2:12 looks great'
p1419
aS'Dear Ryan, can you be a pixel?'
p1420
aS'I Favveeeeeeed :D P.S u tickle me :)'
p1421
aS'Dear Ryan, Can you be Pippa Middleton? '
p1422
aS'Hey Ryan , you should make a fushigi commercial , :D'
p1423
aS"Ryan is the hottest Asian i've ever been across <3"
p1424
aS'Dear Ryan can you be a rodeo clown ?'
p1425
aS'dear Ryan can u be Rebecca Black? '
p1426
aS'STARCRAFT SUCKS '
p1427
aS'& 2:22 laughin my FUCKIN ASS OFF'
p1428
aS'wow..thats great! :D ahh..but my video..is wow'
p1429
aS'i really love you Ryan.... ur the beast.....heheh'
p1430
aS"Omfg SMOSH is in it omg I'm so watching that!!!!!!!!"
p1431
aS'Dear Ryan, Can you be a good housepet?'
p1432
aS'this actually looks pretty cool... btw you werent playing starcraft were \nyou? I KNEW IT! YOU WERE PLAYING WORLD OF WARCRAFT!!!!!!'
p1433
aS'0:09 "eww" lol lmfao'
p1434
aS'omg this is gona be the best they have smosh and this guy omg'
p1435
aS'yep, smosh is in it'
p1436
aS'ASS- Agent of Secret Stuff'
p1437
aS'@ChrisLeonora50 do you know how the internet works?'
p1438
aS'whats it cald'
p1439
aS'I Favveeeeeeed :D'
p1440
aS'Dear Ryan can you be obama?'
p1441
aS"@pakourmasta226 Bin Laden Died... We don't want that."
p1442
aS'@candyfloss0013 AHA! AHA! '
p1443
aS'Dear Ryan, Can you be Chuck Norris ?'
p1444
aS'I have that same purple shirt Ryan is wearing. =.='
p1445
aS'Dear Ryan, Can you have anger-Management :)'
p1446
aS'Comment the link 4 the movie'
p1447
aS'Dear Ryan, can you be an a bunny? '
p1448
aS'Dear Ryan, Can you be a Latino?'
p1449
aS'otters are pretty cool, thats random check out my channel, thebaconjuice. \none word. '
p1450
aS'i have that watch XD'
p1451
aS'I LOVE the part why you said ewwww! CUTE ^_^ '
p1452
aS'smosh? lol'
p1453
aS'Dear Ryan, Can u be an bounty Hunter'
p1454
aS"Dear Ryan can you be somebody that doesn't know what he's doing and when \npeople tell you that you get crazy mad"
p1455
aS'ROFL when I saw the saliva flying 1:25'
p1456
aS'SMOSH!!!'
p1457
aS'is this real'
p1458
aS"i saw someone ask when is it going to upload....... it's just at the \nralated video, agent of secret stuff"
p1459
aS'dear ryan-can u be a hockey player'
p1460
aS'I...like would LOVE to see that "We...are....ASSES!" Lololloj30o89u4 243'
p1461
aS'i m training to b an ASS [ AGENT OF SECRET STYLE] lmao cant wait for the \nmovie'
p1462
aS'DEAR RYAN CAN U SING FRIDAY!!!!!'
p1463
aS'Is Peter chao in it his awesome'
p1464
aS'dear ryan, can you be freddy krueger?'
p1465
aS'wtf the explosion never happened XD'
p1466
aS'This already came out search "agent of secret stuff"'
p1467
aS'The movie was 35 minutes.....'
p1468
aS'with bieber fee- xD'
p1469
aS"i've been sick with bieber fever LOL"
p1470
aS'@711impulse lol fail man. Im zerg '
p1471
aS'0:21 Alienware Mousepad !!!'
p1472
aS'i saw it!!! I LOOOOVE IT!'
p1473
aS'"Zealots not zerglings!" not even the same race XD'
p1474
aS'Dear Ryan, Can You Do A Handstand!'
p1475
aS'On my computer it stopped loading and overtime it put it back a bit it \nended with HUH'
p1476
aS'starcrafT?'
p1477
aS'hes the best i love the vidio message to all haters'
p1478
aS'Got the smosh characters, Nigahiga just made my life a little better aha!'
p1479
aS'/watch?v=gfiLwMgxz18 GIVEAWAY!!! GIVEAWAY!!! GIVEAWAY!!!'
p1480
aS'SMOSH!!'
p1481
aS'I love it!!!! when is it coming out!????'
p1482
aS'Where can you watch it? :L'
p1483
aS'Dear Ryan can you be a cabbage?'
p1484
aS'Dear Ryan, can you be a singer.'
p1485
aS'Starcraft 2 ftw'
p1486
aS'that was really long but really funny'
p1487
aS'we are asses lol '
p1488
aS'YOU GUYS GOT A MOVIE WITH THE SMOSH GUYS! HOLY CRAP!'
p1489
aS'The beginning is so funny me. The look on your face lmao. But the movie \nlooks good! :)'
p1490
aS'I have no friends add me pls'
p1491
aS'heyhey... is it all of the cast is a youtube celebrity??? O_O.. waaaaaaw so \nnice men.. im excited to watch that movie.. lol :))))'
p1492
aS'8-D '
p1493
aS'@12yasbabe Its been done for 2months on -_- '
p1494
aS'dear ryon can u be a cartoon character '
p1495
aS'omg!!! definetly a movie i would watch!!'
p1496
aS"OMG it's smosh!!!"
p1497
aS'@irishspades what book'
p1498
aS"What's the movie called?"
p1499
aS"1:38 ; the guy has a girl's backpack. LOL"
p1500
aS'1:13'
p1501
aS' i love starcraft '
p1502
aS'What is the movie called?'
p1503
aS'Cool smosh is in here.'
p1504
aS'1:10 WE ARE ASSES! Best Part!!'
p1505
aS'nigahiga do you play LoL? league of legends? '
p1506
aS'Busy with starcraft 2 ? :P'
p1507
aS'@Minizcansuckmyxmod The movies already made'
p1508
aS'I LOVE STARCRAFT!!!!!!!!!!!!'
p1509
aS'@mokunoi epic right? STARCRAFT AND HUSKY STARCRAFT FOR THE WIN'
p1510
aS'HAHAH! ANDY AND IAN ARE IN IT :D What .. the fuck is with 2:08 im scared.'
p1511
aS'Mokunakoi'
p1512
aS'ok so thats not true, kinda, maybe... XDD that she best! '
p1513
aS'lol that movie/video thing was amazing i actually only watched it because \nsince you were in it it was bound to b hilarious so i did and im glad i did \nit was amazing your actually a really good actor(:'
p1514
aS'@parsleysprigs Noob If you loved nigahiga you would go on their Channel ... \nand just go agent of secret stuff'
p1515
aS'lol i wonder how a protoss even make zerglings lol'
p1516
aS'ASS-Agents of Secret Stuff :D'
p1517
aS'@XMugenBoyX /watch?v=kMy-6RtoOVU'
p1518
aS'2:19 Smosh ?'
p1519
aS'Starcraft 2! O:'
p1520
aS'lol ending'
p1521
aS'can you make fun of my science teacher '
p1522
aS'can ypu make fun of my science teacher '
p1523
aS'Hey I saw KevJumba behind in school in the movie!'
p1524
aS'LMFAO "We are asses!" '
p1525
aS'nice save at lockers : )'
p1526
aS'cool'
p1527
aS'we wrote it we filmed it we tossed it we turned it we played it we fought \nit... :)'
p1528
aS'D-Trix <3'
p1529
aS'Dear Ryan, Can You Be Miley Cyrus?'
p1530
aS'I AMA ASS!!! '
p1531
aS'Wow! I like the movie already :D keening to watch it...but whats the title? \n:('
p1532
aS'2:21 LOL look at Ryan :3'
p1533
aS'sup'
p1534
aS'star craft 2 !!'
p1535
aS'lol awesome'
p1536
aS'dear ryan can you be kesha'
p1537
aS'notice the didnt look at the explosion at the end so there cool cause cool \nguys dont look explosions they turn around and they walk away.'
p1538
aS'A.S.S two?'
p1539
aS'HAHAH! ANDY AND IAN ARE IN IT :D'
p1540
aS'where is the full movie?? i want to watch :D'
p1541
aS'sub me '
p1542
aS'@parsleysprigs it was out like a few moths ago.'
p1543
aS'i dont know how many of you guys have seen this but it was kind of like \nfull metal panic which is a great anime by the way should definitly go \ncheck it out. '
p1544
aS"@JayKilla666 Is it a full length film whats the name and where do I find \nit. Sorry I'm an internet noob. Please for god sake tell me because I love \nniga higa."
p1545
aS'thumbs up for SMOSH LOL 1:52 - 1:54'
p1546
aS'Awesom teeheeser'
p1547
aS'sub me '
p1548
aS'Were are asses! 1:11'
p1549
aS'@TheTitanGod PROTOSS!!'
p1550
aS'Dude when is this movie going to come out, this looks better than half the \nshit thats come out since 2000.'
p1551
aS'hi '
p1552
aS'we are ASSES!!! lOl !!!'
p1553
aS'at 0:19 dont stare at his eye he will turn u in to stone '
p1554
aS'his lips were really close to the screen'
p1555
aS'hahahah xD'
p1556
aS'I knew there would be a teehee, if there isnt a teehee it ISNT nigahiga '
p1557
aS'See smosh on bagron'
p1558
aS'This looks sick xD '
p1559
aS'@XMugenBoyX it is already in youtube :-) '
p1560
aS'OMG IS THAT D-TRIX FROM QUEST CREW?????'
p1561
aS'WE are Fuckers nananananana thumbs up for we are asses'
p1562
aS'Starcraft 2 is awesome, agreed.'
p1563
aS'EVERYONE DISLIKE THIS VIDEO : /watch?v=u9XFqjHINAE'
p1564
aS'thats XJAWZ '
p1565
aS'Already out'
p1566
aS'LOL " Let me tickle you with a teaser!"'
p1567
aS'the movie is hilarious u guyz r genius'
p1568
aS'nice!!!!!!'
p1569
aS'Can u be a personal trainer?'
p1570
aS'If only someone made a video SUPEREEGO vs. nigahhiga '
p1571
aS'@1985jhoward yeah im watchin it right now, i havent seen it before :)'
p1572
aS'I REALLY WANT TO SEE THIS MOVIE LOL BUT NO SERIOUSLY MAKE THIS INTO A REAL \nMOVIE'
p1573
aS'would be really funny if the Villain is Fred? haha'
p1574
aS'@SnnSnck then watch it, it came out awhile ago. Just look up Agents of \nsecret stuff'
p1575
aS"@iRiDontKorw The same one who didn't use proper punctuation or \ncapitalization."
p1576
aS'SMOSH 1:51-1:55'
p1577
aS'ian............'
p1578
aS"WITH THAT ONLINE GAME....HE'S A REAL ASIAN!"
p1579
aS'Lol. Zee-lots.'
p1580
aS'haha ryan got hot'
p1581
aS'Is it just me or does the storyline remind you of Full Metal Panic or \nFumoffu?'
p1582
aS'what kinda noob would get zealots and zerglings mixed up O_o'
p1583
aS'YAY HE PLAYS PROTOSS'
p1584
aS'WE ARE ASSES!!!!! LOL '
p1585
aS'is this real? i love to see smosh and you working together :D cant wait to \nsee this movie :D'
p1586
aS'Dear Ryan, Can you be Ke$ha, Miley Cyrus, Etc?'
p1587
aS'OMG THAT GUY WITH THE PURPLE BACK PACK AT 1:38 HAS THE SAME ONE AS MY \nFRIEND... BUT SHES A GIRL!'
p1588
aS'i hope this movie come out'
p1589
aS'We are Asses! Ha ha!'
p1590
aS'@MrAnnualgain you can they made it on this account its agents of secret \nstuff'
p1591
aS'People It allready came out'
p1592
aS'LEGGYLEGGYLEGGYLEGGYLEGGYLEGGYLEGGYLEGGYLEGGYLEGGYLEGGYLEGGYLEGGYLEGGYLEGGYLEGGYLEGGYLEGGYLEGGYLEGGYLEGGYLEGGYLEGGYLEGGYLEGGYLEGGYLEGGYLEGGYLEGGYLEGGYLEGGYLEGGYLEGGYLEGGYLEGGY'
p1593
aS'The book was better'
p1594
aS'@XMugenBoyX like a year ago '
p1595
aS'The guy at 1:52 is a queerdo kinda...'
p1596
aS"Ryan's actually not lying. There is a new movie coming out on you tube with \nsome pretty well known people like him. "
p1597
aS'Lmfao...."we are ASSES"'
p1598
aS'ive bin training to become and A.S.S.'
p1599
aS'When is the release date?'
p1600
aS'that was funny lol'
p1601
aS'@gfxakosimark not really fred is soo out like noone cares about him anymore'
p1602
aS'hey u filmed this on my b day'
p1603
aS'Its not like I hate nigahiga, but if this film would come it would be the \nbaddest ever!'
p1604
aS'Smosh!'
p1605
aS'DUDE YOU WERE PROTOSS ITS IMPOSSIBLE TO MAKE ZERGLINS RAAAAAWR!'
p1606
aS'I look forward to!!! Ryan , U are so handsome ><'
p1607
aS'That was hilarious keep it coming and also I love nigahiga and \nsmosh!!!!!!!!! :D'
p1608
aS'and wheres robbaz??'
p1609
aS'WE ARE ASSES! '
p1610
aS"wait, didn't he release this already? so wut's with these can't wait \ncomments??O__o.."
p1611
aS'@tripleguy031 yeah it would but it wouldnt it be awesome if that german kid \nwho raged when he got rick rolled.......gets rebecca rolled it would be \nhilarious'
p1612
aS"When are you going to make more 'Movies in a Minute'??? "
p1613
aS'@MrAnnualgain rofl...its out already'
p1614
aS'I CRAKED UP WHEN HE SAID HE WAS TRAINING TO BE A ASS!! XD!!!'
p1615
aS'I always waiting for the "TEEHEE" of any of his videos XD'
p1616
aS'ha ha'
p1617
aS'i made a collection of nigahigas best moments, all put into one movie. \nclips include the ninja glare, off the pill movies, skitsos, etc. its also \na video response to this, so if you love nigahiga (and want to help me out) \nplease watch it and show it to your friends! k thanks. you can also visit \nmy channel and watch it'
p1618
aS'Dear Ryan- Can you be a Hobo? '
p1619
aS'haha we r asses'
p1620
aS'lol! this is so funny!'
p1621
aS'hey ryan you should play starcraft 2 with me :)) '
p1622
aS'sawww it it is awesome '
p1623
aS'hahahhahaha thats a KoreanDrama Movie!!!'
p1624
aS"This is even better than Fred's movie :) i could tell "
p1625
aS'@MrAnnualgain i saw it'
p1626
aS'wait are anthony and ian the bad guys?'
p1627
aS"who's that asian girl? I remember seeing her somewhere long time ago... \ncan't remember."
p1628
aS"@fazz3173 Haha, thanks man, already thought I'd gone mad Oo I mean.... it's \nright there on the friggin' right side people!! >___<"
p1629
aS'when ryan said david. does he mean david choi?'
p1630
aS'Ill will beiber fever?? Lmfao!!!!! Ahahaha Jesus man u gonna make me wake \nthe housemates with my laughing!!'
p1631
aS'@RayWilliaimJonhson SHUT. UP.'
p1632
aS'thats actually looks pretty sickkkk :P cant wait :)'
p1633
aS'@MrAnnualgain um its been out for a while now'
p1634
aS'ah smosh guys!! this is going to be awesome my three fave youtube ppl!! :D'
p1635
aS"@lombardburt I got an iPad I'm only ten years old"
p1636
aS"@HereSEXable If you're a girl, yeah... :)"
p1637
aS'@nintanime yeah sorry. havent played in a while. just realized'
p1638
aS"aren't shane daweson in the movie :("
p1639
aS'0:58 joseph vincent?...XD'
p1640
aS'i swear i saw this before '
p1641
aS'DOTA!!!! >< OMG '
p1642
aS'lol watch at 1:22 and the guy will spit!'
p1643
aS'ASS = Agent of Secret Stuff '
p1644
aS'tht is such a big cliche its hilarious :)'
p1645
aS'ass hole push on through '
p1646
aS'OMG SMOSH IS IN IT!'
p1647
aS'LOL A.S.S'
p1648
aS'I have a macbook(: You should make a video of all of your bllopers if you \nhave them.. xD((:'
p1649
aS'my sister created this instead if rick rolled: JK ROLLED OR JK ROWLINGED \nlol random HP ness'
p1650
aS'nice video ryan -ray'
p1651
aS'super ganda ni2 gwapo ni rave!!!!!!!!!!!!'
p1652
aS'u play starcraft!!!!!!!!!!!!! i can so win u '
p1653
aS'871 people went for zerglings instead of zealots'
p1654
aS'ummm no?'
p1655
aS'cool'
p1656
aS'search agents of secret stuff. Then you will find it '
p1657
aS'watch?v=4t4fcBIgTww&feature=channel_video_title'
p1658
aS'is the school from rj burger?!?!?!'
p1659
aS'dude!!! das my school!!! awsome ! XD i never saw them there.. =('
p1660
aS'@TheDeuxus I hope you are joking'
p1661
aS'dude is looking old. as in aging. was cute, but now blind.'
p1662
aS'@TheDeuxus I hope you are joking'
p1663
aS'go protoss'
p1664
aS'i hate that coffee commercial!'
p1665
aS'lol Ryan was playing Warcraft III on 0:20'
p1666
aS'omg omg omg omg ...... tht should be a real movie :P lool u should be in it \n:D'
p1667
aS'zealots is pronounced as "Zelots"'
p1668
aS'@tigerrohan Thumbs up if his a Latino hahhaa'
p1669
aS'INstead of rick roll lets make a rebecca roll'
p1670
aS'you should put xzeldalove64 in it!!'
p1671
aS'UR fag. jk AWESOME!!!!!!!!!!! :D'
p1672
aS"@NibblerFox im sorry i didn't see the minerals (i played it already though)"
p1673
aS'lol funny but awsomeee!!!!!!!!! '
p1674
aS'I wish i had starcraft 2... =('
p1675
aS"I CAN'T WAIT! :D! xD. "
p1676
aS'you should go to hollywood..... "teehee" :)'
p1677
aS'Dear Ryan: Can you do impressions of multiple people ex. Orlando Bloom, \nLady Gaga, Jackie Chan etc. '
p1678
aS'@Mr TrollerFTw yeah the super mexican whatever he is'
p1679
aS"@54829341 That's why he had a Starcraft II box right next to his computer. \n:P"
p1680
aS'Angry Video Game Nerd? 8D'
p1681
aS'awsome you should make the real movie'
p1682
aS"@54829341 Look at the screen, you see minerals from Starcraft II, and plus, \nZerglings are a race or class (I don't play starcraft so I don't know the \nactual term) that you can play as."
p1683
aS':D Ian, and Anthony!! '
p1684
aS'i wonder if ray william jonhson will be in it'
p1685
aS'starcaft rocks '
p1686
aS'omg'
p1687
aS'at 0:20 hes playing world of warcraft but the box says starcraft XD'
p1688
aS'this is messed up and terribrl'
p1689
aS'That actually looks pretty interesting..'
p1690
aS'NIGAHIGA, YOU GUYS ROCK OUT FREAKIN LOUD!!! I LOVE YOUR VIDEOS, I WATCH \nTHEM ALL THE TIME :D :D :D'
p1691
aS'@f0rg123456789 ray commented right under saying nice vidieo'
p1692
aS'yes that is Ian '
p1693
aS'smosh yes yes yes '
p1694
aS'@tigerrohan I have a bunch of pregressive fags dancing'
p1695
aS'@moty156 Starcraft, im not a nerd its common sense, it says it on the game \nnext to the pc'
p1696
aS"i can't wait to see this movie :D"
p1697
aS'This is just a better version of agent Cody Banks.'
p1698
aS'@NibblerFox Zerglings are actually the Zerg race builders'
p1699
aS'awsome you should make the real movie '
p1700
aS'You liar! The actual movie was 35 minutes. Still amzing tho. '
p1701
aS'IAN AND ANTHONY!!!!!!!! what is this movie called ? is it out? '
p1702
aS'@TheChineseChino NOOO.. that asian to the right ! omg '
p1703
aS"@NibblerFox yeah but i was saying he was playing Warcraft III, not \nStarcraft though, but I'm not sure cause they're almost alike"
p1704
aS'bhhhj'
p1705
aS'can anyone tell me what is the name of the video at 0:20?'
p1706
aS"why wasn't ray in the video?"
p1707
aS'OMFG SMOSH'
p1708
aS'Starcraft 2 : BEST FUCKING GAME EVER!'
p1709
aS'Beast dude! Brilliantly hilarious! :) lol'
p1710
aS'STARCRAFT!!!!!!!!!!!!!'
p1711
aS'Thumbs up if you have an advertisement with a man flying.'
p1712
aS'TEEHEE at the end all ways makes me laugh '
p1713
aS'Calm down nick cannon lol (underclassman)'
p1714
aS'SMOSH '
p1715
aS'1:36 was that fred?'
p1716
aS'is that d trix'
p1717
aS'if your a nigahiga fan add me'
p1718
aS'@frigasmiga try 2:06'
p1719
aS'@frigasmiga try 2:06 '
p1720
aS"I'd def would go see that. Awe u learn to ride a bike and the sexy Asian \ngirl teaches u"
p1721
aS'that jump was so fake:)'
p1722
aS'LOL Starcraft '
p1723
aS'ASS = Agent of Secret Stuff XD'
p1724
aS'@tigerrohan ur right about that but hes a mexican flying man XD'
p1725
aS'OMG THIS IS GONNA BE EPIC!!!'
p1726
aS'Dear Ryan, can you be fashion designer???'
p1727
aS'i love starcraft 2 wings of liberty'
p1728
aS'Awesum...waiting for it to cum out... :D'
p1729
aS'Please go to my channel to see videos inspired by nigahiga! Thank you very \nmuch! Have a great day guys!'
p1730
aS'@frigasmiga no the scene before '
p1731
aS'LOL @ 0:08'
p1732
aS'smoshy smosh '
p1733
aS'STARCRAFT II FUCK YEAH'
p1734
aS'@frigasmiga no, the scene before'
p1735
aS'We. Are. ASSES. push on through baahah'
p1736
aS"I just lol'd when I saw the part when he was raging on StarCraft 2 b/c of \ndavid. You shouldnt have gone against david ryan, you shouldnt have."
p1737
aS'@megapatapon3 no dip shit'
p1738
aS'secret ninja super cool '
p1739
aS'its like full metal panic '
p1740
aS'was waiting for the TEEHEE'
p1741
aS'go smosh :D !!!!!!!!! epic vid lololol'
p1742
aS'OMG TOUCH THAT ON/OF SWITCH AT THE TOP OF THE SCREEN!'
p1743
aS"@xxDOLLASIGNZxx yeah it's him.cooooooolll"
p1744
aS"you're fucking awsome dude! no words no words..."
p1745
aS'This movie looks hecka sick!'
p1746
aS'omg i luv nigahiga '
p1747
aS'0:15 MacBook Pro <3'
p1748
aS'hahaha A.S.S'
p1749
aS'thumbs up if you waited to see girl in green 2:07'
p1750
aS'wher can i see the short film?'
p1751
aS'omg smosh!!!!!!! '
p1752
aS'Smosh!'
p1753
aS'SMOSH<3'
p1754
aS'dear ryan are you an extreme gamer '
p1755
aS'How did I not notice smosh was in that movie!?!?!?!?'
p1756
aS"I don't want To be An. A.S.S"
p1757
aS'dear Ryan did the movie come out? '
p1758
aS'Lol-- 1:12'
p1759
aS'"WE ARE ASSes! We do no complain when things get tooo hard, we PUSH. ON. \nTHRU." Hahaha! '
p1760
aS'dear ryan, can you be a glomper?'
p1761
aS'this is halarious'
p1762
aS'Ryan- You have the same computer as me!!!!!! Coolio!!!!!!'
p1763
aS'2:01 LMFAO'
p1764
aS'Nigahiga is toss player =D Thums up all toss players! ;)'
p1765
aS'MOST EPIC ENDING EVER !!!!!!!!!!!'
p1766
aS'2:07 girl in green= HOT '
p1767
aS'He reminds me of the sexy high in the Korean Drama dream high \nphysically...And mentally.......... There is no one to compare. o.o'
p1768
aS'dear ryan, can you be lady gaga?'
p1769
aS'lol smosh xD'
p1770
aS'i want to c it '
p1771
aS'@Kentzxz Fuck you '
p1772
aS'and yes some of those amazing youtubers include ian hencox and anthony \npidilla from SMOSH awsomee'
p1773
aS'aaaaaaaaaaaaaaaaaaaaaaaaaaa it cool!'
p1774
aS'i think ryan and that crew already have an ass'
p1775
aS'2:20 the valcano and ryan were very happy so ryan jumped and the valcano \nburst :) rite?!?!?!?!!?!?!?'
p1776
aS'smosh!! @ 1:51'
p1777
aS'WE ARE ASSES'
p1778
aS'yay SMOSH!!! and NIGAHIGA!!!!'
p1779
aS'Dear Ryan,could you beat up a whole gang with 1 friend?'
p1780
aS'Me and my friend were sitting here watching this and when he said we are \nasses she said " We are asses, bum bada dum bum bum bum " Lol .'
p1781
aS'Yo this is a sick video... im definitly subbing.... sub back to me? PLEASE \nSUB BACK TO ME!!!!!!!!!!!!'
p1782
aS'LOL SMOSH'
p1783
aS"864 people are Sins. i think that's how you spell it"
p1784
aS'TEEHEE'
p1785
aS'bith'
p1786
aS'lookin good hey u sed some of youtubes greatest ppl r gonna b in it is 1 of \nthem fred by any chance???'
p1787
aS'@TheCatLamb HE SHOULD HAVE BEEN! >=/ HES MY FAVORITE PERSON ON YOUTUBE'
p1788
aS'rofl i cant wait to get my HOLE and that will make ASS HOLE lol'
p1789
aS'boah alter, halt dein maul...'
p1790
aS'864 people have not been trained to become an ass'
p1791
aS'Dear ryan, can you get laid. '
p1792
aS'wats up with the teehee I kinda like it... LOL'
p1793
aS'lol hey add me everyone :) thumbs up if u seriously dont care if ppl \nwatched this in 2011'
p1794
aS"Thumgs up if you notice Phil as one of the ASS's!"
p1795
aS'PLAY ME IN SC2 NEWB'
p1796
aS'omg I love Starcraft!!! but school has been keeping me off lately... :/'
p1797
aS'TEEHEE :D'
p1798
aS'woooooo!'
p1799
aS"RWJ wasn't in this movie, im so upset."
p1800
aS'ryan you are gorgeous...'
p1801
aS'2.11 D-Trix??!!! :O'
p1802
aS'"But, but why? I already did all the hard stuff!" "We are ASSES!" LMAO!!!'
p1803
aS'2.11 Are my eyes playing tricks on me, or is that D-TRIX?????!!! :O'
p1804
aS'y is agents of secret stuff half an hour?'
p1805
aS'@Jtimes3equalsMee sure is!'
p1806
aS'@Nigahiga you suck at StarCraft II ! ! ! XD just kidding'
p1807
aS'Way beda den smosh'
p1808
aS'ive been tickled'
p1809
aS'Dear Ryan, are you a ladies man!<3 Hahaha nice video and yeah you have been \ngone for a while, its 2011 Where are you!? '
p1810
aS'@RespectProduction - why are u go bloody disgusting piss off this video and \nleave Ryan Higa alone!!!'
p1811
aS'i liked the last tingy '
p1812
aS'@RespectProduction HOW COULD YOU RYAN IS AWESOME! OH wait, No one else \nwould say that in less THEY had ass cancer.'
p1813
aS'Smosh!! :D'
p1814
aS'@alexc6789 i agree respect prodution can suck it!!!! RYAN ROX '
p1815
aS"I've been trained to become and ASS"
p1816
aS'Is this agents of secret stoff?'
p1817
aS'nigahiga cade as partes erradas ? cara eu amo os seus videos \xc3\xa9 10+.. vc \xc3\xa9 \nmt engra\xc3\xa7ado!!!'
p1818
aS'smosh'
p1819
aS'did u use the smoosh people'
p1820
aS'that was a pretty beast "teaser"'
p1821
aS'@GaminGuy9001 its a joke'
p1822
aS'@XpressVans the movie is already online, its called agents of secret stuff. \nlook it up here on youtube, its great!'
p1823
aS'aha, that was more then a teaser, that was the whole damn movie. >xD'
p1824
aS'we are asses!!!!! whos with me??'
p1825
aS'wait is the movie real?'
p1826
aS'smoooooooosh!!!'
p1827
aS'wht an ass '
p1828
aS'loves the beinging <3'
p1829
aS'look at the last 5 tags'
p1830
aS'make a video about bananas '
p1831
aS'lol'
p1832
aS'@tmoney3201cod Dude it came out last year'
p1833
aS'wtf? I saw this video, and an add popped up saying "Do you belive in \nexorsicsm?" Lol'
p1834
aS"I'm an ASS-Agent of secret stuff "
p1835
aS"There's that guy from so you think you can dance!!!!!! Cool!!!"
p1836
aS'"We are asses!" xD'
p1837
aS'Yes Starcraft ftw!'
p1838
aS'please put the annoying orange in the movie:)'
p1839
aS'Is the teacher-ish guy wearing movie theater 3-D glasses? :O'
p1840
aS"I just got raped by a 30 second youtube advertisement, but I waited because \nI wanted to see Nigahiga's new trailer! This is the kind of pain we take \nfor you bro! "
p1841
aS'is there really a movie coming out??'
p1842
aS'ohmygosh he just HAD to say TEEHEE'
p1843
aS'EPIC'
p1844
aS'@pops9333 hes 17 '
p1845
aS'We are ASSES !!'
p1846
aS'lol agents of secret stuff'
p1847
aS'Thumbs up if you saw a nyquil box and thought it was a box of trojans!'
p1848
aS'I WANT TO BE AN A.S.S!!!'
p1849
aS'i think you should be an actor for dragonball . perfect (:'
p1850
aS'At first I was like "Oh cool this looks funny and original" and then he \nsaid "Your mission is to pose as a highschool student" I was instantly put \noff. '
p1851
aS'make a movie with freddiew (freddie wong)'
p1852
aS"We r [donkey's butts]!!!! Dorks Of Nigahiga Kangroos Eat Yogurt Sandwiches \nBuy Umbrellas To Tolerate"
p1853
aS'omg this was made 9 days before my bday!!!!!'
p1854
aS'ryan try to sell sushi?'
p1855
aS'We are asses'
p1856
aS'2:11 Quest Crew member?'
p1857
aS'he is soo funny but its short'
p1858
aS'Search SOUR PUNCH HIT! watch the first video that comes up! ;D'
p1859
aS'dear ryan,can you act like a girl'
p1860
aS'He had to top it off with a "Teehee" :D'
p1861
aS'@TheBlackHawk449 haha you cant spell. you cant even spell ryan'
p1862
aS'Everyone subscribed to Niga Higa is a ninja emo gangster nerd wanna be! '
p1863
aS'is it agent of secret stuff thats like 30 mins long?'
p1864
aS'cant wait till it comes'
p1865
aS'Dear Ryan, Can you be a singer and dancer???'
p1866
aS'yeh smosh are in it'
p1867
aS'TEEHEE.'
p1868
aS'@GaminGuy9001 nuetral parasite?'
p1869
aS'1:52 through 1:54 its SMOSHHH!!! Thumbs up if you Loveeee thier videos too. \n=D'
p1870
aS'open your eyes u stupid aisian '
p1871
aS'Smosh!!!!!!!!'
p1872
aS'Is that serious?? O.o'
p1873
aS'@GaminGuy9001 Wares WoodysGamerTag? and zzirGrizz,peter chao!?'
p1874
aS'@tmoney3201cod it already came out'
p1875
aS'you play starcraft with david choi??'
p1876
aS'LOL "WE ARE ASSES!!!!!" epic and just plain HILARIOUS'
p1877
aS'Is this a real thing?'
p1878
aS'@theculestdood Yes.'
p1879
aS'Cookies '
p1880
aS'All my life I was trained to be and A.S.S.! A.S.S.- Agent of Secret Stuff!! \nXD... I laughed so hard I about peed my pants!! and Dominic @ 2:12 MMM MMM \nMMM!.. He is SOO cute with his orange on! =)'
p1881
aS'As soon as I saw Smosh, I knew this was gonna be a great movie.'
p1882
aS"dang man in no time ryan's gonna be a big star in movies"
p1883
aS'SMOSH!!!!!'
p1884
aS'Co za asy'
p1885
aS'nvm this might be the best movie ever'
p1886
aS'D-TRIX!'
p1887
aS'cool he has a Mac OXbook Pro'
p1888
aS'PUSH.. ON...THRU. Thats what she said \xe0\xb2\xa0\xd0\xb4\xe0\xb2\xa0 '
p1889
aS'@memoy51 wat lucky'
p1890
aS'0:01 '
p1891
aS'@iosuadotcom typing in the dark dickweed'
p1892
aS"I guess 860 people aren't asian...."
p1893
aS'Watch my Videos:D Thanks!'
p1894
aS'Was that a Mac version of Starcraft or did you run Windows on your Mac?'
p1895
aS'dear ryan, can you be an optometrist please?'
p1896
aS'hey yan are you a mormon??? cuz these ads are all about mormons'
p1897
aS'Awsome!!!!!!!'
p1898
aS"I like the part where he's knocking people out in the hallway. I wish I \ncould do that XD"
p1899
aS'did it come out yet ?'
p1900
aS'Oooooo...me likey.'
p1901
aS"Where's he from?"
p1902
aS'he pronounced zealot wrong'
p1903
aS"How could you get Zealots confused with Zerglings? They're not even the \nsame race...."
p1904
aS'i play star craft tooo high five and im not sherr thts protoss has \nzerglings LOLL'
p1905
aS'if nigahiga responce i will shit a brick!!!'
p1906
aS'@iosuadotcom watever you misspelt moron twice. you should have light coming \noff your screen.'
p1907
aS'Smosh :)'
p1908
aS'waa!! you tickled me!! xDD i love that film!! <3'
p1909
aS'try repeating at 0:08, eww!! XD u rock ryan!! =D'
p1910
aS'that hand movement looked soooooooooo freakin wrong'
p1911
aS'teaser, trailer .. whats the difference the movie was awesome.'
p1912
aS'hey niga i love your video'
p1913
aS'i want to see that movie!!'
p1914
aS'ASS agents of secret stuff.......'
p1915
aS'smosh :D'
p1916
aS'Awesome!'
p1917
aS'YES!!! SMOSH IS IN IT!!!!! <3 LOOOOOOOOOVE THEM!'
p1918
aS'nope I havent notice you been gon for a while :P'
p1919
aS'you guys should know that the movie has been out for a couple months now. \ngo check it out on their channel'
p1920
aS'play world of warcraft'
p1921
aS'is this a real movie cuz i wanna see it now '
p1922
aS'lol just lol'
p1923
aS"@Tonyiswin If only we had is Char name and Number. :D I'd soooooooo play \nw/him. :D He was playing toss. GOOOOOOO TOSS!! TOSS RULES. XD KBai"
p1924
aS'ths is funny movie.'
p1925
aS'860 people was Justin Biber fans. and 45368 people hate him.'
p1926
aS'ALREADY WATCH THE ACTUAL MOVIE SO TEEHEE!'
p1927
aS'Okaay thats not true kinda maybe.. hahahah :)'
p1928
aS'i love it when u say teehee!! '
p1929
aS'Smosh!!!!!!!!!!!!! :D'
p1930
aS'i cant wait till i see the moivie, is it on blockbuster '
p1931
aS'kassem g at 1:47!!!!'
p1932
aS"When's the Movie Out???"
p1933
aS'@bb1oo2bb3bb4yy5 It\'s out now, it\'s called "Agents of Secret Stuff", and \nit\'s actually 35 minutes long.'
p1934
aS'when niga?'
p1935
aS'hey, when ryan was playing starcraft, he said "n-no David!!" David... does \nthat mean he was playing with david choi??'
p1936
aS'why the smosh dude lol'
p1937
aS'the teehee sounds like its all a jode 0.0'
p1938
aS'GUYS...like if you see D-TRIX at 1:48 , 2:08 , 2:11 , 2:20 ...and he is \nplaying as a Badguy in this film...hehehehe WE MISS YOU D-TRIX!!!!!!'
p1939
aS'Watched the movie it is called agent of secret stuff! Awesome movie'
p1940
aS'@dcsk8ter80 Wow it is true!! Works on any video.'
p1941
aS'HAHAHAH Im sick... WITH BIEEBER FEV... No, im not gonna make that Joke \nagain. >:('
p1942
aS"@iCoDSouthAfrica It's already out..."
p1943
aS'When is it on You Tube/'
p1944
aS'omg it would be soo great if he actully made a 1:30 minute \nmovie......seriously i could watch this all day!!!!'
p1945
aS'go to 0:00, then hold left arrow key, while holding left arrow key press up \narrow key, and thumbs up if you can play the snake game.'
p1946
aS'Let me tickle you with a teaser!'
p1947
aS'anthony and ian :)'
p1948
aS'2:03 whoa KassemG lol'
p1949
aS'haha i wanna see this!'
p1950
aS'Ur movies are better than avatar Yeah ther that good keeppppppp \nmakkkkinnngg morre vids becccause they r awesome'
p1951
aS'omg! at the begging u know his mike! i am wearing that same mike lol!!!!!!! \ni have the exacct mike thats pretty funny.'
p1952
aS'Kewl if that was/is a real movie i wanna see it !'
p1953
aS"I bet ryan's account name on starcraft 2 is A.S.S ^^"
p1954
aS'Smoshoshosh.'
p1955
aS'can u do dirty jobs or man vs food'
p1956
aS'0:04 lol '
p1957
aS'put me in your video! if i ever become famous on youtube :)'
p1958
aS'903 people were beat up cuz they were flirting with nigahigaz girlfriend '
p1959
asS'time'
p1960
ctime
struct_time
p1961
((I2010
I9
I10
I0
I21
I3
I4
I253
I-1
t(dtRp1962
sS'id'
p1963
VNJRYzZD87js
p1964
s.