(dp1
S'title'
p2
V3,000,000 subscribers!
p3
sS'url'
p4
Vhttp://www.youtube.com/watch?v=osBfKHSO-DM&feature=youtube_gdata_player
p5
sS'image'
p6
Vhttp://i.ytimg.com/vi/osBfKHSO-DM/0.jpg
p7
sS'comments'
p8
(lp9
S'Wow 3 million in 2010 u were really popular \xef\xbb\xbf'
p10
aS'his camera was so bad back then!\xef\xbb\xbf'
p11
aS'What Ryan said in the description, "Special thanks for Sean Fujiyoshi for \nhis cameo! More than 90% of you will keep asking and wont read this but the \nreason Sean isn\'t in videos anymore is because he goes to college in Oregon \nand I\'m in Nevada. We\'re still friends and we see each other every time we \ncome back to Hawaii for winter/summer break."\xef\xbb\xbf'
p12
aS'OMF THE NOSTALGIA\xef\xbb\xbf'
p13
aS'Now 18 million subscribers\xef\xbb\xbf'
p14
aS"Now he's got over 12.6 million\xef\xbb\xbf"
p15
aS'His eyes are purple\xef\xbb\xbf'
p16
aS'what was that whistling sound in the background \xef\xbb\xbf'
p17
aS'He look like vanoss or vikksrar\xef\xbb\xbf'
p18
aS'anybody else noticed he had purple eyes?\xef\xbb\xbf'
p19
aS'LOL IM WATCHING THIS IN 2014\nNOW HE HAS 12 MILLION SUBSRIBERS\xef\xbb\xbf'
p20
aS'theyre eyes are purple........\xef\xbb\xbf'
p21
aS"Like if you're watching this in 2014\xef\xbb\xbf"
p22
aS"wow ryan is getting subscribers so fast he might beat pewdiepie [whos \noverrated DON'T KILL ME BUT ITS TRUE] \xef\xbb\xbf"
p23
aS'Why do his eyes keep turning purple?\xef\xbb\xbf'
p24
aS'lamp\xef\xbb\xbf'
p25
aS"Now he's got 11m (11,000,000)\xef\xbb\xbf"
p26
aS'How did this guy get a million subscribers in NINETEEN VIDEOS?!\xef\xbb\xbf'
p27
aS'Why are there eyes purple \xef\xbb\xbf'
p28
aS'your eyes are blue\xef\xbb\xbf'
p29
aS"where's shawn\xef\xbb\xbf"
p30
aS"Ryan: He's always been here, in my heart \nMe: Thats sweet...\nSean: No I'm not, I'm right here\nMe: *LMAO*\xef\xbb\xbf"
p31
aS'\xd0\xba\xd0\xb0\xd0\xba\xd0\xbe\xd0\xb2\xd0\xb0 \xd1\x85\xd0\xb5\xd1\x80\xd0\xb0 \xd1\x83 \xd0\xbd\xd0\xb5\xd0\xb3\xd0\xbe \xd1\x81\xd1\x82\xd0\xbe\xd0\xbb\xd1\x8c\xd0\xba\xd0\xbe \xd0\xbf\xd1\x80\xd0\xbe\xd1\x81\xd0\xbc\xd0\xbe\xd1\x82\xd1\x80\xd0\xbe\xd0\xb2\n?????????????????????\xef\xbb\xbf'
p32
aS'Lamp ha\n\xef\xbb\xbf'
p33
aS"I'm watching when he has like 12 million subs\xef\xbb\xbf"
p34
aS"Ryan's eyes look purple\xef\xbb\xbf"
p35
aS'\xd8\xa7\xd9\x84\xd9\x84\xd9\x87 \xd8\xa3\xd9\x83\xd8\xa8\xd8\xb1 \xd9\x84\xd8\xa7 \xd8\xa5\xd9\x84\xd9\x87 \xd8\xa5\xd9\x84\xd8\xa7 \xd8\xa7\xd9\x84\xd9\x84\xd9\x87 \xd9\x85\xd8\xad\xd9\x85\xd8\xaf \xd8\xb1\xd8\xb3\xd9\x88\xd9\x84 \xd8\xa7\xd9\x84\xd9\x84\xd9\x87\xef\xbb\xbf'
p36
aS'Ur eyes are purple!!! \xef\xbb\xbf'
p37
aS'Smosh rocks\xef\xbb\xbf'
p38
aS'Cool\xef\xbb\xbf'
p39
aS'Purple eyed peoples!!!\xef\xbb\xbf'
p40
aS'In three months u get 7,000,000 subs which is awesome!\xef\xbb\xbf'
p41
aS'You have 11,478,628!\xef\xbb\xbf'
p42
aS'that sean at 0:55 never gets old '
p43
aS'yes. and yay Ryan! and...Sean .....too...I guess......no ur great great too!'
p44
aS'I look up to you Ryan. you inspire me'
p45
aS'Why is smosh there'
p46
aS'why are his eyes purple lol'
p47
aS'his eyes are tope the power'
p48
aS'ryans eyes look purplely blue....is it just me?'
p49
aS'Two years before the world was going to "end". Also I was in Arizona that \nday'
p50
aS"He said: ''Hes from Hawaii''"
p51
aS'i saw lafawnduh at the end!!##'
p52
aS'this is an awesome video! TEEHEE'
p53
aS'Your eyes look purple in this video!'
p54
aS'Last word: lamp. Hahahah'
p55
aS'This reminds me of "Seen" ;)'
p56
aS'they have purple eyes ......makes them look good'
p57
aS'This is the entaire population of my country, and this is from 2010'
p58
aS'your welcome'
p59
aS'I saw smosh on the thank yous'
p60
aS'blue clothes'
p61
aS'SEAN!!!!'
p62
aS'Donno why but i might think you like lamps....'
p63
aS'Lamp'
p64
aS'YaaaaaaaaaaaY! '
p65
aS"Who else saw 'smosh' when it went through the random words?"
p66
aS"hahahahaha xD I love Sean's and Ryan's faces here 1:09"
p67
aS'haha lol u look like u have blue eyes :D'
p68
aS'Dat face 1:08'
p69
aS"Where's Sean?"
p70
aS'Are RWJ and RYAN friends just asking cause at the end it says less than 3 \nand his previews videos.'
p71
aS'<3'
p72
aS'A LAMP xD'
p73
aS'lamp'
p74
aS'watch my videos :) and subscribe to me so i can get 2 subscribers!! haha'
p75
aS'Nigahiga is the first one who reached 3 million subscribers'
p76
aS'YAY SEAN :)'
p77
aS'u should make a 7,000,000 , 8,000,000 and 9,000,000 celebration video...y u \nno make celebration videos anymore!!!'
p78
aS'ill be happy if i get 1 sub'
p79
aS'i swear i watched his 1 millionth one to the six millionth one...*does not \nscratch head*'
p80
aS'Ya...'
p81
aS'is shawn his brother'
p82
aS'Pause 1:08'
p83
aS'His eyes look weirdly blue'
p84
aS"''anyway''"
p85
aS'whats with purple blinking eyes LAWL!!! '
p86
aS'seven years after I was born this was made '
p87
aS'you got 7 mill now im one of them *cough*'
p88
aS'Himself.'
p89
aS'Eeeeeeennnnnnnnnn!'
p90
aS'Probably something like "Ryan is Hawaiian so he\'s not Asian.'
p91
aS'yoi shawn is back'
p92
aS'Why do his eyes look so blue in this? I thought they were brown?'
p93
aS'Can anybody read the last part?'
p94
aS'1:09'
p95
aS'1:09'
p96
aS'Dear Ryan , can you do something that no-one-ever-think-before ?'
p97
aS'His eyes look purple'
p98
aS'Hahaha he reached 3000000 subscribers on my birthday haha :D'
p99
aS'Do you know who your first subscriber was?'
p100
aS'Nice video , giveaway on my channel'
p101
aS'his eyes is like purple'
p102
aS'His eyes look purple!'
p103
aS'lamp 1:19'
p104
aS'so weres Sean?'
p105
aS'actually it was [less than 3]'
p106
aS'Ryan is awesome ;) why are your eyes sparkling blue in this video?'
p107
aS'Less than 3! <3 '
p108
aS'SUB 4 SUB'
p109
aS'No I subscribed 2999998 times! was that bad?'
p110
aS'Yea, I saw that too...'
p111
aS'And now he has 6 milion'
p112
aS'Do yu have purple contacts? o.o'
p113
aS'in about 2 years he doubled his subs'
p114
aS'Sean!!'
p115
aS'purple contacts '
p116
aS'that things caught all my attention.. so damn cool! xD'
p117
aS'u got 1 subcriber'
p118
aS'do more vids with sean!!!! '
p119
aS"He's still asian. He says it like twenty million times in all his videos"
p120
aS'Hey I only subscribed like 2000000000'
p121
aS'yeah where is sean today?'
p122
aS'i did!'
p123
aS"why didn't you make a poem? :D"
p124
aS'edit'
p125
aS'this was exactly 2 years ago :D'
p126
aS'he looks tanned and his eyes are a deep violet. ooh. smexxi.'
p127
aS'seaaaaaaaaaaan hahaha 0:53'
p128
aS'I wonder how he meet smosh'
p129
aS':D video is 1:23 long :D yh so f*cking important!'
p130
aS'Your eyes are purple'
p131
aS'their eyes are blue'
p132
aS'And now 160 videos and 9.890.577 subscribers. You just gotta love Ryan. <3 \n:D'
p133
aS"You and dtrix are the best people on the planet and don't stop making videos"
p134
aS'wtf, your eyes look purple. :o & you are cute (:'
p135
aS'Ha i was your 300000000'
p136
aS'i [less than 3] you Ryan Higa!'
p137
aS'woah his eyes ! '
p138
aS'together forever xD'
p139
aS'The day u uploaded this i turned 10'
p140
aS'Its Smosh @ 1:19 '
p141
aS'his eyes look purple '
p142
aS'now he has 159 v9deos and 9,588,588 sub !!! GO RYAN !!!'
p143
aS'<3'
p144
aS"Where's Sean"
p145
aS'imovie...'
p146
aS'these eye are awesome'
p147
aS'it is " the comment no longer exist " duh'
p148
aS'Why the blue contact lenses?'
p149
aS"Idiot. Read the comment I'm replying to."
p150
aS'Blue pupils'
p151
aS'I remembered the very first I watched this, and once I saw Sean, I was like \n"WHERE HAVE YOU BEEN!!!" '
p152
aS'mom and lamp ? h\xc3\xa2h'
p153
aS'SEAAAAAAAAN!'
p154
aS'0:24 0:42 Enie wee'
p155
aS"It's Shawn"
p156
aS'where the fuck is sean you you dumbass asian piece of shit'
p157
aS'YOUR WELCOME... Hey you never thanked me'
p158
aS'*cough* *cough* 9073931 subs'
p159
aS'1:09 LOL'
p160
aS'well then you better unsubscribe so he has 3 million subcribers agian'
p161
aS'this thing is so funny! how old are you '
p162
aS"0:56- Well guess what?!? He's always been here, right hear...in my heart. \n1:01-Random Sean appears! No I'm not! Ryan: O.O Look, oh yeah, i'm right \nthere, too. 1:08- O.O That was so unexpected."
p163
aS'Did anyone notice he wrote smosh?'
p164
aS'you have 1.000.00 million subscriber for me ??lol'
p165
aS'lol i have the kids saying yay! sound effect on my page check it out like \nthis so everyone can see please :)'
p166
aS'hahahaha then sean was also in bromance! '
p167
aS'it is now six milloin but for some reson my friend does not like ryan '
p168
aS'Good job you troll. Im pretty sure that nigahiga fans and Sean himself will \nbe kinda pissed off now. And maybe you should learn spelling Seans name \nbefore posting a bad comment fucktard.'
p169
aS"Nah I don't think they should do funny videos."
p170
aS'his eyes purple ? '
p171
aS'XD i cracked upi when it said, [less than 3]'
p172
aS'Lol. Lamp'
p173
aS'more like over 5 million'
p174
aS'1:09 LOL'
p175
aS'Purple eyes!'
p176
aS'ONESTLY I HATE SHONE'
p177
aS'Whats the name of song at the end?'
p178
aS'i know how its spelled.....:/'
p179
aS'Derp. LOL.'
p180
aS"Hehehe, Imma Mind Reader If You Didn't Know ^.^"
p181
aS'SEEEEEEAAAAAAAAAAAAAAAANNNNNNNNNNN!!!!!'
p182
aS'Purple eyes o_O'
p183
aS'Does anyone else see the purple eyes?'
p184
aS"People, Ryan's eyes aren't blue, it's the light's reflection on the camera"
p185
aS"You're 8 years old??????"
p186
aS'LAMP'
p187
aS'<3'
p188
aS'This video was made when I was 5 yes old'
p189
aS'his mom'
p190
aS'He thanked his mom and lamp. Lol'
p191
aS'Is It Just Me Or Do His Eyes Look Purple'
p192
aS'ur eyes look purple! lol :) <3'
p193
aS"No, it's still less then 3"
p194
aS'they have purple l'
p195
aS'PURPLE EYES!!! :O'
p196
aS'did you see lamp at the end and now there are 5,592,002 views'
p197
aS'wait the lsmp is subed to you i thought he was restricted from the internet '
p198
aS"You're welcome, lol Love you!!<3<3<3"
p199
aS'SEEEEAAAAAN'
p200
aS'GET MORE SUBSCRIBERS THEN PEWDIEPIE!!!!!'
p201
aS'lol lamp'
p202
aS'YAYY SEAN!!'
p203
aS'u wearing contacts? they look really cool!!! I WANT SOME!!! :)'
p204
aS'Ur eyes are purple in luke all ur videos'
p205
aS'lamp 1:20'
p206
aS'this guy is so funny '
p207
aS'Now you almost got 7 mil subs! Congratz i followed you when you only had a \nmillion subscribers! Ly x'
p208
aS'CheckOut His Eyes so cool is contact lenses, hehehehehe JK its obvious its \nnot!! :)'
p209
aS'ssshHHHHHHEEEEEAAAAANNNNN'
p210
aS'asain thing i geuss'
p211
aS'Ryan and Sean used to live in Hawaii but Ryan left to go to California and \nthat is where he lives now. He does go visit Hawaii time to time.'
p212
aS'yawn....'
p213
aS'SEEAAAANNNNNNNNNN!!!!!!!!!'
p214
aS'YAAAAY You Welcome <3'
p215
aS'SEAN!!!!!!!! <3'
p216
aS'lol'
p217
aS"Ryan's eyes lewk purple"
p218
aS'Anyone notice there eyes wer purple'
p219
aS"THREE MILLION!?!?!?!? THAT'S MORE THAN FIVE!"
p220
aS"Ok then. I'll ask my own question. Why is Sean's eye also purple? And where \nis he? It's been quite a long time after he showed up in Bromance the music \nvideo."
p221
aS'1:09 omg haha funnyyy'
p222
aS'because they are all good'
p223
aS'It is spelled Sean. But I know he kinda pronounced it Shean.'
p224
aS'Lamp'
p225
aS'Dear Ryan can u be a super model '
p226
aS'No problem. Yeah I know I want Sean back.'
p227
aS'lamp'
p228
aS'1:09 BROMANCE'
p229
aS'its the light reflecting in his eyes'
p230
aS"In the description, it shows the answer: Special thanks for Sean Fujiyoshi \nfor his cameo! More than 90% of you will keep asking and wont read this but \nthe reason Sean isn't in videos anymore is because he goes to college in \nOregon and I'm in Nevada. We're still friends and we see each other every \ntime we come back to Hawaii for winter/summer break."
p231
aS'<3 is a heart shape'
p232
aS'lamp!'
p233
aS'CONGRATULATIONS !!! HERE ! HAVE A COOKIE SIR !!'
p234
aS'@1:09 priceless xD'
p235
aS'Aww I miss Sean'
p236
aS"well that's certainly over 9000!"
p237
aS'dear ryan can you remake the how to be videos please '
p238
aS'Yes why his eyes purple??'
p239
aS"Sean's eyes are also purple..."
p240
aS'UR EYES LOOK PURPLE O . O '
p241
aS'he is in the phase every asian go thru about in the late puberty, we get \nfaster, stronger and wiser. the super saiyan phase'
p242
aS'wait what ?! hes got kids in his house *raises eyebrow* ??'
p243
aS'SeAn'
p244
aS'Wow 2010 he reached plus 2 million Amazing o.o'
p245
aS'Lamp :D'
p246
aS'Purple Eyes!!'
p247
aS'your eyes look purpleee'
p248
aS'i thought shaun moved..... o well!!'
p249
aS"That's so sad! I miss Sean. No, I'm not a girly girl, but when I saw the \n2012 video 9 months after it was posted and I was like O.O...is that Sean \nFujiyoshi?!? O.o o.O o.o...GAHHHHHHH! HE CAME BACK!"
p250
aS'dear ryan can u be gay and do it with sean '
p251
aS'You are color blind , no im just kidding i do see the purple eyes :D'
p252
aS'His eyes look so cool. The light does weird things to them!'
p253
aS"Even Sean ^^ It's because of the light, when he move his head it's change =)"
p254
aS'U hv purple eyes \xee\x84\x86'
p255
aS'Im a lamp!'
p256
aS'Whos watching this in september 2012?'
p257
aS'did i just see smosh?'
p258
aS'you should make more videos with sean '
p259
aS'less than three = <3 xD'
p260
aS'SHAWN'
p261
aS'Why r ur eyes purple? :) '
p262
aS'no its the camra'
p263
aS'SHUT THE FUCK UP WITH THE SPAM'
p264
aS'can someone explain less than three joke?'
p265
aS'lucky I have 1 subscriber!!!'
p266
aS'sean!!!!!!!!!!!'
p267
aS'what you wrote was raywilliamjohnson. a.k.a cancer'
p268
aS"couldn't help noticing that your eyeballs seemed unusually purple in this \nvideo..."
p269
aS'lol or the 64 of you that subscribed 46870 times :3'
p270
aS'Dear Ryan Can u be Bowling ball?'
p271
aS'TeeHee...i sounded like NigaHiga.'
p272
aS'wheres sean '
p273
aS'less than three is represented by these symbols: < and 3, and if you put \nthem together you get <3, which is basically a heart... :D'
p274
aS' to be honest I did not excpect sean to appear.'
p275
aS'3.000.000 subscribers in 2010 4.000.000 subscribers in 2011 5.000.000 \nsubscribers in 2012 SOUND LIKE NIGAHIGA '
p276
aS'when is sean fujiyoshi coming back'
p277
aS'= less than, 3 = three therefore less than three = 3 :)'
p278
aS'What did smosh do to help you guys? They been in one video'
p279
aS"= means equals < means less than =3 means equals three <3 means less than \nthree you're welcome.."
p280
aS'\xd0\xb1\xd0\xbb\xd0\xb8\xd0\xbd \xd1\x8f \xd0\xbd\xd0\xb8\xd1\x85\xd1\x80\xd0\xb5\xd0\xbd\xd0\xb0 \xd0\xbd\xd0\xb5 \xd0\xbf\xd0\xbe\xd0\xbd\xd0\xb8\xd0\xbc\xd0\xb0\xd1\x8e '
p281
aS'1:09 loooooooooooooooooooool'
p282
aS'it says alright late dtrix kevjumba chestersee wongfu davidchoi SMOOOSSSHH \nkassemg hiimrawn mom lamp LOL'
p283
aS'less than three is <3, what you wrote means equals 3'
p284
aS'6.000.000 in 2013'
p285
aS"thank you for all of you - blah blah people he thanks to - lamp . well he's \nright for thanking the lamp , all the lamp conversation are the main reason \nevery single video of him gets like 4328179587 views . "
p286
aS'lol '
p287
aS'*75'
p288
aS'nice contacts 0.0'
p289
aS'he is not that far away from ray william johnson'
p290
aS"@Jessica they're contacts"
p291
aS'im watching this when you have 8 mil subs'
p292
aS'Seaaaaaa'
p293
aS'xD'
p294
aS"no, it's ryan HIGA and sean FUJIYOSHI they'r enot related :)"
p295
aS'who else tried reading everything he speed wrote at the end?'
p296
aS'Dear Ryan you should make a video where you play slender at night!'
p297
aS'2x now'
p298
aS'MAPOTI "GRAAMMER NAZI"'
p299
aS'Where is Sean now?'
p300
aS'nice dude '
p301
aS'ya'
p302
aS'9,113,493'
p303
aS'159 videos and 9,499,533'
p304
aS'your eyes r purple!'
p305
aS'why are his eyes purple'
p306
aS"No! Sean needs to stay! He's the one the makes me laugh the most!"
p307
aS'159 vids and 9,286,340 subs.'
p308
aS'Shawn!'
p309
aS'Lamp'
p310
aS'Yeah! I got 3 too now! Guess we are the same! :D'
p311
aS'Lamp'
p312
aS'Lamp'
p313
aS'actually you have 2'
p314
aS'Holy crap, 168 videos and 2 subs. LMFAO'
p315
aS'Thumbs up if you :D ..... SHUT THE FUCK UP WITH UR FUCKING ATTENTION \nSEEKING FFS.'
p316
aS'Why does Sean hav blue eyes here?'
p317
aS'I hear the frogs in the background.'
p318
aS'[less than three] lol xD'
p319
aS'but Sean isnt in videos that often again :('
p320
aS"I get 3 and i haven't got ANY videos o_O which is awkward."
p321
aS'tHUMBS UP IF U SAW smosh AT THE END'
p322
aS"1:17 pause the video 'haters gtfo' lolol"
p323
aS'Dear Ryan are u Weird?'
p324
aS'Wtf'
p325
aS'actually you have 2'
p326
aS"You should be no 1 most subscribed. not that asshole RWJ. Here's how i \nthink the most subscribed should be in order. 1. Nigahiga 2. Smosh 3. \nAlphaOmegaSin"
p327
aS'nigahigas sean smile is a fail x) '
p328
aS'SEAAAAANNNN!!! :D :D :D What a pleasent suprise!!!! wahahah!! <3'
p329
aS'pause at 1:09 and look at seans face '
p330
aS"Or... He's probably just an alien. That would explain why he is so popular."
p331
aS'SEEEEEEEEEEEAAAAAAAAANNNNNNN!'
p332
aS"is it just me or is sean and ryan's eyes purple ? "
p333
aS'D;'
p334
aS'SSSSSEEEEEEEEAAAAAAAAAAAANNNNNNNNNNNNN!!!!!!!!!!!!!!!!!!!!!!'
p335
aS'If you miss Sean watch the Bromance Music vid =D'
p336
aS'SEAANNN!!!'
p337
aS'Seannnnnnn'
p338
aS'Was it just me or was his eyes shining blue???( NO HOMO )'
p339
aS'Oh yeah, I got 2 now! Great! :D'
p340
aS'HES A ZOMBIE O.O (but seriously its just the reflection i think)'
p341
aS'Sean. :D'
p342
aS"whryan's eyes look so colorfullll"
p343
aS'did u ever reALIZE all the thanku vidz ryan makes he says will b seriious \nbut arent?'
p344
aS'Y U NUMBER 2?! U LIEK R BETTER THE RWJ!'
p345
aS"The whole purple/blue eye thing is one of three things..... 1. Contact \nlenses. 2. It's something to do with the camera or 3. THAT'S NOT REALLY \nRYAN HIGA!!!!!!!!!!! HE'S BEEN REPLACED WITH A ALIEN ZOMBIE CLONE!!!!!!! \nALL HOPE IS LOST!!!!!!!! ...... Yeah. It's totally the third option. No \nhide yo kids, hide yo wife. Peace!"
p346
aS'I love how he put lamp at the end.'
p347
aS'Why is it so laggy in the beginning'
p348
aS'Guess what, at the time I told my friends that I was going to go make money \nonline, they teased me. But after that I showed them my profits. Go and \nGoogle Tube Cash Exposure to check out the best way to make money online.'
p349
aS'WHAT DID HAPPEN TO SEAN ?????? '
p350
aS'Get The F*ck Out'
p351
aS"I subscribed like 9 times throughout the 3 years I've seen this channel.. \nMainly because I forgot my password and my fake E-Mails information.."
p352
aS'its nearly 10m now '
p353
aS"SEEEAAANNNNNNN <3 nigahiga videos just arent' complete without him. "
p354
aS'5 million now'
p355
aS'SEAAANNNNN'
p356
aS'Sean..... -3'
p357
aS'dear ryan can make a parody of venus angelic?'
p358
aS"Lol and just recently I find out you're one of Youtube's most subscribed \nchannels. ;3 -Trauma Tize"
p359
aS'That face they make. :") Less than 3.'
p360
aS'Nice contacts'
p361
aS"@joshy1024 ya got 24 don't you?"
p362
aS'lamp.'
p363
aS'liar you have 24 vids where did you get 161? or are you just begging for \nsubs but putting it in a different way?'
p364
aS'And this is where stereo types come from. I dont even know chemistry. ANYWAY'
p365
aS'(.Y.) boobs do you see it? friend showed me that'
p366
aS"Look at nigahiga's eyes"
p367
aS'LOL stop at 1:10 for an awesome meamorable sean and ryan face XD'
p368
aS'Did he just say lamp in the end'
p369
aS'actually i am a newbie watcher... i only discovered nigahiga less than a \nweek ago so dont be so mean >:( '
p370
aS'if u look at his eyes from the beginning they GLOW!'
p371
aS'yep'
p372
aS'Why are there eyes purple?'
p373
aS'Lol did u see the lamp at the end'
p374
aS'wow really'
p375
aS"don't you thanked to Sean? hehehhe and yeah, you and Sean are the cutest \nbromance ever "
p376
aS'His eyes are purple'
p377
aS'i liked your comment cuz i dont have any either'
p378
aS"What's cooler than having 3 million subscribers? How 'bout 0 SUBSCRIBERS!!! \nLike me (teehee). :P"
p379
aS'Is sean your cousin'
p380
aS'OMG!!! ryans eyes are purple'
p381
aS'Their eyes are blue!'
p382
aS'SEEEEAAAANNN'
p383
aS'He said thanks you to smosh hahaha'
p384
aS"For everyone so concerned with Ryan's eyes appearing purple/blue, its \nprobably a light or reflection... reflecting in his eyeballs... chill out \nppl"
p385
aS'Zong on me bday yay'
p386
aS'Smosh 1:19'
p387
aS'ryan is so freakin random ! lol'
p388
aS'Sean'
p389
aS'Pause at 1:09 lmao'
p390
aS'so are seans!!'
p391
aS"who's sean?"
p392
aS'both of there eyes look purple.... luckys...'
p393
aS'@nigahiga so ryan is sean really busy with college and stuff is that why u \ndont really make videos with him anymore just wondering'
p394
aS"Lol you're an idiot, gtfo. Sean was one of the main people behind this \nchannel when it started, most of the high viewed videos here were made by \nboth nigahiga and sean. You must be a newbie watcher, so please leave this \nchannel"
p395
aS'Are they wearing purple contacts?'
p396
aS'I don\'t know why but that "I don\'t even know chemistry" got me.. It was \nweird'
p397
aS'Huh? I was thinking Smosh or Annoying Orange would get more subscribers! \nGood Job!'
p398
aS'at exactly 1:19 theres the word smosh'
p399
aS'i dont think he/she was trying to be mean they just 4 got sum 0s '
p400
aS'Pause at 1:19 it says SMOSH'
p401
aS"where is sean? is sean coming back? why don't you make video's with sean \nanymore? SEEEEAAAAN??!?!!!?"
p402
aS'Love Asians soooo much'
p403
aS'\xe2\x9d\xa4\xe2\x9d\xa4\xe2\x9d\xa4\xe2\x9d\xa4\xe2\x9d\xa4\xe2\x9d\xa4\xe2\x9d\xa4\xe2\x9d\xa4\xe2\x9d\xa4\xe2\x9d\xa4\xe2\x9d\xa4\xe2\x9d\xa4\xe2\x9d\xa4\xe2\x9d\xa4\xe2\x9d\xa4\xe2\x9d\xa4\xe2\x9d\xa4\xe2\x9d\xa4\xe2\x9d\xa4\xe2\x9d\xa4\xe2\x9d\xa4\xe2\x9d\xa4\xe2\x9d\xa4\xe2\x9d\xa4\xe2\x9d\xa4\xe2\x9d\xa4\xe2\x9d\xa4\xe2\x9d\xa4\xe2\x9d\xa4\xe2\x9d\xa4\xe2\x9d\xa4\xe2\x9d\xa4\xe2\x9d\xa4\xe2\x9d\xa4\xe2\x9d\xa4\xe2\x9d\xa4\xe2\x9d\xa4\xe2\x9d\xa4\xe2\x9d\xa4\xe2\x9d\xa4\xe2\x9d\xa4\xe2\x9d\xa4\xe2\x9d\xa4\xe2\x9d\xa4\xe2\x9d\xa4\xe2\x9d\xa4\xe2\x9d\xa4\xe2\x9d\xa4\xe2\x9d\xa4\xe2\x9d\xa4\xe2\x9d\xa4\xe2\x9d\xa4\xe2\x9d\xa4\xe2\x9d\xa4\xe2\x9d\xa4\xe2\x9d\xa4\xe2\x9d\xa4\xe2\x9d\xa4\xe2\x9d\xa4\xe2\x9d\xa4\xe2\x9d\xa4\xe2\x9d\xa4\xe2\x9d\xa4\xe2\x9d\xa4\xe2\x9d\xa4\xe2\x9d\xa4\xe2\x9d\xa4\xe2\x9d\xa4\xe2\x9d\xa4\xe2\x9d\xa4\xe2\x9d\xa4\xe2\x9d\xa4\xe2\x9d\xa4\xe2\x9d\xa4\xe2\x9d\xa4\xe2\x9d\xa4\xe2\x9d\xa4\xe2\x9d\xa4\xe2\x9d\xa4\xe2\x9d\xa4\xe2\x9d\xa4\xe2\x9d\xa4\xe2\x9d\xa4\xe2\x9d\xa4\xe2\x9d\xa4\xe2\x9d\xa4\xe2\x9d\xa4\xe2\x9d\xa4\xe2\x9d\xa4\xe2\x9d\xa4\xe2\x9d\xa4\xe2\x9d\xa4\xe2\x9d\xa4\xe2\x9d\xa4\xe2\x9d\xa4\xe2\x9d\xa4\xe2\x9d\xa4\xe2\x9d\xa4\xe2\x9d\xa4\xe2\x9d\xa4\xe2\x9d\xa4\xe2\x9d\xa4\xe2\x9d\xa4\xe2\x9d\xa4\xe2\x9d\xa4\xe2\x9d\xa4\xe2\x9d\xa4\xe2\x9d\xa4\xe2\x9d\xa4\xe2\x9d\xa4\xe2\x9d\xa4\xe2\x9d\xa4\xe2\x9d\xa4\xe2\x9d\xa4\xe2\x9d\xa4\xe2\x9d\xa4\xe2\x9d\xa4\xe2\x9d\xa4\xe2\x9d\xa4\xe2\x9d\xa4\xe2\x9d\xa4\xe2\x9d\xa4\xe2\x9d\xa4\xe2\x9d\xa4\xe2\x9d\xa4\xe2\x9d\xa4\xe2\x9d\xa4\xe2\x9d\xa4\xe2\x9d\xa4\xe2\x9d\xa4\xe2\x9d\xa4\xe2\x9d\xa4\xe2\x9d\xa4\xe2\x9d\xa4\xe2\x9d\xa4\xe2\x9d\xa4\xe2\x9d\xa4\xe2\x9d\xa4\xe2\x9d\xa4\xe2\x9d\xa4\xe2\x9d\xa4\xe2\x9d\xa4\xe2\x9d\xa4\xe2\x9d\xa4\xe2\x9d\xa4\xe2\x9d\xa4\xe2\x9d\xa4\xe2\x9d\xa4\xe2\x9d\xa4\xe2\x9d\xa4\xe2\x9d\xa4\xe2\x9d\xa4\xe2\x9d\xa4\xe2\x9d\xa4\xe2\x9d\xa4\xe2\x9d\xa4\xe2\x9d\xa4\xe2\x9d\xa4\xe2\x9d\xa4\xe2\x9d\xa4\xe2\x9d\xa4\xe2\x9d\xa4\xe2\x9d\xa4\xe2\x9d\xa4\xe2\x9d\xa4\xe2\x9d\xa4\xe2\x9d\xa4\xe2\x9d\xa4\xe2\x9d\xa4\xe2\x9d\xa4\xe2\x9d\xa4\xe2\x9d\xa4\xe2\x9d\xa4\xe2\x9d\xa4\xe2\x9d\xa4\xe2\x9d\xa4\xe2\x9d\xa4\xe2\x9d\xa4\xe2\x9d\xa4\xe2\x9d\xa4\xe2\x9d\xa4\xe2\x9d\xa4\xe2\x9d\xa4\xe2\x9d\xa4\xe2\x9d\xa4\xe2\x9d\xa4\xe2\x9d\xa4\xe2\x9d\xa4\xe2\x9d\xa4\xe2\x9d\xa4\xe2\x9d\xa4\xe2\x9d\xa4\xe2\x9d\xa4\xe2\x9d\xa4\xe2\x9d\xa4\xe2\x9d\xa4\xe2\x9d\xa4\xe2\x9d\xa4\xe2\x9d\xa4\xe2\x9d\xa4\xe2\x9d\xa4\xe2\x9d\xa4\xe2\x9d\xa4\xe2\x9d\xa4\xe2\x9d\xa4\xe2\x9d\xa4\xe2\x9d\xa4\xe2\x9d\xa4\xe2\x9d\xa4\xe2\x9d\xa4\xe2\x9d\xa4\xe2\x9d\xa4\xe2\x9d\xa4\xe2\x9d\xa4\xe2\x9d\xa4\xe2\x9d\xa4\xe2\x9d\xa4\xe2\x9d\xa4\xe2\x9d\xa4\xe2\x9d\xa4\xe2\x9d\xa4\xe2\x9d\xa4\xe2\x9d\xa4\xe2\x9d\xa4\xe2\x9d\xa4\xe2\x9d\xa4\xe2\x9d\xa4\xe2\x9d\xa4\xe2\x9d\xa4\xe2\x9d\xa4\xe2\x9d\xa4\xe2\x9d\xa4\xe2\x9d\xa4\xe2\x9d\xa4\xe2\x9d\xa4\xe2\x9d\xa4\xe2\x9d\xa4\xe2\x9d\xa4\xe2\x9d\xa4\xe2\x9d\xa4\xe2\x9d\xa4\xe2\x9d\xa4\xe2\x9d\xa4\xe2\x9d\xa4\xe2\x9d\xa4\xe2\x9d\xa4\xe2\x9d\xa4\xe2\x9d\xa4\xe2\x9d\xa4\xe2\x9d\xa4\xe2\x9d\xa4\xe2\x9d\xa4\xe2\x9d\xa4\xe2\x9d\xa4\xe2\x9d\xa4\xe2\x9d\xa4\xe2\x9d\xa4\xe2\x9d\xa4\xe2\x9d\xa4\xe2\x9d\xa4\xe2\x9d\xa4\xe2\x9d\xa4\xe2\x9d\xa4\xe2\x9d\xa4\xe2\x9d\xa4\xe2\x9d\xa4\xe2\x9d\xa4\xe2\x9d\xa4\xe2\x9d\xa4\xe2\x9d\xa4\xe2\x9d\xa4\xe2\x9d\xa4\xe2\x9d\xa4\xe2\x9d\xa4\xe2\x9d\xa4\xe2\x9d\xa4\xe2\x9d\xa4\xe2\x9d\xa4\xe2\x9d\xa4\xe2\x9d\xa4\xe2\x9d\xa4\xe2\x9d\xa4\xe2\x9d\xa4\xe2\x9d\xa4\xe2\x9d\xa4\xe2\x9d\xa4\xe2\x9d\xa4\xe2\x9d\xa4\xe2\x9d\xa4\xe2\x9d\xa4\xe2\x9d\xa4\xe2\x9d\xa4\xe2\x9d\xa4\xe2\x9d\xa4\xe2\x9d\xa4\xe2\x9d\xa4\xe2\x9d\xa4\xe2\x9d\xa4\xe2\x9d\xa4\xe2\x9d\xa4\xe2\x9d\xa4\xe2\x9d\xa4\xe2\x9d\xa4\xe2\x9d\xa4\xe2\x9d\xa4\xe2\x9d\xa4\xe2\x9d\xa4\xe2\x9d\xa4\xe2\x9d\xa4\xe2\x9d\xa4\xe2\x9d\xa4\xe2\x9d\xa4\xe2\x9d\xa4\xe2\x9d\xa4\xe2\x9d\xa4\xe2\x9d\xa4\xe2\x9d\xa4\xe2\x9d\xa4\xe2\x9d\xa4\xe2\x9d\xa4\xe2\x9d\xa4\xe2\x9d\xa4\xe2\x9d\xa4\xe2\x9d\xa4\xe2\x9d\xa4\xe2\x9d\xa4\xe2\x9d\xa4\xe2\x9d\xa4\xe2\x9d\xa4\xe2\x9d\xa4\xe2\x9d\xa4\xe2\x9d\xa4\xe2\x9d\xa4\xe2\x9d\xa4\xe2\x9d\xa4\xe2\x9d\xa4\xe2\x9d\xa4\xe2\x9d\xa4\xe2\x9d\xa4\xe2\x9d\xa4\xe2\x9d\xa4\xe2\x9d\xa4\xe2\x9d\xa4\xe2\x9d\xa4\xe2\x9d\xa4\xe2\x9d\xa4\xe2\x9d\xa4\xe2\x9d\xa4\xe2\x9d\xa4\xe2\x9d\xa4\xe2\x9d\xa4\xe2\x9d\xa4\xe2\x9d\xa4\xe2\x9d\xa4\xe2\x9d\xa4\xe2\x9d\xa4\xe2\x9d\xa4\xe2\x9d\xa4\xe2\x9d\xa4\xe2\x9d\xa4\xe2\x9d\xa4\xe2\x9d\xa4\xe2\x9d\xa4\xe2\x9d\xa4\xe2\x9d\xa4\xe2\x9d\xa4\xe2\x9d\xa4\xe2\x9d\xa4\xe2\x9d\xa4\xe2\x9d\xa4\xe2\x9d\xa4\xe2\x9d\xa4\xe2\x9d\xa4\xe2\x9d\xa4\xe2\x9d\xa4\xe2\x9d\xa4\xe2\x9d\xa4\xe2\x9d\xa4\xe2\x9d\xa4\xe2\x9d\xa4\xe2\x9d\xa4\xe2\x9d\xa4\xe2\x9d\xa4\xe2\x9d\xa4\xe2\x9d\xa4\xe2\x9d\xa4\xe2\x9d\xa4\xe2\x9d\xa4\xe2\x9d\xa4\xe2\x9d\xa4\xe2\x9d\xa4\xe2\x9d\xa4\xe2\x9d\xa4\xe2\x9d\xa4\xe2\x9d\xa4\xe2\x9d\xa4\xe2\x9d\xa4\xe2\x9d\xa4\xe2\x9d\xa4\xe2\x9d\xa4\xe2\x9d\xa4\xe2\x9d\xa4\xe2\x9d\xa4\xe2\x9d\xa4\xe2\x9d\xa4\xe2\x9d\xa4\xe2\x9d\xa4\xe2\x9d\xa4\xe2\x9d\xa4\xe2\x9d\xa4\xe2\x9d\xa4\xe2\x9d\xa4\xe2\x9d\xa4\xe2\x9d\xa4\xe2\x9d\xa4\xe2\x9d\xa4\xe2\x9d\xa4\xe2\x9d\xa4\xe2\x9d\xa4\xe2\x9d\xa4\xe2\x9d\xa4\xe2\x9d\xa4\xe2\x9d\xa4\xe2\x9d\xa4\xe2\x9d\xa4\xe2\x9d\xa4\xe2\x9d\xa4\xe2\x9d\xa4\xe2\x9d\xa4\xe2\x9d\xa4\xe2\x9d\xa4\xe2\x9d\xa4\xe2\x9d\xa4\xe2\x9d\xa4\xe2\x9d\xa4\xe2\x9d\xa4\xe2\x9d\xa4\xe2\x9d\xa4\xe2\x9d\xa4\xe2\x9d\xa4\xe2\x9d\xa4\xe2\x9d\xa4\xe2\x9d\xa4\xe2\x9d\xa4\xe2\x9d\xa4\xe2\x9d\xa4\xe2\x9d\xa4\xe2\x9d\xa4\xe2\x9d\xa4\xe2\x9d\xa4\xe2\x9d\xa4\xe2\x9d\xa4\xe2\x9d\xa4\xe2\x9d\xa4\xe2\x9d\xa4\xe2\x9d\xa4\xe2\x9d\xa4\xe2\x9d\xa4\xe2\x9d\xa4\xe2\x9d\xa4\xe2\x9d\xa4\xe2\x9d\xa4\xe2\x9d\xa4\xe2\x9d\xa4\xe2\x9d\xa4\xe2\x9d\xa4\xe2\x9d\xa4\xe2\x9d\xa4\xe2\x9d\xa4\xe2\x9d\xa4\xe2\x9d\xa4\xe2\x9d\xa4\xe2\x9d\xa4\xe2\x9d\xa4\xe2\x9d\xa4\xe2\x9d\xa4\xe2\x9d\xa4\xe2\x9d\xa4\xe2\x9d\xa4\xe2\x9d\xa4\xe2\x9d\xa4\xe2\x9d\xa4\xe2\x9d\xa4\xe2\x9d\xa4\xe2\x9d\xa4\xe2\x9d\xa4\xe2\x9d\xa4\xe2\x9d\xa4\xe2\x9d\xa4\xe2\x9d\xa4\xe2\x9d\xa4\xe2\x9d\xa4\xe2\x9d\xa4\xe2\x9d\xa4\xe2\x9d\xa4\xe2\x9d\xa4\xe2\x9d\xa4\xe2\x9d\xa4\xe2\x9d\xa4\xe2\x9d\xa4'
p404
aS'1:09!!! epicness!!!'
p405
aS'1:09 so cute (less than three)'
p406
aS'Nigahiga is the best in the world like this if you agree'
p407
aS'"Sean always here, in my heart" Owww that\'s so sweet. LESS THAN \nTHREE!!!!!!!!!!!!!!'
p408
aS"Omg he thanked me I'm so haaapppy teehee"
p409
aS'U guys have puro le eyes'
p410
aS'Thumbs if u think Ryan is cute'
p411
aS'0:54 looOOOLLLll'
p412
aS'thumbs up if your watching this in 2012 '
p413
aS'LOL lamp!! was the last word.'
p414
aS'SHUT UP KIDS'
p415
aS' NO WAY'
p416
aS'SSSSSSSSEEEEEAAAAANNNNN!!!!!!!!!!!!!!! '
p417
aS'He mentioned smosh! :D'
p418
aS'I saw smosh in there :v'
p419
aS'no teehee '
p420
aS'where is helga fawntanilia?'
p421
aS'LOL I WAS SOO EXCITED TWO BUT YOU SPELLED HIS NAME WRONG LOL ITS SEAN :D'
p422
aS'I like you guys'
p423
aS'haha his eyes look purple '
p424
aS'SEAN'
p425
aS'did anyone notice his eyes were changing colours'
p426
aS'YAY SHAWN IS BACK!!!'
p427
aS"i don't even know chemistry"
p428
aS'If you think about it, watching this video and watching his other video 5 \nmillion subscribers, Ryan has gained over 2 million subscribers in just 2 \nyears! amazing.'
p429
aS'wats with the purple eyes '
p430
aS'your so cool!!!!!!!!!!!'
p431
aS'trust him to use the word lamp in every video'
p432
aS'@mandarinblast Your not Ryan'
p433
aS'TEEHEE lamp'
p434
aS'i mean 1:20 '
p435
aS"Sean's smile at the end was priceless"
p436
aS'SEANNNNNNNNN!!!!!!!!'
p437
aS'Less than 3'
p438
aS'funny that Ryan even thanks to LAMP! '
p439
aS'Purple eyes!!'
p440
aS'Do u like lamps??'
p441
aS'saw the LAMP!! '
p442
aS'It said smosh in the last part'
p443
aS"Is it just me or are your eye's purple?"
p444
aS'Lol 3,000,000 subscribers 5,000,000 views'
p445
aS"Dear camera, why are you making everybody's eyes red?"
p446
aS'"mom" "lamp"'
p447
aS'7 million now'
p448
aS'There goes another "hi mom" at the end'
p449
aS'OMG RYAN LOVING THE PURPLE EYES less than 3'
p450
aS'1:09 XD'
p451
aS'I am subbed on at least eight accounts'
p452
aS'i was about to say the same thing'
p453
aS'10 million lamps'
p454
aS'teehee :P i love that\xe2\x99\xa5'
p455
aS'is sean your brother ?'
p456
aS"Yeah, guess nobody likes my videos... :( 2 people are very nice, the other \npeople don't wanna waste their sub on me. :("
p457
aS'not anymore :D'
p458
aS':o purple eye...'
p459
aS'ok here is what he said haters gtfo alright late dtrix kevjumba chestersee \nwongfu davidchoi smosh kassemg hiimrawn mom lamp (less than 3)'
p460
aS"Lol it said 'smosh' at the end."
p461
aS'what what what what ryan has HATERS????????????'
p462
aS'What happened to your eyes?!?!'
p463
aS"he's talking about 3 mil and it has 5,437,369 views"
p464
aS'Oh look its Sean'
p465
aS'his eyes look blue'
p466
aS'@wolfangdeath I am guessing he would do better on youtube itself but that \nwould be awesome if he did have a TV show!!'
p467
aS'Your eyes are purple :P'
p468
aS'how come you dont make vids with sean like a long time ago '
p469
aS'@RayRaayable Actually I just wanted to make a litte joke ;)'
p470
aS'thank you for all of my subscribers for your suport! i appreciate every \nsingle of you. yes, even the haters. ok maybe not the haters. but thank you \nto everyone else. hater gtfo! alright late dtrix kevjumba chestersee wongfu \ndavidchoi smosh kassemg hiimrawn lamp'
p471
aS"I don't even know chemistry..."
p472
aS'is it just me or are thheir eyes normaly brown?'
p473
aS'I MISS SEAAAAAAN!'
p474
aS'Birthday Upload :)'
p475
aS'Sean!!! :D'
p476
aS'this was uploaded on my bday'
p477
aS"He has purple eye's -_o O_o"
p478
aS'remember when he was number 1 '
p479
aS'SEAN!!!'
p480
aS'SO FUNNY'
p481
aS'0:26 LOLZ '
p482
aS'SEANNNNNNNN'
p483
aS'SEEEAN!!!!!!!!!!!!!!!!!!!!!!!!!!!! '
p484
aS'This vid is so funny xD'
p485
aS'lamp.'
p486
aS"Notice he still did not answer the question I think he is avoiding the \nquestion? And I'm one of the people that go \nsssssssssseeeeeeaaaaaaaaaannnnnn!"
p487
aS'weird his eyes look like well WEIRD!'
p488
aS'shawn! uh, I mean Sean!'
p489
aS'Lol their eyes are purple'
p490
aS'SEANNNNNNNNN!!!!!!!!!!'
p491
aS'sean!!!'
p492
aS'Sean!'
p493
aS"SEAN!!!! COME BACK!!!! IT'S NOT THE SAME WITHOUT YOU!!"
p494
aS'Hills :)'
p495
aS'not anymore'
p496
aS'Now you have more than 8,000,000 subscribers'
p497
aS'Hi there, have you heard of the Zerlux Cash Code (look it up on google)? I \nfound these wonderful ideas that teach you how to make extra money online \nfrom home.'
p498
aS'less than 3 '
p499
aS'Where is Sean?'
p500
aS'Seeeeeeeeeeeeaaaaaaaaaaaaaaaaaannnnn!!! What did happen any way I think \nthey went to different colleges or something like that.'
p501
aS'ok so here is sean and sean appeared in the 2012 vid but after that he \nnever shows up...... so to sum it up i just wanted to say WHERE THE F*** IS \nSEAN FUJIYOSHI'
p502
aS'i swear i just watched his 5 million subscriber video... *scratches head*'
p503
aS'Why your eyes purple? I love purple anyway! :D'
p504
aS'*clicks show the comment* NO COMMENTT WAAAAAAAAA'
p505
aS'Sean?'
p506
aS'Because lamps are nice.'
p507
aS'really?'
p508
aS"I'm a wannabe you check my videos lego ninja.wmv"
p509
aS'thumbs up if u laughed at 1:06'
p510
aS'How come your eyes look purple in the beginning?did you put contacts to \nchange your eye color or the camera did it?'
p511
aS'3,000. a year ago 4,000 6 months ago 5,000 rite now 6 months for each one.'
p512
aS'Poor sean hes not apart of the YTF club hes way funnier than the YTF members'
p513
aS'3million subscribers and i cant even get 1000 please help me and subscribe \nto SniperzFatality please i need to be a partner of youtube'
p514
aS"thumbs up if you saw 'mom' at the end!!! :D"
p515
aS'Less than three!'
p516
aS'The eyes r PURPLE/BLUE!!!'
p517
aS'Less than 3'
p518
aS'@dbzrulesok He did.'
p519
aS'0:54 SEEEEEAAAAAAAAN!'
p520
aS'Ryan, Y U No make 5 million subscribers video'
p521
aS'lamps are sexy'
p522
aS'hi nigahiga fans i make videos like nigahiga i have been making videos for \na while now and hv low amount of views and subscriber so would all you fans \nhelp me out by viewing and subscribing to my channel so i can get big on \nyou tube thaks'
p523
aS'Is it just my bad computer screen, or are his eyes blue in this video? o_O'
p524
aS'purple eyes'
p525
aS'5,000,000 now ;)'
p526
aS'@fuzzy188188 i just noticed that too!'
p527
aS'Does anybody else notice their sparkly eyes? O_o '
p528
aS'@mskenzy19 And how was I to know that when I posted the comment?'
p529
aS'i realized ur eyes look blue here'
p530
aS'blue eyed ryan'
p531
aS'@dbzrulesok '
p532
aS'ha lamp at the end!!!! '
p533
aS'SEANNNNNN!'
p534
aS"I did the math...he's right "
p535
aS'@dbzrulesok He did!'
p536
aS'This is one of my all time favorite nigahiga videos '
p537
aS'i subscribed 30,000 times TEE HEE OH AND WATch my channel. '
p538
aS'Why did it say hiimrawn?'
p539
aS'Who else divided 3,000,000 by 64 to see if that was right? ;D'
p540
aS'Who saw that at the end it said lamp and less than 3?'
p541
aS'@sammiedwards97 Yes, after I posted this comment.'
p542
aS"Ha I saw all the vids but I'm seeing them again"
p543
aS'its the fluorescent '
p544
aS'write is out <3 its a heart'
p545
aS'he did.... '
p546
aS'@TajiriOli Read the description box. '
p547
aS'WTF every video i see has more than 1,000,000 veiws!'
p548
aS'he has over 5 million now'
p549
aS'\xd1\x87\xd1\x91 \xd1\x8d\xd1\x82 \xd0\xb7\xd0\xb0 \xd1\x87\xd1\x83\xd1\x80\xd0\xba\xd0\xb0'
p550
aS'anyone see smosh around 1:20'
p551
aS'i missed sean and tim and kileton and well i only saw jason one time'
p552
aS'try to get 586098874977596750675967496750967606779577067 suscribers'
p553
aS'His accent ..... It was soo bad those days'
p554
aS'umm i had to watch aguy eat a potateo 6 times'
p555
aS'HOLY SHIT 153 VIDEOS AND 8,388,707 SUBS!'
p556
aS'Dear Ryan, Japanese accent?'
p557
aS"OMG OMG OMG!!!!!!!!!!!! They're robots. look at their eyes."
p558
aS'I SUBSCRIBED AND I LOVE YOU!!!!! WOOOOOOOO '
p559
aS'In the end you wrote lamp'
p560
aS'i need to subscribe!'
p561
aS'SEAN! <3'
p562
aS'MW3>BF3'
p563
aS'0:53 I love that funny seaaan screaming : D '
p564
aS'Yay!!! I was lamp!!! He said my name!!!!'
p565
aS'What is with the eyes'
p566
aS'I luv these guys!!!'
p567
aS'thumbs up for 5 million subscribers'
p568
aS':o your eyes look purple!!'
p569
aS'Nigahiga>RayWilliamJohnson'
p570
aS'Yay!'
p571
aS'Dear Ryan search Fred plays black ops on you tube:D'
p572
aS'SEEEEEEEEEEEEEEEEEEEAAAAAAAAAAAAAAAAAAAAAAAAAAAAAANNNNNN'
p573
aS'now its 300,000,001'
p574
aS'purple eyez :3'
p575
aS'thubs up for finding purple eyes '
p576
aS'Correction 300,0001 I subscribed'
p577
aS'READ THE DESCRIPTION'
p578
aS'TEEHEE!!!!!!! '
p579
aS'Why is everyone still sayint sean this video is more than year old....'
p580
aS'the title is 3,000,000 not 3,000,000,000'
p581
aS'Love the coqui frogs instead of criquets'
p582
aS'thumbs up if watching in 2012!!!!!!!!!'
p583
aS'Mom lamp... Less rules?'
p584
aS'His eyes are purple'
p585
aS'Thumbs up if you watched ryans latest vid (end of the world) with sean ... \nAnd wanted to comeback to this video for the end... Or was it just me :)'
p586
aS'@sammy40027 read the description '
p587
aS'Lmao I paused at 1:09 and stares those faces.'
p588
aS"he's at 5 million now......."
p589
aS'purple eyes'
p590
aS'SEAN!!!!!!!!!!!!!!!!!!!!!!!!!!!!!!!!'
p591
aS'IME ur eyes purple'
p592
aS"wow i didn't know sean was holding the camera the whole time"
p593
aS'LESS THAN 3 FoREVER!!'
p594
aS'1:20 pause mom '
p595
aS"You almost fooled me!!!!! That was a green screen was't it!!??? Wasn't \nit!?!?!?"
p596
aS"You forgot to thank the bouncy green ball at the end! :'("
p597
aS'Thumbs up when you saw the 2012 new video, and searched up Sean and read \nthe desc..'
p598
aS"why coundn't you told us is in the video that sean has been going to \ncollege? I still complained more where is sean in the later videos. i \ndidn't bother to read the damn description when i first watch this."
p599
aS'SSSEEEAAAANNN!!!! :D'
p600
aS'Wonder if sean has a youtube account? sean should make more appearance when \nu go back to hawaii'
p601
aS'they have purple blue eyes'
p602
aS'did you read the description its right there'
p603
aS'he has a zit'
p604
aS'Does Sean have any social net works?'
p605
aS'Lmao the smile u guys pulled off the end. Priceless :D'
p606
aS'smosh at 2:20 '
p607
aS'At te end dus it say smosh'
p608
aS"that's so frustrating!!"
p609
aS'* 0:20'
p610
aS'Purple flashing eyes?'
p611
aS'this...made me cry...'
p612
aS'lol. like old times'
p613
aS"He's funny "
p614
aS'you sir yust got another subscriber ^^'
p615
aS'this is the last video i saw b4 new year :)'
p616
aS'write in youtube "Schwule Hippis"'
p617
aS'Your lamps should have their own channel'
p618
aS'@CodFather90 read the description'
p619
aS'I miss Sean :/'
p620
aS'gogo 5,000,000 !!!!!!1'
p621
aS'LOL purple eyes xD'
p622
aS'TEEHEE'
p623
aS'Omg!!! Sean hes awesome! Oh ya and im really super dissapointed that your \nnot #1 on youtube anymore i typed in #1 on youtube and this person i dont \neven know popped up! Dissapointing!!!!!!!!!!!!!!!!!! '
p624
aS'Sean is back this is so awesome'
p625
aS"there's more subscribers "
p626
aS'You should make more lamp videos...'
p627
aS'@kevsaidno read the description'
p628
aS'ITS SEAN '
p629
aS'SEEEEAAAAAN'
p630
aS'SEEEEEAAAAN!!!!!!!!!!!!'
p631
aS'SEAN is wearing a teehee shirt'
p632
aS'I remember the first time I saw this video before I had a youtube, It was \nthe 23rd of december, and Iwas like this to Sean: WHERE WERE YOU!!!!!! '
p633
aS'3,000,000 subscribers!! Thats so awesome!! I got 1 subscriber today!! You \nguys should subscribe to me so i can get to 100 sometime soon. Thanks :D'
p634
aS"I'm probably the only one but when he didn't get the yays at :20 I said \nyyyyaaaaayyyyy!!!!"
p635
aS'Do u hav a iPhone or ipodtouch nigahiga aka Ryan higa'
p636
aS'Like if u saw this in 2012!'
p637
aS'Lol lamp'
p638
aS'@mokujinju I will'
p639
aS'SEAN!!!!!!!!!!!!!!!!!!!!!!!!!!!!!!!!!!!!!!!!!!!'
p640
aS'he is almost at 5 million lol'
p641
aS'SEAAAAAAAAAAAAAAAAAAAAAAAAAAAAAAAAAAAAAAAAAAAAAN!!!!!!!!!!!!!!!!!'
p642
aS'I miss Sean and Tim!! D;'
p643
aS'It said some youtubers names at the end and it said smosh!'
p644
aS'BRING BACK SEAN FOR GODS SAKE'
p645
aS'so make vids with sean'
p646
aS'Go D-Trix, Go D-Trix!'
p647
aS'he has blue eyes'
p648
aS'@Angel090701 u wont be able to say that this year. ha-ha'
p649
aS'I agree with Tigisfox.'
p650
aS'No fucking duh '
p651
aS'lamp'
p652
aS'Purple eyes...'
p653
aS'Fuck, I miss Sean.'
p654
aS'0:54 SSSEEEEEEEEEEEEEEEEEEEAAAAAAAAAAAAAANNNNNN!!!!!'
p655
aS'U r so funny :)'
p656
aS"Is he wearing blue contacts? I thought it was the lighting cuz Sean's eyes \nappeared blue also... but maybe they were both wearing blue contacts... but \nanyway it is agreed that ryan's eyes are very beautiful."
p657
aS'what the hell with all the comments about his eyes'
p658
aS'wtf dumbass'
p659
aS'SEEAAAAN!!!'
p660
aS'his eyes look purple.'
p661
aS"Good ol' Sean! :)"
p662
aS'SEAN<3<3<3'
p663
aS'SEAN!!!!!! '
p664
aS'I feel you replaced sean with kevjumba. i like kevjumba but i feel you cant \nbe replacing each other'
p665
aS'aaaawwww less than three 2 Ryan!'
p666
aS'@yiqingng what about kyle chun?'
p667
aS'I love your videos'
p668
aS"@SonyPlaystationXiong it's up already"
p669
aS'lamp!!!!!!!!!!!! and mom'
p670
aS'Hey this vid is exactly an year old.'
p671
aS"and where's helga fontanilla"
p672
aS'@timmay2222 He NEVER said he replaced ANYONE. (Besides the joke video) \nNigahiga just lives in the same apartment with Kevjumba and the rest of \nYTF. '
p673
aS'READ THE DESCRIPTION!!!'
p674
aS'Dear Ryan, This video was uploaded 1 year ago today! :) You have almost 2 \nmillion more subscribers now...Congrats!...You are and will forever be The \nBEST! Thank you for being you Ryan Higa [Less than 3] TEEHEE :D P.S. That \nis still one of your most asked questions huh "Where\'s Sean?" I guess \npeople just don\'t get that you guys don\'t live in the same state anymore... \n<3 Much Love & best wishes '
p675
aS'You said bye to Sean now you hang out with your YTF band! The only reason I \nsee these videos is for Sean! haha JK TEEHEE'
p676
aS'i can hear the frogs ( i dont know how to spell names)'
p677
aS'sean died. :( just kidding'
p678
aS"PEOPLE! IF YOU'RE WONDERING WHERE SEAN IS....READ THE FREAKING DESCRIPTION \nBOX MAN! PS. Ryan, please make videos on summer break with sean whenever \nyou can..your fans WILL appreciate it Love you less than 3 :D "
p679
aS'We still dont know if Sean is coming back...'
p680
aS'Sean?!'
p681
aS'are his eyes purple or am i going blind?'
p682
aS'Im 3 of the subscribers!'
p683
aS'Did anyone notice the scar that he had on his cheek...?'
p684
aS'i read the description now i know why sean dont make videos haha'
p685
aS'OMG! \nSEEEEEEEEEEEEEEEEEEEEEEEEEEEEEEAAAAAAAAAAAAAAAAAAAAAAAAAAAAAAAAAAAAAAAANNNNNNNNNNNNNNNNNNNNNN!!!!!!!!!!!!!!!!!!!!!!!!!!!!!!!!!!!!!!!!!! \n<3'
p686
aS"They have purple eye's O_O"
p687
aS'lol'
p688
aS'hahaha youtube got the date wrong its not the21st yet so then this is not a \nyearold like it says'
p689
aS'LESS THAN THREE LOL !!'
p690
aS'I miss sean... Again'
p691
aS'yeah Sean is back!!!!!'
p692
aS'Your eyes are purpley-blue at 0:34'
p693
aS'omg hes about to reach 5,000,000 subscribers!'
p694
aS'SEAN!<3'
p695
aS'@Origanalkalvor same I think he has purple eye'
p696
aS"This is this video's one year anniversery!!! I helped him get that many \nsubscribers!!! I was one out of 3,000"
p697
aS"Why Won't You Make Anymore Videos With tarynn ngo??"
p698
aS'Shan'
p699
aS"lol last word was lamp(yeah i didn't rewind) btw their eyes were purple"
p700
aS'Did anyone noticed lamp in the credits ? xD'
p701
aS'You live in Nevada? '
p702
aS'@yiqingng and kyle chun'
p703
aS'did u guys realise the length of this video is 1 2 3 ? XD'
p704
aS'press 5'
p705
aS'I hate haters of u'
p706
aS'then dislike it dumbass you dont have to express in a comment'
p707
aS'The last word is lamp'
p708
aS'it was his dog'
p709
aS'Can you do another video with Sean? (:'
p710
aS'np'
p711
aS'Sean Fujiyoshi!!!!!!!!!!!!!!!!!!!!!!!!!!!'
p712
aS'FOR ALL OF YOU WHO STILL WANT TO KNOW WHAT HAPPENED TO SEAN, READ THE \nFREAKING DESCRIPTION!!!!!!!!!!'
p713
aS'LAMP FTW!!!'
p714
aS'Why are your eye purple!'
p715
aS'"Less than three" LMAO'
p716
aS'Ciota... My\xc5\x9bli, \xc5\xbce jest gwiazd\xc4\x85, bo ma tyle subskrybent\xc3\xb3w (?)... Co on niby \ntakiego robi, \xc5\xbce tylu go subskrybuje? o.0 \xc5\xbb\xc3\xb3\xc5\x82tek. ^^'
p717
aS'less than 3 haha epic '
p718
aS"I don't usually ask for thumbs up, but thumbs this comment up so people can \nstop asking: Special thanks for Sean Fujiyoshi for his cameo! More than 90% \nof you will keep asking and wont read this but the reason Sean isn't in \nvideos anymore is because he goes to college in Oregon and I'm in Nevada. \nWe're still friends and we see each other every time we come back to Hawaii \nfor winter/summer break. - Ryan"
p719
aS'Hahahaha lessthan3.... Someone doesnt like raywilliamjohnson... XD'
p720
aS'purple eyes of dooooooooooom!'
p721
aS"my name's Sean, seriously"
p722
aS"Ryan is just awesome, the whole YTF crew is f*cking awesome.. Hope they'll \ndo a show in Germany one day - wanna see them live :)"
p723
aS'i started screaming when sean showed up... '
p724
aS"' o______O annnywaaay ' haha"
p725
aS"if Sean is back, then where's Tim Enos?"
p726
aS'@17LittleC he as college in oregon and ryan is in nevada.'
p727
aS'When sean comes back from college i hope hes in ur vids'
p728
aS'can someone tell me where to get that yaaaay sound?? ive been looking all \nover '
p729
aS'@Taobaak0 see his newer ones they are higher quality.... A lot higher'
p730
aS'ANYWAY.'
p731
aS'i love sean!!! MAKE ANOTHER VIDEO WITH HIM ASAP PLEASE!!!!!!'
p732
aS"where's sean now ??"
p733
aS'is it just me or did it say "lamp" at the end?'
p734
aS'Sean!!!!!!!!!!!!!!!'
p735
aS"OH EM GEE 1:09 :')"
p736
aS"Tehee! Ur awesome! Lol ;D (yes that's a flirt wink for ya)"
p737
aS'Lamp. It said lamp at the end. I think...'
p738
aS'Sean'
p739
aS'Why does his eyes look purple.'
p740
aS'lamp '
p741
aS'SEAN SEAN SEAN SEAN SEAN SEAN SEAN SEAN SEAN SEAN'
p742
aS'buy a better camera with our subscribe money!!'
p743
aS'SSSSSSSEEEEEEEEEAAAAAAAAAAAANNNNNNNNNNNNNNNN!'
p744
aS'-3'
p745
aS'Is it just that sean is directing? Is it that he likes all the love <3'
p746
aS'presss 3 foor : annnywaaay .. (;'
p747
aS'@F34RDSoldier805 no now its 5milllion'
p748
aS'seriously where is sean ? '
p749
aS'Dear Ryan, can you be miley ciyrus '
p750
aS'SEAN'
p751
aS'your eyes are purple, do u know that?'
p752
aS'Fuuuuuuukkkk!!!!!'
p753
aS'PURPLE EYES'
p754
aS'RYAN HIGA!'
p755
aS'Your eyes are purple!? o.o'
p756
aS'-3 less then three to u to I love u and your videos so much I love \nsubscribing for your show'
p757
aS'Lamp...'
p758
aS'Awesome....'
p759
aS'Does Sean have a channel?'
p760
aS'he has purple eyes :O'
p761
aS"Guys! Spread throughtout ryan's video that Sean is studying in oregon while \nis studying in nevda that's why. "
p762
aS'what a tease..'
p763
aS'HEY RYAN I AM ONE OF THEM '
p764
aS'Ayy but he has not made a video with Sean after this one! He should be in \nYTF'
p765
aS'@HinghamHockey Lucky! I only have two.... 3 and 2 is a big difference, you \nknow!'
p766
aS'@HinghamHockey now he has 4,000,000 subscribers'
p767
aS'LUCKY! u have 3,000,000 when i only have 3... :)'
p768
aS'Go to 1:09 Pause and enjoy :D '
p769
aS'Yay Sean! Bring him back!!!'
p770
aS"@x1dragonslayer YES IT DOES! If you read the caption, you'd know why!"
p771
aS'@Nit3shade21 Yeah! it is, im gonna sub u so you will have 3! :)'
p772
aS'Yeah less than 3 get it cuz when ray does his equals three sign it is \nactually less than 3'
p773
aS'SSSEEEEAAAANNNN!!!!!!'
p774
aS'This dude should do a video with smosh. I would kill to see that video'
p775
aS'0:01 to 0:25 GEEZ KIDZ BOP'
p776
aS'@Nit3shade21 it is probably the light or he has purple contacts. he does \nwear glasses.'
p777
aS'Lol in fast words it says mom and lamp'
p778
aS'0:12 haha!'
p779
aS'ryan eyes look purple <3'
p780
aS"bleeeeeeeeeeeeeep (hehe that can either be bleep or blep you'll never \nknow!) :D"
p781
aS'All nigahiga(and Sean) fans: READ THE DESCRIPTION ABOUT Sean: they dont \nmake videos together anymore because Sean goes to college in Oregon and \nRyan is in Nevada. So everyone SHUT UP!!!!!'
p782
aS'@Nit3shade21 Omigod u r soooo right, he does have purple eyes! creeeeepy!'
p783
aS'5 million views!!!!'
p784
aS'LOL'
p785
aS"Omg I heard coquis in the background!!! But I'm puerto rican. I heard \nHawaiians don't like coquis. Dear Ryan, do you like coquis? (ps I know you \ndon't live in Hawaii anymore, it's just in pr we love our coquis, they help \nus sleep) just wondering! Wow that was a long comment -.- well, less than \nthree!!!"
p786
aS"yaaaayyy! i'm one of the 3m! :)"
p787
aS'@HinghamHockey Just 2,997,000 subscribers to go!'
p788
aS'@UltimateFinalRush now i have 8 subscribers sooooo... 2,992,000 to \ngo!!!!!!!!'
p789
aS'@NagiMomoko mine 2 '
p790
aS"@violetbutterfly1990 Special thanks for Sean Fujiyoshi for his cameo! More \nthan 90% of you will keep asking and wont read this but the reason Sean \nisn't in videos anymore is because he goes to college in Oregon and I'm in \nNevada. We're still friends and we see each other every time we come back \nto Hawaii for winter/summer break. "
p791
aS'I did a happy dance when I figured out that Sean and Ryan are still \nfriends!!!'
p792
aS'@x1dragonslayer Read his description o_o'
p793
aS'@nintendofancool come on Ryan has the second most subscribers. He wouldnt \ndo that deal. But i will :)'
p794
aS'Can you please make videos with Sean next time you see him, like during the \nbreakes ads stuff. We all miss him. Thanks! (: <3-Carisa '
p795
aS'Lamp'
p796
aS"I've always been wondering, what is that song he uses?"
p797
aS'can u bring sean back to ur videos'
p798
aS'@NagiMomoko thanks'
p799
aS'@besessh, they lived in Hawaii but Ryan moved to LA'
p800
aS"@nigahiga you didn't answer it. you just kinda put him up for two fuckin \nseconds. tell us why he's not doing videos plz"
p801
aS'WOOT CALI FTW '
p802
aS"Oh God... It's hit Sean too :("
p803
aS'I saw SMOSH!'
p804
aS'You talk alot about haters. And "all joking asides". Not complaining.'
p805
aS'AAAAAAAAAAAAAAA SEANNNNNNNNNNNNNN!!!!!!!!!!!!'
p806
aS'When he said "anyway" at 0:45 it reminded me of the end bit in agents of \nsecret stuff'
p807
aS'Seannnnn!!!!'
p808
aS'sean is so cute!!!!!!!!! '
p809
aS'mychonny is better and funnier im not being mean '
p810
aS'@super1mega2sunshine I posted the comment before he did like 2 weeks before'
p811
aS"Okay, seriously. Where's Sean? He hasn't been seen in like...forever o_o"
p812
aS"lol u and sean's weird smile. i couldn't stop laughing. U ROCK RYAN! now i \ncan't stop saying TEEHEE to my friends :D"
p813
aS'@kikoramirez2000 Dear stupid, can you not bitch?'
p814
aS'you rock!!! but more sean'
p815
aS'@Jxumi That akward moment when a video about 3 mill subscribers has 5 \nmillion + views. SUBSCRIBE DAMNIT!'
p816
aS'/watch?v=0vQCUX98bkk&feature=feedu'
p817
aS'less than 3 = <3 !!!! lol i finally understand it XD'
p818
aS'LAMP! LOLOLOL'
p819
aS"sean's back!! :D"
p820
aS'4,622,287 subscribers, but as of 3:41 PM 11/6/11 on this video 5,331,459 \nviews. WHAT IS THIS SORCERY.'
p821
aS"Nigahiga isnt nigahiga without sean ... :'("
p822
aS'Sean is back TEEHEE!'
p823
aS'Aww, I want to see more of Sean!'
p824
aS'If they see each other every summer/winter break....why doesnt he atleast \nmake one video with him....?'
p825
aS'i did subskribbbeee!!!!! i was your 3,000,000th!!!! '
p826
aS'so wheres sean'
p827
aS'wow shawn '
p828
aS'D: IM A KID!!! D: '
p829
aS'MORE SEAAAAAN! (annoying kids) YAAAAAAAAAAAYYY'
p830
aS"@kikoramirez2000 He's actually made a lot more then 100 videos, but some \nwere removed due to copyrighted music"
p831
aS'When u hut 5 mil subs, do a special vid with Sean :)'
p832
aS'sssssssssssssssssssssseeeeeeeeeeeeeeeeeeeeeeeaaaaaaaaaaaaaaaaaannnnnnnnnn'
p833
aS'haters gfoy'
p834
aS'SEEEEAAAAAANN YOUR BACK! obviously ... we missed you! ive watched almost \nevery nigahiga video and im 12, anyway its always better with sean :3 '
p835
aS'WHAT DA HECK??!!! PURPLE EYES?! YOU GUYS ARE WIZARDS!!! "YOUR A WIZARD \nHARRY"'
p836
aS"why isn't sean in YTF?"
p837
aS'Haha less than three'
p838
aS'im still missing sean :S'
p839
aS'Lamp'
p840
aS'Anyone saw Lamp at the end of the credits?'
p841
aS'OMG YOU AND SEAN NEED TO MAKE MORE VIDEOS'
p842
aS'@DjKrAenK ur right its just higa'
p843
aS'My names sean :)'
p844
aS'@violetbutterfly1990 feel free to read video descriptions. or not. whatever'
p845
aS'Dear Ryan do you like to eat?'
p846
aS'.... :D :D'
p847
aS'does anyone read the description anymore maybe you might learn somthing'
p848
aS'lamp'
p849
aS'U live in Nevada... U shood live in Oregon Oregon is beast'
p850
aS'His eyes are blue, or purple. Why?'
p851
aS'Yayyyyyyyyyyyyyy ~ SHuT UP KIDDS !'
p852
aS'I LOVEEEEEEEEEEEEEEEEEEEEEEEEE NIGA HIGA SO MUCH!!!!!! THE BEST CHANNEL \nEVER!!!!!!!!!!!'
p853
aS'i did'
p854
aS"i'm so happy you've come so far ryan :) x"
p855
aS'Are you subscribed to smosh ?'
p856
aS"It's smosh, Jenna marbles and the Ryan"
p857
aS'and did you realize that in this comment you made your spelling is the \nworst one I have ever seen in my entire life!?!? And i really mean the \nWORST SPELLING'
p858
aS'Dear Ryan, can you please make a video with Sean again? :)'
p859
aS'@josembjr read discreption '
p860
aS'RYAN: hey kids! Random People: YAYYYYY Ryan: hey kids! Random \nPeople:YAYYYYY Ryan: Hey kids! Random people: YAY---- SHUTUP \nKIDS!!!!!!!!!!!!!!!!!!!!!! '
p861
aS'SHAWNNNNNNNNNN!!!!!!! '
p862
aS'SHUT UP KIDS!!!! Kids: -50 self esteem points'
p863
aS'SEAN!!!!!!!!!!!!!!'
p864
aS'GO CHESTER! oh. I mean RYAN. uhhhhh yah,,,,,'
p865
aS'dear ryan can u become a poster '
p866
aS'@DJSupaShox XD, lol'
p867
aS'pause at 51sec blue reflaction wtf '
p868
aS'"SHUT UP, KIDS!!!"'
p869
aS'@kikoramirez2000 He actually has over 100 videos already. He just has some \non private..'
p870
aS'TEEHEE'
p871
aS'3,000,000 subcribers video with 5,314,689 views lol thumbs if you think its \nfunny'
p872
aS'100th video should be some collab video with Sean. He should still be \nmaking his own videos. Thumbs up see they can see!'
p873
aS'does anyone else notice tht his eyes look like a different colour? '
p874
aS'Dear Ryan, can you make your 100th video plz Thumbs up so he can see it!'
p875
aS'YOUTUBE MONEY'
p876
aS'@canaideanbacon ya must be or hes god or something.... i dont see anything \nworth watching in his vids '
p877
aS'I spotted less than 3.'
p878
aS'TeeHee!'
p879
aS'did anyone else see the word "lamp" at the end?'
p880
aS'go to 10 seconds in and wait 1 second and then go back to 10 seconds'
p881
aS'@xxMattDankyxx cause hes awsome like that'
p882
aS'OMGOMGOMGOMGO ASDFGHJKL IT SEANNN I MISS SEANNNN :(('
p883
aS'at winter a summer break you guys should make vids together'
p884
aS'Yeah'
p885
aS'@RMadridCR7x "why he don\'t" why he doesn\'t "fucking blinds" fucking blind \npeople...faggot'
p886
aS"daer ryan can you rule' "
p887
aS'dude you shud totally make a video about short people an y its ok 2 be \nshort heaps of my friends watch this an are sad 2 d trix cause they thnk \nhes short!!! !!! !!!'
p888
aS'Congratulations nigahiga!!'
p889
aS'Y R his eyes blue?'
p890
aS'@Epicsniper3x Then I congratulate him for the other one and half million \ntoo!'
p891
aS'same song as 2million subs lol'
p892
aS'how do you hove over 3 mill subs but only 99 vids???'
p893
aS'i am the 3,000,001 Subscriber xD '
p894
aS'SEAN!! '
p895
aS'HE HAS PURPLE EYES AT THE START!! :DDD'
p896
aS'Hey guys, thanks for helping me get 3 subscribers.'
p897
aS'SEAN!!!'
p898
aS'1:09 Pause = Old memories..'
p899
aS'When R U going to make video on the 4,000,000 subscribers?'
p900
aS'ur eyes are PURPLE in this video :O :O'
p901
aS'...and that was the last I met sean. :('
p902
aS'I came here because of Wong Fu!!!'
p903
aS':D make that 7,00,000 '
p904
aS'anywhaayyy! haha'
p905
aS'SEEEEEEEEEAN! '
p906
aS'sean fujiyoshi <3'
p907
aS'1:08 this never gets old'
p908
aS'Read the description. There is your answer people.'
p909
aS'dear ryan why dont you make 100 videos '
p910
aS"THIS IS THE REASON SEAN ISN'T IN ALL THE VIDEOS ANYMORE (in discription): \nSpecial thanks for Sean Fujiyoshi for his cameo! More than 90% of you will \nkeep asking and wont read this but the reason Sean isn't in videos anymore \nis because he goes to college in Oregon and I'm in Nevada. We're still \nfriends and we see each other every time we come back to Hawaii for \nwinter/summer break. "
p911
aS'@swannysam01 school'
p912
aS'@AlyssaLuvzPicklez Hes the guy who did the "how to" videos with him and its \nspelled sean'
p913
aS'and now 4 MILLION!!!!!!'
p914
aS'SEAN!!!!!!!!!!!!!!!'
p915
aS'SEAN!!!!!!!!!!!!!!!!!!!!!!'
p916
aS'what about tim'
p917
aS'where is sean?!?!!'
p918
aS"@darkblade395 what's wrong with my grammar. . faggot?"
p919
aS'clevage!!!'
p920
aS"yo idiots read the description why he don't make videos with sean anymore \nfucking blinds!"
p921
aS'I know why got Ryan got red sparkling eyes....Thumbs up the video if you \nwant to know.'
p922
aS'Sean was in this video but not in other. That;s BAD!!!!!! REALLY BAD!!!!!!!!'
p923
aS'dear ryan,can you be lady gaga?'
p924
aS'Pause the vid at 0:55. SEEEEEEEAAAAAAAAAAAANNN!!!!'
p925
aS"Okay cool... but where's Sean now?!"
p926
aS'Read description sean'
p927
aS'SEAAAAAAAAAAAAAAAAAAAAAAAAAAAAAN'
p928
aS'watching this in 2011'
p929
aS'woooooooo Sean :D'
p930
aS'His eyes r blue in this video'
p931
aS'every one just read the info it shows why sean is missing '
p932
aS'Dear Ryan, What would YOU do for a klondike bar'
p933
aS'@dalagutt1 OMG THAT IS SOOOO OFFENSIVE .. YOU SHOULD BE SLAPPED:D'
p934
aS'what is YTF??'
p935
aS'@RMadridCR7x yo idiot learn your grammar'
p936
aS'PURPLE EYES!'
p937
aS'no seriously, wheres sean?'
p938
aS'@swannysam01 pretending to be a lamp... xD'
p939
aS'Ohmygoodness 1:08 is the best haha omg i love you guys! '
p940
aS'omg~ ryan, is ONE video away from 100 videos! ^O^'
p941
aS'@YinYangShaymin Sean has a Youtube Channel. ;)'
p942
aS'were has he been all this time'
p943
aS'At the end when the words were flashing I saw smosh'
p944
aS'lamp '
p945
aS"Sean 'The Fluffy Bunny' Fujiyoshi! ;D"
p946
aS'wat ever happened to sean'
p947
aS'@XxAres21xX read the info'
p948
aS'who is sean?'
p949
aS'pause de vid at 1:08 ......... XD!!!'
p950
aS"I can relate to this video now because I just reached 30 subscribers!! In \nmy youtube little world, this is basically how you felt at 3,000,000. :D \nUnlike you though I can't make a thank you subscriber video because I'd \nlose subscribers lol. "
p951
aS'HOLY CRAP YOU HAVE PURPLE EYES :D'
p952
aS'seaaaaaan omg we missed youuuu '
p953
aS'Hey Ryan why do you have a scar on your cheeks (I hope you remember this \nhas been posted 2 years ago)'
p954
aS'READ THE DESCRIPTION PEOPLE!'
p955
aS'i remember those days...2010'
p956
aS"OK, Is he the only blue eyed Asian kid i've seen?"
p957
aS'SHAAAAAWN!!!! '
p958
aS'Dear Ryan can u be Sean?'
p959
aS'guys read the descrition box and yu will know why sean doesnt make videos \nwith ryan anymore. ^^'
p960
aS'SEANNNNNNNNNNNNNNNNNNNNNNNNNNNNNNNNNNNNNNNNNNNNNNNNNNNNNNNNNNNNNNNNNNNNNNNNNNNNNNNNNNNNNNNNNNNNNNNNNNNNNNNNNNNNNNNNNNNNNNNNNNNNNNNNNNNNNNNNNNNNNNNNNNNNNNNNNNNNNNNNNNNNNNNNNNNNNNNNNNNNNNNNNNNNNNNNNNNNNNNNNNNNNNNNNNNNNNNNNNNNNNNNNNNNNNNNNNNNNNNNNNNNNNNNNNNNNNNNNNNNNNNNNNNNNNNNNNNNNNNNNNNNNNNNNNNNNNNNNNNNNNNNNNNNNNNNNNNNNNNNNNNNNNNNNNNNNNNNNNNNNNNNNNNNNNNNN!!!!!!!!!!!!!!!!!!!!!!!!!!!!!!!!!!!!!!!!!!!!!!!!!!!!!!!!!!!!!!!!!!!!!!!!!!!!!!!!!!!!!!!!!!!!!!!!!!!!!!!!!!!!!!!!!!!!!!!!!!!!!!!!!!!!!!!!!!teehee'
p961
aS'sean sean sean sea sean sean :D'
p962
aS'sean*'
p963
aS'Why your eyes purple? o.O'
p964
aS'Make videos with him during winter/summer breaks!!!!!!!!!'
p965
aS'thumbs up if your one of the 64 people that subcribed 46, 875!!! :)'
p966
aS'NO 4,000,000 ND A HALF'
p967
aS'0:54 over and over... laughed my butt off. :)'
p968
aS'1:02 best part'
p969
aS'Purple Eyes '
p970
aS'Dear Ryan, can you be sean?'
p971
aS'@cameronofpa read the description box PS its sean!'
p972
aS'Aww we miss Sean!!!! xD'
p973
aS'Dear Ryan, MAKE SEAN PART OF YTF!!!!!'
p974
aS'sean fujiyoshiiiiiiiii make atleast one video with him again for good oll \ntimes and wheres tim???'
p975
aS'1:08 epic (:'
p976
aS"I hope I'm not the only one that divided 3,000,000 by 64."
p977
aS'wtf '
p978
aS'Dear ryan can you make ONE more video with seabn next time you guys are \nguys are in hawiah?'
p979
aS'dang it i cant fine the YTF on any other videos anymore.. '
p980
aS'ahahahahahah hahahah ooohh.....i never read the description thats why i \nmiss out important info'
p981
aS'@YinYangShaymin Sean\'s channel is: "Fujiboi"'
p982
aS'Thumbs up if you watching this in 2011.'
p983
aS'after this we will never see sean again?'
p984
aS'SEANNNNNNNNNNNNNNNNNNNNN'
p985
aS'@YinYangShaymin I believe he already have one but never goes on it'
p986
aS'dear ryan, can you be a rapper?'
p987
aS'awww less than 3 to you too ryan ps: i knooowww supr late comment '
p988
aS'I Love It Dude,,,,'
p989
aS'dear Ryan, Can you make a skitzo about christmas? '
p990
aS"DEAR RYAN,CAN YO BE A... SORRY I AM BEING ANNOYED ANYWAY CAN YOU BE A SUPER \nMODEL IN A BIKINI WHO IS HOT. IF YOU CAN I WILL LOVE YOU FOR LIFE AND I AM \nA GUY WHO ISN'T GAY"
p991
aS'seans wearin a teehee shirt! i wanted one to make someone jelous but i got \nno money!'
p992
aS'So seans in college....NEW QUESTION!! Where the hells Tim (helga)????'
p993
aS'\xe2\x94\x8f\xe2\x94\x81\xe2\x94\x81\xe2\x94\x81\xe2\x94\x81\xe2\x94\xb3\xe2\x94\x81\xe2\x94\x81\xe2\x94\x81\xe2\x94\xb3\xe2\x94\x81\xe2\x94\x81\xe2\x94\x81\xe2\x94\xb3\xe2\x94\x93\xe2\x95\x8b\xe2\x94\x8f\xe2\x94\xb3\xe2\x94\x81\xe2\x94\x81\xe2\x94\x81\xe2\x94\xb3\xe2\x94\x81\xe2\x94\x81\xe2\x94\x81\xe2\x94\x93 \xe2\x94\x83\xe2\x94\x8f\xe2\x94\x93\xe2\x94\x8f\xe2\x94\x93\xe2\x94\x83\xe2\x94\x8f\xe2\x94\x81\xe2\x94\x81\xe2\x94\xab\xe2\x94\x8f\xe2\x94\x81\xe2\x94\x81\xe2\x94\xab\xe2\x94\x83\xe2\x95\x8b\xe2\x94\x83\xe2\x94\x83\xe2\x94\x8f\xe2\x94\x81\xe2\x94\x81\xe2\x94\xab\xe2\x94\x8f\xe2\x94\x81\xe2\x94\x81\xe2\x94\x9b \n\xe2\x94\x97\xe2\x94\x9b\xe2\x94\x83\xe2\x94\x83\xe2\x94\x97\xe2\x94\xab\xe2\x94\x97\xe2\x94\x81\xe2\x94\x81\xe2\x94\xab\xe2\x94\x97\xe2\x94\x81\xe2\x94\x81\xe2\x94\xab\xe2\x94\x97\xe2\x94\x81\xe2\x94\x9b\xe2\x94\x83\xe2\x94\x97\xe2\x94\x81\xe2\x94\x81\xe2\x94\xab\xe2\x94\x97\xe2\x94\x81\xe2\x94\x81\xe2\x94\x93 \xe2\x95\x8b\xe2\x95\x8b\xe2\x94\x83\xe2\x94\x83\xe2\x95\x8b\xe2\x94\x83\xe2\x94\x8f\xe2\x94\x81\xe2\x94\x81\xe2\x94\xab\xe2\x94\x8f\xe2\x94\x81\xe2\x94\x81\xe2\x94\xab\xe2\x94\x8f\xe2\x94\x81\xe2\x94\x93\xe2\x94\x83\xe2\x94\x8f\xe2\x94\x81\xe2\x94\x81\xe2\x94\xab\xe2\x94\x8f\xe2\x94\x81\xe2\x94\x81 \n\xe2\x95\x8b\xe2\x95\x8b\xe2\x94\x83\xe2\x94\x83\xe2\x95\x8b\xe2\x94\x83\xe2\x94\x97\xe2\x94\x81\xe2\x94\x81\xe2\x94\xab\xe2\x94\x97\xe2\x94\x81\xe2\x94\x81\xe2\x94\xab\xe2\x94\x83\xe2\x95\x8b\xe2\x94\x83\xe2\x94\x83\xe2\x94\x97\xe2\x94\x81\xe2\x94\x81\xe2\x94\xab\xe2\x94\x97\xe2\x94\x81\xe2\x94\x81\xe2\x94\x93 \xe2\x95\x8b\xe2\x95\x8b\xe2\x94\x97\xe2\x94\x9b\xe2\x95\x8b\xe2\x94\x97\xe2\x94\x81\xe2\x94\x81\xe2\x94\x81\xe2\x94\xbb\xe2\x94\x81\xe2\x94\x81\xe2\x94\x81\xe2\x94\xbb\xe2\x94\x9b\xe2\x95\x8b\xe2\x94\x97\xe2\x94\xbb\xe2\x94\x81\xe2\x94\x81\xe2\x94\x81\xe2\x94\xbb\xe2\x94\x81\xe2\x94\x81\xe2\x94\x81\xe2\x94\x9b '
p994
aS'lol look at his eyes - they are purple '
p995
aS"@myntebuu Dude i tottaly saw that. Im pretty sure its the lighting because \nof how it's glimmering and it happened with Shawn too. o- o"
p996
aS'ryans gonna be i supah nijas on nickaloedian tonight thumbs up if your \ngonna watch it!'
p997
aS'I hope Sean is getting his share of the money.'
p998
aS'dear Ryan, Can you make a skitzo about st.patricks day? '
p999
aS'Am I tripping, is it the video/lighting, or is he wearing purple contacts? \n@ A@)"'
p1000
aS'bro teehee is nevada oh yeah me too'
p1001
aS'1:07 AwEsomE face and TEEHEE'
p1002
aS'@myntebuu dude i think ur rite!!!!!!'
p1003
aS'Dear Ryan, Can you imitate Kevjumba or other YTF?'
p1004
aS'Hi Ryan!'
p1005
aS'WHAT DOES GTFO MEAN?'
p1006
aS'dude congrats!!! for reaching an amazing landmark of 5 million \nsubscribers!!! '
p1007
aS'Boo haters!!! :('
p1008
aS'*Seen'
p1009
aS'SEANNNNNNNNNNNNNNNNNNNNNNNNNNNNNNNNNNNNNNNNNNNNNNNNNNNNNNNNNNNNNNNNNNNNNNNNNNNNNNNNNNNNNNNNNNNNNNNNNNNNNNNNNNNNNNNNNNNNNNNNNNNNNNNNNNNNNNNNNNNNNNNNNNNNNNNNNNNNNNNNNNNNNNNNNNNNNNNNNNNNNNNNNNNNNNNNNNNNNNNNNNNNNNNNNNNNNNNNNNNNNNNNNNNNNNNNNNNNNNNNNNNNNNNNNNNNNNNNNNNNNNNNNNNNNNNNNNNNNNNNNNNNNNNNNNNNNNNNNNNNNNNNNNNNNNNNNNNNNNNNNNNNNNNNNNNNNNNNNNNNNNNNNNNNNNNNNNNNNNNNNNNNNNNNNNNNNNNNNNNNNNNNNNNNNNNNNNNNNNNNNNNNNNNNNNNNNNNNNNNNNNNNNNNNNNNNNNNNNNNNNNNNNNNNNNNNNNNNNNNNNNNNNNNNNNNNNNNNNNNNNNNNNNNNNNNNNNNN!'
p1010
aS'stupid kids they are mean!'
p1011
aS"then why doesn't Ryan do a vid with him during winter/summer break?!"
p1012
aS'"Special thanks for Sean Fujiyoshi for his cameo! More than 90% of you will \nkeep asking and wont read this but the reason Sean isn\'t in videos anymore \nis because he goes to college in Oregon and I\'m in Nevada. We\'re still \nfriends and we see each other every time we come back to Hawaii for \nwinter/summer break. "'
p1013
aS'0:54'
p1014
aS'what is gtfo'
p1015
aS"@nob19510 it's in the description box "
p1016
aS'3 million subscribers! me: "Yaay! .... oh"'
p1017
aS'3,072 are the kids who booed '
p1018
aS'ur eyes r purple! awesome!'
p1019
aS'4million to be exact : D'
p1020
aS"tje reason: Special thanks for Sean Fujiyoshi for his cameo! More than 90% \nof you will keep asking and wont read this but the reason Sean isn't in \nvideos anymore is because he goes to college in Oregon and I'm in Nevada. \nWe're still friends and we see each other every time we come back to Hawaii \nfor winter/summer break."
p1021
aS'I get y we dont see sean in his videos anymore, but he could at least make \na video with him when he sees him'
p1022
aS'Loool stereotypes...cuz asians are supposed to be nerds, haha i get it \nhahahaha.....nevermind.'
p1023
aS'Haha'
p1024
aS'1:09 omg lmao lol xD'
p1025
aS'YOOU BEAT FRED YAY!!!'
p1026
aS'1:09'
p1027
aS'mom..lamp xD'
p1028
aS'@12Shadowninja get the fuck off'
p1029
aS'THE EYES THEY BURN!'
p1030
aS'less than three <3'
p1031
aS'EVERYBODY WHO STILL WANTS TO KNOW WHY HE DOESNT MAKE VIDEOS WITH SEAN \nANYMORE NEEDS TO READ THE DOWNBAR HE TELLS YOU WHY! THUMBS UP SO EVERYBODY \nCAN SEE THIS!'
p1032
aS'@nob19510 read the description.'
p1033
aS'SSSSSSEEEEAAAANNNNN!!!!!! YAY'
p1034
aS'No. Sean. Come back. I miss you'
p1035
aS'thumbs up if u guys saw the lamp at the end :D'
p1036
aS'u eat kevjumbas 2,000,000 subscribers for breakfast '
p1037
aS'@nob19510 youre a nob...'
p1038
aS'thumbs up if u saw "lamp" at the end'
p1039
aS'HAHAHAHHAAHAHAHHA'
p1040
aS'@TheMrblackops45 assh0le!'
p1041
aS'lol the smosh'
p1042
aS'Does he goes to U of O?'
p1043
aS"@nob19510 Special thanks for Sean Fujiyoshi for his cameo! More than 90% of \nyou will keep asking and wont read this but the reason Sean isn't in videos \nanymore is because he goes to college in Oregon and I'm in Nevada. We're \nstill friends and we see each other every time we come back to Hawaii for \nwinter/summer break. "
p1044
aS'i miss sean!'
p1045
aS'SHAN !!!! :) '
p1046
aS'TEEHEE!!!...'
p1047
aS'YAY SEEEEEEEEEAAAAAAAAN!!!!!!!!'
p1048
aS'EVERYONE READ THE DESCRIPTION BOX!!!!!!!!!!!!!!!'
p1049
aS'@nob19510 read the description box -_-'
p1050
aS"I miss Sean :'("
p1051
aS'SSSSSSEEEAAAAAANNNN!!!!'
p1052
aS'did anyone see the word mom in the video'
p1053
aS'does anybody find it funny that we all want him to make a video with sean \nbut the only videos with sean that he makes are short videos like this and \nnot skits like we all want'
p1054
aS'O_______O Omg ryannn!!! can you respond to my comment? Pleaaasssseeee i \nwould be the happiest person alive!!!!!!!!!!!!!!!!!!!! :D TEEHEE Im so \ndesperate.....'
p1055
aS'whos sean'
p1056
aS'Anyone else saw the word lamp at the end?'
p1057
aS'Is it just me - or are his eyes purple in this video?'
p1058
aS'You have a very beautiful purple sparkle in your eyes :)'
p1059
aS'his eyes are purple.'
p1060
aS'i love sean'
p1061
aS'We <3 you Sean, you have our eternal subscription! ...Oh hi NigaHiga. ;D'
p1062
aS'I hear Koki frogs..... or do u spell cokie'
p1063
aS'Read the tags'
p1064
aS'I miss sean.'
p1065
aS'lamp'
p1066
aS'"SSSSEEAAAAAN!!" XDD'
p1067
aS'@nob19510 Read the description!'
p1068
aS'SEAN!!!!!!!!! YAAAYY'
p1069
aS'yayayayayayay SEAN :DD'
p1070
aS'dear ryan, can u swim?'
p1071
aS'soooo why dont u make videos with him?'
p1072
aS'i love niggers and i hate you :('
p1073
aS'sooooo wheres sean?'
p1074
aS'0:15 best part'
p1075
aS'SEAN!!!'
p1076
aS'Is it just me or does Ryan Have Purple eyes!'
p1077
aS'@GamingCrit and d-trix, kevjumba chester see...'
p1078
aS'SHAUN! <3'
p1079
aS"Where's Sean? Is Sean comeing Back? Wh ydon't you make videos with Sean \nanymore?SEEEAAAANNNNN"
p1080
aS'SEAN!!!!!!!!!!!!!!!!!!!!!!!'
p1081
aS'yay seans back'
p1082
aS'SEAANN!!! WE ALL MISSED YOU!!!!!!!!!!!'
p1083
aS'SEANNN :D '
p1084
aS"what's up with his eyes? :s"
p1085
aS'ur welcome '
p1086
aS'SSSEAAAAANN!! XDD'
p1087
aS'Subscribe to me please!!!! :D'
p1088
aS'@TheKristimas YEA'
p1089
aS'i wonder if sean has his own channel in oregon'
p1090
aS'Read the description if you think they arnt seeing eachother'
p1091
aS"i really wish they did videos together again :'( Come back sean!"
p1092
aS'he uploaded this on my birthday lols! :) '
p1093
aS'they are fuuny'
p1094
aS'o my gosh im from oregon i might see sean!!!!!!!!!'
p1095
aS"what is it with you and lamps man. but it's funny it's really funny :p haha "
p1096
aS'Your eyes are PURPLE! I WANT!!!'
p1097
aS'@nob19510 distance. '
p1098
aS'@Opfaklopfa88 Shut the fuck up racist peice of fucking shit'
p1099
aS'1:08 EPIC FACES!'
p1100
aS'press 2 for failur face xDDD'
p1101
aS'Why do people think his eyes are purple or he has contact lens!? It the its \nthe lights and camera'
p1102
aS'I know right'
p1103
aS'Anyway....'
p1104
aS';D OMFG SPECIAL GUEST FOR 3 MILLION SUBS. PRESENTING THE ONE AND ONLY \nSEANNN ;DD'
p1105
aS'SEAN!'
p1106
aS'SEAN!!!'
p1107
aS'His eyes look purple'
p1108
aS'SEAN!!!!!!!!!!!!!!!!!!!'
p1109
aS'SEAAAAANNNNNN!!!'
p1110
aS'wow '
p1111
aS'Dear Ryan, what would you do if you had boobies?'
p1112
aS'WHY THE FUCK DOES RYAN HAVE PURPLE EYES'
p1113
aS"@bakugan0912 i'm watching this in 2012"
p1114
aS'YAAAAY SEEEAAAAAN!!!!!'
p1115
aS'aw i 4got all about u shaun!!!! '
p1116
aS'Dear Ryan, Can you get lots of girls?'
p1117
aS'if u guys want sean to be in the videos then u will have to wait till hes \n30 cause hes in university nd its only been 2 years'
p1118
aS"You didnt wrote victorkim :'(!"
p1119
aS'1:09 FUNNY TEEHEE FACE!!!! :D'
p1120
aS'dear ryan can you be a hobo'
p1121
aS'YOU ARE WELCOME'
p1122
aS'Love you Sean!!!!'
p1123
aS'LMAO and hes already hit 4,000,000 subs '
p1124
aS'yeeeh sean is back!!'
p1125
aS'Hey ryan what college doe she go to in Oregon'
p1126
aS'Sean has to be in more videos than that!'
p1127
aS'1:09 the faces that made you guys famous (:'
p1128
aS"I absolutley love Sean! If u need a girlfran I'm right here!!!"
p1129
aS'ok so we know about sean, but what about tim enos,kyle chun,and tyrnn or \nhowever you spell her name'
p1130
aS'wait,Seans in college?WTF?'
p1131
aS'SEAN :D'
p1132
aS'SEEEEEEEEEEEEEEAAAAAAAAAAAAAAAAAAAAAAAAAAAAAAN'
p1133
aS"@zebraman5100 he's like 21 now so yur saying we have to wait 9 years. I \nthought you only need to go to university for 2-3 years? (maybe 4 i dunno)"
p1134
aS'@bakugan0912 Thumbs up if your tired of people begging for thumbs up yea \nhow about that '
p1135
aS'@Mizzy1201 I do :D'
p1136
aS'PURPLE EYES! :D'
p1137
aS'SEAN! <3 <3'
p1138
aS'u welcome '
p1139
aS'I love it when ryan and sean made the face at the end of the video. :D'
p1140
aS"@2112Addyboy I really think everyone should start reading the description \nbox. It's there for a reason."
p1141
aS"why doesn't sean make vids with you anymore? R.I.P Sean being in Ryan's \nvideos"
p1142
aS'Why the hell do people find what year they are watching the video in so \nspecial?! It\'s like going around saying "Hey, I had a bowl of cereal in \n2010, I\'M SPECIAL!"'
p1143
aS'Anyone else noticed "smosh" at 1:20'
p1144
aS'@marleyanddalton REBECCA?!?! O.o'
p1145
aS'Thumbs up if you watched all the Million subbies gaining videos '
p1146
aS'Dear Ryan, how did u do the boo? i have the yay and everything but tht'
p1147
aS'SEAN!!!! :D OMG!!! :D'
p1148
aS'That last face they make is just THE most epic face in the world!! \nSeriously. I could watch them do that face all day long. :D'
p1149
aS'#teamSEEEEEEEEEEEEEEEEAN \xe2\x99\xa5 ! '
p1150
aS'"maybe not the haters"??? LOOOOOL'
p1151
aS'at 0:00 Ryan has Purple-ish eyes!!!! :O'
p1152
aS'your welcome ryan :D'
p1153
aS'Sean is awesome!'
p1154
aS'you look like my brother'
p1155
aS'um he has purple eyes O.O'
p1156
aS'@bakugan0912 um who cares?'
p1157
aS'I LOVE HOW HE WEARS HIS BLUE CONTACTS AND YOU CAN SEE HOW BEAUTIFUL HIS \nEYES LOOK... I want blue eyes...'
p1158
aS'@YinYangShaymin read the info'
p1159
aS'dear ryan, can you be a barbie doll???? '
p1160
aS'1:08 is the best'
p1161
aS'Thumbs up, If you want Ryan and Sean to make more videos again. WE LOVE YOU \nSEAN! <3 <3 <3 & You Ryan.;D'
p1162
aS'its cool how he says ANYWAY'
p1163
aS'sean is cute '
p1164
aS'@AgentJuly19903 or probably hes wearing purple contacts xD'
p1165
aS'SSSSSSSSSSSSSSSSSSSSSSSSSSSSSSSSSSSSSSSSSSSSSSSSSSSSSSSEEEEEEEEEEEEEEEEEEEEEEEEEEEEEEEEEEEEEEEEEEEEEEEEEEEEEEEAAAAAAAAAAAAAAAAAAAAAAAAAAAAAAAAAAAAAAAAAAAAAAAAAAAAAAAAAAAAAAANNNNNNNNNNNNNNNNNNNNNNNNNNNNNNNNNNNNNNNNNNNNNNNNN!!!!!!!!!!!!!!!!!!!!!!!!!!!!!!!!!!!!!!!!!!!!!!!!!!!!!!!!!!!!!!!!!!!!!!!!!!!!!!!!!!!!!!!!!!!!!!!!!!!!!!!!!!!!!!!!!!!!!!!!!!!!!!!!!!!!!!!!!!!!!!'
p1166
aS'i just subscribed! bc of this vid!'
p1167
aS'SEEEEEEEEEEEEEEEEEEEEEEEEEAAAAAAAAAAAAAAAAANNNNNNNNNN!!'
p1168
aS'YAY SEAN!'
p1169
aS'look up gut grinder 17 on you yube, comment, and rate plz'
p1170
aS'ryan : hey guys thank you so much for- children : YAAAAAAAY ryan :hey guys \nthank you so much for helping me- children : YAAAAAAYY ryan : hey guys \nthank you so much for helping me to reach 3- children : YAAAAY ryan : SHUT \nUP KIDS!'
p1171
aS'read the description!!!!!!!!!!!!!!!!!!!!!!!!!!!!'
p1172
aS'aww... even if he only had 64 subscirbers, he would have more than me'
p1173
aS'yay! now wheres taryn and tim??'
p1174
aS'MIND = BLOWN /watch?v=2Y-UKz-GOfs'
p1175
aS'sean come home i miss you tehhe '
p1176
aS'yaaaaaaaaay sean !!!!!!!!!!!!!!! now where r the others'
p1177
aS'"Fujyoshi" ? ... He Likes Gay porn ?'
p1178
aS'dtrix. kevjumba. smosh. kassemg. mom. lamp. <3 The love.'
p1179
aS'I love to see nigahiga videoes can you make more videos '
p1180
aS'YEAH!!!!!!!!!!!!!!!!!!!!!!!!!!!!!!!'
p1181
aS'Lamps lol'
p1182
aS'Haha i love their faces at the end!!'
p1183
aS"Where's Sean? Is Sean coming back?? Why don't you make videos with Sean \nanymore? SSSSSSSSSSEEEEEEEEEEEEEAAAAAAAAAAANNNNNNNNNN!"
p1184
aS'I MISSSSS SEANNN!!! :(!!!!'
p1185
aS'when i saw this video i just posted wear is sean..... wired'
p1186
aS'kangaroo fart ;) '
p1187
aS'does sean have a channel? if yes, what is it called? '
p1188
aS'@Wiebejamin I think the funny part is (lamp) is in his fast word at the \nend. Lamp?Seriously?'
p1189
aS"@AnonymousPwned It's actually the bad camera."
p1190
aS"Special thanks for Sean Fujiyoshi for his cameo! More than 90% of you will \nkeep asking and wont read this but the reason Sean isn't in videos anymore \nis because he goes to college in Oregon and I'm in Nevada. We're still \nfriends and we see each other every time we come back to Hawaii for \nwinter/summer break. this is his description which 90% of you wont read cos \nyou didnt see it... Thumbs up to keep it at top of the page"
p1191
aS'anyyway'
p1192
aS'but seriously could u make another video with him? '
p1193
aS'now u have 4million'
p1194
aS'@AnonymousPwned LOL '
p1195
aS"Guys, read the description, it explains why Sean isn't in his videos \nanymore."
p1196
aS'Seannnnnnnnnnnnn!!!!!!!!!!!!!! So awesome!!!!!'
p1197
aS'i love lamps because of you :)'
p1198
aS'How did you guys time the last part??? '
p1199
aS'nigger higger'
p1200
aS'EVERYONE RED THE DESCRIPTION'
p1201
aS'READ THE DESCRIPTION!!!!'
p1202
aS'Why are your eyes purple!'
p1203
aS"higa's eyes look sparkly purple here...contacts? or...camera?"
p1204
aS'RYAN HIGA'
p1205
aS"No. Less than 3 is the same is <3. It's a heart in case you haven't noticed."
p1206
aS'hes got nearly double this since then'
p1207
aS'his eyes is really purple!:D '
p1208
aS'Who came here because of the 6 million thank you video too!'
p1209
aS'1:09 my new wallpaper'
p1210
aS'SSSSSSSSSSSSSSSSSEEEEEEEEEEEEEEEEEEAAAAAAAAAAAAAAAAAAAAAAANNNNNNNNNNNNNN'
p1211
aS'Ssssssseeeeeeeaaaaaannnnnnn!!!!!!!'
p1212
aS"8D its ok Ryan i love u even without Sean!!!! 8) i mean Sean's really kool \n2 nd awesome nd funny nd really awesome .... awesome video 8)"
p1213
aS'Sean is funny'
p1214
aS'SEAAAAAAAAAAAAAAAAAAAAAAAAAAAAAAAAAAAAAAAAAAAAAAAAAAAAAAANNNNNNNNNNNNNNNNNNNNNNNNNNNNNNNNNNNNNNNN!!!!!! \n'
p1215
aS"Where's Sean now? "
p1216
aS'I love your eyes.. theyre very smexi:) lmao'
p1217
aS'sean where have u been sean is the best and ryan to '
p1218
aS'SSSSSSSSSSSSSSSEEEEEEEEEEEEEEEEEEEEAAAAAAAAAAAAAAAAAAAANNNNNNNNNNNNNN!!!!!!!!!!!!!!!!!!!!!!!!!!!!!!!!'
p1219
aS'Lol, pause video, Click ----> 1:08'
p1220
aS'sean where have u been'
p1221
aS'why dont u make videos with sean any more'
p1222
aS'Press 5 really fast xD'
p1223
aS'LMAo tee heee'
p1224
aS"okay he's always been there but why dont u make videos with him \nanymore?!?!?!?!?!?!?!"
p1225
aS'this is where stereotypes come from. haters gtfo hahhaha'
p1226
aS'My roomate was chinese freshman year. It sucked dick. Just like this video.'
p1227
aS'ur eyes are purple '
p1228
aS'We want sean in one of ur other videos besides dizz one :)'
p1229
aS'And then Sean was never seen in another video since now.'
p1230
aS'i wish i had purple eyes like you.... '
p1231
aS'wwwwwwwwwwwwwwwwwwhhhhhhhhhhhhhhhhhheeeeeeeeeeeeeeeeeerrrrrrrrrrrrrrrrrrrrreeeeeeeeeeeeeeeee \nis SEAN'
p1232
aS'no im not im right here ! :D'
p1233
aS'paused right when it said smosh at the end'
p1234
aS'That was scary'
p1235
aS'YAY SEANS HERE! now make a video with him.. love, the cool kids. TEEHEE'
p1236
aS'i know your not going to read this because you dont read your coments on \nyour old vids but If you see sean every summer why dont you make vids every \nsummer with sean it can be like a thing :) '
p1237
aS'@KaimanaHaru0 Purple. '
p1238
aS'Your eyes... O_O'
p1239
aS' [\xcc\xb2\xcc\x85$\xcc\xb2\xcc\x85(\xcc\xb2\xcc\x851)\xcc\xb2\xcc\x85$\xcc\xb2\xcc\x85|'
p1240
aS'SEEEEEEEEEEEEAAAAAAAAAAAANNNNNNNNNNNNNNNNNNNNNNNNN!!!!! '
p1241
aS'His eyes look kinda purple :OO , <3'
p1242
aS'does sean have a channel'
p1243
aS'lamp'
p1244
aS'THANK YOU LAMP'
p1245
aS'Omg i cant wait for the day Ryan and Sean graduate college! Then they can \nstart making videos with eachother again!!!! Those were the days :) BTW MY \nNAME IS SEAN TOO!!1 >:D'
p1246
aS'why dont u make video with sean anymore'
p1247
aS'SEEEEEAAAAANNNNN! -3'
p1248
aS'Failed! LOL'
p1249
aS'>:( SEEEEAAAAAAAAANNNNNNN!!!!!!!!!!!!! lol....'
p1250
aS'SSSSSSSSSSSSSSSSSSSSEEEEEEEEEEEEEEEEEEEEEEEEEEEEEEEEEEEEEEEEEEEEEEEEEEEEEEEEEEEEEEEAAAAAAAAAAAAAAAAAAAAAAAAAAAAAAAAAAAAAAAAAAAAAAAAAAAAAAAAAAAAAAAAAAAAAAAAAAAAAAAAAAAAAAAAAAAAAAAAAAAAAAAAAAAAAAAAAAAAAAAAAAAAAAAAAAAAAAAAAAAAAAAAAAAAAANNNNNNNNNNNNNNNNNNNNNNNNNNNNNNNNNNNNNNNNNNNNNNNNNNNNNNNNNNNNNNNNNNNNNNNNNNNNNNNNNNNNNNNNNNNNNNNNNNNNNNNNNNNNNNNNNNNNNNNNNNNNNNNNNNNNNNNNNNNNNNNNNNNNNNNNNNNNNNNNNNNNNNNNNNNNNNNNNNNNNNNNNNNNNNNNNNNNNNNNNNNNNNNNNNNNNNNNNNNNNNNNNNNNNNNNNNNNNNNNNNNNNNNNNNNNNNNNNNNNNNNNN<3'
p1251
aS'Or 64 of you who subscribed 46875 times, right? HAHAHAHA.'
p1252
aS'LAMP '
p1253
aS'i wish i had that many subs... :('
p1254
aS'lamp'
p1255
aS'Does anyone know what that music is at 1:12?'
p1256
aS'haha @ 1:20 he wrot "lamp"'
p1257
aS'AWWWWE! I MISS YOU GUYS BOTH. BRINGS TEARS IN MY EYES TO SEE YOU BACK \nTOGETHER. :">'
p1258
aS'0:54 Nuff Said'
p1259
aS'i cant even remake the squeal-y noise i made when sean came:D Sean: im \nright here me: EAGHAHOH :D'
p1260
aS'ANYWAY...'
p1261
aS"i've nevr watched the subscriber videos but now i will cause now i saw sean \nfor the first time ever since FOREVER"
p1262
aS"IT'S SEAN"
p1263
aS'DEAR RYAN.. ur hottttt :) '
p1264
aS'@TikTokManiac i have 1 0.o'
p1265
aS"@RayWilliamJohmnson Y'R NOT FUNNY "
p1266
aS'Pause at 0:39 for a funny part in the video'
p1267
aS'WOW! SEANS VOICE IS VERY DEEP NOW! I MISS HIM :( '
p1268
aS'I love asians!'
p1269
aS'@lovequotesguru1779 its ok im sorry didnt want to upset you and your \nboyfriend'
p1270
aS'RYAN HAVE PURPLE EYES!'
p1271
aS'so... was sean the camera man or something? ..... yeah i know you guys \nrock, i must shut up *slaps myself*'
p1272
aS'i saw smosh'
p1273
aS'so now we see sean... what about all the others like tim and tarynn and \nstuff?'
p1274
aS'im asian, so IM PROUD TO YOU RYAN(didnt meant to harash americans) '
p1275
aS'SHAUN!!!!!!!!!! '
p1276
aS'y r there eyes purple'
p1277
aS'OMG ITS SEAAAAAAAAAAANNN!!!!! we miss you more than you know, sean. :)'
p1278
aS'@pedroissler dont be so hard on yourself'
p1279
aS'please make a new vdeo with sean!i miss you guys working tgt '
p1280
aS'This is my fav because I see SEAN ;D!'
p1281
aS'man how did he catch us?? i thought hed never figure out how many times we \nsuscribedXD'
p1282
aS'loser'
p1283
aS'what happened to sean?'
p1284
aS'\xe2\x94\x8f\xe2\x94\x81\xe2\x94\x81\xe2\x94\x81\xe2\x94\x81\xe2\x94\x93\xe2\x95\xb2\xe2\x95\xb2\xe2\x95\xb2\xe2\x95\xb2\xe2\x94\x8f\xe2\x94\x93\xe2\x95\xb2\xe2\x94\x8f\xe2\x94\x93 \xe2\x94\x83\xe2\x94\x8f\xe2\x94\x93\xe2\x94\x8f\xe2\x94\x93\xe2\x94\x83\xe2\x95\xb2\xe2\x95\xb2\xe2\x95\xb2\xe2\x95\xb2\xe2\x94\x83\xe2\x94\x83\xe2\x95\xb2\xe2\x94\x83\xe2\x94\x83 \xe2\x94\x97\xe2\x94\x9b\xe2\x94\x83\xe2\x94\x83\xe2\x94\xa3\xe2\x94\xbb\xe2\x94\x81\xe2\x94\xb3\xe2\x94\x81\xe2\x94\x81\xe2\x94\xab\xe2\x94\x97\xe2\x94\x81\xe2\x94\x9b\xe2\x94\xa3\xe2\x94\x81\xe2\x94\x81\xe2\x94\xb3\xe2\x94\x81\xe2\x94\x81\xe2\x94\x93 \xe2\x95\xb2\xe2\x95\xb2\xe2\x94\x83\xe2\x94\x83\xe2\x94\x83\xe2\x94\x83\xe2\x94\x81\xe2\x94\xab\xe2\x94\x83\xe2\x94\x81\xe2\x94\xab\xe2\x94\x8f\xe2\x94\x81\xe2\x94\x93\xe2\x94\x83\xe2\x94\x83\xe2\x94\x81\xe2\x94\xab\xe2\x94\x83\xe2\x94\x81\xe2\x94\xab \n\xe2\x95\xb2\xe2\x95\xb2\xe2\x94\x83\xe2\x94\x83\xe2\x94\x83\xe2\x94\x83\xe2\x94\x81\xe2\x94\xab\xe2\x94\x83\xe2\x94\x81\xe2\x94\xab\xe2\x94\x83\xe2\x95\xb2\xe2\x94\x83\xe2\x94\x83\xe2\x94\x83\xe2\x94\x81\xe2\x94\xab\xe2\x94\x83\xe2\x94\x81\xe2\x94\xab \xe2\x95\xb2\xe2\x95\xb2\xe2\x94\x97\xe2\x94\x9b\xe2\x94\x97\xe2\x94\x81\xe2\x94\x81\xe2\x94\xbb\xe2\x94\x81\xe2\x94\x81\xe2\x94\xbb\xe2\x94\x9b\xe2\x95\xb2\xe2\x94\x97\xe2\x94\xbb\xe2\x94\x81\xe2\x94\x81\xe2\x94\xbb\xe2\x94\x81\xe2\x94\x81\xe2\x94\x9b'
p1285
aS'watching this after 4,000,000 1,000,000 and 2,000,000 subscribers '
p1286
aS"@jaspnguy no it isn't lessthanthree is the symbol <3 and was largely used \nbefore rwj was around. it looks like a heart. see <3!"
p1287
aS'if sean is there y doesnt he go on your shows anymore? '
p1288
aS'SEAAAN:D '
p1289
aS'\xe2\x94\x8f\xe2\x94\x81\xe2\x94\x81\xe2\x94\x81\xe2\x94\x81\xe2\x94\x93\xe2\x95\xb2\xe2\x95\xb2\xe2\x95\xb2\xe2\x95\xb2\xe2\x94\x8f\xe2\x94\x93\xe2\x95\xb2\xe2\x94\x8f\xe2\x94\x93 \xe2\x94\x83\xe2\x94\x8f\xe2\x94\x93\xe2\x94\x8f\xe2\x94\x93\xe2\x94\x83\xe2\x95\xb2\xe2\x95\xb2\xe2\x95\xb2\xe2\x95\xb2\xe2\x94\x83\xe2\x94\x83\xe2\x95\xb2\xe2\x94\x83\xe2\x94\x83 \xe2\x94\x97\xe2\x94\x9b\xe2\x94\x83\xe2\x94\x83\xe2\x94\xa3\xe2\x94\xbb\xe2\x94\x81\xe2\x94\xb3\xe2\x94\x81\xe2\x94\x81\xe2\x94\xab\xe2\x94\x97\xe2\x94\x81\xe2\x94\x9b\xe2\x94\xa3\xe2\x94\x81\xe2\x94\x81\xe2\x94\xb3\xe2\x94\x81\xe2\x94\x81\xe2\x94\x93 \xe2\x95\xb2\xe2\x95\xb2\xe2\x94\x83\xe2\x94\x83\xe2\x94\x83\xe2\x94\x83\xe2\x94\x81\xe2\x94\xab\xe2\x94\x83\xe2\x94\x81\xe2\x94\xab\xe2\x94\x8f\xe2\x94\x81\xe2\x94\x93\xe2\x94\x83\xe2\x94\x83\xe2\x94\x81\xe2\x94\xab\xe2\x94\x83\xe2\x94\x81\xe2\x94\xab \n\xe2\x95\xb2\xe2\x95\xb2\xe2\x94\x83\xe2\x94\x83\xe2\x94\x83\xe2\x94\x83\xe2\x94\x81\xe2\x94\xab\xe2\x94\x83\xe2\x94\x81\xe2\x94\xab\xe2\x94\x83\xe2\x95\xb2\xe2\x94\x83\xe2\x94\x83\xe2\x94\x83\xe2\x94\x81\xe2\x94\xab\xe2\x94\x83\xe2\x94\x81\xe2\x94\xab \xe2\x95\xb2\xe2\x95\xb2\xe2\x94\x97\xe2\x94\x9b\xe2\x94\x97\xe2\x94\x81\xe2\x94\x81\xe2\x94\xbb\xe2\x94\x81\xe2\x94\x81\xe2\x94\xbb\xe2\x94\x9b\xe2\x95\xb2\xe2\x94\x97\xe2\x94\xbb\xe2\x94\x81\xe2\x94\x81\xe2\x94\xbb\xe2\x94\x81\xe2\x94\x81\xe2\x94\x9b '
p1290
aS'ur eyes are purple... '
p1291
aS'WERE THE HELL IS SEAN!? i dont get it D:'
p1292
aS'pause at 1.09'
p1293
aS'This was made on my birthday! :)'
p1294
aS'he only has 95 vids aswell 85 more than me but i have only about 96 =('
p1295
aS'@TheWaveCompleter ROUND 78?!OMGWTFBBQ!'
p1296
aS'always lamps xD'
p1297
aS'less than three is pointed at @RayWIlliamJohnson'
p1298
aS'Well Sean might guest star in some videos because he and Ryan go back home \nduring summer n winter'
p1299
aS'@RayWilliamJohmnson YOU ARE GAY'
p1300
aS'i laughed 0.37 and 0.54'
p1301
aS'faggot'
p1302
aS'u would think people dont read the description box, every vid the same \nquestion comes up and he answered it right there last year. people are so \ndumb'
p1303
aS'thumbs up if you missed sean!!'
p1304
aS'blue eyes'
p1305
aS'you can pause at any time,ryan will have funny face'
p1306
aS'epic faces xD'
p1307
aS"Why don't you make videos with Sean WHEN you guys see eachother???????? \n(Common Sence...... FTW)"
p1308
aS"where's sean? is sean coming back? SEEEEAAAAAAAAAAANNNNNNN!!!! thats what \nmakes me wake up in the morning."
p1309
aS'ur eyes look purple'
p1310
aS'YAYYY!!!!!!!!!!!!!!!!!!!!!!!!!!!!'
p1311
aS'@EntertainmentEC shut up racist kid'
p1312
aS'now over 4 mil'
p1313
aS'Hilarious :D'
p1314
aS'i miss Sean :( put him in more videos!! :D'
p1315
aS'his eyes are fucking purple ! does anyone else see this ? '
p1316
aS'SSSSEEEEEEEEAAAAAAANNNNN!!!!!'
p1317
aS'"SEAAAAAAAAAAAAAAAAAAAAAAAAAAAAAAAAAAAAAN ! "'
p1318
aS'He posted this 2 years before the end of the world. o_O'
p1319
aS'hahahaha the stupid smile at the end cracked me up :D'
p1320
aS'His eyes are cool Purple *__*'
p1321
aS'I love this video just because sean is in it'
p1322
aS'Thumbs up if you just watched the 4,000,000 subscribers vid'
p1323
aS'sean u rock plz stay in the rest of ryans vids'
p1324
aS'He makes a video of his subscribers every year'
p1325
aS"you still haven't answer Us why Sean inst in your video anymore "
p1326
aS'SEEEEEAAAAAAANNNNNN!!!'
p1327
aS'SEAN!!!! :D'
p1328
aS'1:08 FOR THE MOST EPIC FACES'
p1329
aS'kevjumba<ryan higa'
p1330
aS'Lol I live in Oregon'
p1331
aS'nigahiga rocks '
p1332
aS'your eyes are twikling '
p1333
aS'can you put sean in your next video'
p1334
aS'Uu should make a video of uu and sean doing a song together!!!!'
p1335
aS'@Fillrish And we get 100 subscribers in 35 month...'
p1336
aS'whas up with the last thing?'
p1337
aS'this shit doesnt even work liek an idiot i tried it '
p1338
aS'i was one of the subcribers! oh corse cause i love your vids :)'
p1339
aS'i divided 3,000,000 by 64 to see if he was right'
p1340
aS'its awesome on how u guys can keep a long distance friendship with each \nother '
p1341
aS'anyway....'
p1342
aS'Yes'
p1343
aS'i wonder who his first subscriber was..'
p1344
aS'4 million subscrbers! Thats Crazy'
p1345
aS'Who knows.............maybe Ryan will make a video titled 5,000,000 \nsubscribers in 2012!!! I hope so!! :)'
p1346
aS'@the711303 was he?'
p1347
aS'His eyes look purple'
p1348
aS'when i saw sean this is what happened sean: no im not im right here me: * \nglitter eyes* SEAN * like 20 times*'
p1349
aS'wheres sean? is sean coming back? why dont you make videos with sean \nanymore? SEAAAAAAAAAN!'
p1350
aS'Sean!!! xD'
p1351
aS'SEEEEEEEEEEEEEEEAAAAAAAAAAAAANNNNNN!!!!!!!!!!'
p1352
aS'Nigahiga=number 1 on youtube Forever, thumbs up if you this so.'
p1353
aS'@EntertainmentEC Y-you hate me?! D='
p1354
aS'yeaaaaa i love you so so so much'
p1355
aS'@EntertainmentEC YOU DOG YOUR A RACIST YOU SON OF A HUMAN BEING!!! I BET \nYOUR WHOLE FAMILY ARE HUMAN BEINGS YOU MUST BE ASHAMED!!!! YOU DISGUST ME \nWITH YOUR HUMANITY'
p1356
aS'@nob19510 Are you joking or for realsies?'
p1357
aS'hi guys'
p1358
aS'Click my name Sub if u like my vids Every sub counts'
p1359
aS':D'
p1360
aS'Less than 3 LMAO -3 it!'
p1361
aS'SEAN!!!!!'
p1362
aS'Wait a minute Sean went to college. ???'
p1363
aS'Number 4,211,736'
p1364
aS'SEEEEEAAAAAAAANNNNNNNNNNNN!!!!!!!!!'
p1365
aS'it does change colors '
p1366
aS'He got 1,000,000 subcribers in 7 months...'
p1367
aS'Lamp! Lol!'
p1368
aS'[ Sean: Found ] o o . . . .'
p1369
aS'dear ryan can u teatch us how to make a sandwich ?!'
p1370
aS'Ur welcome nigahiga'
p1371
aS'*subscribe*'
p1372
aS'SSSSSSSSEEEEEEEEEAAAAAAAAANNNNNNNNNNNNNNN!!!! <33333 :DDDDDDDDDDDDD'
p1373
aS'@MegaBananadave He is asian!'
p1374
aS"where's sean, why don't you make vids with sean anymore, where the heck is \nsean, SEAAANNNNN!!!!!"
p1375
aS'SEAN'
p1376
aS'hey i wonder if Sean got the teehee shirt for free......... '
p1377
aS'When he comes back for winter/summer break just hav videos prepaired and \ntake a day to film them and then post them throughout the year, that would \natleast curb my sean obbsession :D'
p1378
aS'why are your eyes purple?'
p1379
aS'Holy sh.t he was right there '
p1380
aS'ye but him has already 4,000,000'
p1381
aS"Please Subscribe To Me, I'm New. And I Promise To Subscribe Back."
p1382
aS'can you make videos with sean when you see him in the summer/winter????'
p1383
aS'Dear Ryan, On your next new video can you please please please please \nplease please please act like a gurl and get marry with one of your friends \n:) '
p1384
aS'thumbs up if you notice the last word was lamp'
p1385
aS'so annoying i wish sean was still around... dont hate i have read the \ndescription and its fair enough and i still love the channel but you cant \nhelp but dream...'
p1386
aS'SEAN!!!'
p1387
aS'SEAAAAAAAAAAAAAAAAAAAAAAAAAAAAAAN!'
p1388
aS'Dear Ryan. Can you make a video with Sean... even if you do go to different \ncolleges!'
p1389
aS'<3'
p1390
aS'Do you like 300,000,001 too?'
p1391
aS'SEAAAAAAN<3'
p1392
aS'now 3000000001'
p1393
aS'I miss Sean. I know u guys go 2 colleges in different places, but can u \nmake videos together when u guys are in Hawaii together'
p1394
aS'I love how he says anyways'
p1395
aS'sean omgomgomgogomg SEAN YOUR THE BEST'
p1396
aS'were is he now?'
p1397
aS'did any one else see the awkward bed springs commercial... -_____-'
p1398
aS'look closly in 1: 22'
p1399
aS'hes always been right here. in ur nipple?'
p1400
aS'@MegaBananadave Yeah! Coooool!'
p1401
aS'r u a singaporean???'
p1402
aS'his eyes changes colors!!! lol '
p1403
aS'We love you Sean <3 Less than three :D'
p1404
aS'damn we missed him :3'
p1405
aS'i want the lamps back...=( (Aaaaaaawwwww...)'
p1406
aS'thats why he is asking ryan'
p1407
aS'Your mean 4 million suscribers'
p1408
aS'if only sean made his own videos.. D;'
p1409
aS'wheres tim????'
p1410
aS'What does less than 3 mean?'
p1411
aS'lamp'
p1412
aS'1:08'
p1413
aS'\xe2\x94\x8f\xe2\x94\x81\xe2\x94\x81\xe2\x94\x81\xe2\x94\x81\xe2\x94\x93\xe2\x95\x8b\xe2\x95\x8b\xe2\x95\x8b\xe2\x95\x8b\xe2\x94\x8f\xe2\x94\x93\xe2\x95\x8b\xe2\x94\x8f\xe2\x94\x93 \xe2\x94\x83\xe2\x94\x8f\xe2\x94\x93\xe2\x94\x8f\xe2\x94\x93\xe2\x94\x83\xe2\x95\x8b\xe2\x95\x8b\xe2\x95\x8b\xe2\x95\x8b\xe2\x94\x83\xe2\x94\x83\xe2\x95\x8b\xe2\x94\x83\xe2\x94\x83 \xe2\x94\x97\xe2\x94\x9b\xe2\x94\x83\xe2\x94\x83\xe2\x94\xa3\xe2\x94\xbb\xe2\x94\x81\xe2\x94\xb3\xe2\x94\x81\xe2\x94\x81\xe2\x94\xab\xe2\x94\x97\xe2\x94\x81\xe2\x94\x9b\xe2\x94\xa3\xe2\x94\x81\xe2\x94\x81\xe2\x94\xb3\xe2\x94\x81\xe2\x94\x81\xe2\x94\x93 \xe2\x95\x8b\xe2\x95\x8b\xe2\x94\x83\xe2\x94\x83\xe2\x94\x83\xe2\x94\x83\xe2\x94\x81\xe2\x94\xab\xe2\x94\x83\xe2\x94\x81\xe2\x94\xab\xe2\x94\x8f\xe2\x94\x81\xe2\x94\x93\xe2\x94\x83\xe2\x94\x83\xe2\x94\x81\xe2\x94\xab\xe2\x94\x83\xe2\x94\x81\xe2\x94\xab \n\xe2\x95\x8b\xe2\x95\x8b\xe2\x94\x83\xe2\x94\x83\xe2\x94\x83\xe2\x94\x83\xe2\x94\x81\xe2\x94\xab\xe2\x94\x83\xe2\x94\x81\xe2\x94\xab\xe2\x94\x83\xe2\x95\x8b\xe2\x94\x83\xe2\x94\x83\xe2\x94\x83\xe2\x94\x81\xe2\x94\xab\xe2\x94\x83\xe2\x94\x81\xe2\x94\xab \xe2\x95\x8b\xe2\x95\x8b\xe2\x94\x97\xe2\x94\x9b\xe2\x94\x97\xe2\x94\x81\xe2\x94\x81\xe2\x94\xbb\xe2\x94\x81\xe2\x94\x81\xe2\x94\xbb\xe2\x94\x9b\xe2\x95\x8b\xe2\x94\x97\xe2\x94\xbb\xe2\x94\x81\xe2\x94\x81\xe2\x94\xbb\xe2\x94\x81\xe2\x94\x81\xe2\x94\x9b'
p1414
aS'1:09 is the BEST!!!'
p1415
aS"Why are you're eyes purple and shinny?.. i like it :)"
p1416
aS'@music7200 I wish! But you can make more then 1 account :D'
p1417
aS'lamp lol'
p1418
aS'i watch his vids but i never suscribed teehee'
p1419
aS'TIIIIIMMMMM!!'
p1420
aS'guys please help me get 1000 subscribers NOTICE: Hey guys, Check out my \nfeatured and Only video on youtube (thumb up this comment to get noticed) I \nwas influenced by Tupac, yet not too great yet, but check out my featured \nand only Video "Going Crazy" I have a new song out but it\'s on my main \nwhich is titled "straight Path" check that out too if you want, But help me \nget subs on this channel for support! thank you!'
p1421
aS'anyone notice the lamp in the ending?'
p1422
aS'1:09 epic XD'
p1423
aS"Anybody notice Sean's TeeHee shirt?"
p1424
aS'oh hey sean has purple eyes too..! freaking love the face both of them made \njust before the TEEHEE :D'
p1425
aS'You got 1,000,000 in the past 7 months!'
p1426
aS'is shawn dead '
p1427
aS'Me is glad that Sean popped up XDD'
p1428
aS'YEAH SEAN FUJIYOSHI ! '
p1429
aS'YOU EYES ARE BLUE '
p1430
aS'less than three ryan, less than three'
p1431
aS'thumps up if higa is the fumiest guy alive '
p1432
aS'How bout Tim?! And Tarynn?! Whatever her name is?!'
p1433
aS'Why are their eyes purple? o.O'
p1434
aS'SEAN!!!!'
p1435
aS'R.I.P Sean We miss ya browskii'
p1436
aS'@TheOnlyThomJ oh! okay thanks!'
p1437
aS'Anyone else notice his purple eyes? '
p1438
aS'@OmgItsOreos tgumbs up for u'
p1439
aS'@cornelllevi1 he has his own channel. its mrSEANFUJIYOSHI i think'
p1440
aS'TGUMBS UP IF U JUST SAW THE 4,000,000 SUBSCRIBER VIDEOS!!!<3'
p1441
aS'Shaun is back '
p1442
aS'@CaptPrice274 No it means we shouldnt fight about it and thats its okay to \nlike Nigahiga and RWJ'
p1443
aS'lol "less than 3" at the end xD'
p1444
aS'Thumbs up if u lost it when u saw Sean :) '
p1445
aS'SSSEEEEAAANNN!!!!!'
p1446
aS'Sean! He agrees that Ryan and Sean should make videos together again? Or \nSean making his own channel as well! :D'
p1447
aS'how can i be surprised when the top two comments spoiled it for me the \nminute i clicked on this video? =.='
p1448
aS'thumps up if higa is the fumiest guy alive '
p1449
aS'lol! amazing videos every time! read the description people'
p1450
aS'@jammingKids Ray William Johnson'
p1451
aS'I\'m so sad, I got 161 great videos, yet I still have 0 subs. I guess no one \nwants to "waste" their sub on me... :('
p1452
aS'lamp, less than three :D'
p1453
aS'0:12 aww such a cute angry face xDD'
p1454
aS'THANKS '
p1455
aS'yea where is sean has anyone seen sean xD'
p1456
aS'ryan is super funny but he is always funnier with sean '
p1457
aS'Hmm kinda interesting how he put less than 3 in this video and now he has \nless subs than rwj :0'
p1458
aS'@14sivid man he cant lose'
p1459
aS'Haa at 1:19 its says smosh :D'
p1460
aS'Dear Ryan, can you cover your body with butter'
p1461
aS'nigahiga is a chino? THIS CHANGES EVERYTHING I EVER THOUGHT I KNEW!!!!!!'
p1462
aS'LAMP! 1:20'
p1463
aS'LOL this might be random but his eyes look really blue in this video lol'
p1464
aS"@Nameless7899 seriously STOP WITH THE IMMATURITY!!! even Ryan said he \nDOESN'T MIND being 2nd, besides does it really matter, as his fans \nshouldn't we be happy, whichever place he is in? By doing these immature \nthings like complaining and talking bad about ray, YOU GUYS ARE JUST MAKING \nRYAN LOOK BAD! can't you guys be civil !!??? thumbs up if you agree and \nwant to stop these comments. (please copy and paste to videos with the same \ncomments)"
p1465
aS'wheres shaun'
p1466
aS'u forgot princess as one of the names!!!!!!! '
p1467
aS'@Nameless7899 lol calm down who cares if hes not number 1 hes still funny'
p1468
aS'haha less than 3 '
p1469
aS'seriously lamp (at the end lol)'
p1470
aS'@Nameless7899 omg!i totally prefer nigahiga.JESUS!'
p1471
aS'SEAN!!!! I MISS U'
p1472
aS'Thumbs up if you saw smosh in the end'
p1473
aS'lol pawse at 1:09'
p1474
aS'Lamp'
p1475
aS'So he brought back Sean for a little, BUT WHERES TIM???'
p1476
aS'omfg'
p1477
aS'SEAN!!!111 <3'
p1478
aS'Lamp !'
p1479
aS'and your 425 bucks a day'
p1480
aS"Where's Tim??? And Tarynn?? And Helga?? Haha We miss the old Nigahiga gang! \nBring back the big inflatable green ball!"
p1481
aS'O.OOOOOOOOOOO PUPLE EYES???!?!?!?!!?!!?!?'
p1482
aS"If you won't bring Sean back, then tell him to make his own channel!"
p1483
aS'Go Sean... Oh and Ryan too'
p1484
aS'@Nameless7899 he has 4 million and he deserves it'
p1485
aS'he sed smosh and lamp at da end'
p1486
aS'Oh, Ryan,...you make me laugh!:D'
p1487
aS"@Lenanator09, I guess they actually do look more purple!:P Wow,I can't \nbelieve I said that they look blue in the first place LOL "
p1488
aS'300,000,000 subscribers 4 all vids but over 500,000,000 for this 1 alone'
p1489
aS'I miss the Ryan Sean duo! (='
p1490
aS'@silentmodz671 they were probably laughing so hard they missed the like \nbutton'
p1491
aS'SSSSSSSSSSSSSEEEEEEEEEEEEEEEEEEAAAAAAAAAAAAAANNNNNNNNNNN!'
p1492
aS'\xe2\x94\x8f\xe2\x94\x81\xe2\x94\x81\xe2\x94\x81\xe2\x94\x81\xe2\x94\x93\xe2\x95\x8b\xe2\x95\x8b\xe2\x95\x8b\xe2\x95\x8b\xe2\x94\x8f\xe2\x94\x93\xe2\x95\x8b\xe2\x94\x8f\xe2\x94\x93 \xe2\x94\x83\xe2\x94\x8f\xe2\x94\x93\xe2\x94\x8f\xe2\x94\x93\xe2\x94\x83\xe2\x95\x8b\xe2\x95\x8b\xe2\x95\x8b\xe2\x95\x8b\xe2\x94\x83\xe2\x94\x83\xe2\x95\x8b\xe2\x94\x83\xe2\x94\x83 \xe2\x94\x97\xe2\x94\x9b\xe2\x94\x83\xe2\x94\x83\xe2\x94\xa3\xe2\x94\xbb\xe2\x94\x81\xe2\x94\xb3\xe2\x94\x81\xe2\x94\x81\xe2\x94\xab\xe2\x94\x97\xe2\x94\x81\xe2\x94\x9b\xe2\x94\xa3\xe2\x94\x81\xe2\x94\x81\xe2\x94\xb3\xe2\x94\x81\xe2\x94\x81\xe2\x94\x93 \xe2\x95\x8b\xe2\x95\x8b\xe2\x94\x83\xe2\x94\x83\xe2\x94\x83\xe2\x94\x83\xe2\x94\x81\xe2\x94\xab\xe2\x94\x83\xe2\x94\x81\xe2\x94\xab\xe2\x94\x8f\xe2\x94\x81\xe2\x94\x93\xe2\x94\x83\xe2\x94\x83\xe2\x94\x81\xe2\x94\xab\xe2\x94\x83\xe2\x94\x81\xe2\x94\xab \n\xe2\x95\x8b\xe2\x95\x8b\xe2\x94\x83\xe2\x94\x83\xe2\x94\x83\xe2\x94\x83\xe2\x94\x81\xe2\x94\xab\xe2\x94\x83\xe2\x94\x81\xe2\x94\xab\xe2\x94\x83\xe2\x95\x8b\xe2\x94\x83\xe2\x94\x83\xe2\x94\x83\xe2\x94\x81\xe2\x94\xab\xe2\x94\x83\xe2\x94\x81\xe2\x94\xab \xe2\x95\x8b\xe2\x95\x8b\xe2\x94\x97\xe2\x94\x9b\xe2\x94\x97\xe2\x94\x81\xe2\x94\x81\xe2\x94\xbb\xe2\x94\x81\xe2\x94\x81\xe2\x94\xbb\xe2\x94\x9b\xe2\x95\x8b\xe2\x94\x97\xe2\x94\xbb\xe2\x94\x81\xe2\x94\x81\xe2\x94\xbb\xe2\x94\x81\xe2\x94\x81\xe2\x94\x9b'
p1493
aS'\xe2\x94\x8f\xe2\x94\x81\xe2\x94\x81\xe2\x94\x81\xe2\x94\x81\xe2\x94\x93\xe2\x95\x8b\xe2\x95\x8b\xe2\x95\x8b\xe2\x95\x8b\xe2\x94\x8f\xe2\x94\x93\xe2\x95\x8b\xe2\x94\x8f\xe2\x94\x93 \xe2\x94\x83\xe2\x94\x8f\xe2\x94\x93\xe2\x94\x8f\xe2\x94\x93\xe2\x94\x83\xe2\x95\x8b\xe2\x95\x8b\xe2\x95\x8b\xe2\x95\x8b\xe2\x94\x83\xe2\x94\x83\xe2\x95\x8b\xe2\x94\x83\xe2\x94\x83 \xe2\x94\x97\xe2\x94\x9b\xe2\x94\x83\xe2\x94\x83\xe2\x94\xa3\xe2\x94\xbb\xe2\x94\x81\xe2\x94\xb3\xe2\x94\x81\xe2\x94\x81\xe2\x94\xab\xe2\x94\x97\xe2\x94\x81\xe2\x94\x9b\xe2\x94\xa3\xe2\x94\x81\xe2\x94\x81\xe2\x94\xb3\xe2\x94\x81\xe2\x94\x81\xe2\x94\x93 \xe2\x95\x8b\xe2\x95\x8b\xe2\x94\x83\xe2\x94\x83\xe2\x94\x83\xe2\x94\x83\xe2\x94\x81\xe2\x94\xab\xe2\x94\x83\xe2\x94\x81\xe2\x94\xab\xe2\x94\x8f\xe2\x94\x81\xe2\x94\x93\xe2\x94\x83\xe2\x94\x83\xe2\x94\x81\xe2\x94\xab\xe2\x94\x83\xe2\x94\x81\xe2\x94\xab \n\xe2\x95\x8b\xe2\x95\x8b\xe2\x94\x83\xe2\x94\x83\xe2\x94\x83\xe2\x94\x83\xe2\x94\x81\xe2\x94\xab\xe2\x94\x83\xe2\x94\x81\xe2\x94\xab\xe2\x94\x83\xe2\x95\x8b\xe2\x94\x83\xe2\x94\x83\xe2\x94\x83\xe2\x94\x81\xe2\x94\xab\xe2\x94\x83\xe2\x94\x81\xe2\x94\xab \xe2\x95\x8b\xe2\x95\x8b\xe2\x94\x97\xe2\x94\x9b\xe2\x94\x97\xe2\x94\x81\xe2\x94\x81\xe2\x94\xbb\xe2\x94\x81\xe2\x94\x81\xe2\x94\xbb\xe2\x94\x9b\xe2\x95\x8b\xe2\x94\x97\xe2\x94\xbb\xe2\x94\x81\xe2\x94\x81\xe2\x94\xbb\xe2\x94\x81\xe2\x94\x81\xe2\x94\x9b'
p1494
aS'Sean returns'
p1495
aS'Lamp xD!'
p1496
aS'this could have been your chance to make another awesome vid with Sean but \nall you did was "No i\'m not. im over here!" that was absolutely.... THE \nMOST AWESOME IDEA! but seriously, you could have... hahahaha xD'
p1497
aS"Thumbs up for Sean's cameo!"
p1498
aS'SSSSSSSSSEEEEEEEEEEEEEEEEEEEEEEEEEAAAAAAAAAAAAAAAAAAAAAAAAAANNNNNNNNNNNNNNNNN!!!!!!!!!!!!!!!!!'
p1499
aS"Lol I love Sean's face at the end"
p1500
aS'alright late dtrix kevjumba chestersee wongfu davidchoi smosh kassemg \nhiimrawn mom lamp I THINK I GOT IT'
p1501
aS'yeah i found puple eyes too at 1:08'
p1502
aS'dude you shud totally make a video about short people!!! !!!'
p1503
aS'plese macke vids wit him this summer I wuld like kill me self if u dount \nsean is so fkn funny wit u'
p1504
aS'I stopped on D-Trix O_o'
p1505
aS'Did anyone else see the word lamp at the end?'
p1506
aS'why are your eyes purple'
p1507
aS'@Nameless7899 he has 4.3 millions subs and you sent this video 3 days ago \nwhich means your retarded'
p1508
aS"Where's sean?"
p1509
aS"how come sean isn't in the videos no more"
p1510
aS"Hmmmm It seems as if Kevin jumba took Sean's place. Not cool Ryan -_- >:("
p1511
aS"Guys he can't put sean in videos because sean goes to college in oregon and \nhe goes to colleg in nevada but they see each other every time they go back \nto hilo please read descriptions more often"
p1512
aS'4,000,000!!!! <3 '
p1513
aS'Do you all realise that ryan and sean had purple reflections in their eyes '
p1514
aS'Seriously make more Sean vids'
p1515
aS'I cried when I read the video discription :"(. COME BACK SEAN WE <3 U!'
p1516
aS'@estrabarcar619 you got that right '
p1517
aS'teehee lol '
p1518
aS'Yay! Sean! But I want him to come back to the videos again!'
p1519
aS'@Lotsofvids420 not anymore cuz of rwj'
p1520
aS'3,000 haters?!!?'
p1521
aS'Anyone else think their eyes look kinda purple??'
p1522
aS'lolol'
p1523
aS"In the description it says:: More than 90% of you will keep asking and wont \nread this but the reason Sean isn't in videos anymore is because he goes to \ncollege in Oregon and I'm in Nevada. We're still friends and we see each \nother every time we come back to Hawaii for winter/summer break. "
p1524
aS'@Nameless7899 i like both...'
p1525
aS"@Phillie103 Well on his website he said he used to live in Cali, but now in \nLas Vegas. Go on his HigaTV channel and you'll see his latest video stating \nhe is currently in Hawaii."
p1526
aS'1:08 EPIC FACE'
p1527
aS'Shawn is in my heart and right next to me'
p1528
aS'@AppleSider1 read the description'
p1529
aS'no but serisle y not'
p1530
aS'wait! he used to live in Hawaii?!?!?'
p1531
aS'@AppleSider1 because hes in COLLEGE far away.'
p1532
aS'@Nameless7899 ray has 4 mil...'
p1533
aS"@AppleSider1 Special thanks for Sean Fujiyoshi for his cameo! More than 90% \nof you will keep asking and wont read this but the reason Sean isn't in \nvideos anymore is because he goes to college in Oregon and I'm in Nevada. \nWe're still friends and we see each other every time we come back to Hawaii \nfor winter/summer break. "
p1534
aS"@Nameless7899 You're right."
p1535
aS'shut up kids! MADE MY DAY! TEE HEE XD'
p1536
aS'WHERES SHAWN?'
p1537
aS'@AppleSider1 Read the description.'
p1538
aS'Cuuutest thing everrrr!! luv sean!'
p1539
aS'lamp '
p1540
aS'OMFG! SEAN APPEARED!!!!!!!!!!!'
p1541
aS"@mog24202 YOU'RE THE 10 PERSON TO ANSWER!!! DON'T YELL AT ME!!!"
p1542
aS'no but serisle y not 19999999:20000'
p1543
aS"Dec 21 2010 he hits 3 million subs. july 19 2011 he hits 4 million subs. \nthat's 150 days, or 3576 hours, or 214,560 hours, OR 12,873,600 i applaude \nyou mr higa"
p1544
aS'did any1 else c that his eyes r purple in this video'
p1545
aS'1:00 = Huge ass smile on my face!'
p1546
aS'over 4,000,000 subs now u deserve it ryan and your almost at 5,000,000 \ncounting the subs from both your channels '
p1547
aS'why is mom in the hates list?'
p1548
aS'1:08 ... priceless'
p1549
aS'ok u lied WHER SEAN!!!!! '
p1550
aS'seans probably not the same person as he was back in the days.'
p1551
aS'WE LOVE YOU SEAN!<3'
p1552
aS'YAAAAAAAAAAAAAYYYYYYYYYYYYYYYY ! ! ! O.O'
p1553
aS'videos'
p1554
aS'hahahaha...press 1 to hear him say :shut up kids!!!" and also press \n2,3,4,5,6,7,8,9 and 0.'
p1555
aS'more '
p1556
aS'YAY SEAN!!!!'
p1557
aS'whoa your eyes are purple...........'
p1558
aS'make '
p1559
aS'@30dynamo he left.'
p1560
aS"Its been less than a year and you've already gained over 1 MILLION \nSUBSCRIBERS! It proves that you're too cool :D"
p1561
aS'0:28 to 0:45 hahaha'
p1562
aS'0:55 is my favorite part '
p1563
aS"Special thanks for Sean Fujiyoshi for his cameo! More than 90% of you will \nkeep asking and wont read this but the reason Sean isn't in videos anymore \nis because he goes to college in Oregon and I'm in Nevada. We're still \nfriends and we see each other every time we come back to Hawaii for \nwinter/summer break. "
p1564
aS'@AppleSider1 he says why in the description... he says, "Special thanks for \nSean Fujiyoshi for his cameo! More than 90% of you will keep asking and \nwont read this but the reason Sean isn\'t in videos anymore is because he \ngoes to college in Oregon and I\'m in Nevada. We\'re still friends and we see \neach other every time we come back to Hawaii for winter/summer break." '
p1565
aS'MOM, LAMP '
p1566
aS'no wer is shawn realy plz ansew i miss him '
p1567
aS'@MrFlameRad I actually think he lives in California now... nvm but this \nvideo is 6 months older than higatv'
p1568
aS'@shrosiak its the lighting. -.-'
p1569
aS"Special thanks for Sean Fujiyoshi for his cameo! More than 90% of you will \nkeep asking and wont read this but the reason Sean isn't in videos anymore \nis because he goes to college in Oregon and I'm in Nevada. We're still \nfriends and we see each other every time we come back to Hawaii for \nwinter/summer break. thumbs up so people can knw why he aint making videos \nwith sean anymore"
p1570
aS'But sereously, where did he go?'
p1571
aS"so if sean is right there... why isnt he any of your lates videos..... and \nwhy are the top two comment about ryan's magical purple eyes?"
p1572
aS'Did anyone realize his eyes look purple'
p1573
aS"@Mazzi96 yes.. but i did'nt catch it.. "
p1574
aS'why did you stop making videos with sean?!??!!?!?'
p1575
aS'thumbs up if u only get to read the "lamp" at the ending XD'
p1576
aS'Haters gunna Hate, Including myself.'
p1577
aS'read the description if you want to know where sean has been'
p1578
aS'Read the description people!!!!'
p1579
aS'Skomentuj ten film... NiekrytyKrytyk jest lepszy'
p1580
aS"@ladycheesemaster They're done with college."
p1581
aS'WHEARS SEAN???????WE WANT SEAN!!! WE WANT SEAN!!! WE WANT SEAN!!! WE WANT \nSEAN!!! WE WANT SEAN!!! WE WANT SEAN!!! WE WANT SEAN!!! WE WANT SEAN!!! WE \nWANT SEAN!!! WE WANT SEAN!!!WE WANT SEAN!!! WE WANT SEAN!!! WE WANT \nSEAN!!!please????? :)'
p1582
aS'@AppleSider1 dude read the description'
p1583
aS'wow he can do math really fast!! O_o'
p1584
aS'make videos with him in summer break and winter break then'
p1585
aS"TO ALL NIGAHIGA FANS! RayWilliamJohnson now has more subscribers than\xef\xbb\xbf \nnigahiga! Lets help nigahiga to have more subs. RWJ doesn't deserve 3 \nmillion\xef\xbb\xbf subs for just reviewing a video!\xef\xbb\xbf The\xef\xbb\xbf reason nigahiga\xef\xbb\xbf doesnt \nhave more subs is because at the end of the video\xef\xbb\xbf he doesnt beg\xef\xbb\xbf people \nto\xef\xbb\xbf subscribe to\xef\xbb\xbf him like all those\xef\xbb\xbf other youtube celebritys. Kindly copy \nand\xef\xbb\xbf paste this if can to other video to\xef\xbb\xbf help nigahiga. Thank\xef\xbb\xbf you Thumbs \nUp\xef\xbb\xbf (so everyone can see.) "
p1586
aS'SEANSEANSEANSEANSEANSEANSEANSEANSEANSEANSEANSEANSEANSEANSEANSEANSEANSEANSEANSEANSEANSEANSEANSEANSEANSEANSEANSEANSEANSEANSEANSEANSEANSEANSEANSEANSEANSEANSEANSEANSEANSEANSEANSEANSEANSEANSEANSEANSEANSEANSEANSEANSEANSEANSEANSEANSEANSEANSEANSEANSEANSEANSEANSEANSEANSEANSEANSEANSEANSEAN!!!!!!'
p1587
aS'@amaficionado oh, gomen (sorry), I probably should have read that.'
p1588
aS'YAYAYAYAYAYAYAYAYAYAYAYAYAYAYAYAYAYAYAYAYAYAYAYA!!!!!!!!!!!!!!!!!!!!!!!!!!!!!!!!!!!!! \nITS \nSSSSSSSSSSSSSSSSSSSSSSSEEEEEEEEEEEEEEEEEEAAAAAAAAAAAAAAAAAANNNNNNNNNNNNNN \nIM SOOOOOOOOOOOOOOOOOOOOO HAPPY!!!!(:'
p1589
aS'@AppleSider1 haha yea ppl tend to forgot abt the descrption some times and \nmiss out on some stuff ..lol '
p1590
aS'Is it just me or do their eyes look purple? Lol'
p1591
aS'DEAR EVERYONE, READ THE DESCRIPTION & YOU WILL KNOW.'
p1592
aS'SSSSSEEEEEAAAAAAAANNNNNN!!!! :D'
p1593
aS'Ssseans BACK!!!!!!!!!!!!!!!!!!'
p1594
aS'@meluvsdance well they broke up'
p1595
aS"It's either the light or camera."
p1596
aS"thanks.. for my whole life i thought Sean was pronounced SEEN... but it's \nactually Shawn :)"
p1597
aS'ryan u deserve it U R AWESOME GO RYYYANNNN !?!??! <3 U '
p1598
aS'Sean was in college.'
p1599
aS'SEAN \xe2\x99\xa5\xe2\x99\xa5\xe2\x99\xa5\xe2\x99\xa5 Ryan WE \xe2\x99\xa5 YOU!'
p1600
aS'yooo Ryan i love all your vids and congrats on 4 mil. subscribers! please \ncheck my videos please!!!'
p1601
aS"he has a scar on the place in between his cheek and his left temple ='("
p1602
aS'Uh, wait, where is Sean?'
p1603
aS'at the end of the list of all the famous youtubers it said lamp... why r u \nnot subscribing to lamp u haters?!'
p1604
aS'at 1:19 its says kassemg LOL'
p1605
aS'SEEEEEAAAAANNNN!'
p1606
aS'SEEEEEEEEAN'
p1607
aS'@Shareza4 Do you even know what humor is?'
p1608
aS'good the top rated comments are the same'
p1609
aS"TO\xef\xbb\xbf ALL NIGAHIGA FANS! RayWilliamJohnson has now has more\xef\xbb\xbf subscribers than \nnigahiga! Lets\xef\xbb\xbf help\xef\xbb\xbf nigahiga\xef\xbb\xbf to have more subs. RWJ doesn't deserve 3 \nmillion subs\xef\xbb\xbf for just reviewing\xef\xbb\xbf a video!Ever seen him in the desert?The \nreason nigahiga doesnt have more\xef\xbb\xbf subs is\xef\xbb\xbf because at the end of the video \nhe doesnt beg people\xef\xbb\xbf to subscribe to him\xef\xbb\xbf like all those other youtube \ncelebritys. copy and\xef\xbb\xbf\xef\xbb\xbf paste this if\xef\xbb\xbf to other videos\xef\xbb\xbf\xef\xbb\xbf to\xef\xbb\xbf help nigahiga. \nThank you Thumbs Up so\xef\xbb\xbf everyone can\xef\xbb\xbf see "
p1610
aS'Sean, Sean, FooJeeYohShee! (Fujiyoshi)'
p1611
aS'@musicalminor ~'
p1612
aS'@musicalminor get a life asshole'
p1613
aS'Dear Ryan, can u make videos with Sean during winter/summer break when you \nguys see each other?'
p1614
aS'OMG I MISS YOU SEAN!'
p1615
aS"I don't catch it...."
p1616
aS'OMG U HAVE PURPLE EYES U HAVE RARE EYES'
p1617
aS'i been watching your videos for hecka long now....and today i realized....I \nhavent subscribed you!!!!!!!...but i just did '
p1618
aS'seeeeeeeeeeeeeeeeeeeeeeeeeeeeeeeeeean'
p1619
aS'I am a subscriber. '
p1620
aS'@YipasuOWL College . It usually takes 4 years'
p1621
aS'thumbs up for lamp at the end'
p1622
aS"lolll, sean's eyes are purple too!"
p1623
aS'@shrosiak holyyy crrraaaaaaap THEY ARE!!!'
p1624
aS'1:19 chestersee :) <3'
p1625
aS'raywilliamjohnson: =3 nigahiga: >3 me for ryan: <3'
p1626
aS'his eyes are purple in this video'
p1627
aS"You are'nt funny.."
p1628
aS"SEEEEEEEAAAN! lol Can't wait to see more of him! "
p1629
aS'wheres sean'
p1630
aS'@luganopro k'
p1631
aS'@mtdwshark well they both have just over 4 million subscribers, but they \nare completely different people and do completly different videos. besides, \nyoutube isnt a big competition to see how many subscribers people can get, \nmost youtubers just like doing it for fun and the fact that they entertain \ntheir audience :) '
p1632
aS'u should make more with sean'
p1633
aS"D: okay, you told us where Sean is, now why don't you make videos with \nhim?!?!"
p1634
aS'LOL, SHUT UP KIDS!'
p1635
aS'OMG SEAN WOOO'
p1636
aS'Oh Ryan You are such a sellout You do the mainstream media Thumbs up if you \nagree And if the 5 111 542 view is you'
p1637
aS'check out sean profile is username is fujiboi on youtube'
p1638
aS'@shrosiak and seans too.'
p1639
aS'so insane but i love it! '
p1640
aS'your eyes are blurple o_O'
p1641
aS'Dude I swear you look like that guy from Mythbusters'
p1642
aS"SEAN!!!!!!! lmao he's right there."
p1643
aS'Sean'
p1644
aS'I miss the 2 original friends...:('
p1645
aS'Smosh and KassemG YESSS!!!!!'
p1646
aS'Sean and Ryan: ..... :D I died.'
p1647
aS'@TheAmazingSurfinBird oh your rite i missed it...'
p1648
aS'BrandonBurger14 look me up and post commets'
p1649
aS'lol he has the same music at the end for all for all his million subscriber \nvideo lol '
p1650
aS'awwwwwwwwwwwwwwwwwwwww so cute when sean came next to him <3'
p1651
aS'Wait... In one of his videos Ryan says "im back home in hawaii" does he \nactually live there?'
p1652
aS'their eyes are purple in this video'
p1653
aS'your eyes!<3'
p1654
aS'SEANNNNN!!!!!!!!!!'
p1655
aS'6 then xeven he answers his own question ha ha '
p1656
aS'Whoa, Sean sounds Irish/Scottish when he enters the vid'
p1657
aS'Shut up Kids Bop no one likes you anyway! :P'
p1658
aS'Sheannnnn!!!!!!!!!! <3 '
p1659
aS'SEEEEAAAAANNNNNNN!(:'
p1660
aS'Hawaii is were his parents live and neveda is where his college is.'
p1661
aS'why does his eyes look purple lol'
p1662
aS'they have purple eyes : D'
p1663
aS"Aww I miss ur awesomeness together. You guys take funny to the next level:) \nand even though you're both buisy and not making videos together you'll \nalways be in my heart...and right here;)"
p1664
aS'i miss sean'
p1665
aS"64 x 46875 = 3000000 he's right! Asian (wait i'm Asian too)"
p1666
aS'SEAN lol ;)'
p1667
aS'\xe2\x99\xa5 sean'
p1668
aS"Where is he!!!! He isn't in ur videos yet! :("
p1669
aS'what? ur hawiian?? i never knew that...'
p1670
aS'seany! MAKE A LONGER VID~~ teehee'
p1671
aS'PRESS 8!!!!!!!!!!!!!!!!!!!!!!!!!!!'
p1672
aS'sean! :D '
p1673
aS'Can you make more videos on winter/summer with Sean? \nPPPLLLLEEEEAAAAASSSSEEEEE!!!!!!!!???????'
p1674
aS'\xd0\x9f\xd0\xbe\xd1\x81\xd0\xbc\xd0\xbe\xd1\x82\xd1\x80\xd0\xb8\xd1\x82\xd0\xb5 \xd0\xbc\xd0\xbe\xd1\x91 \xd0\xb2\xd0\xb8\xd0\xb4\xd0\xb5\xd0\xbe +100500'
p1675
aS'6 then xeven he answers his own question ha ha then press zero it sounds \nlike he is saying his last name '
p1676
aS'sean !! whoopwhoop'
p1677
aS'lol 0:10 to 0:12'
p1678
aS'The last name at the end was "less than 3" that\'s like raywilliamjohnsons =3'
p1679
aS'Lol I luv it when they do those faces like they did at the end xD'
p1680
aS'SEAAAAAANNNNNNNNNN!!!!!!!'
p1681
aS'@SlowAndSerious he is Japanese'
p1682
aS'LOL. press 5 repeatedly for ryan doin sexual thing'
p1683
aS'rewinding it and pausing it just to see the end part , the words LoL :) '
p1684
aS'are you allowed to subscribe more than once?'
p1685
aS'are his eyes always purple or is tht my computer O_O'
p1686
aS'is it just me, or does he have purple eyes sometimes??????'
p1687
aS'3,000,000 subscribers hell yeah now fuck you ray william johnson next is \n4,000,000 fuck that already happened....FUCK YOU FUCK YO MOMMA FUCK THIS im \nout'
p1688
aS'SEAN!!!!(: I Love You Sean!!!(:'
p1689
aS"@kevsmellmyfart35 you don't know anything this video was made a year ago \nand nigahiga has over 4000000 subs also so sht the fuck up and get out of \nhere. you'e on nigahiga's turf now"
p1690
aS'People need to start supporting real talent. For real\xe2\x80\xa6.'
p1691
aS'hes in our heart even if he is standing next to us \nseeeeeeeeeeeeeeeeeeeeeaaaaaaaaaaaaaaaaaaaaaaaaaannnnnnnnnnnn '
p1692
aS'@DisneyandActionGuy i really needa delete that :P Cuz i dont really \nswear...only for RYAN! :D haha Jk :P'
p1693
aS'@reesee02 U DONT KNOW SEAN???'
p1694
aS'I hear those damn koki frogs.'
p1695
aS'SEEEEEEEEEEEEEEEEaaaan. '
p1696
aS'Miss sean'
p1697
aS'sean is awsome'
p1698
aS'SSSSSSSSSSSSSSSSSSSSSSSSSSSSSSSSSSSSSSSSSSSSSSSSSSSSSSSSSSSSSSSSSSSSSSSSSSSSSSSSSSSSSSSSSSSSSSSSSSSSSSSSSSSSSSSSSSEEEEEEEEEEEEEEEEEEEEEEEEEEEEEEEEEEEEEEEEEEEEEEEEEEEEEEEEEEEEEEEEEEEEEEEEEEEEEEEEEEEEEEEEEEEEEEEEEEEEEEEEEEEEEEAAAAAAAAAAAAAAAAAAAAAAAAAAAAAAAAAAAAAAAAAAAAAAAAAAAAAAAAAAAAAAAAAANNNNNNNNNNNNNNNNNNNNNNNNNNNNNNNNNNNNNNNNNNNNNNNNNNNNNNNNNNNNNNNNNNNNNNNNNNNNNNNNNNNNNNNNNNNNNNNN!!!!!!!!!!!!!!!!!!!!!!!!!!!!!!!!!!!!!!!!!!!!!!!!!!!!!!!!!!!!!!!!!!!!!!!!!!!!!!!!!!!!!!!!!!!!!!!!!!!!!!!'
p1699
aS'yaayyyyyy Sean '
p1700
aS'homeboys got a dangly ballsack'
p1701
aS'\xee\x88\xafis a werdo'
p1702
aS'Lamp!'
p1703
aS'I appreciate every single one of you. Yes,even the haters. Ok maybe not the \nhaters. Haters gtfo. :D:D:D:D:D:D:D:D:D'
p1704
aS'hey guys thank you so much for yaaaaaaaaaaaaay!!!!!'
p1705
aS'sean should make his own youtube videos and his own channel'
p1706
aS'Atthe end mom, lamp'
p1707
aS'I AM MR. SPAM!'
p1708
aS'The kids are screaming: \nSSSSSSSSSSSSSSEEEEEEEEEEEEEEAAAAAAAAAAAAAANNNNNNNNNNNNN!!!!'
p1709
aS'YAY SEAN! :D When He Gon Come back To The Other Shows? :l'
p1710
aS'YOUR EYES. THEY GLOW. :DDD '
p1711
aS'does sean has his own channel?'
p1712
aS'sean is awesome make vid with him again please thumbs up if u want sean back'
p1713
aS'@reesee02 what ???????????'
p1714
aS'Ha\xc3\xa0'
p1715
aS'1:09 best facial Expressions'
p1716
aS'dude ur eyes look weird kinda cool too'
p1717
aS'I miss Sean man!'
p1718
aS'Thumbs up if your not watching this in 2015'
p1719
aS"READ THE DESCRIPTION!!!!! THAT'S WHERE SEAN IS DUMMIES!!! (please...) heh."
p1720
aS'keep doing what your doing... its great'
p1721
aS'Guys read the despriction!!'
p1722
aS'SEAN!!!!!!'
p1723
aS"THUMBS UP SO NO MORE ? SEAN IS AT COLLEGE AS OF RYAN BUT DIFFERENT \nCOLLEGES. SO DON'T FREAK OUT!!!!"
p1724
aS'@reesee02 how do you not know Sean?!?!?!?!?!?!?! watch any of his old How \nTo Be... videos.'
p1725
aS'everytime ryan starts a video he says hey guys'
p1726
aS'ryan and sean...you guys are just hilarious :D'
p1727
aS'1:02 you guys have a red mark on your cheeks! Is that a scratch!? Are you \nokay?'
p1728
aS'is it just me or are his eyes purple?'
p1729
aS'The founders of YouTube should bring the top 10 most subscribed YouTube \ncelebrities together, and make them all do a skit together where they all \nfight each other in a wrestling ring or something... and Nigahiga is the \nlast one standing. Waddayathink, huh, HUH!?'
p1730
aS'Dear ryan can you shuffle everyday'
p1731
aS'A lamp is in the credits lol'
p1732
aS"1 million subscribers later and there hasn't been a vid with Sean in it. :("
p1733
aS'lamp?'
p1734
aS'thumbs up if you hear the coqui at 0:17'
p1735
aS'i thought he killed sean............. go figure'
p1736
aS'@Turfastro ryan higa lives in hawaii'
p1737
aS'Blah Blah Blah Blah lamp'
p1738
aS'no Teehee?'
p1739
aS'Awesome!!!'
p1740
aS'@TheSteveStove lol dude i know it was a joke XD '
p1741
aS'SEEEAAAAAAAANNNNNN!!!!!!!!!!!'
p1742
aS'Thumbs up if u said aww at :59'
p1743
aS'keep on pressing 5 for blowjob!!!'
p1744
aS'There is a Teehee you idiot.'
p1745
aS'I MISS SEAN '
p1746
aS'smosh, i love them when i was a kid...'
p1747
aS'LOL. 0:54......'
p1748
aS'U and and ur lamps make me laugh xD'
p1749
aS'he thanked the lamp!! '
p1750
aS'@dclaver2 Sean is not in the fuckin videos anymore dumbass'
p1751
aS'tell my Ryan, why are you so exited about LAMPS? '
p1752
aS'make more videos with sean dude plzz'
p1753
aS'he hit 4000000!!!!!!!!!!!!!!!!!!!!!!!!!!!!!!!!!'
p1754
aS'Ryan: Sean is at the bottom of my heart. Sean: No Im not, Im right here. \nMe: Hahaha!!!'
p1755
aS'smosh?'
p1756
aS'OMG. He shouted me out! I was Lamp! Thumbs up if you are too! '
p1757
aS'@LTKProductions i mean subs -_-'
p1758
aS'4000000'
p1759
aS'PURPLE EYES !! I LIKE IT !'
p1760
aS'Your just bragging on about how YouTube is gonna give you a raise in this \nvid.'
p1761
aS'i know where sean is but where is tim and tarynn?'
p1762
aS"Less than three? Oh! A heart! I rather like this human. (sorry couldn't \nhelp myself)"
p1763
aS'SEAN!!!!'
p1764
aS'sean wearing teehee t-shirt lol'
p1765
aS'DAMN. 1 mil views in a couple months?'
p1766
aS'SEAAAAAAAAAAAAAAAAAAAAAAAAAAAAAAAAN?!?!?!'
p1767
aS'his eyes look purple'
p1768
aS'i really dont care if you gonna give this comment thumbs up or what but why \ndo people want thumbs up its not like every thumbs up is worth a dollar, so \nyea why ask for thumbs up when theres no use in asking thumbs up then \nyourjust wasting your time.'
p1769
aS'I want Sean back'
p1770
aS"Sean made the videos more funnier. But now, Ryan's moved on. He goes on \ntours with other people like Kev Jumba, chester see, etc. Poor Sean just \nsits at home feeling glum. "
p1771
aS'did anyone see a lamp'
p1772
aS'in the begining his eyes are so blue'
p1773
aS'hola xp serd jojojoj xd'
p1774
aS'SSSSSEEEEEAAAANNN!(:'
p1775
aS"sean's face is the best 1:09"
p1776
aS"Sean is in Hawaii, and Ryan is in Nevada. Ryan goes to visit Sean in Hawaii \noccasionally and this was one of those times. Can't you tell it's that old \nbackround he used to make videos with? {Plus, he was in Hawaii a few days \nago, in his latest video he's in Hawaii, on HigaTV"
p1777
aS'haha 1 million subscribers in 7 months. No one can top that!'
p1778
aS"Ray?? Who's that.."
p1779
aS'@ppllmmkk13 so does that still mean we should unsubcribe to rwj and \nsubcribe to nigahiga?'
p1780
aS'Did anyone else expect Sean to appear in the video after Ryan talked about \nhim always being in his heart?'
p1781
aS"@ppllmmkk13 who's rwj? "
p1782
aS'READ THE DESCRIPTION. Theres the reason why sean isnt inhis vids -_-'
p1783
aS'When are you making the video of myspace?you should make it soon! :)i bet \nits gonna be super funny!.:)'
p1784
aS'kiss ur hand 10 times and say ur crushes name 10 times'
p1785
aS'This video made me smile...'
p1786
aS'Omg I nearly cried when I saw Sean XD'
p1787
aS'His eyes looked kinda purple thumbs up if u agree:)'
p1788
aS'Sean is in Portland Oregon :o yay :3'
p1789
aS'@kjkepler i thought i was the only one that notice that..lol'
p1790
aS'OMG SEAAAANNNN!!'
p1791
aS'LOL I DIDNT KNOW YOU PEOPLE CARE SO MUCH OF WHO IS BETTER I JUST WATCH \nTHEIR VIDS FOR FUN'
p1792
aS'@xXxdeadEYEdexXx ikr! lol'
p1793
aS"@LimeGreenLov3 i think they're contacts "
p1794
aS'@ppllmmkk13 yeah but rwj is a whiny ass white boy that isnt even funny '
p1795
aS'I love the goofy smiles at the end.'
p1796
aS'@randomgirl7428 grammur nazi :P'
p1797
aS'@dorinuU Not all of his subscribers watches each one of his videos once. I \nsometimes find myself watching his videos multiple times. And not everyone \nthat watches his videos is one of his subscribers. That should answer your \nquestion.'
p1798
aS'Where was Shuan in the 4 million subscriber video'
p1799
aS'@angelsface200 Ray did :P'
p1800
aS'@ppllmmkk13 cool story bro'
p1801
aS'What should have happened: Ryan: Hey guys, thank you so much fo- Kids: \nYAAAAAY~! Ryan: Hey guys, thank you so much for helping me to rea- Kids: \nYAAAAAA- Ryan: -Whips out a gun- YOU, SHUT UP, YOU KIDS!! Kids: -Run to \ntheir parents crying-'
p1802
aS'GO NIGAHIGA !'
p1803
aS'anyone noticce that it said lamp at the end? '
p1804
aS"I think that competiion on YouTube is stupid. Give what you can through \nYouTube and hope that people enjoy your material. Ryan has done this. He \nhas been mature about being at the top. Personally what I love about \ncertain YouTubers is that they aren't greedy. They donate to charity and \neverything. :)"
p1805
aS'You both look like you have blue eyes in that light.... '
p1806
aS'purple eyes'
p1807
aS'ur welcome ryan :D he made me piss in my pants once.... uhh nut ur welcome'
p1808
aS'Ok its summer and your in hawaii make a vid with sean'
p1809
aS'SSSSSSSSEAAAAAAAAAAAAAAAAAAAAAAN'
p1810
aS'@ppllmmkk13 that was touching very well done'
p1811
aS"HE DIDN'T SAY TEEHEE IN THIS!!!!!!!!!!! *tear* "
p1812
aS'wow... a million subs in 7 months... wooooooow!'
p1813
aS'Less than three ryan!! less than 3. <3'
p1814
aS"Sean's shirt has the TEEHEE word on it!!!"
p1815
aS'@PINKnation28 Yeah he did'
p1816
aS'i never saw sean in your heart '
p1817
aS'GOD NOW IS 5,000,000'
p1818
aS'sean fujiyoshi!!!!!!!!!'
p1819
aS'@Briangamer14 I no he has 4000000 subs now! and i have like... umm, 7 subs \nnow! big difference to me though'
p1820
aS'Lol! Anywaaaaay'
p1821
aS"@migeme10 That's like the entire population of New Zealand "
p1822
aS'HIIIII SEANNNNNN!!!!!'
p1823
aS'@ppllmmkk13 because asian is gay'
p1824
aS'Oooo purple eyes! :D'
p1825
aS'hey do you have a 4000000 video yet?? :D '
p1826
aS'@JohnCatman1 Watch his 4mil sub vid'
p1827
aS'a million subscribers in 6 months holy shit'
p1828
aS'haters gtfo lol nigahiga is funny.'
p1829
aS'@JayDDreams lol, i was like -theres no F13.- you got me!. :P :D'
p1830
aS'u should use chester see more often in the videos hes awsome '
p1831
aS'@888raywilliamjohnson you suck balls nigahiga is the best who agrees'
p1832
aS'@888raywilliamjohnson Dude, why cant you just like both?'
p1833
aS'SHANSHAN<3.'
p1834
aS'yay sean '
p1835
aS'does raywilliamjohnson make one video only dedicated to thanking his \nviewers for subscriptions? i dont think so'
p1836
aS'OMFG! EVERYONE WHOS LIKE WHERES SEAN< READ THE DESCRIPTION!'
p1837
aS'I read the description but will you make some vids with Sean?'
p1838
aS'no Raywilliamjohnson suckss balls i already unsub raywilliamjohnson'
p1839
aS'read the description x)'
p1840
aS'no Gaywilliamjohnson suckss balls i already unsub raywilliamjohnson'
p1841
aS'@taylorsgirl17 check the description ( read it more often it will help you \nin life )'
p1842
aS"Ok you got 4,000,000 subs! YIPPIE! PLEASE MAKE A VIDEO!You haven't made one \nsince 3 weeks!"
p1843
aS"yesss sean!!! that made my day =) he's like idk he's like ryan's other half \nto me"
p1844
aS'thumbs up if u notice the cut on his cheek =('
p1845
aS'4,000,000 subs now.'
p1846
aS'@quidwitch Good job New Zealand'
p1847
aS'Lamp! '
p1848
aS"@888raywilliamjohnson If you're going to be racist, use correct grammar \nplease, dumb ass. If Asians suck, why are you watching videos by Asian \npeople, huh? Just so you can say you're a dumb ass? Well, congratulations! \nYou've proven it to us all. You've also proven to us that you have enough \ntime to sit at the computer all day, just to hate on other people. Plus, \nAsians can karate chop your ass. >:c Now my friend, you've just got PWNED."
p1849
aS'smosh kassemg hiimrawn mom lamp lol'
p1850
aS'What is it with him and lamps'
p1851
aS'SEAN!!!!!!!!!!!!!!!!!!!!!!!!!!!!!!!!!!!! '
p1852
aS'his eyes are purple :o'
p1853
aS"@888raywilliamjohnson Seriously? Asian suck? Wow. One, try to average a C- \nin your grammar class when you get back to pre-school, and two, you \nprobably just offended half of the YouTube community. Get off your dad's \nwork laptop and go watch Dora you fucking pussy."
p1854
aS'Luv ya Ryan. All of my friends & I have subscribed (only once haha) PLEASE \nmake more videos! You are the best thing on YouTube right now :)'
p1855
aS'dayummm u got 1 million subscribers in 7 months ?! thats nigahiga for you \n<3 '
p1856
aS'0:54'
p1857
aS'but seriosly what happened to sean?'
p1858
aS'@888raywilliamjohnson why you have to be so mean? thats racist, and people \nhate racist. you are acting like a 4 years old kid. grow up! and stop \ntrolling, and racism.'
p1859
aS'raywilliamjohnson awesome nigahiga sucks balls'
p1860
aS'SEANNNNNNNNNNNNN!!!!!!!!!!!!!!!!!!!!!!!!!'
p1861
aS"I MISS SEAN!!!!!!!! :'( "
p1862
aS"Now we know what's up with Sean...All you have to tell us now is where is \nHelga Fawntanilla ;P....??! It would be gr8 if you could make a vid like \nyou used to make back in the old days with all of your old friends =) "
p1863
aS'I wonder how he felt that the most asked question on HIS channel was about \nanother person..............lol'
p1864
aS'SHAUN SEAN SHAWN SEANH!'
p1865
aS'YAAAAAAaaaaaay...boooooo LMAO kids'
p1866
aS'...unfourtunetly his math was right..'
p1867
aS'@Cb3Dude94 Norgeeeeee :D Fra oslo eller?'
p1868
aS'Smosh'
p1869
aS'but still bring him in videos'
p1870
aS'SSSSSSSSSEEEEEEEEEEEEAAAAAAAAANNNNNNNNNNN! <3 (ily 2 ryan)'
p1871
aS'he has 4 million now!-.-'
p1872
aS'@888raywilliamjohnson You know what, if you hate Nigahiga so much, why do \nyou see ALL his videos, just so you can leave dumbass comments on them? \nGeez, just stop watching his videos already, if you hate them so much. And \nI think that you should ask yourself af Ray is happy about having a \ndouchebag fan as you. Um, I guess the answer is; HELL NO! '
p1873
aS'4,000,000 SUBSCRIBERS!'
p1874
aS'Ray ur such a whore no joke there alike 1 billion indians and like 2 \nbillion asains i think that would kick ur 8 year old dumb ass'
p1875
aS'@Faboking2 er ifra finnmark :D'
p1876
aS'pause at 1:09 lmao'
p1877
aS'lol lamp =P '
p1878
aS'I love how Sean appears in this video after all this time! And I love your \npurple eyes. :-)'
p1879
aS"@AnnisaRae Oops, sorry! I didn't mean to vote down on your comment! Honest! \nI LIKE it! And I agree with you %100! I hate this RWJ fan and I love \nNigahiga!"
p1880
aS"@Cb3Dude94 agreed! haha. i think he's pretty funny personally"
p1881
aS"@shadownorth1 we're not angry at the original Ray, (some peoples may be but \nidc). we're just angry at the pathetic wannabe @888raywilliamjohnson. he is \nso rude and racist to nigahiga. just scroll down and check out hes comments \nthen you'll see. i cant believe that he can say something like that. \nnigahiga rocks!! YEAH! \\m/"
p1882
aS'That second part is dedicated to 888raywilliamjohnson. '
p1883
aS'why does everyone keep getting angry because ray has more subscribers!? If \nray is winning that is that. Nigahiga is just as good so stop arguing about \nit. [less then three to both]'
p1884
aS'SSSSSSSSEEEEEEEEAAAAAAAAAAANNNNNNNNN'
p1885
aS'LOL'
p1886
aS'no homo but i missed that dumbass smile that sean makes lol'
p1887
aS'dude he has prple sparkling eyes da fuck '
p1888
aS'This is gonna be really funny when he gets 4,000,000 subscribers...'
p1889
aS'SEAAAAAAAAAAAAAAAAAN!!!!!!!!!!!!!!!!!!!!'
p1890
aS'LAMP'
p1891
aS"@888raywilliamjohnson Wow... U must be getting a lot of hate comments and u \ndeserve em. do us all a favor and get off youtube we don't need to hear you \nbe racist to asians I don't think rwj would agree with you at all. ryan \nworks hard and makes great videos that I think are better than rwj's. the \nonly good your comment did is let everyone know what a true idiot thinks"
p1892
aS'Sean (:'
p1893
aS'AHHHHH \nSSSSSSSSSSSSSSSSSEEEEEEEEEEEEEEEEEEEEEEEEEAAAAAAAAAAAAAAAAAAAAAAAAANNNNNNNNNNNNNNNNNNN!!!!!!!!!!!!!!!!!!!!!!!!!!!!!!!!!!! \nILOVE YOU'
p1894
aS'my face before sean came : / my face after :D'
p1895
aS'@Cb3Dude94 Norway Power! '
p1896
aS'thumbs up if ur watching this when he has 4,000,000 million subscribers ._.'
p1897
aS'kev jumba will never be as funny as sean '
p1898
aS"3,036 people didn't subscribe :("
p1899
aS'i <3 sean'
p1900
aS'thumbs up if you noticed the lamp at the end'
p1901
aS"Why are they're eyes purple? "
p1902
aS'3,000,000 subscribers? i have 2'
p1903
aS'i subscribed you 13 times'
p1904
aS'4,000,000 subscribers please! :D'
p1905
aS'"Wheres Sean? Is Sean coming baack? Why don\'t you make videos with Sean \nanymore?... SEEEEEEEEEEEEEEEEEEEAAAAN?'
p1906
aS'sean!!!!!!!!!!!! '
p1907
aS"@888raywilliamjohnson what you think you're so good coz ur white huh "
p1908
aS'@tarheelfan407 shut the fuck up you dumbass asian dont desearve 4 million \nsubscriber or number 1'
p1909
aS'asian sucks and indian sucks'
p1910
aS'I have been watching these videos for more than a year now. But i just got \na youtube account. So i finally got to subscribe to the genius: Ryan \nHiga!!!!'
p1911
aS'Jelly bean and toiletpaper are MAAAAAAAAAAAAAAAAAAAAAAAAAAAAAAD OVER \nYOU.... "Oh Ryan.. Will you marry us?"'
p1912
aS'dtrix, kevjumba, chestersee, wongfu, davidchoi, smosh, kassemg, hiimrawn, \nmom, lamp heehee'
p1913
aS'you niger nigahiga your gay your too asian and white:D'
p1914
aS"OMG don't be so racist . Just get out from Ryan's vids if u don't like \nAsian "
p1915
aS'congrats on 4,000,000 subs ryan!'
p1916
aS'Awesome'
p1917
aS'@XxDonnaMarie16xX i like them both y r people starting wars wit dese 2 '
p1918
aS'guys let unsubscribe raywilliamjohnson he dont deserve 4 million subcriber \nbecause this racist asshole 888raywilliamjohnson is annoying let \nunsubscribe raywilliamjohnson'
p1919
aS'@888raywilliamjohnson why the (censored) do you think that you are better \nthan nigahiga?!? LOOK AT HES TOTAL VIEWS!! NIGAHIGA POWNS YOU OVER!!...let \nme see... 800 million TIMES! like seriously. Asian powns and i am from \nNorway and i know that asian powns, i like all kinds of peoples! BUT NOT \nPEOPLES LIKE YOU!! wish i could swear but i wont swear to a 8 years old \nboy, i hope you feel guilty rest of your life after your pathetic comments \non these amazing nigahiga videos. thx for me. >:( '
p1920
aS"@888raywilliamjohnson you can go to hell you racist bitch! Gee y are all \nrwj fans racist assholes! You're like the twentieth one I've seen saying \nthat!"
p1921
aS'Next most popular question: Why don\'t you do videos with Sean anymore? : \n""( <-- Quadruple tear.'
p1922
aS'"Thank you to all my subscribers for your support! I appreciate every \nsingle on of you Yes, even the haters. ok maybe not the haters but thank \nyou to everyone else. haters gtfo. XD'
p1923
aS'purple eyes!!'
p1924
aS'words at end alright, late, davidchoi, kevjumba, smosh, chestersee, wongfu, \nkassemg, hiimrawn, mom, lamp. '
p1925
aS'He metion smosh'
p1926
aS'lol i looked at related videos and was expecting 4,000,000 subscribers xD'
p1927
aS'@888raywilliamjohnson asians are awesome and your just mad cause u aint one \nloser. raywilliamjohnson sucks asians and Nigahiga rules. you can never be \nbetter then nigahiga retard'
p1928
aS'@888raywilliamjohnson fucking racist'
p1929
aS'5,000,000 hahahahahhahahaha i cant breath '
p1930
aS'i love the teehee!!'
p1931
aS'@888raywilliamjohnson well excuse me but you are single most racist person \nI have ever seen in my life! You need to shut the hell up you fucking \nasshole!'
p1932
aS'his eyes are purple. keke'
p1933
aS'@MjIsMaster123 he doesnt have million yet'
p1934
aS"@888raywilliamjohnson Fuck you're mother ballsack "
p1935
aS"TO\xef\xbb\xbf ALL NIGAHIGA FANS RayWilliamJohnson has now has more subscribers than \nnigahiga Lets\xef\xbb\xbf help\xef\xbb\xbf nigahiga\xef\xbb\xbf to\xef\xbb\xbf have more subs.\xef\xbb\xbf\xef\xbb\xbf RWJ doesn't deserve 3 \nmillion\xef\xbb\xbf subs\xef\xbb\xbf for just reviewing a\xef\xbb\xbf video!Ever seen him in the desert?The \nreason nigahiga doesnt\xef\xbb\xbf have more subs is\xef\xbb\xbf because\xef\xbb\xbf at\xef\xbb\xbf the end of the \nvideo he\xef\xbb\xbf doesnt beg\xef\xbb\xbf people to\xef\xbb\xbf subscribe\xef\xbb\xbf to him like all\xef\xbb\xbf those other\xef\xbb\xbf \nyoutube celebritys.copy and\xef\xbb\xbf\xef\xbb\xbf paste this if\xef\xbb\xbf\xef\xbb\xbf to other videos\xef\xbb\xbf to\xef\xbb\xbf\xef\xbb\xbf help \nnigahiga.\xef\xbb\xbf Thank you Thumbs Up so\xef\xbb\xbf everyone can see "
p1936
aS'@colton9iscool i used to like ray but he\'s become very unfavourable with me \nas i mature enough not to appreciate the; women driver, asian driver, \nsammich,kitchen etc "jokes" NIGAHIGA I LOVE YOU! =D '
p1937
aS'HE HAS OVER 4,000,000 SUBSCRIBERS NOW!!!!!! YEA NIGAHIGA FANS!'
p1938
aS'I wonder how people would react if they lost all their subscribers and \nviewers'
p1939
aS"Wow... U must be getting a lot of hate comments and u deserve em. do us all \na favor and get off youtube we don't need to hear you be racist to asians I \ndon't think rwj would agree with you at all. ryan works hard and makes \ngreat videos that I think are better than rwj's. the only good your comment \ndid is let everyone know what a true idiot thinks. BTW \n888raywilliamjohnsons comment is on the sixth comment page and ignore my \nlast comment"
p1940
aS'Funny stuff Ryan !!!!!!!!!!!!!!'
p1941
aS'SEEEEEEEEEEEEEEEEAAAAAAAAAAAAAAAAAAAAAAAN!!!!!!!!!!!!!!!!!!!!!!!! '
p1942
aS'yeah, we missed sean'
p1943
aS'Shut up,kids!!!!!!!!!!!!!!!!!! lol'
p1944
aS'thumbs up if u saw the word lamp at the end'
p1945
aS'no one will EVER catch up to nigahiga and rwj when it comes to subscribers!!'
p1946
aS'Whats up with the eyes??? there colorful!!!'
p1947
aS'SEEEEEEEEEEEEEEEEEAAAANNNN :D :D :D'
p1948
aS'love sean'
p1949
aS"so what your saying is that when you're done college and back to hawaii and \nyou get to see Sean you can make video's with him can't wait :)"
p1950
aS'my friend is the 4millionths subscriebr (check out Uromyia on youtube) \n(watch?v=jclM33j-rZo is the link)'
p1951
aS"Omg u rwj u are so racist!!! I'm sure rwj even though I don't no him would \nbe appalled so just shut up"
p1952
aS'yay sean rofl :)'
p1953
aS'4000000 subscribers now !'
p1954
aS'thumbs up 4 SHEEEAAAANNNN '
p1955
aS"@888raywilliamjohnson why are you so racist? if you don't like Ryan or any \nAsians then why the hell did you take the time to come here. if your 17 \nthen go get a job, a gf, a education i don't know. cuz your not getting \nanywhere yelling at asians and people on the internet. you give new meaning \nto no life"
p1956
aS"Special thanks for Sean Fujiyoshi for his cameo! More than 90% of you will \nkeep asking and wont read this but the reason Sean isn't in videos anymore \nis because he goes to college in Oregon and I'm in Nevada. We're still \nfriends and we see each other every time we come back to Hawaii for \nwinter/summer break. ^^ :O"
p1957
aS'cool'
p1958
aS'i made 5 accounts and subscribed to you :P keep up the good work ryan :D'
p1959
aS'ITS FUCKING SHAUN JAHDKKDHJFGJKHJHAGHGSHFJDGHGJKH'
p1960
aS'@rinstone 13 at the end after they show Sean'
p1961
aS'@LiquidSilverArms there are many Asian viewers watching him....'
p1962
aS'Where the Hell Is SEAN >:('
p1963
aS'shouldnt he make a vid, now when he reached 4.000.000 subs?! O.o'
p1964
aS'HEYY!! :D Can you make a another video for 4,000,000 subscribers? \npleeeaaase!!!? :3'
p1965
aS'omggggggggggggggggggggggggggggggggggggggggggggggggggggggggggggggggggggggggggggggggggggggggggggggggggggggggggggggggggggggggggggggggggggggggggggggggggggggggggggggggggggggggggggggggggggggggggggggggggggggggggggggggggggggggggggggggggggggggggggggggggggggggggggggggggggggggggggggggggggggggggggggggggggggggggggggggggggggggggggggggggggggggggggggggggggggggggggggggggggggggggggggggggggggggggggggggggggggggggggggggggggggggggggggggggggggggggggggggggggggggggggggggggggggggggggggggggggggggggggggggggggggggteehee!!!!'
p1966
aS'@888raywilliamjohnson whats ur point?'
p1967
aS"where's the teehee??? nooooo what has the world come 2????"
p1968
aS'PURPLE EYES'
p1969
aS"@888raywilliamjohnson Ok, you like something and I like something else. \nThat doesn't give you a right to lash out at him like that. They both are \nfunny but they have completely different styles. It would be like comparing \na desk with a lamp."
p1970
aS'i want one of those shirts'
p1971
aS'i still miss sean'
p1972
aS"@888raywilliamjohnson Wow... U must be getting a lot of hate comments and u \ndeserve em. do us all a favor and get off youtube we don't need to hear you \nbe racist to asians I don't think rwj would agree with you at all. ryan \nworks hard and makes great videos that I think are better than rwj's. the \nonly good your comment did is let everyone know what a true idiot thinks"
p1973
aS"@888raywilliamjohnson If you're 17, Why do you talk like you're freakin \neight years old?!? There's something called proper grammer, USE IT! I'm 4 \nyears younger than you, and I'm not the one acting like a child."
p1974
aS'Purple Eyes :p'
p1975
aS"So....Where's Sean..?"
p1976
aS'1,000,000 in May 2009 2,000,000 in March 2010 3,000,000 in December 2010 \n4,000,000 in July 2011 Congradulations Ryan Higa!'
p1977
aS'@madmanmastercheif nigahiga is not online yet im pretty sure he,ll make a \nvideo about 4 million subsribers'
p1978
aS'Lol I meant u rwj fan'
p1979
aS'ok well maybe there too'
p1980
aS'5,000,000 views!'
p1981
aS'YAY SHAWN or SHAUN or SEAN! Idk how to spell it te way he does. >:0'
p1982
aS'Thumbs up if u think Sean and Ryan have purple yes in the video :D'
p1983
aS'he now have 4million subscriber :DD!!!!!!!!!!!!!! by the way fk u \nraywilliamjohnson'
p1984
aS'What Ever Happened To The White Sean Fujiyoshi'
p1985
aS'Yay im appreciated'
p1986
aS'Yes be sean'
p1987
aS"Less Than 3 at the end... That's a play on Equals 3 right?"
p1988
aS'press 7 for epic face'
p1989
aS'where can u get a "teehee" shirt????'
p1990
aS'@787tatiana TRUE '
p1991
aS'WHY HIS EYES R BLUE!?!?!?'
p1992
aS'SHOOOOONNE!'
p1993
asS'time'
p1994
ctime
struct_time
p1995
((I2010
I12
I21
I22
I5
I15
I1
I355
I-1
t(dtRp1996
sS'id'
p1997
VosBfKHSO-DM
p1998
s.