(dp1
S'title'
p2
VDear Ryan - Army of Lamps!
p3
sS'url'
p4
Vhttp://www.youtube.com/watch?v=qMrXY7sKG-I&feature=youtube_gdata_player
p5
sS'image'
p6
Vhttp://i.ytimg.com/vi/qMrXY7sKG-I/0.jpg
p7
sS'comments'
p8
(lp9
S'Dear Ryan,\n\n     Why are you obsessed with lamps...?\xef\xbb\xbf'
p10
aS'Gosh hun what happened to that gorgeous face of yours???? :(\xef\xbb\xbf'
p11
aS"I swear Ryan Higa's comedy is just like Family Guy's. \xef\xbb\xbf"
p12
aS'Dear Ryan, what do you get when you crossbreed a rabbit with Godzilla?\xef\xbb\xbf'
p13
aS'WHAT HAPPENED TO YOUR NOSE???\xef\xbb\xbf'
p14
aS"you're nose scar...='(\xef\xbb\xbf"
p15
aS'0:36 No scar...? Continuity.\xef\xbb\xbf'
p16
aS'Dear Ryan, can your dog play the guitar/ukulele? +nigahiga\xef\xbb\xbf'
p17
aS'Dear Ryan, can you read this backwards?\xef\xbb\xbf'
p18
aS'Dear Ryan, can you drink more than 40 shots of vodka?\xef\xbb\xbf'
p19
aS'Dear Ryan, can you see this comment?\xef\xbb\xbf'
p20
aS'Dear Ryan can u poop on a lamp\xef\xbb\xbf'
p21
aS'dear ryan, can you go scare the people of the public?\xef\xbb\xbf'
p22
aS'Dear Ryan,Can you act like a barbie girl and Ken you playing both parts!!! \xef\xbb\xbf'
p23
aS'Dear Ryan could you be a Pokemon trainer \xef\xbb\xbf'
p24
aS'Dear Ryan can you draw my icon?\xef\xbb\xbf'
p25
aS"Haha this guy is hilarious. I am on a massive backlog now and probably \ngoing to lose a few hours sleep because I need to watch more of these \nvideos. It's lucky that KSI liked one of your videos on twitter or I would \nnever have discovered these vids in the first place. brilliant.\xef\xbb\xbf"
p26
aS'funny, his nose scar seems to appear and vanish throughout this video lol\xef\xbb\xbf'
p27
aS'Dear Ryan,\nget lost\xef\xbb\xbf'
p28
aS'Dear Ryan can you do a poop \xef\xbb\xbf'
p29
aS"Thanks to the one who told him to do fruit ninja he went to the hospital. \nHe cut himself on the eyebrow and nose. If you don't believe me watch the \nvideo called 'Fruit Ninja Fail'\xef\xbb\xbf"
p30
aS'Dear Ryan  can you  act like smosh?\xef\xbb\xbf'
p31
aS'the Van Gogh painting "starry night" at 1.45 <3\nyou\'re awesome Ryan :*\xef\xbb\xbf'
p32
aS"Higa, higa, higa higa higa. I'm 100 percent higa.\xef\xbb\xbf"
p33
aS'lol\xef\xbb\xbf'
p34
aS'DearRyan can you go to Pacific ocean to beat a great white shark?\xef\xbb\xbf'
p35
aS'Dear Ryan can you be a magician, like "now you see me" ?\xef\xbb\xbf'
p36
aS'Dear Ryan, can you even?\xef\xbb\xbf'
p37
aS'Dear Ryan, is 9+10 really 21?\xef\xbb\xbf'
p38
aS'Dear Ryan can you do adventure time?\xef\xbb\xbf'
p39
aS'dear rayan can you eat 10 warheads\xef\xbb\xbf'
p40
aS'dear ryan could you be luffy one piece \xef\xbb\xbf'
p41
aS'Dear Ryan, why were you and the lamp sleeping together?\xef\xbb\xbf'
p42
aS'Dear Ryan\nCan you do the Shmoney dance?\xef\xbb\xbf'
p43
aS'01:33 track Please\xef\xbb\xbf'
p44
aS'Can you draw my profile pic\xef\xbb\xbf'
p45
aS'dear ryan can you do brian puspos?\xef\xbb\xbf'
p46
aS'dear ryan can you crash a car\xef\xbb\xbf'
p47
aS'Can you meet the god ??? (^-^)\xef\xbb\xbf'
p48
aS'Dear Ryan, Can you tell me how Ylvis or PSY got their name?\xef\xbb\xbf'
p49
aS"Dear Ryan, what's 9+10?\xef\xbb\xbf"
p50
aS'Hey ryan I know this is a late comment but can u do one thing....try the \naround the world soccer trick please\n\xef\xbb\xbf'
p51
aS'Dear Ryan, can you sit in a bathtub full of mashed potatoes?\xef\xbb\xbf'
p52
aS'Can you do the sparta kick?\xef\xbb\xbf'
p53
aS'Dear Ryan,can you be king of the world\xef\xbb\xbf'
p54
aS' #DearRyan  Can you become Finn? (Adventure Time)\xef\xbb\xbf'
p55
aS'Dear Ryan ,Can you evolve into  a lamp?\xef\xbb\xbf'
p56
aS'dear ryan can u become a ben 10\xef\xbb\xbf'
p57
aS'Dear Ryan, How did you meet Little Lamp?\xef\xbb\xbf'
p58
aS'Dear Ryan Can you be like me ?\xef\xbb\xbf'
p59
aS'Dear Ryan,\nAre turtles real?\xef\xbb\xbf'
p60
aS'Dear Ryan, can you sit down.\xef\xbb\xbf'
p61
aS'Dear Ryan, can Teddy ad Marley be in a MMA fight?\xef\xbb\xbf'
p62
aS'Can you walk on water\xef\xbb\xbf'
p63
aS"Ryan's enemy is his fans???!!! But im a fan off you am i then an enemy off \nyou too\xef\xbb\xbf"
p64
aS' #DearRyan  can you make video like Bayu Skak (vloger indonesia) ?\xef\xbb\xbf'
p65
aS'Dear Ryan can to do parcor \xef\xbb\xbf'
p66
aS'dear Ryan can you eat a spicy pepper whole!\xef\xbb\xbf'
p67
aS'Dear Ryan, can you be act like a baby?\xef\xbb\xbf'
p68
aNaS'The inception part was so hot though \xef\xbb\xbf'
p69
aS'Dear Ryan, Can you make video where you talk cat?\xef\xbb\xbf'
p70
aS"Was i the only one who thought in a dirty way when he said: i'm gonna keep \nTuring you on every night? \nI feel like i was the only one. \n\n\nI'm so dirty minded....\xef\xbb\xbf"
p71
aS'Dear ryan what is 9+10\xef\xbb\xbf'
p72
aS'dear ryan can make porn\xef\xbb\xbf'
p73
aS'Dear Ryan , can you do the matrix?\xef\xbb\xbf'
p74
aS'You actually look pretty good in that robe\xef\xbb\xbf'
p75
aS'Dear Ryan, do you have super powers?\xef\xbb\xbf'
p76
aS'do twister on\n the wall\xef\xbb\xbf'
p77
aS'Dear Ryan, can you do Sword Art Online\xef\xbb\xbf'
p78
aS'Dear Ryan, Can you make more videos with Little Lamp?\xef\xbb\xbf'
p79
aS'Dear Ryan can beat Sean on face and can be better than 1 direction\xef\xbb\xbf'
p80
aS'dear ryan meet super woman!\n \xef\xbb\xbf'
p81
aS'Dear Ryan are you God\xef\xbb\xbf'
p82
aS'0:8 thats a blink\xef\xbb\xbf'
p83
aS'dear Ryan, can you do yourself\xef\xbb\xbf'
p84
aS'dear Ryan, can you become a unicorn?\xef\xbb\xbf'
p85
aS'Dear Ryan can you die\xef\xbb\xbf'
p86
aS':-) \n\xef\xbb\xbf'
p87
aS'Dear Ryan, can you be a vampyer\xef\xbb\xbf'
p88
aS'Cubby bunny\xef\xbb\xbf'
p89
aS'dear ryan can you be elsa from frozen??????????????????????????????????\xef\xbb\xbf'
p90
aS'Ryan can you fit a watermelon in your mouth.\xef\xbb\xbf'
p91
aS'Dear Ryan have you played extintion on call of duty ghost\xef\xbb\xbf'
p92
aS'Dear Ryan, can you survive a zombie apocalypse?\xef\xbb\xbf'
p93
aS"hey dear Ryan what if  neil patrick harris's frictional character barney \nstinson's book the play book's plays tried in real life\xef\xbb\xbf"
p94
aS'I love all ur videos , making me feel happy :)\xef\xbb\xbf'
p95
aS'Dear Ryan. Can you be batman\n\xef\xbb\xbf'
p96
aS'Dear Ryan is your car a aline robot with a pokemon\xef\xbb\xbf'
p97
aS'Dear ryan can you fart a long fart?\xef\xbb\xbf'
p98
aS'dear ryan can u kill yourself?\xef\xbb\xbf'
p99
aS"dear Ryan eat Apple's and banana\xef\xbb\xbf"
p100
aS'Draw your life\xef\xbb\xbf'
p101
aS'Dear Ryan, can you teach me how to dougie?\xef\xbb\xbf'
p102
aS'Can u be mashed potato\xef\xbb\xbf'
p103
aS'Dear Ryan, can u molest popcorns?\xef\xbb\xbf'
p104
aS'Dear, Ryan, which came first, the thing inside light bulbs, or the light \nbulb?\xef\xbb\xbf'
p105
aS'can you do a ninja song\xef\xbb\xbf'
p106
aS'Dear ryan, can you have a cat?\xef\xbb\xbf'
p107
aS'Dear Ryan can you jump off a cliff and die? Tip: EDITING\xef\xbb\xbf'
p108
asS'time'
p109
ctime
struct_time
p110
((I2013
I4
I26
I22
I5
I50
I4
I116
I-1
t(dtRp111
sS'id'
p112
VqMrXY7sKG-I
p113
s.