(dp1
S'title'
p2
VTEEHEE BAND
p3
sS'url'
p4
Vhttp://www.youtube.com/watch?v=Qu_fNTNbhwE&feature=youtube_gdata_player
p5
sS'image'
p6
Vhttp://i.ytimg.com/vi/Qu_fNTNbhwE/0.jpg
p7
sS'comments'
p8
(lp9
S"TEEHEE!\nThe movie. Part 2,Teehee's revenge.\xef\xbb\xbf"
p10
aS'Teeheeee\xef\xbb\xbf'
p11
aS'LOL, this is exactly like the ShamWOOHOO!\xef\xbb\xbf'
p12
aS"It's not the TEEHEE band it's the TEEHEE band.\xef\xbb\xbf"
p13
aS"OMG! It's the TEEHEE band for TREE.99!\xef\xbb\xbf"
p14
aS'U still making vids\xef\xbb\xbf'
p15
aS"aww my crush always tries to do the teehee it's so fricking adorable\xef\xbb\xbf"
p16
aS'10 million! :D\xef\xbb\xbf'
p17
aS"Finally something that will stop me from spilling table all over my \nliquids! Im glad Ryan understands me! :')\xef\xbb\xbf"
p18
aS'10,000,030th view. Cool.\xef\xbb\xbf'
p19
aS'What does YTF means?\xef\xbb\xbf'
p20
aS'I like the sound the like button makes\xef\xbb\xbf'
p21
aS'hey dan tdm is my friend and i can buy beiber\xef\xbb\xbf'
p22
aS'Shamwoohoo and teheeband\xef\xbb\xbf'
p23
aS'LOL I WANT ONE HOW MUCH?!\xef\xbb\xbf'
p24
aS'It says YTF at the end of Pi!\xef\xbb\xbf'
p25
aS'Dear Ryan, can you please lower the price of the T e e h e e band from 4.99 \nback to 3.99? \xef\xbb\xbf'
p26
aS'the TEEHEE~ band XD\xef\xbb\xbf'
p27
aS'If u guys notice he said have you ever happen to this?\n\xef\xbb\xbf'
p28
aS'THEEHEE!\xef\xbb\xbf'
p29
aS'It increased to $5.99\xef\xbb\xbf'
p30
aS'did his cat die?\xef\xbb\xbf'
p31
aS'HAVE U EVER HAPPENED TO THIS\n\xef\xbb\xbf'
p32
aS"I love how he doesn't actually try to advertise his products, he just \ncontinues being himself and it makes you want to buy it anyway.\xef\xbb\xbf"
p33
aS'TEEHEE\xef\xbb\xbf'
p34
aS'you are naturally humorous! do you make everyone laugh daily?\xef\xbb\xbf'
p35
aS'Have you ever happened to this? 0:00\xef\xbb\xbf'
p36
aS'Ryan, can i have a Teehee band? Puhleeeeeeze?\xef\xbb\xbf'
p37
aS'Yea, This always happens! I always spill table all over my liquids\xef\xbb\xbf'
p38
aS'I SPELLED TABLE ALL OVER MY LIQUEDS *flips table over*\nXD\xef\xbb\xbf'
p39
aS'When he says "Tehee" in this vid  it reminds me of pwediepie saying "pewds \ndoes everything"\xef\xbb\xbf'
p40
aS'what does ytf mean\xef\xbb\xbf'
p41
aS'He copied the shampwhooh\xef\xbb\xbf'
p42
aS"LIES\nIt's $4.99.\xef\xbb\xbf"
p43
aS'It looks like COTTON!  I miss him soooooooooooooooo!  >-<\xef\xbb\xbf'
p44
aS'0:30 ytf\xef\xbb\xbf'
p45
aS'Anybody notice the YTF at the end of the number?\xef\xbb\xbf'
p46
aS"Please do not attempt to reenact, recreate, recarnate, or reincinerate any \nof the stunts, dares or any of the following. Don't think about what the \nTeEhEe BaNd can do for you, but what you can do for it. Notice that no \nanimals were harmed during he creation of this video. If you have no \nobjections, kiss the tree, batteries not included.\xef\xbb\xbf"
p47
aS"It's almost not useless I promise.\xef\xbb\xbf"
p48
aS'Is That his brother at 0:50?\xef\xbb\xbf'
p49
aS'0:24 - 0:30 LOL\xef\xbb\xbf'
p50
aS"It's really for sale and I SPILT MY TABLE ALL OVER MY JUICE!\xef\xbb\xbf"
p51
aS'Am i the only one who realised this video is 10 minutes long (watch the \nmicrowave)\xef\xbb\xbf'
p52
aS'TEEHEE MAN.\xef\xbb\xbf'
p53
aS'What was that,really.I mean omg that was really,funny TEEHEE Love, Ryan higa'
p54
aS'Teehee'
p55
aS'Hahaha Ryan you are so funny!!!!! xD'
p56
aS'I stil say it: Calm. The fuck. Down.'
p57
aS'WOOHOO'
p58
aS'aaaaaaaaaaaaaaaaaaaaa'
p59
aS'guynese acint tree dalla\xef\xbb\xbf'
p60
aS'its $4.99 lol\xef\xbb\xbf'
p61
aS'"have you ever happened to this" -Ryan Higa\xef\xbb\xbf'
p62
aS'You want a dog? TEEHEE you want a cat? TEEHEE\xef\xbb\xbf'
p63
aS'Like if you saw the YTF\xef\xbb\xbf'
p64
aS'HOLE\xef\xbb\xbf'
p65
aS'The only product he makes a video advertising it, and actually sells on his \nsite....\xef\xbb\xbf'
p66
aS'Higa.... TV/TEEHEE\xef\xbb\xbf'
p67
aS'Ryan, I love u. Do you read this comment ? haha\xef\xbb\xbf'
p68
aS'dat ending. xD\xef\xbb\xbf'
p69
aS'lol upside down book\xef\xbb\xbf'
p70
aS'I want a TEEHEE band!\n\n               :)\n\n  P.S joking\xef\xbb\xbf'
p71
aS'pedo\xef\xbb\xbf'
p72
aS'0:28 that not a pickle\xef\xbb\xbf'
p73
aS'Yay! I spotted the YTF at the end of pi!\xef\xbb\xbf'
p74
aS'dear ryan can you make a tee hee hat\xef\xbb\xbf'
p75
aS'Lol "I SPILT TABLE ALL OVER MY LIQUID!"\xef\xbb\xbf'
p76
aS"It's actually $4.99\xef\xbb\xbf"
p77
aS'Dear Ryan ,can you ,Andy Lange ,Andrew Garcia sing the "TeeheeTime"song \nPlease!!!!!!!!\xef\xbb\xbf'
p78
aS'TEEHEE\xef\xbb\xbf'
p79
aS'KYLE!!\xef\xbb\xbf'
p80
aS'KYLLEEE!!\xef\xbb\xbf'
p81
aS'tree.99\xef\xbb\xbf'
p82
aS'Teehee!!! (/***)/ - _*!__!__ table flip\xef\xbb\xbf'
p83
aS'"have you ever happened to this" HAHAHAHAHAHAHA\xef\xbb\xbf'
p84
aS'So if I send you a tree and 99 cents, I can get the band?\xef\xbb\xbf'
p85
aS'Press 2 repeatedly :)\xef\xbb\xbf'
p86
aS'But Ryan it should be less than $3!\xef\xbb\xbf'
p87
aS'You forgot the Teehee!\xef\xbb\xbf'
p88
aS'But i spill glass all over my table, but i spilled liquid after :D\xef\xbb\xbf'
p89
aS'What do u mean by obsetvation \nPs: Teehee\xef\xbb\xbf'
p90
aS'I saw YTF\xef\xbb\xbf'
p91
aS'TeeHee\xef\xbb\xbf'
p92
aS'I SPILT TABLE ALL OVER MY LIQUIDS!!! xD\xef\xbb\xbf'
p93
aS'Are services include North Africa?\xef\xbb\xbf'
p94
aS'Have you ever happened to this? LOL\xef\xbb\xbf'
p95
aS'the only video where he says teehee more then once\xef\xbb\xbf'
p96
aS'Objection! the band is 4.99 :/ you lied to us\xef\xbb\xbf'
p97
aS' ( \xcd\xa1\xc2\xb0 \xcd\x9c\xca\x96 \xcd\xa1\xc2\xb0)\xef\xbb\xbf'
p98
aS'Can I get it for real?\xef\xbb\xbf'
p99
aS'THEEHEE......BAND\xef\xbb\xbf'
p100
aS'Why did he say i spilled table all over my liquids shouldnt it be i spilled \nmy liquid over my table??????\xef\xbb\xbf'
p101
aS'LOOOOL oh my Ryan! smh TEEHEE\xef\xbb\xbf'
p102
aS'Have you ever happened to this?\xef\xbb\xbf'
p103
aS'Creepy faces at the end made me spit out a rainbow of orange juice. \xef\xbc\x88\xef\xbc\xbe_\xef\xbc\xbe\xef\xbc\x89\xef\xbb\xbf'
p104
aS'teeheeteehee\xef\xbb\xbf'
p105
aS'TEEHEE\xef\xbb\xbf'
p106
aS'the enemy was a cat lol\xef\xbb\xbf'
p107
aS'like help you to read, run, laugh, cry, tickle, giggle, fly, look your \nenemy in the eye and figure out the end of pi.\xef\xbb\xbf'
p108
aS'Ytf\xef\xbb\xbf'
p109
aS'0:24 upside down \xef\xbb\xbf'
p110
aS'Wait a MINUTE!! is it not too late?! o... m... G!!!!!\xef\xbb\xbf'
p111
aS"It's $4.99 \xef\xbb\xbf"
p112
aS'Dear Ryan, how would you survive World War 3?\xef\xbb\xbf'
p113
aS'... Umm ... ._. Urrr\xef\xbb\xbf'
p114
aS'Who noticed the YTF?\xef\xbb\xbf'
p115
aS'I just got a TEEHEE band from my grandma for Christmas and aim wearing it \nright now\xef\xbb\xbf'
p116
aS'"have you ever happen to this""i spill tabel ol over my liquid" *flips \ntable*\xef\xbb\xbf'
p117
aS'Teeehe\xef\xbb\xbf'
p118
aS'TeeHee wtH\xef\xbb\xbf'
p119
aS'Did anyone understand what Ryan just said?\xef\xbb\xbf'
p120
aS'teehee\xef\xbb\xbf'
p121
aS'That was like inception\xef\xbb\xbf'
p122
aS'Y T F\xef\xbb\xbf'
p123
aS'YTF at the end of pi\xef\xbb\xbf'
p124
aS'TEE HEE\xef\xbb\xbf'
p125
aS'i screach up higa tv .com\xef\xbb\xbf'
p126
aS'dear ryan can you make a teehee sword\xef\xbb\xbf'
p127
aS"OMG I've got the same table as Ryan Higa!!! :D :D :D :D :D\xef\xbb\xbf"
p128
aS'Dear Ryan, would you be able to survive World War 3?\xef\xbb\xbf'
p129
aS'Remicool guy is right watch the microwave this video took 10 minutes to \nshoot\xef\xbb\xbf'
p130
aS'I spilled table all over my liquids lol\xef\xbb\xbf'
p131
aS'Shut up and take my money!\xef\xbb\xbf'
p132
aS'hiiiiiiiiiiiiiiiiiiiiiiiiiiiiiiiiiiiiii ryaaaaaaaaaaaaaaaaaaaaaaann. :D\xef\xbb\xbf'
p133
aS'Check out this video on YouTube:\xef\xbb\xbf'
p134
aS'Check out this video on YouTube:\xef\xbb\xbf'
p135
aS'This is so funny!\xef\xbb\xbf'
p136
aNaS'I know 101 digits of \xcf\x80'
p137
aS'band band '
p138
aS'lmfao'
p139
aS'I saw the time changing every time on the microwave'
p140
aS'"Have you ever happened to this?"'
p141
aS'Wtf'
p142
aS'Or EEHEET'
p143
aS'#unrelated. this is a higa video not Oprah! so please, stfu!'
p144
aS"+tax and shipping... when will you have these back on your site, Ryan? i'd \nlike the teal and black since i already have the white one (: and your blue \nteehee tank and dark hoodie pls"
p145
aS"Lol it's like sham- WOOHOO!! Lmao"
p146
aS'dear ryan can you do how to be a girl? '
p147
aS'For some reason i feel like i just heard that.'
p148
aS'Too bad, I table splits all over my liquids.'
p149
aS'You retarded or what? '
p150
aS'TEEHEE'
p151
aS'... dude its just a comment?'
p152
aS'Yeah I liked that part where he goes Teehee.'
p153
aS'Have you ever happened to this? I SPILLED TABLE ALL OVER MY LIQUIDS!'
p154
aS'Lol wait so who is that guy in the end?'
p155
aS'im taking to dfgames100 is he that dum '
p156
aS'Am I the one?'
p157
aS'we know he was just kidding '
p158
aS'*Ryan Nein kann er nicht Scumbag little kiddie'
p159
aS'Where is YTF?'
p160
aS'0:01 I am not going to say, that these people are actually just actors, but \nthat seemed like it was on purpose... :D'
p161
aS'thumbs up if you tried to call the number'
p162
aS'have you ever happened to this?'
p163
aS'Pause it at the very begining and it looks like hes about to sneeze'
p164
aS'Or TEEHEE'
p165
aS'Teehee'
p166
aS'lol 0:56'
p167
aS'Dear Ryan, TEEHEE'
p168
aS"It's 5.99 $ now. Just sayin' "
p169
aS' we have a special kind of stupidity here'
p170
aS'teehee teehee'
p171
aS'Pi. \n3.1415926535897932384626433832795028841270306286208998623084825117067982148086513282 \n115 digits'
p172
aS"I'm favoriting it because of that part."
p173
aS'Wooow I know your all the same person '
p174
aS"dear ryan, can u do 'Glee'?"
p175
aS'Tree.99 seems legit'
p176
aS'tree 99 '
p177
aS'Lolz'
p178
aS'just call this number: higaTV.com'
p179
aS'pickle (its a CARROT) well thats another tree.99 '
p180
aS'i just got my teehee Band & I Love it cx Some random personGave me a \nhighfive when they saw me wearing it And Asked if i was a higaholic too xD'
p181
aS'good to know that im not only one who spilled table all over liquids'
p182
aS'0:54 dat noise'
p183
aS'Lol I remember the Sham-WOOHOO!'
p184
aS"So we're going there, right? *throws dinner at face*"
p185
aS'so did I but now I want a "Teehee" band... I can totally afford tree.99'
p186
aS"Tree.99? I don't know how I'm going to send you a tree and 99 cents."
p187
aS'That escalated too quickly'
p188
aS'Really cool Sham WOOHOO reference :D.'
p189
aS"I'm getting one :) I'm ordering it now.. So .."
p190
aS'You forgot the period, I just correct the president, problem?'
p191
aS'does that actually rhyme? O.O'
p192
aS'Rian kannst du auch deutsch '
p193
aS'yea but i never said anything about OTHERS liking this planet... so... yea \nO_O'
p194
aS'Obama everywhere XD'
p195
aS'duh,no'
p196
aS'Not in youtube, bitch'
p197
aS'OHHHHHH...the end of pi is YTF!'
p198
aS'it is copy and paste ;p You can tell... '
p199
aS'the end of pi is YTF'
p200
aS'Video with the most TeeHee'
p201
aS'YTF.....'
p202
aS'was that guy your brother ?'
p203
aS'"The Teehee band also helps you to, read, run, laugh, giggle, pickle, fly, \nlook your enemies in the eye, and figure out the end of pie" '
p204
aS'Calm. The fuck. Down. Bro.'
p205
aS'I respect your kindness, but many people watching this current video may \nnot click this, maybe try another video to post your comment on. (or \nmessage)'
p206
aS'SLOW DOWN '
p207
aS'disappointed because i came on here expecting a musical group called the \nteehees where they sing songs only using teehee'
p208
aS'0:00 Have you ever happened to this'
p209
aS'Luv how he keeps saying TEEHEE!'
p210
aS'He said pickle and he pulled out a carrot'
p211
aS'I thought he meant TEEHEE band as in music!'
p212
aS'FIGURE OUT THE END OF PIE (PI) XD XD'
p213
aS'DERP FACE'
p214
aS'Finally I'
p215
aS'Or copy and paste'
p216
aS'0:25 Ryan Holds the Magazine Upside Down xD'
p217
aS'Or... MAGIC! :D'
p218
aS'Nice pause'
p219
aS'Dumb ass.'
p220
aS'Number?!'
p221
aS'I DIED during the first 7 seconds'
p222
aS'the first one is tree.99 but if you want a second its 3.99'
p223
aS'it cost 5,99 :c'
p224
aS"I'm taking the shamWOOHOO."
p225
aS'We are brothers and sisters belonging to one faith and one story. I appeal \nto lovers of folk music of Kazakhstan. Come to my channel to find out more \nabout the brotherly people and their culture. Or just listen to music. Hav\xd0\xb5 \nnice day Citizens of the land )))'
p226
aS'Oh I just realised he said hav u ever happened o his'
p227
aS'I SPILT TABLE ALL OVER MY LIQUIDS. WAAAAAAAAAH SO ADORABLE'
p228
aS'dumbass'
p229
aS'Dear ryan can you be 240p?'
p230
aS'i spilt table all over my liquid'
p231
aS"Don't ever question me, fool!"
p232
aS"ahahha when you read the magazine, and it's backwards ahahahahahahaha "
p233
aS"Holy shit Abi found out what's pie screw you computers"
p234
aS'Teehee'
p235
aS'I like trains......'
p236
aS'ahahahha'
p237
aS'The TEEHEE band also helps you to read *holds the book upside down*'
p238
aS'Incorrect. Pi is infinite.'
p239
aS'Why you! Cos of u I said Teehee to the girl I like. So embarrassed :/'
p240
aS'IMPOSTERS!'
p241
aS'Gay'
p242
aS'Dear ryan, can u star in a cooking show'
p243
aS'I spilled table all over my liquids haha!!!!!'
p244
aS'"HAVE YOU EVER HAPPENED TO THIS?" lol '
p245
aS'Your bro! Teehee :) <3 that facial expression'
p246
aS'Ryan i got a question bro. BUT THERE IS NO ANSWER TEEHEEE'
p247
aS'I split tables all over my lyquid xDD'
p248
aS"Blue. Because a triangle doesn't fit in the alphabet of numbers."
p249
aS'Pi is infinite, my dear xD'
p250
aS'Dear ryan can you rap with eminem'
p251
aS'at 0:30 at the end of the number it says ytf'
p252
aS'have you ever happened to this'
p253
aS'I already got one i have 50 of them'
p254
aS"ryan's brother lol"
p255
aS"Ryan, i'd buy 98239028375 Teehee bands, but you don't ship to Bangladesh :("
p256
aS"no you aren't and i cant stop laughing because of that"
p257
aS'at 0;30 at the end of that number it said ytf'
p258
aS'At the end he does this funny face saying TEEHEE'
p259
aS'i spilled table all over my liquids hahaha !!!!!!!!!'
p260
aS'I found the YTF'
p261
aS"It took me a second to remember where I heard this before because I haven't \nseen this video before and then I remembered it was on a really popular \nflipnote........"
p262
aS'I paused at 0:55 and guess what?'
p263
aS'lol the pickle was a carrot. :D'
p264
aS'i thought when you said the teehee band was a band where you sing teehee'
p265
aS'how is this spam?'
p266
aS'They more I watch the more I laught'
p267
aS'TEEHEE '
p268
aS'Ahemremrmermermemrmm... there is no 1:02'
p269
aS'TEEHEE!!'
p270
aS'I need porn'
p271
aS'The TeeHee band can help to make things that might possibly come true! Lol'
p272
aS'You are so funny'
p273
aS'OMGOODNESS you are soo funny! keep posting:)'
p274
aS'the number didnt work??'
p275
aS'*Pi'
p276
aS"I didn't see it."
p277
aS"I Don't Like It....... I Love It"
p278
aS'Teehee 9 times'
p279
aS'the vid ends at 1:01'
p280
aS'11 tee hee'
p281
aS'Me: OMG REALLY!!! (Me a few seconds later):*growls* Why you little....'
p282
aS'Wat'
p283
aS'at 0:27 he pulled out a carrot not a pickle XD '
p284
aS'wat'
p285
aS'teehee.com does not exist :('
p286
aS'Where do I get one \xf0\x9f\x98\x92'
p287
aS'At the end it looks weird'
p288
aS"not to hate, but you've obviously ran out of ideas..."
p289
aS'Yep pi ends with YTF! :)'
p290
aS'was that guy ur brother , ryan '
p291
aS'tree 99'
p292
aS'Teeheee :P'
p293
aS'OMG WTF??? like im so confused'
p294
aS'I know just kidding , the video is all teehees '
p295
aS"I'm always spilling table on my liquids man... lolol xD"
p296
aS'0:50 is his brother?'
p297
aS'Pause at 0:56'
p298
aS"That's was a total of 9 TEEHEE'S"
p299
aS'Me too... The title made it sound like a musical band'
p300
aS'OH! You saw that video too? Cool!'
p301
aS'Dat last zoom'
p302
aS"After being on YouTube for 2 years now, I know how much hate people can \ngive to me when reading these kinds of comments but maybe someone may be \nnicer. My dream is to be an actor and i like to dance in public, but i cant \nget in performing school, and i just got 1,496 subs, which is pretty \nimpressive to me, but I'll never get noticed with these numbers. If someone \nwould have the heart just to give this a thumbs up and spend all of 30 \nseconds watching a vid, it would mean the world. Thank you all"
p303
aS'too funny love your chanel'
p304
aS'example tat ppl watch any shit :D funny though but not creative :P tere is \nsome creative stuff for wasting the time on not a hat cmmnt '
p305
aS'The dude at the end looks like ryans older brother lol'
p306
aS'dear ryan can you give me teehee band for free?'
p307
aS'Dear Ryan, Can you do a video that last about 15 minutes? '
p308
aS'Wat if baloney99988877 comes bak?!?'
p309
aS'there were nine edward lee...i kept count...'
p310
aS'Soooooooooooo funny!'
p311
aS'YTF at enf of PI!'
p312
aS'no nothing theres not, '
p313
aS'I spilled table all over my liquids'
p314
aS'i read your comment at the same time as ryan when he said it xD what a \ncoincidence xD '
p315
aS'check other videos. youtube glitched or bugged or some kind of shit(cause \neven jb doesnt has dislilke)'
p316
aS'Never seen a YouTube video with 0 dislikes'
p317
aS'Have you ever happed to this? Wut?'
p318
aS'shut up teehee '
p319
aS'I thought this was going to be a band where people sing TEEHEE. *facepalm*'
p320
aS'Lmaoo he said have yuh ever happen to this'
p321
aS'Oh, I see. I thought it was strange seeing 0 dislikes on a video :)'
p322
aS'Have you ever happened to this. xD '
p323
aS'read run laugh cry tickle giggle pickle fly look your enemys in the eye and \nfigure out the end of pie'
p324
aS'I though he was having a rock band that was called TEEHEE when I read the \ntitle'
p325
aS'It\xc2\xb4s just a glitch... hahaha lol i was also really impressed when i saw \nthat every video had zero likes xD'
p326
aS'0:59 Rape face'
p327
aS'9 Times'
p328
aS'YTF'
p329
aS"I saw this comment in 'Your Grammar Sucks'!"
p330
aS'teehee'
p331
aS'For only Tree.99!'
p332
aS'i wish he did videos like these now, he is now all serious :('
p333
aS'Have you ever happened to this?! Lololololol XD'
p334
aS'XD XD XD AHAHAHAHA LOLOLOLOL RYAN XD'
p335
aS'He says at the beginning \'Have you ever happened to this!"'
p336
aS'Congratulations! You won...a parodied comment on Your Grammar Sucks #10! :D '
p337
aS'...really who would have guessed that. @GameSlice77'
p338
aS'Its hilarious'
p339
aS'Dear MR. President U R CRAZY AWESOME :)'
p340
aS'It sort of makes sense how he says "Have you ever happen to this?" since \nhim \'spilling\' the table happens to the cup.'
p341
aS'I love u so much'
p342
aS'What the heck'
p343
aS'0:11 looks like he is going to sneeze'
p344
aS'HIS BROTHER!!'
p345
aS'3.141592653589793YTF'
p346
aS'Teehee'
p347
aS"ohhhhhhhhhhhhh i'm tired"
p348
aS'i actually really want one of those'
p349
aS'Where can I oder acreage shirt'
p350
aS'0:33 haha'
p351
aS'0:30 ytf= end of pie'
p352
aS'heyyy, what happened to that white cat? :s '
p353
aS"that's all u got to say wow "
p354
aS'dumbass it isnt... it just has unending decimals'
p355
aS'do you take dead trees?'
p356
aS'I want a WOOHOO band'
p357
aS'I spilled table all over my liquid!'
p358
aS'YTF MEANS YESTERDAY,TODAY,FOREVER'
p359
aS'GIGGLE WIGGLE PICKLE BIGGLE SIGGLE HIGGLE!!!'
p360
aS'TEEHEE!'
p361
aS'Dear rayn, What would you do if you met That North Korean wants to bomb usa \nGuy... I forget his name'
p362
aS'I have replied to this comment for your viewing convenience.'
p363
aS'i want a free teehee band and a email from u too i am also 11 my email is \nmikuhatsune625@gmail.com'
p364
aS"It's a total of 9 TEEHEEs counting the last one after WOOHOO"
p365
aS'So much cold jokes LOL. '
p366
aS'Teehee!!!!!!!!!'
p367
aS'why you are so cute \xef\xbc\x88\xe2\x89\xa7\xe2\x88\x87\xe2\x89\xa6\xef\xbc\x89'
p368
aS'10'
p369
aS'I never knew the end of Pi was YTF...'
p370
aS'lol '
p371
aS'TEEHEE I LIKE PICKLES TEEHEE i already said that...... '
p372
aS'HAVE YOU EVAR HAPPENED TO THIS?'
p373
aS'@edward lee 9 '
p374
aS'tree.99 lol'
p375
aS'This was uploaded on my birthday :D'
p376
aS'10'
p377
aS'11 TEEHEES were said.'
p378
aS'TEEHEE'
p379
aS'Tree.99 okay then let me go dig up my tree'
p380
aS'10 tehee!'
p381
aS'I SPILLED MY TABLE ON MY LIQUIDS'
p382
aS'I still remember the video how to be gangsta'
p383
aS'I never knew the end of Pi was YTF...'
p384
aS'Ive always been part of the TEEHEE army :) I want a teehee shirt...so bad'
p385
aS'Teehee face xD'
p386
aS'nhjbnjnjkn '
p387
aS'TEEHEE'
p388
aS'helo '
p389
aS'10'
p390
aS'I SPILLED TABLE ALL OVER MY LIQUIDS'
p391
aS'check out my latest video. thanks!!'
p392
aS'I hope baloney9998887 does not come back'
p393
aS'I have 212 digits memorized. My friend baked me a pie when I finally hit \n200.'
p394
aS'Like hhhhhhhhhh'
p395
aS"You want a cat IT's THERE!"
p396
aS'teehee'
p397
aS'awesomeness'
p398
aS'wot does teehee means and why u choose this word as a sign for ure videos '
p399
aS"i'm kidding...."
p400
aS'I had a TEEHEE band, it got stolen. :('
p401
aS'How do I call HigaTV.com?'
p402
aS'Tree .99 :D'
p403
aS'I like teehee band lol'
p404
aS'is that an actual dear ryan or what? '
p405
aS'lol'
p406
aS'WOOHOO TEEHEE!!'
p407
aS'Teehee'
p408
aS'Is*'
p409
aS'Noone will EVER figure out the end of pie 0.0'
p410
aS'U mean tables all over their liquid'
p411
aS'ross lynch'
p412
aS"Ryan's sexier than his brother...."
p413
aS'Have you ever happend this lol?'
p414
aS'Ytf'
p415
aS'ross lynch ?'
p416
aS'Where is the TEEHEE at the very end?'
p417
aS'Yes he is? Why u ask?'
p418
aS'TEEHEE not teehee'
p419
aS'You have to be asian to do that'
p420
aS'I want a TEEHEE band. <3 '
p421
aS'that annoying moment when the commercial is as long as the video'
p422
aS'Why not Youtube Today Forever?'
p423
aS'0:27 if u look closely his pickle is a sosage XD'
p424
aS'Im sad about theres no teeehee sound app '
p425
aS'Woohoo \xe2\x99\xa5 xd'
p426
aS'Did anyone notice the troll face at 1:02'
p427
aS'But another fist would be helpful....I have to find a tree though...'
p428
aS"Awsome TEEHEE's"
p429
aS'dat teehee xD'
p430
aS'is that his brother ?'
p431
aS'@ashley k yes...yes he'
p432
aS'0:04 WTF??'
p433
aS'2,505 people spilled liquid all over their tables... '
p434
aS'i want 1 '
p435
aS'My hero :3'
p436
aS'Hahaha:) your sooo funny!!!!'
p437
aS'fuck you ryan!!!!!!! stop talking to yourself!!!!!!!'
p438
aS'ryan,you look so good in this crispy white shirt...'
p439
aS'TEEHEE'
p440
aS'queer'
p441
aS'2,512 people cant say TEEHEE correctly.'
p442
aS'When I saw the name of this video I actually thought it was a band of a \nbunch of Ryans playing instruments singing "TEEHEE".'
p443
aS'Hahahah lmfao'
p444
aS'Im so unhappy about theres no teeheeapp in the appstore'
p445
aS'Can you ship products to my country????? Philippines XD'
p446
aS'9 Teehee'
p447
aS'0:59'
p448
aS'nope chuck testa'
p449
aS'bitch shut the fuck up DONT TALK ABOUT RYAN LIKE THAT AND UR JUST JEALOUS \nAND SHIT BITCH U KNO HE IS FUNNY AND UR JUST A HATER AND WHAT NOT SO GTFO \nWITH THAT'
p450
aS'i saw YTF again'
p451
aS'Aha he stared the words with 3.14. Pi!!!!! Pi!!! '
p452
aS'He said " Have you ever happened to this?" anyone noticed?'
p453
aS'Congrats on 9 million subs!!'
p454
aS'where will i get a teehee band '
p455
aS'Haha the best part was when he spilled table all over his liquids XD'
p456
aS'srsly -_-'
p457
aS'I spilled TABLE all over my LIQUID'
p458
aS'Have you ever happened to THIS?!'
p459
aS"That's a good number HigaTV.com"
p460
aS'*watching meat spin* i spilled liquids all over my laptop'
p461
aS'TEEHEE.'
p462
aS'Lol. So funny.'
p463
aS'WOOHOO!'
p464
aS'WOOHOO '
p465
aS'Hey Ryan'
p466
aS"You don't say?!"
p467
aS'Call this number :a HigaT.V.com " hmm what number?'
p468
aS'0:29 at the end of the sign YTF i means yesterday,today,forever '
p469
aS'"tree .99" how we belizeans and Caribbean ppl pronounce three. Tree!'
p470
aS'nice vid ryan'
p471
aS'higatv is a website were u buy stuff'
p472
aS'Tree.99 payed me for it... wait what?'
p473
aS"well that's perfectly normal just buy the TEEHEE band!"
p474
aS'@Freek van Rooijen thats the point'
p475
aS'I really need one'
p476
aS'-_- are you serious....'
p477
aS'the "TEHEE", band LOL!'
p478
aS'no shit sherlock'
p479
aS'I wnt on higa tv.com and the store is closed'
p480
aS'inflation happened '
p481
aS'it was on purpose'
p482
aS'Holy crap! 4 bucks for a bracelet! Lets do some simple addition, thats 4 \ndollors for a Bracelet'
p483
aS'Step 1: Pause at 0:56 Step 2: LMAO TILL YOU DIE'
p484
aS'no. i know i meant the fact that he said NUMBER but no numbers'
p485
aS'This shit is funny like f*ck'
p486
aS"No! its not like it's the actual joke! How smart you are for realizing it."
p487
aS'no it was tickle giggle pickle :P'
p488
aS'pickle is a carrot lol'
p489
aS' It was a carrot... '
p490
aS'Have u acttually sold any?'
p491
aS'How long has this vacation been Mr. President?'
p492
aS'Dear ryan can you turn into Hogwarts castle'
p493
aS'man i wish i got one'
p494
aS'Pickle! (shows carrot)'
p495
aS'TEEHEE!!! XD'
p496
aS'Teehee!'
p497
aS'exactly 10 times plus once on a t-shirt ( 0:19 )'
p498
aS'Dear Ryan can speak slowly ?'
p499
aS'i wish i had 20 dollars to buy a shirt from you. cant afford it right now :('
p500
aS'I like the part when he said Teehee '
p501
aS'I spill table all over my liquids!'
p502
aS'Have you ever happened to this?'
p503
aS'IS IT TREE OR NUMBER 3?'
p504
aS'only 9'
p505
aS'haha, his A.D.H.D explain the reason why...'
p506
aS'This is so funny'
p507
aS'ytf...'
p508
aS'I literally cried of laughter all 1:01. SERIOUSLY. OH GOD HAHAHA XD'
p509
aS'Just bought mine'
p510
aS'Tree.99! XD'
p511
aS'HAHAHA!!This is the only product that he actually sales!!!!'
p512
aS'Da Teehee band 5.99 idk why but i still want one'
p513
aS"Ryan's face at 0:56 lol"
p514
aS'teehee'
p515
aS'ahhh i want that band'
p516
aS'This is like a second version of TheshamWOOHOO lol'
p517
aS'Its like the sham WOOHOO! haha! I would love TEE HEE band!!!!!'
p518
aS'Just tree.99'
p519
aS'what is a YTF im newD:'
p520
aS'im sorry but wat does YTF is?'
p521
aS'When an handsome make ....... of himself XD'
p522
aS"Ryan's face at 0.56"
p523
aS'TEE HEE'
p524
aS'have you ever happened to this? '
p525
aS'Greek'
p526
aS'Dat face..'
p527
aS'What did I just watch...?'
p528
aS'have you happened to this'
p529
aS'nice touch nigahiga '
p530
aS"Greek van Rooijen.It's supposed to be like that."
p531
aS'i was meaning "WTF that\'s too obvious" i know YTF. that\'s a good group :)'
p532
aS'and figure out the end of pi 3.141592653589793YTF'
p533
aS'Yesterday Today Forever :)))'
p534
aS"It isss??? Omg i didn't notice //obvious sarcasm in case you couldn't tell"
p535
aS'did you nodtice he said did you ever happen to this '
p536
aS'teehee'
p537
aS'Tehe'
p538
aS'I want one!!'
p539
aS'HigaTV.com isnt a number -_-'
p540
aS'i spilt table all over my liquids'
p541
aS'Hey Ryan can u be do a super super duper funny video.'
p542
aS"No... No one noticed that. Because humor doesn't exist."
p543
aS'The end face was awesome'
p544
aS'Shamp woohoo and teehee band rock'
p545
aS'The sound of teehee:D'
p546
aS'hahahahaha!! cracked up laughing!'
p547
aS'This guy is cool and hot like always! Eeeeeek!'
p548
aS"I'm* Oh look at me, I just corrected the president! FREE COUNTRY FOO!!"
p549
aS'about Tree,99 times'
p550
aS'Teehee! So if u wanna Teehee! You can Teehee! Oh mah god!'
p551
aS"i watched the sham woohoo years ago then teehee happened and i'm in a good \nmood all over again :)) "
p552
aS'Dafaq did i just watch? '
p553
aS'Asking some retarded ones.'
p554
aS'he said the word "tickle" twice-_-" '
p555
aS':) '
p556
aS'You must be special. '
p557
aS'0:21 pause'
p558
aS'pause a 0:56'
p559
aS'HE SAID PICKLE AND WAS HOLDING A CARROT! And he hates cats??? Hahaha I \nremember the ShamWOOHOO. 2013 and still going WOOHOO!'
p560
aS'Order a TEEHEE band today!!!'
p561
aS'"Have you set happened to this?"'
p562
aS'is that seriously what you looked like when you said "TEEHEE"? you look \nhilariously cute'
p563
aS'Lol'
p564
aS'omg i just realised after a million times of watching this that at the \nstart he syas "Have you ever happened to this?" instead of "Has this ever \nhappened to you?" omg im an idiot'
p565
aS'i love my mom'
p566
aS'no, but i know u '
p567
aS'0:56 '
p568
aS'have you ever happened to this'
p569
aS'the end of pi is YTF'
p570
aS'He held a carrot for a pickle lol'
p571
aS"I am late! it's $ 5.99"
p572
aS'Go to his site and look at his drawings of his early years(11) its simply \namazing!'
p573
aS'identity thief rated R xD'
p574
aS'u look like ma younger brother.haha'
p575
aS'ryan higa: have you ever happened to this. lol too funny '
p576
aS'I spilled table all over my liquids!!!! Lmao'
p577
aS'Wow....'
p578
aS'pause at 0:28'
p579
aS'pickle *holding a carrot*'
p580
aS'did anyone notice the ytf?'
p581
aS'fantasic '
p582
aS'0:56 Thats some scary shit'
p583
aS'My hero <3'
p584
aS'I saw ytf again'
p585
aS'at the end of pi there is YTF in the video '
p586
aS'I love you'
p587
aS'i did! i waz wondrin the same thing lol :3'
p588
aS'Anyone noticed Marley in the bathtub? Lol so adorable :3 0:26'
p589
aS'i told mu sister to order teehee band so i can wait more than 2 months to \nhave one :<'
p590
aS'here*'
p591
aS'00:2 LMAO'
p592
aS'good job teehee! i love this video teehee! add me on gmail my name on gmail \nis adora1223@gmail.com thanks for reading teehee!! :D good job teehee. and \ncan you plaese sing tom ford by jay-z on youtube? plaese just do it :)'
p593
aS'nice video but no TEEHEE ? :D '
p594
aS"It's like every trilogy, the first one is liked by many, second liked by \nsome and the third one last by few"
p595
aS'Dear Ryan, can you make me want to live on this planet? '
p596
aS'Have you ever happened to this?'
p597
aS"I love Ryan's hidden jokes in this video, thumbs up if you found some."
p598
aS'ya i cant make a joke about that... he said teehee 10 times'
p599
aS'3.141592653589793238462643383279502884197169399375105820974944 etc.'
p600
aS'we want sean back '
p601
aS'more things ive never noticed goddamnit'
p602
aS'I want one'
p603
aS'where can i buy it. TEEHEE!!!!!!!!!'
p604
aS'10 times'
p605
aS'whats YTF?'
p606
aS'Many times when I was young my mom would always be mad because I spill \ntable on my juice '
p607
aS'have you ever happend to this lol! 0:00'
p608
aS'am from indonesia, how can i buy teehee band? please reply :}'
p609
aS'ewwww'
p610
aS'tree:99'
p611
aS'LOL'
p612
aS'is it just meh or is this supposed to be a parody of the sham woohoo '
p613
aS'Is that how Ryan always records his teehee for the end of every video lol'
p614
aS'yup!!!'
p615
aS'I SPILL TABLE ALL OVER MY LIQUIDS!'
p616
aS'Pause at 56'
p617
aS'have u happened to this! LOL'
p618
aS'whats ytf'
p619
aS'Not sure if I was watching the video or watching, watching the video in the \nvideo'
p620
aS'MARLEY IS THERE AT 0:26'
p621
aS'HAVE YOU EVER HAPPENED TO THIS 0:00'
p622
aS'theres never not not nuttin !!!!! '
p623
aS'I SPILT TABLE ALL OVER MY LIQUIDS'
p624
aS'I kinda want one'
p625
aS'or y the fuck'
p626
aS'I saw the ytf'
p627
aS'its higa Ryan higa'
p628
aS'Sooooooo..... the TeeHee band is Chuck Norris. '
p629
aS"YTF: Some say 'YouTube Friends' or 'YouTube Family' but I think what Ryan \nmeant was: Yesterday, Today, and Forever (plus that makes more sense it's \nwas on an interview with D-Trix, which Ryan Higa is a crew member of)"
p630
aS'Can u make a video of teehee, where is only couble times that? So I can \ndownload it and but it my phone message voice! x3'
p631
aS'how do make a teehee band.'
p632
aS'TEEHEE! band I want one!!!! i wonder if i can get a discount for being a \nsubscriber... :)'
p633
aS'please please please put these on amazon. I would buy it for ate.99!!!'
p634
aS'makes me feel better my dog mia died'
p635
aS'i love it i want it i need it!!!!!!'
p636
aS'I spilled fish all over my water'
p637
aS'hes hot <3.<3'
p638
aS'In the description, it says "From the makers of the ShamWOOHOO..."'
p639
aS'Yesterday Today Forever'
p640
aS'i want a theeeeeeee band '
p641
aS'I thought the teehee band was an orchestra of teehees.'
p642
aS"So is it 3.99 or tree.99? Either way I'm buying..."
p643
aS'I spilt table all over my liquids, always happens to me !'
p644
aS'OMG! YOUR THE REAL OBAMA! I THINK THAT YOU ARE AMAZING AND IDK WHERE OUR \nCOUNTRY WOULD BE WITH OUT YOU!!!!! :O :O :O <3 <3 <3 <3 '
p645
aS'Teehee'
p646
aS'I spilled table on my liquids'
p647
aS'read gustavo oviedo comment then read Anjo Samaniego '
p648
aS'he said tehee 10 times'
p649
aS'Did he say "Have you ever happened to this?" at the beginning? My grammar \nnazi senses are tingling...'
p650
aS'There are 9 teehees lol lmao lmfao (everyday i am ...)'
p651
aS'sorry im getting the hang of these '
p652
aS'NigaRyan: Have you every happened to this?'
p653
aS'wonder if I should get this band, or the 1 inch band?'
p654
aS'Seen it'
p655
aS'Teehee Xd'
p656
aS'i like this planet you get off '
p657
aS"You're Freaking awesome TeeHee ! x) "
p658
aS'Dear ryan, can you be a doctor??'
p659
aS'Have you ever happened to this? Lol'
p660
aS'TEEHEE!'
p661
aS'TEEHEE!!!'
p662
aS'Noticed how he says: have you ever happened to this?'
p663
aS'like help you to read, run, laugh,cry, tickle giggle,pickle, fly, look your \nenemys in the eye, and figure out the end of pie'
p664
aS"I read the comment about the love thing below and it's been 3hs and \n17min!!!!!!! This is an iPod!!!!!!!!!!!!"
p665
aS"Really! They don't look alike!"
p666
aS"i'm very naive but plz tell me da truth "
p667
aS'the real TEEHEE band is $5.99'
p668
aS'*Click to see "theres never not not nuttin comment"*'
p669
aS'"Have you ever happened to these?"'
p670
aS'"I spilled table all over my liquids!" HAHAHAHAHAHAHAHA!'
p671
aS'loved the ending when he made a face like dat --> ;&) HAHA'
p672
aS'here is my TREE.99!!!'
p673
aS'"All you have to do is call this number: HigaTV.com"'
p674
aS"if you would never get noticed, how come you have the 777 subscribers? Be \npatient, and be happy for the subscribers you have. It doesn't matter if \nyou have 10 subscribers, or if you have 10.000, you're still doing the same \nthing; Make videos and entertain the people who enjoys the stuff you're \ndoing. "
p675
aS'a lot of TEEHEE there'
p676
aS'I actually tried going to naa'
p677
aS'how much is shipping?'
p678
aS'ytf backround '
p679
aS'0:26 doggie! '
p680
aS'I want a teehee band'
p681
aS"have you ever realized that the guy who said shut up is ryan's brother?"
p682
aS'Who would give this a thumbs up?'
p683
aS'where do you get the music'
p684
aS'*gasp* the WOOHOO is back!'
p685
aS'0:52 Ur welcome'
p686
aS'TEEHEE'
p687
aS'But i just cut the tree down..'
p688
aS'teehee:D'
p689
aS'I finally found this legendary comment'
p690
aS"Want a dog teehee it's there want another cat teehee it's there wants. \nAnother teehee braclet well that another 3.99"
p691
aS'TEEHEE! :D'
p692
aS"Omg I didn't mean to press flag!!! Oh I have ruined everything!!! :("
p693
aS'TEEHEE Hole ;D *zoom* END xD'
p694
aS'umg i thought it was a singing band lol'
p695
aS'teehee'
p696
aS'Niigata.com'
p697
aS'I want teehee band'
p698
aS'TeeHee!'
p699
aS'Teehee'
p700
aS'omg the commercial I just saw so touching '
p701
aS'On the website it says $5.99'
p702
aS'Its a carrot'
p703
aS'0:00 have YOU ever happened to THIS?'
p704
aS'wat i thought it was TEEHEE...oh wait he said it at the end....TEEHEE'
p705
aS'WOOHOO'
p706
aS'U go to his merchandise website'
p707
aS'your going on vacation again?'
p708
aS'I thought that it was teehee is band'
p709
aS'Thsw'
p710
aS'anyone notice.....TEEHEE THRUST!'
p711
aS'I want a Teehee band!'
p712
aS'oh was that Y? i thought it was W'
p713
aS"After being on YouTube for 2 years now, I know how much hate people can \ngive to me when reading these kinds of comments but maybe someone may be \nnicer. My dream is to be an actor and i like to perform, but i cant get in \nperforming school, and i just got 777 subs, which is pretty impressive to \nme, but I'll never get noticed with these numbers. If someone would have \nthe heart just to give this a thumbs up and spend all of 30 seconds \nwatching a vid, it would mean the world. Thank you all"
p714
aS'Lol sat face at 1:00'
p715
aS'thumbs up if you thought he had a band with the song TEEHEE '
p716
aS'anyone notice at the begining when he said "have you ever happened to this?"'
p717
aS'I just have one thing to say about this video... TEEHEE'
p718
aS'te pareses a :yaoming: xD jaja'
p719
aS'I want it! and i want it now '
p720
aS'i have 12 of them!'
p721
aS'i thought there was going to be a musical band for teehee when all he says \nis "TEEHEE" '
p722
aS'that pickle was really a carrot '
p723
aS'TEEHEE!'
p724
aS'Tree 99'
p725
aS'Wait until the absolute end and then look at his face'
p726
aS'i thought iz tree.99 '
p727
aS'When did u get the cat'
p728
aS'TEEHEE'
p729
aS'im totally buying this band'
p730
aS"it's Ryan's group- don't u know them?"
p731
aS"Ryan that's a carrot not a pickle :D"
p732
aS'i want a teehee band and where can you buy one? '
p733
aS"have this ever happened to you?: ''I spilled table all over my liquids!'' \nWell thats perfectly normal. HAHAHAHAHA!!!!"
p734
aS"u start off as a regular guy and u buy an iPod human but u wasted all of ur \nmoney and the iPod human has ruined ur life so now u are all poor and u \nspilled liquid all over ur table so u buy a shamWOOHOO and it gets all cold \nand ur all poor so u can't afford heat so u try to use the shamWOOHOO as a \nblanket but it's too small so u get a snuggo and now ur even more poor. So \nu find a car with an inavigate and it leads u to the middle of nowhere and \nu spill table all over ur liquids so ur screwed."
p735
aS'isnt that his brother in the end..the man with a laptop'
p736
aS'Higatv.com is not a number...'
p737
aS'3.99 I got 2 teehe'
p738
aS'Really 3.99 for that FK that'
p739
aS"This advertisement makes be believe that I can do all of those things if I \nbuy the teehee band! Too bad I don't have tree.99, oh well!!"
p740
aS'i want them all'
p741
aS'-.- 3.99'
p742
aS'i want a THEE'
p743
aS'0:26 MARLEY!'
p744
aS"I clicked on this video thinking you were going to talk about a 'musical' \nband."
p745
aS'Did any one notice he said "had u ever happen to this"'
p746
aS'Anyone realize this is a real commercial for a product? Kinda.'
p747
aS'you want an other band ... well thats another 3:99 :D'
p748
aS'Hey Ryan, I just wanted to say you really inspired me. Your videos are \nreally entertaining, and I enjoy watching them. I have five videos on my \nchannel and my first few are really bad but my last two are pretty good \nespecially my latest one. I really appreciate you being a role model for me \nand my next few videos will be very good, and a huge part of that is thanks \nto you! Thanks!'
p749
aS"NO NOTHING THERE'S NOT"
p750
aS'10 times c:. TOOK ME AWHILE TO COUNT TT^TT'
p751
aS'I threw table at my liquid....then I got grounded.....i'
p752
aS'TEEHEE!'
p753
aS'3.1415926535893YTF'
p754
aS'pie? really...'
p755
aS'Have you ever happend to this lol'
p756
aS'Could you really buy a band? O_O'
p757
aS'Tree.99. American Redwood preferably.'
p758
aS'well thats perfectly normal'
p759
aS"than you need aa TEEHEEband :D you're welcome"
p760
aS'Did anyone else notice that the end of pi was YTF?'
p761
aS'i think i have TEE HEE fever '
p762
aS'Hi'
p763
aS'ShamWOOHOO'
p764
aS"After being on YouTube for 2 years now, I know how much hate people can \ngive to me when reading these kinds of comments but maybe someone may be \nnicer. My dream is to be an actor and i like to perform, but i cant get in \nperforming school, and i just got 630 subs, which is pretty impressive to \nme, but I'll never get noticed with these numbers. If someone would have \nthe heart just to give this a thumbs up and spend all of 30 seconds \nwatching a vid, it would mean the world. Thank you all"
p765
aS'Of all the Ryan Higa informercials only this one is selling a real \nproduct...'
p766
aS'wtf'
p767
aS'It the budget cuts '
p768
aS"figure out the end of pi?? OH C'MON!! i know pi inside and out ! \n3.1415926535897932384626433832795028841971693993751058209749445923078164462862089986280348253421170679841280865132823066470938446095505822317253591081284811174502841027019385211.... \nand so on..."
p769
aS'TEEHEE!!!!! <3'
p770
aS'Pickle is a noun'
p771
aS'Have you ever happen to this?'
p772
aS'0:57'
p773
aS'Help you to read,run laugh,cry tickle,giggle, pickle, fly, lick your \nenemies in the eye anf figure out the end of pie'
p774
aS'man that TEE HEE haunt my dreams'
p775
aS'I want one'
p776
aS'Who are your favorite to You Tubers? Also why do you like them?'
p777
aS'Rofl I love it when they do that smily face'
p778
aS'Have you ever happen to this 0:01 wuttttt'
p779
aS"the pickle's a carrot"
p780
aS'And pickle is not a verb!'
p781
aS"That's perfectly normal"
p782
aS'I normally spill table over my liquid'
p783
aS'you should make a boy band video '
p784
aS'Have you ever happened to this? Lol'
p785
aS'Dear Ryan, Can we buy your products at China? Just Asking'
p786
aS"You're so CUTE Ryannn <3"
p787
aS'Hahahahahahaha xDD'
p788
aS'Dear Ryan plank'
p789
aS'I did...'
p790
aS'I only laugh because that teehee part'
p791
aS'where do you really get the teehee band'
p792
aS'The whole video is somewhat spoofing the "ShamWOOHOO!" video he did.'
p793
aS'Awwwwwa baby a teehee!!'
p794
aS'Dear Ryan,tee hee 150 times in a row in 1min 30sec'
p795
aS'Teehee!'
p796
aS'The teehee band can help you to read, run, laugh, cry, tickle, giggle, \npickle, fly, look your enemies in the eye, and figure out the end of pi.'
p797
aS"it's not teehee band, it's TEEHEE band.. i laughed so hard i'm crying"
p798
aS'Me too! Lol.'
p799
aS"whats 'YTF'"
p800
aS'TEHEE '
p801
aS'You Should Check Out hoiistroi .. Its a Funny Channel & They Make Hilarious \nVids About Rolanda & Richard'
p802
aS"ha...ha.. funny -.-'' "
p803
aS'Hahahaha 0:55'
p804
aS'Bad joke at 17 hours ago.'
p805
aS'0:30 YTF!! '
p806
aS'WOOHOO TEEHEE'
p807
aS'I spilt table all over my liquids'
p808
aS'Among all his products , the teehee band is the only one you can actually \nbuy! =p'
p809
aS'Its bad idea to watcn his videos while drinking ._.'
p810
aS'Ryan could rap mad hard Cuz he talk to fast'
p811
aS'I WANT ONE!!'
p812
aS'TRUE?!!!!!!!!!!!!!!!!'
p813
aS'my friend and I love to say TEEHEE!!!!!!!!!!'
p814
aS'Was i the only one who thought he was gonna have an orchestra of him saying \nTeehee?'
p815
aS'who saw the ytf at the end of pie?'
p816
aS'"THIS IS THE NEW AND IMPOVED VERSION OF THE \'ShamWOOHOO\' JUST WITH THE NEW \nTEEHEEBand!!!" "SO ORDER NOWWWW XD!!!!!"'
p817
aS'Dude: "This video! Shut up already!" Me: You BARREL! >:('
p818
aS'HAHAHAHHAHAHHAh!!!!'
p819
aS'TEEHEE!!!!'
p820
aS'When he says pickle, he looks like he is making that one meme face xD'
p821
aS'Now i get the Tree.99 :)'
p822
aS'0:56'
p823
aS'lol this is the funniest video ive ever watch :DTEEHE band not teehe but \nTEEHE'
p824
aS"0:56 that's why i like him :D"
p825
aS'OAO I SPILLED TABLE ALL OVER MY LIQUID. '
p826
aS'I spilled table all over my liquid.'
p827
aS'nhanh vl, deo hieu gi luon'
p828
aS'TeeHee'
p829
aS'No, but he has a ShamWooHoo with ur name on it! XD'
p830
aS'I know wat I want for Christmas now'
p831
aS'Shamwohoo!! :)'
p832
aS'The only product which you can actually buy...'
p833
aS'NOTICE THE STARTING, RYAN HIGA SAID: Have you ever happened to this LOLS'
p834
aS'oh no I spilled table on my liquid... wait that is normal'
p835
aS'Do you guys realized that he said "Have you ever happened to this?" when it \nis supposed to be "Have this ever happened to you?"'
p836
aS'I hate it when people try to disguise their advertising lol.... Still love \nRyan though :)'
p837
aS'Did anybody see the ytf'
p838
aS'I spilled table all over my liquids too. Got a teehee rag I can use to \nclean it up....?'
p839
aS'I want a teehee band'
p840
aS'TEEHHEEEE!'
p841
aS'for only TREE.99! xD'
p842
aS'Thumbs up if you think Ryan should make this a real product.'
p843
aS"I just can't stop watching! :) XD"
p844
aS'I meant sham woo hoo'
p845
aS'lots did.'
p846
aS'just got a teehee band! :D'
p847
aS'Beginning " Have you ever happened to this " . I never noticed that mistake \nbefore.'
p848
aS'lol anybody catch "Have you ever happen to this" in the intro? '
p849
aS'your so funny!!!!!!! '
p850
aS'"Have you ever happened to this?" hahaha '
p851
aS"so many TEEHEE's xD "
p852
aS'teehee.com does not exist :) '
p853
aS"0:01 yeah that's happen to me many times..."
p854
aS'Hahahahahaha hahahahahaha lol'
p855
aS'Exactly.'
p856
aS'tee hee 10 x'
p857
aS'TEE HEE'
p858
aS'YTF'
p859
aS'I have a TEEHEE shirt! I freaking love it!'
p860
aS'me too O:'
p861
aS"Now he's making parodies of his parodies..."
p862
aS'Im so sick of people saying that 2.'
p863
aS'do you have a cat?'
p864
aS'WTF I JUST WATCHED?'
p865
aS'Teehee'
p866
aS'0:56 LOL'
p867
aS'When I first read the title I though it meant a musical band relating to \nTEEHEEs...'
p868
aS'TEEHEE band'
p869
aS'that bitch stole my microwave! give it back dick!'
p870
aS'have you ever happen to this hahaha'
p871
aS'L O O O O O L'
p872
aS'Ryan: "tickle, pickle (holds up a carrot) xD wow hahaha'
p873
aS'OMG I JUST WENT TO THE STORE AND THERE IS SOME MUCH AWESOME TEEHEE \nSTUFF.... to bad I cant get any where I live.... poo'
p874
aS'is marley the dog?'
p875
aS'i see marley 0:26 '
p876
aS'I thought it would be about the people who appear in his music videos, lol'
p877
aS'3.1415926535897932384YTF XD'
p878
aS"I'm your fan!!!"
p879
aS"I'm defiantly buying a lot of stuff from your store :D"
p880
aS'mee too'
p881
aS'Many ppl did. Trust me. That would make an awesome vid, though! XD'
p882
aS'3.141592653589793238462643383279502884169399375105 and I am only 11 years \nold'
p883
aS'Ummm Sureeeeeeee~'
p884
aS'I just table my liquid '
p885
aS'TEEHEE! '
p886
aS'its obvious that you copied from the internet'
p887
aS'lol pause at 0:23 '
p888
aS'YTF is in the end of Pi'
p889
aS'Ripping off MJ lol'
p890
aS'nice job on the video '
p891
aS'well, well, well. look who it is'
p892
aS'epicness '
p893
aS'Your copy skill is epic lol'
p894
aS"You want a dog? It is there... You want a cat? It is there... You want \nanother band? That's another tree.99 ... lol"
p895
aS'well thats perfectly normal! :D'
p896
aS'I should proabaly turn the sound on this video down. TEEHEE'
p897
aS'This was amazing but the shamWOHO was better'
p898
aS'TEEHEE!'
p899
aS'i cant stop laughing at the TEEHEE band!'
p900
aS'YTF=Yesterday, Today, Forever Your welcome.'
p901
aS"he wasn't disguising it ... he literally made a whole video about it and \nthen put where to get it in the description..."
p902
aS"00:56 well ain't that a purty face..."
p903
aS"This was published on my sis' bday"
p904
aS'wonder how many teehee appear?'
p905
aS'damnit, i only have memorized 16 digits... 3,1415926535897932'
p906
aS"These guys need a tee hee! band. It'll help them to; read, run, laugh , \ncry, tickle, pickle, giggle, fly, look their enemies in the and and figure \nout the end of pi!"
p907
aS'Will the shamwoohoo help with tables all over my liquids? Wait that sounded \nwrong'
p908
aS'end of pi was ytf! rlly ryan? a pickle is green not carrot looking! sheesh!'
p909
aS'Go to his video called "a message to all haters" its for you! Btw you have \nno videos and no subscribers'
p910
aS'HAVE YOU EVER HAPPENED TO THIS? '
p911
aS'i smell a hate head over here that drinks haterade'
p912
aS'Lol "hav u ever happened to this?"'
p913
aS'Like help you to read! Run! Laugh! Cry! Tickle! Giggle! Pickle! Fly! Look \nyour enemies in the eye and figure out the end of pi!'
p914
aS'Mmmm OK! :]'
p915
aS'(\xe2\x95\xaf\xc2\xb0\xe2\x96\xa1\xc2\xb0)\xe2\x95\xaf\xef\xb8\xb5 \xe2\x94\xbb\xe2\x94\x81\xe2\x94\xbb I Spilled table all over my liquid!!!'
p916
aS'dats the 1st thing I noticed. XD'
p917
aS'when he said pickle it was a carrot'
p918
aS'Did anyone notice when he said "read" the book was upside-down? 0:24'
p919
aS'No wonder why he is so famous'
p920
aS'Quotes video. gets top comment.'
p921
aS'ikr XD '
p922
aS'just when i was gunna comment about that. XD YOU RUINED IT!!!! :P'
p923
aS'Dear Ryan, Can you play Minecraft?'
p924
aS'@Niallakanialler i love your username'
p925
aS'After reading ur comment i did..'
p926
aS'I know right! '
p927
aS'no. no ur not XD'
p928
aS'Did anyone notice he was holding a carrot when he said pickle? 0:27'
p929
aS'OMG,I THOUGHT EXACTLY THE SAME'
p930
aS'not that it was a JOKE or anything. no, Ryan would NEVER say somthing like \nthat.'
p931
aS'Best Face EVER!!!! 0:57'
p932
aS'This is kind of a copy of "ShamWOOHOO!!"'
p933
aS'YTF!'
p934
aS'Want the teehee band'
p935
aS'Hehe~! '
p936
aS'Ryanhiga is fake... i make way more better videos than this bullshit'
p937
aS'the carrot is a pickle in disguise'
p938
aS'I want the TEEHEE band'
p939
aS'just ordered one!'
p940
aS"ryan's brother in the end. hahaha"
p941
aS'I SPILLED TABLE ALL OVER MY LIQUIDS. '
p942
aS'Hehehehehehehheh :)'
p943
aS'Tee Hee Pi = 3.141592653589793YTF tee hee!'
p944
aS'oh ok~ :)'
p945
aS'@0:56 LOL'
p946
aS'Call this number: HigaTV.com (number should have nubers in it, right? :D)'
p947
aS';)'
p948
aS'THE SHAMWOOHOO is so much like this!'
p949
aS'only a special amount of people can watch my videos...its not for everyone '
p950
aS'Lol so purchasing everything he has on higatv.com x)'
p951
aS'I less than tree nigahiga videos'
p952
aS'Ytf '
p953
aS'XD so funny and so annoying! XD'
p954
aS'"This channel has no videos."'
p955
aS"But wait... There's more!"
p956
aS'Only if you look reeeeeeealy close'
p957
aS'teeeheeee '
p958
aS'ummmmm..... nice face o.O'
p959
aS'no, no u arnt'
p960
aS'pause at 56 XD'
p961
aS'All you have to do is call this number.... HigaTV.com!!!'
p962
aS'0:58 = epic face'
p963
aS'tou remind me of tis guy I like he is as funny as you but to me he is SO \ncute your ummm (Trying not to sound creepy or anything) cute I guess'
p964
aS'Well that is perfectly normal'
p965
aS'I thought by teehee band, you meant that it was a musical band singing \nteehee, not an armband :p'
p966
aS'Dont forget to pay Tree.99'
p967
aS'man !! you have the cutest pets ever'
p968
aS'No'
p969
aS'"Have you ever happened to this?" Hahah Ryan <3'
p970
aS'I spilled table all over my liquids!....... Well thats perfectly normal! \nb^^d'
p971
aS'who got the 21 and over add'
p972
aS'the end of pi is ytf lol '
p973
aS'0:30 YTF!!!!'
p974
aS'2453 people must be racist'
p975
aS'no srry i ment 0:56 '
p976
aS'lol'
p977
aS'call this number... higatv.com'
p978
aS"Man, I've only got Tree.98"
p979
aS'SHAMWOOHOO'
p980
aS'TEEHEE BAND= the new One Direction '
p981
aS'have you ever happened to this XD'
p982
aS'when ever i saw the title i thought that teehee got band because of copy \nright '
p983
aS'The TEEHEE band ;P'
p984
aS'Pickle ---> Carrot '
p985
aS'0:24 is the best part!'
p986
aS'its worth 99.me?'
p987
aS'"Have you ever happened to this?"'
p988
aS'Excuse me, Ryan! I sent a tree and .99 to you but my teehee band is not \nhere.....'
p989
aS'It gives you another fist!'
p990
aS'i thought it was going to be a real band like one direction or somthing'
p991
aS'Whare is my cat ?'
p992
aS'he meant to do that its the oppisite of his sham whoohoo video'
p993
aS'\xee\x90\x95I really enjoyed this video'
p994
aS'I did!!!!!!'
p995
aS'Have you ever happened to this?'
p996
aS'WHO here pause at 0.56'
p997
aS'i spilt table all over my liquids.ha halarius'
p998
aS'anyone notice at 0:01 nigahiga said, I spill table all over my liquids!'
p999
aS'0:56'
p1000
aS'You should really start selling, TEE HEE bands. I would buy one. And \nsomewhere on it, it should have a picture of a tree, then a dot, then 99. \nLol. But seriously. I want one.'
p1001
aS'.....'
p1002
aS'Actually it does exist'
p1003
aS'Almost Same as shampoo hobo'
p1004
aS'does he even own the cat?'
p1005
aS'thats his brother who says this video shut up already!'
p1006
aS"hjddjmsnk csadfgASDFGHJKL;'\\ "
p1007
aS'Dear Ryan, say tee hee 150 times in a row in 1 min 30 sec'
p1008
aS'dear ryan: i miss videos like this. love it! TeeHee. im gana buy a shirt. '
p1009
aS'nice'
p1010
aS'teheeee hahahaha watch my ART & MOVIE TRAILER ON MY CHANNEL :D '
p1011
aS'omg'
p1012
aS'have you ever happened to this ? lol'
p1013
aS"It's TEEHEE."
p1014
aS'No, I meant to write it like that.'
p1015
aS'THIS IS SO RANDOM HAHAHAHAAHAHAHAHA'
p1016
aS'Get that table of the ground boy!'
p1017
aS'heart-attack waiting to happen, 0:56'
p1018
aS"you want a dog? TEEHEE it's there. you want a cat? TEEHEE it's there. you \nwant another teehee band? TEEHEE that's another 3.99!!!!"
p1019
aS'0:30 SUBLIMINAL MESSAGING. '
p1020
aS'*Pi'
p1021
aS'teehee XD'
p1022
aS'thats what you think...TWIST '
p1023
aS'0:01 Have you ever happened to this?'
p1024
aS'I want a band so I can say to my friends why don\'t you get a " TEEHE " band'
p1025
aS'" I spilled table all over my liquids" lol'
p1026
aS'Been waiting for Another woohoo in a video I finally see it two years later'
p1027
aS'is that his brother? man fine-ness must be genetic!'
p1028
aS'Have you ever happen to this?'
p1029
aS"That's the point -___-"
p1030
aS'So funny! I can just die :)'
p1031
aS'dear ryan: can u dp thing like a boss?'
p1032
aS'did anybody noticed the carrot when Ryan said pickle? '
p1033
aS'"Have you ever happened to this?! I spilled table all over my liquids!" LOL \nJust made my day!'
p1034
aS'...'
p1035
aS'VOLDEMORT SPILLED TABLE ON MY LIQUIDS!! (\xe2\x95\xaf\xc2\xb0\xe7\x9b\x8a\xc2\xb0)\xe2\x95\xaf\xef\xb8\xb5\xe2\x94\xbb\xe2\x94\x81\xe2\x94\xbb'
p1036
aS'Lolz " Have u ever happened to this?" Phuckin hilarious without him even \nknowing XD'
p1037
aS':('
p1038
aS'0:24 yeah it totally helps you read upsidedown books/magazine/readable \nobjects'
p1039
aS'thats what i was just gonna type!'
p1040
aS'dont say teehee band say TEEHEE >.< BAND say it like that'
p1041
aS'I have happened to that! I hate it when my tables spill all over my \nliquids. SIGN ME UP FOR THIS!'
p1042
aS'Thumbs up if you tried to go to HigaTV.com!'
p1043
aS'"Have YOU ever happened to THIS? I spilled TABLE all over my LIQUIDS!" \nahhh, I see whatchu did there!'
p1044
aS'0:50 this video shut up already!!!!! ryan: order..order now lol'
p1045
aS'Did anybody noticed that when the video started, he said "have you ever \nhappened to this?" or is it just me....?'
p1046
aS'HAVE YOU EVER HAPPENED TO THIS?!'
p1047
aS'I spilled table all over my liquid lolz'
p1048
aS'LOL PAUSE AT 0:56'
p1049
aS'TEEHEE'
p1050
aS'Have you ever happened to this?'
p1051
aS'0:26 O.o'
p1052
aS'8 teehees '
p1053
aS'I spilled table all over my liquids! lol'
p1054
aS'I like how HigaTV.com is a number'
p1055
aS'LMAO at the beginning'
p1056
aS"Dear Ryan, So...My birthday is in...December...and...on December 20th...can \nyou make a big happy birthday to Courtney Alexander video...so everyone can \nknow my birthday... cuz...my mom's birthday present in December 20th 1999, \nyou know, 5 days before Christmas, early birthday gift...is me. :) Think \nyou can do that for me? <3 I know u do allot of work, but it'll be really \ngood to know that others know my name and my birthday on YouTube, or anyone \nin fact. You can do whatever u think of. Just try."
p1057
aS'I waaaaaaaaanttt !!!!!!!'
p1058
aS'I WANNA BUY ONE D: '
p1059
aS'nice cat whats the name'
p1060
aS'"I spilled table all over my liquid!" HAHA XD'
p1061
aS'ur so funnny :)'
p1062
aS"Press '2' on your keyboard. I LAUGHED HAHAHAHAHA"
p1063
aS'ya he did, tree sounded like tree-hee. :) haha'
p1064
aS'Ya i think so, i never noticed it O.o'
p1065
aS'like if you tried saying TEEHEE like him '
p1066
aS'\xef\x81\x94\xef\x81\x85\xef\x81\x85\xef\x81\x88\xef\x81\x85\xef\x81\x85'
p1067
aS'And from the studio of the iNavigator!!!!'
p1068
aS'0:55 its the sham'
p1069
aS'(\\(\\ (-.-) o_(")(")'
p1070
aS'I always spill tables over my liquids:('
p1071
aS'just like the shamWOOHOO'
p1072
aS'i want one................. stupid thing '
p1073
aS'I say TEEHEE and WOOHOO all the time now.'
p1074
aS'So did i -.-'
p1075
aS'FUCK BOTS'
p1076
aS'Obama just won the election! 2008-2016'
p1077
aS'me 2 '
p1078
aS'My Teehee band arrived today :D'
p1079
aS'HAVE YOU EVER HAPPENED TO THIS yes'
p1080
aS'shamWHOOHOO '
p1081
aS'whatever happend to that cat '
p1082
aS"When someone spill something i'm like, did you spill table all over you \nliquids?"
p1083
aS'Have you ever happened to this? :D'
p1084
aS"TREE.99? I'M ORDERING IT! :D"
p1085
aS'The top comment sucks ass.'
p1086
aS'The pickle was a carrot. ._.'
p1087
aS'I AM SO GETTING THIS FOR MY BIRTHDAY!!!! or maybe a teehee hood or a teehee \nt-shirt i dont know do you i dont know im a cat'
p1088
aS"PSSSSSSH i can draw wayyyy better. _________ it's a BIGGER snake. (O___O) \nit's your moms face. :( it's a frowny face. ok maybe i AM that good."
p1089
aS'Luv ya Ryan!'
p1090
aS'i thought it was music band'
p1091
aS'How funny:D'
p1092
aS'what did i just watch'
p1093
aS'TEEHEE :) LOL'
p1094
aS'*Notice in the beginning when he said he "spilled table all over his \nliquid" and got upset but actually spilled it after he was sad about it. \nlmao XD'
p1095
aS'Read, run, laugh, cry, tickle, giggle, pickle, fly, look your enemies in \nthe eye, and figure out the end of Pie.'
p1096
aS"you're still watching it..."
p1097
aS"hey anyone notice that when he said pickle he was holding a carrot ? 'o'"
p1098
aS"I'm pretty sure that's part of the joke."
p1099
aS'i thougth there will be an actuall band singing'
p1100
aS'i want a TEEHEE band!!!!!'
p1101
aS'all your dreams can possible may not coem true hahaha'
p1102
aS'Yeah. Someone already pointed it out (i read the comment b4 i watched the \nvid), so i didnt mention it.'
p1103
aS'EVERY TIME I TRY I CANT SAY TEEHEE LIKE RYAN'
p1104
aS'I want a ShamTEEHEE & WOOHOO Band '
p1105
aS'Teehee O.o'
p1106
aS'She is so sexy'
p1107
aS'I want a teehee band'
p1108
aS'YTF is at the end of pi...'
p1109
aS'video buffered at 0:57 :P'
p1110
aS'thumbs up if you saw the YTF at the and of pie'
p1111
aS'hahahahahahahahahaha teehee bands ftw'
p1112
aS'Teehee band: have you ever happened to this? I spilt table all over my \nliquid! ShamWooHoo: has this ever happened to you? I spilt liquid all over \nmy table!'
p1113
aS'Oh, hello Cartman xD'
p1114
aS'0:56 priceless!'
p1115
aS'PSSH! i can draw too! ____ its a snake }i{ its a butterfly :) its a smiley \nface ok maybe im not THAT good...'
p1116
aS'i would like to buy you ryan your the package of creativity to make funny \nfilms and super ultra TEEHEE'
p1117
aS'Its not the tehe band its the TEEHEE band hahaha'
p1118
aS"I still don't have a tired fist but I less then three my TeeHee band"
p1119
aS'i have one !! '
p1120
aS"That was no pickle. 'twas a carrot!"
p1121
aS'you could have just told me dude, someone else told me yesterday today \nforever'
p1122
aS'you should look at his latest videos, there is one video there that answers \nyour question'
p1123
aS'I spilt table all over my liquid lol'
p1124
aS'nigahiga is awesome'
p1125
aS'if you keep replaying the teehee part it starts to sound like tity'
p1126
aS'awesome!'
p1127
aS'Awkward moment when the same guy has both the top comments...'
p1128
aS'you are damn right he is'
p1129
aS'I got it yesterday, the teal one <3'
p1130
aS"DON'T LISTEN TO THE UPSET CUSTOMER!!"
p1131
aS'OMG LIKE IF YOU no.'
p1132
aS'try playing 5 same video at different time'
p1133
aS'look up the video YTF youll see :)'
p1134
aS'crap i need another tree'
p1135
aS'So thats what ryans brother looks like :)'
p1136
aS'hole '
p1137
aS'ugh, I HATE IT when I spill my table all over my liqiuds!'
p1138
aS'Guys for tree.99 you can get an extra fist and help to read, run, laugh, \ncry, giggle, tickle, pickle, fly, look your enemys in the eye, and figure \nout the end of Pi!'
p1139
aS'lmao i spilled table all over my liquids'
p1140
aS'does it clean up my dog`s lemonade?'
p1141
aS'hehe , sorry dude but i just dont wanna explain it to you . i want you to \nwatch it for yourself so you can see the video besides its fun to watch.. \nhehe peace'
p1142
aS'Ive got a TEEEEEEHEEEEE band yay'
p1143
aS'RRRRRRRRRRRRRRReeeeeeeeeeeeeeeeeeeeeeeeee piola Well'
p1144
aS'whats YTF?'
p1145
aS'I want a teehee band'
p1146
aS'Did all of your wildest dreams possibly maybe not come true??'
p1147
aS'TEEHEEEEEEE '
p1148
aS"I'm buying one xD"
p1149
aS'BUT CAN YOU PROVE IT'
p1150
aS'I spilled table on my liquids'
p1151
aS'ha pi'
p1152
aS"I have never heard so many teehee's in my life"
p1153
aS'one of his best video'
p1154
aS'YTF. That is why I am here'
p1155
aS'Does it make hot anime boys become real?'
p1156
aS'Hit like if you read the credits! HAHAHA. :D'
p1157
aS'i think thats ryans brother'
p1158
aS'Not really if you are a old nigahiga fan your going to think it is another \nbrand of product'
p1159
aS'Wow! The TEEHEE! Band actually helped me to read, run, laugh, cry, tickle, \ngiggle, pickle, fly, look my enemies in the eye, and figure out the end of \npi! Thanks TEEHEE Band!'
p1160
aS'Lol'
p1161
aS'teehee * 100 '
p1162
aS'Tea hee'
p1163
aS'I want a TEEHEE band'
p1164
aS'this is like weirdest video for long time.. >:o'
p1165
aS'I know that, i am saying, YTF @ THE END OF PI?????'
p1166
aS"me to i thought they would put they're shows into a song or something =)"
p1167
aS'Dear Ryan, can you do League of Legends?'
p1168
aS'at the starting of the video he said have you ever happened to this '
p1169
aS'TEEHEE '
p1170
aS'Dear Ryan, I bought the TEEHEE band, but I still spill table all over my \nliquids..Do I need to spend another $TREE.99?'
p1171
aS'someone should make a song from him going TEEHEE. not teehee, its TEEHEE!'
p1172
aS'TREE.99.... so expensive.'
p1173
aS'TEEHEE!'
p1174
aS'#TEEHEE band'
p1175
aS"Kindly tell me who the hell you're talking to."
p1176
aS'next time my math teacher ask what pi equals thats exactly what im gonna \nsay ^_^'
p1177
aS'Pi = 3.141592653589793YTF LOL'
p1178
aS' Its Yesterday,Today,Forever, I`m right, you`re not. GET IT ? GOT IT ? GOOD \n! '
p1179
aS'whats ytf'
p1180
aS'0:29 ytf at the end of the number.'
p1181
aS'Like if the first time you saw this video you thought it was going to be \nabout a musical band!'
p1182
aS'0:55 .... Scarred for life... x_x'
p1183
aS'I want one!!!! Seriously.....I really want one...so that i can have another \nfist :D'
p1184
aS'I thought it was Yesterday, today, forever o:'
p1185
aS'have you happened to this? I spilled table all over my liquid!'
p1186
aS'I spill table all over my liquids !! ^_^'
p1187
aS'dear ryan can you sing'
p1188
aS'who else noticed at 0:24 that he had the magazine upside down XD'
p1189
aS'i never knew that HigaTV.com was a number lol'
p1190
aS'i know right '
p1191
aS'shut up'
p1192
aS'That looks like my cat!!!'
p1193
aS'0:25'
p1194
aS'Dear ryan, you have the cutest cat (and dog) EVER!'
p1195
aS'idk all i know if that YOMYOMF means : you offend me you offend my family :D'
p1196
aS'DEAR RYANZ: CAN YOU ATTACK KEVJUMBA WITHOUT HIM KNOWING'
p1197
aS'Yesterday Today Forever'
p1198
aS'7 x pi=22 YTF'
p1199
aS'Oh noes! I spilled table all over my liquid!'
p1200
aS'Yesterday, today and forever'
p1201
aS'dear ryan: u shoulda pwned the guy that got punched. lol. '
p1202
aS'the guy at 0:50 is his brother'
p1203
aS'do i know u?'
p1204
aS'have you ever happened to this? 0:00'
p1205
aS'YTF = Yesterday, Today, Forever'
p1206
aS"Yea....it's was embarising......."
p1207
aS'i watched this 8 times and i was still laughing so much i was about to piss \nmy pants XD btw pi? \npi=3.1415926535897932384626433832795028841971693993751052'
p1208
aS'>HAVE YOU EVER HAPPENED TO THIS >I SPILLED TABLE ALL OVER MY LIQUIDS seems \nlegit '
p1209
aS"you're kidding, right?"
p1210
aS'lol at the start have u ever happened to this'
p1211
aS'0:29 , YTF???'
p1212
aS'Can I have one'
p1213
aS'this number: HIGA TV DOT COOOOOOOOOOOOOOM'
p1214
aS'And it gaves you another fist *falcon punch* omg, died!!'
p1215
aS'band..'
p1216
aS'read,run,laugh,cry,tickle,giggle,pickle,fly,look your in the eye and figure \nout the mulityply lol'
p1217
aS'who noticed that he said did you ever happen to this at the beggining \nthumbs for yes'
p1218
aS'nothing'
p1219
aS'i spill table all over my liquids!'
p1220
aS'lololo'
p1221
aS'HAVE YOU EVER HAPPENED TO THIS?'
p1222
aS'\xe2\x94\x8f\xe2\x94\x81\xe2\x94\x81\xe2\x94\x81\xe2\x94\x81\xe2\x94\xb3\xe2\x94\x81\xe2\x94\x81\xe2\x94\x81\xe2\x94\xb3\xe2\x94\x81\xe2\x94\x81\xe2\x94\x81\xe2\x94\xb3\xe2\x94\x93\xe2\x95\x8b\xe2\x94\x8f\xe2\x94\xb3\xe2\x94\x81\xe2\x94\x81\xe2\x94\x81\xe2\x94\xb3\xe2\x94\x81\xe2\x94\x81\xe2\x94\x81\xe2\x94\x93 \xe2\x94\x83\xe2\x94\x8f\xe2\x94\x93\xe2\x94\x8f\xe2\x94\x93\xe2\x94\x83\xe2\x94\x8f\xe2\x94\x81\xe2\x94\x81\xe2\x94\xab\xe2\x94\x8f\xe2\x94\x81\xe2\x94\x81\xe2\x94\xab\xe2\x94\x83\xe2\x95\x8b\xe2\x94\x83\xe2\x94\x83\xe2\x94\x8f\xe2\x94\x81\xe2\x94\x81\xe2\x94\xab\xe2\x94\x8f\xe2\x94\x81\xe2\x94\x81| \n\xe2\x94\x97\xe2\x94\x9b\xe2\x94\x83\xe2\x94\x83\xe2\x94\x97\xe2\x94\xab\xe2\x94\x97\xe2\x94\x81\xe2\x94\x81\xe2\x94\xab\xe2\x94\x97\xe2\x94\x81\xe2\x94\x81\xe2\x94\xab\xe2\x94\x97\xe2\x94\x81\xe2\x94\x9b\xe2\x94\x83\xe2\x94\x97\xe2\x94\x81\xe2\x94\x81\xe2\x94\xab\xe2\x94\x97\xe2\x94\x81\xe2\x94\x81\xe2\x94\x93 \xe2\x95\x8b\xe2\x95\x8b\xe2\x94\x83\xe2\x94\x83\xe2\x95\x8b\xe2\x94\x83\xe2\x94\x8f\xe2\x94\x81\xe2\x94\x81\xe2\x94\xab\xe2\x94\x8f\xe2\x94\x81\xe2\x94\x81\xe2\x94\xab\xe2\x94\x8f\xe2\x94\x81\xe2\x94\x93\xe2\x94\x83\xe2\x94\x8f\xe2\x94\x81\xe2\x94\x81\xe2\x94\xab\xe2\x94\x8f\xe2\x94\x81\xe2\x94\x81\xe2\x94\x9b \n\xe2\x95\x8b\xe2\x95\x8b\xe2\x94\x83\xe2\x94\x83\xe2\x95\x8b\xe2\x94\x83\xe2\x94\x97\xe2\x94\x81\xe2\x94\x81\xe2\x94\xab\xe2\x94\x97\xe2\x94\x81\xe2\x94\x81\xe2\x94\xab\xe2\x94\x83\xe2\x95\x8b\xe2\x94\x83\xe2\x94\x83\xe2\x94\x97\xe2\x94\x81\xe2\x94\x81\xe2\x94\xab\xe2\x94\x97\xe2\x94\x81\xe2\x94\x81\xe2\x94\x93 \xe2\x95\x8b\xe2\x95\x8b\xe2\x94\x97\xe2\x94\x9b\xe2\x95\x8b\xe2\x94\x97\xe2\x94\x81\xe2\x94\x81\xe2\x94\x81\xe2\x94\xbb\xe2\x94\x81\xe2\x94\x81\xe2\x94\x81\xe2\x94\xbb\xe2\x94\x9b\xe2\x95\x8b\xe2\x94\x97\xe2\x94\xbb\xe2\x94\x81\xe2\x94\x81\xe2\x94\x81\xe2\x94\xbb\xe2\x94\x81\xe2\x94\x81\xe2\x94\x81\xe2\x94\x9b '
p1223
aS'\xe2\x94\x8f\xe2\x94\x81\xe2\x94\x81\xe2\x94\x81\xe2\x94\x81\xe2\x94\xb3\xe2\x94\x81\xe2\x94\x81\xe2\x94\x81\xe2\x94\xb3\xe2\x94\x81\xe2\x94\x81\xe2\x94\x81\xe2\x94\xb3\xe2\x94\x93\xe2\x95\x8b\xe2\x94\x8f\xe2\x94\xb3\xe2\x94\x81\xe2\x94\x81\xe2\x94\x81\xe2\x94\xb3\xe2\x94\x81\xe2\x94\x81\xe2\x94\x81\xe2\x94\x93 \xe2\x94\x83\xe2\x94\x8f\xe2\x94\x93\xe2\x94\x8f\xe2\x94\x93\xe2\x94\x83\xe2\x94\x8f\xe2\x94\x81\xe2\x94\x81\xe2\x94\xab\xe2\x94\x8f\xe2\x94\x81\xe2\x94\x81\xe2\x94\xab\xe2\x94\x83\xe2\x95\x8b\xe2\x94\x83\xe2\x94\x83\xe2\x94\x8f\xe2\x94\x81\xe2\x94\x81\xe2\x94\xab\xe2\x94\x8f\xe2\x94\x81\xe2\x94\x81| \n\xe2\x94\x97\xe2\x94\x9b\xe2\x94\x83\xe2\x94\x83\xe2\x94\x97\xe2\x94\xab\xe2\x94\x97\xe2\x94\x81\xe2\x94\x81\xe2\x94\xab\xe2\x94\x97\xe2\x94\x81\xe2\x94\x81\xe2\x94\xab\xe2\x94\x97\xe2\x94\x81\xe2\x94\x9b\xe2\x94\x83\xe2\x94\x97\xe2\x94\x81\xe2\x94\x81\xe2\x94\xab\xe2\x94\x97\xe2\x94\x81\xe2\x94\x81\xe2\x94\x93 \xe2\x95\x8b\xe2\x95\x8b\xe2\x94\x83\xe2\x94\x83\xe2\x95\x8b\xe2\x94\x83\xe2\x94\x8f\xe2\x94\x81\xe2\x94\x81\xe2\x94\xab\xe2\x94\x8f\xe2\x94\x81\xe2\x94\x81\xe2\x94\xab\xe2\x94\x8f\xe2\x94\x81\xe2\x94\x93\xe2\x94\x83\xe2\x94\x8f\xe2\x94\x81\xe2\x94\x81\xe2\x94\xab\xe2\x94\x8f\xe2\x94\x81\xe2\x94\x81\xe2\x94\x9b \n\xe2\x95\x8b\xe2\x95\x8b\xe2\x94\x83\xe2\x94\x83\xe2\x95\x8b\xe2\x94\x83\xe2\x94\x97\xe2\x94\x81\xe2\x94\x81\xe2\x94\xab\xe2\x94\x97\xe2\x94\x81\xe2\x94\x81\xe2\x94\xab\xe2\x94\x83\xe2\x95\x8b\xe2\x94\x83\xe2\x94\x83\xe2\x94\x97\xe2\x94\x81\xe2\x94\x81\xe2\x94\xab\xe2\x94\x97\xe2\x94\x81\xe2\x94\x81\xe2\x94\x93 \xe2\x95\x8b\xe2\x95\x8b\xe2\x94\x97\xe2\x94\x9b\xe2\x95\x8b\xe2\x94\x97\xe2\x94\x81\xe2\x94\x81\xe2\x94\x81\xe2\x94\xbb\xe2\x94\x81\xe2\x94\x81\xe2\x94\x81\xe2\x94\xbb\xe2\x94\x9b\xe2\x95\x8b\xe2\x94\x97\xe2\x94\xbb\xe2\x94\x81\xe2\x94\x81\xe2\x94\x81\xe2\x94\xbb\xe2\x94\x81\xe2\x94\x81\xe2\x94\x81\xe2\x94\x9b '
p1224
aS'Yeah, i do. :)'
p1225
aS'what is that ytf?'
p1226
aS'Yesterday Today Forever '
p1227
aS'When he said "pickle," did he hold up a carrot?'
p1228
aS'Hey look its Ryans brother!'
p1229
aS'Have you ever happened to this... OH MY GOD'
p1230
aS'Yesterday Today Forever'
p1231
aS'it the teehee'
p1232
aS'I spilled table all over my liquids!'
p1233
aS'BIG FOIG'
p1234
aS'just noticed he said "Have you ever happened to this?" lol im slow'
p1235
aS'MEMORIES, GAHHHHHHHHHHHHH. ShamWOOHOO!'
p1236
aS"Are you crazy or mad? I can't stop laughing "
p1237
aS'I thought it was side up down left down down up teehee'
p1238
aS'it is from "acronyms" the DOMINICshow It is weird Remember DTF '
p1239
aS'What is this?'
p1240
aS'that magizene was upside down..........teehee'
p1241
aS'what ytf means?'
p1242
aS'yeah i actualy did see all of it, i just to say it the way it was said in \nthe video.'
p1243
aS'wtf... I just found out that in the beginning he says: have you ever \nhappened to this? XD'
p1244
aS'Yesterday, Today , Forever '
p1245
aS'i love this. TEEHEE. SAY IT LIKE THAT'
p1246
aS'lmfao'
p1247
aS"I know that but i'm saying, YTF @ THE END OF PI????"
p1248
aS'0:27 Carrot instead of pickle.'
p1249
aS'Lol, I just noticed when he said pickle it was a carrot'
p1250
aS'what?'
p1251
aS'The tehee band can help you to: 1-read; 2-run; 3-laugh; 4-cry; 5-tickle; \n6-gigle; 7-pickle; 8-fly; 9-look you pettys in the eye; 10-figuring out the \nend of PI.'
p1252
aS'That is off the sham woohoo'
p1253
aS'Dear Ryan, make TEEHEE longer in one video :)'
p1254
aS'$1.00000000000000000'
p1255
aS"But he isn't an Asian!"
p1256
aS'YOU WANT A DOG TEEHEE ITS THERE YOU WANT A CAT TEEHEE ITS THERE YOU WANT \nANOTHER TEEHEE BAND WELL TATS ANOTHER 3.99 CLASSIC'
p1257
aS"NIGAHIGA NEEDS TO BE BACK ON TOP!! he's so much better than smosh, everyone \nneeds to subscribe"
p1258
aS'WANT IT! \xee\x81\x97'
p1259
aS'im watching this in yea 3030 '
p1260
aS'ytf at 0:28'
p1261
aS'band'
p1262
aS'3.99 i thought it was tree.99 i even started planting the seeds -_- '
p1263
aS'tee hee'
p1264
aS'Lol'
p1265
aS'U put that on kevjumbas wall too! (dont worry ik not a stalker i just saw \nit in the comments)'
p1266
aS'check out my channel please :D'
p1267
aS'hippie'
p1268
aS'Hehe, instead of "have this ever happened to you?", he started with "have \nyou ever happened to this?"'
p1269
aS'tee hee '
p1270
aS'thumbs up if u hate ppl that say thumbs up this or thumbs up that. oh wait \nwhat am i doing.... so if u thumbs up this comment... u hate me :( just \nkidding. but really... im not joking.'
p1271
aS'i spilled table on my pet bear...... he is now a rug'
p1272
aS'yeah of course i\'ve seen it like millions of times if you seen the entire \nvideo you would know he would say "for the simple price of TREE.99 its at \n0:33'
p1273
aS'Who else thought this was gonna be a video about all the different teehees \nhe did?'
p1274
aS"yeah, my bad, i'm actualyy the kind of person that can't take a joke."
p1275
aS'Anyone seen the YTF?'
p1276
aS'I want one'
p1277
aS"I'm using an idea like this for my gov project!"
p1278
aS'read, run, laugh, cry, tickle, giggle, pickle, fly, look ur enemies in the \neye and figure out the end of pi YTF!!!!'
p1279
aS'im not a hippie *looks down* you see im wearing a tie die shirt circular \nglasses loose pants and a head band around my forehead... see im just the \nopposite of a hippie'
p1280
aS'0:01 Have you ever happend to this am i the only one who caught that o.o'
p1281
aS'LAME '
p1282
aS'tee hee bitches'
p1283
aS'why the heck did you do that?!?!?! or are you kidding.'
p1284
aS"Relax dude, of course I'm kidding. My grandma's been dead for years now."
p1285
aS'Hey Ryan, can you do an intervention ?'
p1286
aS'Dem asian faces'
p1287
aS"ryan:you want a dog? (TEEHEE) it's there. you want a cat? (TEEHEE) it's \nthere. you want another band(TEEHEE) well that's another $3.99!!!!!!!!!! XD"
p1288
aS'0:56 tee hee !'
p1289
aS'hes from hawaii'
p1290
aS'Got a lot of time?\\'
p1291
aS"don't you mean TREE.99"
p1292
aS'I just realised he said: "Have you ever happened to this?" In the intro...'
p1293
aS"I know the 840th place of pie it's a seven XO"
p1294
aS'this is too long \xe2\x98\xba\xe2\x98\xbb'
p1295
aS'dont tell me what to do'
p1296
aS'yes'
p1297
aS'Have you ever happend to this? "I spilled Table all over my liquid!"'
p1298
aS'pause at :55'
p1299
aS"Welcome to nigahiga's videos cx"
p1300
aS'TEEEEEHEEEEE TEEEEHEEE TEEEHEEE TEEHEE TEHE TEEEEEEEEEHEEEEEEEE! Teehee \nChoirs are WAY cooler than teehee bands.'
p1301
aS'I also noticed that xD'
p1302
aS'it`s a carrot!'
p1303
aS"am i the only one her that want's this product?"
p1304
aS'how did you do that'
p1305
aS'0:55'
p1306
aS'i love the way u say TEEHEE'
p1307
aS"Moral of the Story: One comment can change your whole life. (You're=You \nAre. I'm grammatically correct)"
p1308
aS'his mom must be then cuz his dad is chinese'
p1309
aS"oh sorry i didn't realize i had school in the comfort of my own home thx \nfor letting me know You'RE so nice"
p1310
aS"LOL HES NOT KOREAN AT ALL! and He's Half american half japanese but he was \nborn In USA"
p1311
aS'i think ytf stands for why the fuck'
p1312
aS'HE is Hawaiian '
p1313
aS'super jarnezy has spread peace once again <3 :)'
p1314
aS"One time I spilled table all over my grandma and now she'll never walk \nagain."
p1315
aS"He's korean Hawaiian Japanese Chinese Russian and ya other things to well \nprobably never know"
p1316
aS'sorry but him being tickled is the biggest turn on..'
p1317
aS'Can we just stop this conversation?'
p1318
aS'0:26 not a pickle '
p1319
aS'not really though'
p1320
aS'ytf is at the end of the number that he shows '
p1321
aS"he's hawaiian you idiots"
p1322
aS'guys spread the peace :) '
p1323
aS'who the fuck told you that?'
p1324
aS"no, he's russian. -__-"
p1325
aS'RYAN, I WANT A TEEHEE BAND '
p1326
aS'he reminds me of Mir from MBLAQ i dont even know why... still awesome \nthough! :D'
p1327
aS"-_____- u guys clearly didn't watch his old vids in his old vids he said he \nwas Hawaiian"
p1328
aS'dude u know u can get it on ebay'
p1329
aS'start at 0:57 and listen to the laugh'
p1330
aS"he's japanese"
p1331
aS'ok fine'
p1332
aS"if u press 1 i bet youll think that ''what the fuck did i do crappy boy'' \nthumbs up if u agree"
p1333
aS"\xc2\xac\xc2\xac mexican....i dont think so.... so why this is not in spanish huh?!! his \nenglish is hard!! you know!!! i'm mexican! this can\xc2\xb4t be T___________T"
p1334
aS'No! He is Korean'
p1335
aS'so is japan, and he says he is japanese, but he was born in hawaii'
p1336
aS'press 7 for rapid THEEHEE'
p1337
aS"He's from Hawaii guys........"
p1338
aS'no, 1:00 face is better'
p1339
aS'Saddie is that you (like if you watch awkward)'
p1340
aS"no he's mexican. you lose! "
p1341
aS"Either way, he has lived in America his whole life so he's actually \namerican."
p1342
aS"no. but you're an idiot. you lose again! HAHAHAHAHA! "
p1343
aS'Since this video was first posted I never noticed that in the first \nsentence he said "Have you ever happened to this?"'
p1344
aS'kevin is taiwanese..'
p1345
aS'FOR THE FIRST TIME MY COMMENT WAS ACTUALLY TOP COMMENT!'
p1346
aS'damn it, I wanted a TEEHEE band'
p1347
aS'0:26 when he said pickle he was holding a carrot hah'
p1348
aS'Wait, WHAT!??!??!?!?! RYAN IS MEXICAN?'
p1349
aS'Of course i knew he was not mexican WHAT DO YOU THINK!? I WAS A SUBSCRIBER \nEVER SINCE 2009!'
p1350
aS"Altair2800 is right. hes japanese... So far i've figured this... Ryan = \njapanese, kevin = chinese, sean = hawaiin... not sure about D-trix, or the \nmissing cast member of nigahiga, Tim Enos aka Helga Fontanilla."
p1351
aS'Ytf is yesterday today forever'
p1352
aS'i really dont fucking care what people say...i got all three teehee bands \n:) and now i can :read,run,laugh,cry,tickle,giggle,pickle,fly,look my \nenemies in the eye and figure out the end of pie 3x as much :3 ...now he \nmade a new one ,and i have to get it lol'
p1353
aS'or the thing he is reading is upsidedown'
p1354
aS'Have you ever happened to this??? hahahahahaha '
p1355
aS'0:10 '
p1356
aS'whose cat is that! '
p1357
aS'I want one! Lol'
p1358
aS'0:56 thats attractive'
p1359
aS'where '
p1360
aS'Lol i seen it!! YTF'
p1361
aS'Love Higa videos <3'
p1362
aS"u wanna dog ?? TEEHEEEE .. it's there u wanna cat ?? TEEHEEEE .. it's there \n!! u want another Band ? Well !! that's another 3.99$ :D"
p1363
aS'hes from korea...'
p1364
aS'epic face at 0.56'
p1365
aS'Can I have a TEEHEE band? Or maybe a shirt? PLEASEEEE....??? '
p1366
aS'Watch Comedycrew9!'
p1367
aS'YOU AND YOUR SEMANTICS '
p1368
aS'the teehee band is awesome!!!! '
p1369
aS"dear.Ryan were's the beef "
p1370
aS'0:30 the end of pie is YTF lolx '
p1371
aS'did anyone notice that he held a carriot and not a pickle o.0'
p1372
aS'Thats sooo John Lajoie!!!!!'
p1373
aS'I want one please \xee\x81\x98\xee\x90\x87\xee\x90\x81\xee\x90\x8f\xee\x90\x91\xee\x90\x91\xee\x90\x91\xee\x90\x91\xee\x90\x91\xee\x90\x88'
p1374
aS'Lol the kitty'
p1375
aS'.....TEEHEE!!!'
p1376
aS"What doeas that have to do with anything? Jay Park is from America, and so \nis Taecyeon. Exo-M is chinese, and they all perform KPOP songs. l really \ndon't think that it matters."
p1377
aS'Then what WERE you going to say and be more specific this time'
p1378
aS"you're*"
p1379
aS'Woohoo! Teehee! Mkay Bye !'
p1380
aS'His kitty looks like Jupiter from Snowybirdy6 and the talking animal \nchannel!'
p1381
aS"He's Japanese."
p1382
aS'it will make u say TEEHEE again!!!!!!'
p1383
aS'i thought it was asia, he\'s dear ryan: can you open your eyes, at the end \nit said "us asians choose to keep our eyes small, your welcome."'
p1384
aS'the end was scary'
p1385
aS'Dear Ryan, can you be a NAYR - a version of you :D '
p1386
aS'it is actually 0:56'
p1387
aS'Dear Ryan-Can you Be the richest man alive?'
p1388
aS'i was being...less.....specific..'
p1389
aS'Pause at: 0:57 Your Welcome'
p1390
aS'Seriously, he is Korean THUMBS UP THIS COMMENT IF YOU AGREE!'
p1391
aS'AHHAAHAHAA! At the start he says : "Have you ever happend to this?!" \ninstead of "Have this ever happend to you?!" XD Oh ryan<3'
p1392
aS'"help you to read" magazine upside down xDD'
p1393
aS'0:56 screen saver'
p1394
aS'This was the first Ryan video i had ever watched...... I watched it the day \nit came out, and thats the day i started crushing......<3 RYAN!!!! TEEHEE'
p1395
aS'0:00 "Have you ever happened to this" LMAO.'
p1396
aS'i also spilled table all over my liquid... D:'
p1397
aS'Ugh I keep on clicking on this thinking as real band that plays music '
p1398
aS'If I can buy a Teehee band then can I buy a Teehee shirt?'
p1399
aS"It's Ryan's older brother. D:"
p1400
aS'i guess no.'
p1401
aS'0:30 ytf at the end'
p1402
aS'I SPILLED TABLE ALL OVER MY LIQUIDS!'
p1403
aS"you can't make it, you gotta buy it!"
p1404
aS'Teehee'
p1405
aS'U want another band? TEEHEE! NO BAND FOR U!'
p1406
aS'Dear Ryan: Can you make anotherSkitzo?'
p1407
aS'i spilled cat all over my galaxy '
p1408
aS'i want a teehee band!'
p1409
aS"LMFAO I didn't understand half of what you were actually saying because I \nwas laughing of the randomness of the video xD"
p1410
aS'In all of his videos with large numbers, somewhere in tht number will be \nYTF... 0:30'
p1411
aS'wow only took 11 minutes '
p1412
aS'i spilled life all over my awkward. then i cleaned up with my shamWOOHOO \nbut it fell all over my unfair and there was still a lot of awkward in \nit..... awkward....'
p1413
aS'Pause at exactly 17 secs he looks like slender'
p1414
aS'\xc2\xad\xc2\xad\xc2\xad'
p1415
aS'l have auditioned 5 times, and l wont give up, so l am trying.'
p1416
aS'i know right i noticed too'
p1417
aS'0:56 omd that faceeeee! xDDDD'
p1418
aS'when he said pickle he pulled out a carrot. 0.0'
p1419
aS'rofl! That face at the end XD'
p1420
aS'0:56'
p1421
aS'0:27 that pickle is a carrot'
p1422
aS'I saw YTF! =^-^='
p1423
aS'DEAR RYAN, can you gangman style'
p1424
aS'I tried dialing the # but my phone has no letters on it.'
p1425
aS'0:24 how i read'
p1426
aS'Ryan! What are your opinion on the latest Oppa Gangnam Style? Would you \never make your version of cover of it? hahahaha. No offense!'
p1427
aS'shamwoohoo'
p1428
aS'I SPILLED TABLE ALL OVER MY LIQUIDS!'
p1429
aS'DEAR RYAN, can you gangman style'
p1430
aS'Any notse Ytf a 0:30 '
p1431
aS'tree.99 LOL'
p1432
aS'yeah i kept replaying it over and was about to say that'
p1433
aS'So you read the yellow pages book upside down? Very interesting. :)'
p1434
aS'0:27 Did Anyone Else Noticed That Carrot?'
p1435
aS'0:55 WTF!? oh... LOL :D'
p1436
aS'did you ever happen to this? xD hahahahahahahaha xD'
p1437
aS'dear ryan - can you gangnam style'
p1438
aS'0:56 :D '
p1439
aS'wait....what? I am all sorts of "what" right now'
p1440
aS'I spilled youtube all over my reality.'
p1441
aS'That TEEHEE band is so cool .. Wait, if you read this make sure you read it \nas TEEHEE, not teehee I repeat TEEHEE ...'
p1442
aS'HAVE YOU EVER HAPPEN TO THIS? Anyone noticed this? HAVE THIS EVER HAPPEN TO \nYOU? :O'
p1443
aS'can i order the dog, the cat, the bracelet, and an alpaca?'
p1444
aS'I wonder if you can really get one...'
p1445
aS'That geeky face is so cute! :)'
p1446
aS'"Did you ever happen to this?" anyone else notice thats the first thing he \nsaid?'
p1447
aS'I NEED TO HAVE ONE OF THOSE!!!!'
p1448
aS'can i have one? LOL '
p1449
aS'That upside-down magazine.'
p1450
aS"Dear Ryan, what's teehee i had translated it in google translate "
p1451
aS"I can't buy because I don't have a credit card T_T"
p1452
aS'Autocorrection : Has this ever happened to you?*'
p1453
aS'no, he is german.'
p1454
aS'Look your enemies in the eye? lol,he is looking at the cat, it should be \nlook you cat in the eye '
p1455
aS"WOOHOO!! memories :')"
p1456
aS'The Teehee notebook is trippy =['
p1457
aS'0:10 '
p1458
aS'The TEEHEE band helps you read, run, laugh, cry, tickle, giggle, pickle, \nfly, look your enemies in the eye, and figure out the end of pi. '
p1459
aS'the end of pie was ytf '
p1460
aS'TEEHEE'
p1461
aS'Lol "there nothing that the TEEHEE band can\'t not do!!"'
p1462
aS'Ummmmmmmm (awkward silence)'
p1463
aS'teehee'
p1464
aS'0:56 priceless'
p1465
aS'Ryan looks hot in that white shirt :)))'
p1466
aS'0:30 YTF :O '
p1467
aS'he said "all your wildest dreams could possibly may not come true!" lol '
p1468
aS'0:29 hidden YTF lol.'
p1469
aS'ya'
p1470
aS'Who bought the teehee band?'
p1471
aS'i litterally pissed my pants after 0:25 - 0:30 '
p1472
aS'seems like he has more of a life than u -.-'
p1473
aS'haha pause his face at 0:40'
p1474
aS'NigaHiga, I videos your love!'
p1475
aS'0:29 pi = 3.141592653589793YTF!!!'
p1476
aS'0:29 his face is sooooow cute!'
p1477
aS'AWW MAN I DID TO! I HATE WHEN THAT HAPPENDS LOL ;D'
p1478
aS'0:01'
p1479
aS'i copied the table thing at school... i got detention'
p1480
aS'Press 9.'
p1481
aS'ryans brother!? still ryan is hotter, hahaha...'
p1482
aS'"I spilt table all over my liquids" D:<'
p1483
aS'Am I the only who spilled table all over my liquid?'
p1484
aS'i spilled cum all over your mom(; '
p1485
aS'"and figured out the end of phi" '
p1486
aS'TEEEEEEEEEEEEEEEEEEEEEEEEEEEEEEEEEEEEEEEE \nHEEEEEEEEEEEEEEEEEEEEEEEEEEEEEEEEEEEEEEEEEEEEE HOLE '
p1487
aS"I figured out the end of pi when I was 6, it's e."
p1488
aS'Maybe you`re the fake one for calling him fake. Idiots these days don`t \nknow the meaning of fake & real. Go to school! '
p1489
aS"I spilled planet all over my ocean. It wasn't really my planet, though. Or \nmy ocean. In fact, I stole it from some random dude named Earth. Gosh, he \nwas so heavy, too! Like he was filled with molten rock or something."
p1490
aS'lol science jokes... TEE HEE '
p1491
aS'this is the funniest movie on earth :3 '
p1492
aS'I SPILLED TABLE ON MY LIQUIDS -.-'
p1493
aS'i did!'
p1494
aS'Get a life, troll.'
p1495
aS'Dear ryan higa, do you sucks your your shoes to your mouth so you can be \ncan friends with sean monsters friends?'
p1496
aS'right, the number is: higaTV. com'
p1497
aS'The TEEHEE BAND! Not the teehee band the TEEHEE BAND! SAY IT LIKE THAT! LOL'
p1498
aS'wat does YTF mean'
p1499
aS'The question does not mach system-456 11812/5 Please try again.'
p1500
aS'It sounds like the TEEHEE band is a new kind of drug :)'
p1501
aS"the teehee band does many other things aswell as: read, run, laugh, cry, \ntickle, giggle, fly, look your enemy's in the eye and figure out the end of \npie! Thanks for reading my Poem :3 TEEHEE"
p1502
aS'0:51 you kinda look like Elvis :D'
p1503
aS'EEEETH?'
p1504
aS"Holy Crap I'm going to high school and I'm gonna be fresh meat wat the Fuck \ndo I do"
p1505
aS'I just realised he said all your dreams could possibly not come true lol.'
p1506
aS'HEETEE'
p1507
aS'TEEHEE'
p1508
aS'TEEHEE'
p1509
aS'2,387 people called HigaTV.com, and tried to pay tree.99'
p1510
aS'TEEHEE'
p1511
aS'hahaha'
p1512
aS'Pi*'
p1513
aS"NO! dont actually, i'll get the blame if you end up on the news..."
p1514
aS'The TEEHEE band helps you to read, run, laugh, cry, tickle, giggle, fly, \nlook your enemies in the eye and figure out the end-o pie'
p1515
aS'I luv ur smile! so kiut!'
p1516
aS'anyone notice at the end of pi there is YTF?'
p1517
aS'TEEHEE'
p1518
aS'TEEHEE :3'
p1519
aS'I thought he was gonna sing '
p1520
aS'the end of pie is YTF'
p1521
aS"''Have you ever happened to this?'' :D "
p1522
aS'TEEHEE'
p1523
aS'TEEHEE'
p1524
aS'TEEHEE :) '
p1525
aS'0:24 Anyone notice that the book was flipped?'
p1526
aS'well the teehee band proves that wrong...it ends in ytf =]'
p1527
aS'0:00 to 0:07 is the best'
p1528
aS'TEEHEE'
p1529
aS'TEEHEE'
p1530
aS'press 9 :)'
p1531
aS'I spilled table all over my liquid XD.'
p1532
aS"No, I haven't ever happened to that :)"
p1533
aS'yay my teehee band finally arrived!'
p1534
aS"Why did they do this commercial? Because TEEHEE that's why..."
p1535
aS'Did anyone notice when he said pickle he pulled out a carrot? O.O'
p1536
aS'guys i think this rules'
p1537
aS'i know dude it shows geez'
p1538
aS'CCCOMBO-BBBREAKERRRR'
p1539
aS'The ending'
p1540
aS'cuz it helps with a lot of things'
p1541
aS'TEEHEE'
p1542
aS'TEEHEE'
p1543
aS'How does The Teehee Band help this problem 00:01'
p1544
aS'When he was reading the book was upside down O.o'
p1545
aS'pickle*'
p1546
aS'TEEHEE'
p1547
aS"pi doesn't end"
p1548
aS'Teehee'
p1549
aS"What 's your real name?"
p1550
aS'where can I get my TEEHEE band?'
p1551
aS'Have you ever happened to this??xD'
p1552
aS"someone should try to find all the YTF's and put it into a video like \npeople do with the TEEHEE's."
p1553
aS'U like sushi chinese man?'
p1554
aS'who invented "tee hee"?'
p1555
aS'well thats another 3.99 i thought it was tree.99'
p1556
aS'"Have you ever happened to this?" LOL! Made me laugh the first 3 secs...'
p1557
aS'all your wildest dreams could possibly not come true! :D'
p1558
aS'Either the world would be very good humored...or stupid. LOL'
p1559
aS'Most of are like this..'
p1560
aS"I got my teehee band a couple of days ago and it's awesome! XD"
p1561
aS'lol have you ever happend to this !! '
p1562
aS'The end of pi is YTF. Seems legit.'
p1563
aS'it would be a beautiful beautiful world'
p1564
aS'it said pickle but he was holding a carrot hahaahha'
p1565
aS'like helping you to read, run, laugh, cry, tickle, giggle, fly, look your \nenemies in their eye, help you figure out the end of pie. LOL '
p1566
aS'Haha That Was The Sexiest Face I Have Ever Seen At The End Of This Video.! '
p1567
aS'spoiler..'
p1568
aS"Did anyone else notice he had a carrot when he said ''Pickle'' 0:27"
p1569
aS'uh.. fun!?!?!?!?!?!?!'
p1570
aS'did anyone noticed that he got the magazine backwards? 0:25'
p1571
aS'YTF at :30'
p1572
aS'Put that table back up !! NOW !!'
p1573
aS'Free Games at ROBLOX.com '
p1574
aS"i cant stop laughing he's cute "
p1575
aS"Aaaaaaaaaaaaaah I'm sorry xD in german it's adhs o.o xDD"
p1576
aS'THe TEEHEE BAND LOL'
p1577
aS"that's the whole point"
p1578
aS'yeah and at 0:01 he says i spilled table all over my liquid'
p1579
aS'adhs o.o ads is something different :o its when you have problems to \nmemorise something :)'
p1580
aS'did anyone notice that ytf in that number ^O^'
p1581
aS'0:45 Call this number " higatv.com" Lol'
p1582
aS'ONLYTREE 99! '
p1583
aS'Notice on the pickle part that its a carrot lol '
p1584
aS'Lol ~dat face~'
p1585
aS'i found the ytf'
p1586
aS"0:30 YTF at the end of pi! He's pointing to it...unless I'm just stating \nthe obvious"
p1587
aS'read run laugh cry tickle giggle pickle fly look your enemies in the eye \nand figure out the end of pi'
p1588
aS'I have 1'
p1589
aS"Ryan whats your cats name? sorry i'm curious "
p1590
aS'yes..yes everyone noticed that'
p1591
aS'NO'
p1592
aS'I want one'
p1593
aS'No.'
p1594
aS"THUMBS UP IF YOU LOL'D AT RYAN'S FACE AT THE END"
p1595
aS'0:01 thumbs up if you see dish!'
p1596
aS"THAT'S NOT A PICKLE! IT'S A CARROT!"
p1597
aS'Alta\xc3\xafr always speaks wisdom:) Thanks brother:)'
p1598
aS"i'm runningg a nigahiga marathon lol"
p1599
aS'Wtf?'
p1600
aS"well that's perfectly normal"
p1601
aS'Did anyone notice at 00:27 wen it says "pickle" he takes out a carrot ha'
p1602
aS'Pause at 0:00'
p1603
aS'I saw the dog at 0:26'
p1604
aS'I SPILT TABLE ALL OVER MY LIQUIDS! '
p1605
aS'he did that on purpose'
p1606
aS'have you ever happened to this?? LOL'
p1607
aS"I just realized.... Have you ever happened to this? .. I'm slow."
p1608
aS'notice the " have you ever happened to this?"'
p1609
aS"Well that's perfectly normal."
p1610
aS'What did he say?'
p1611
aS'YTF is at 0:30'
p1612
aS'I spill table all over my liquid *SLAM* '
p1613
aS'TREE 99 LOOOL TEEHEE'
p1614
aS'TeeHee :))'
p1615
aS'It does many others things as well such \nas:Read,run,laugh,cry,tickle,giggle,pickle,fly,look your enemies in the eye \nand figure out the end of pie.'
p1616
aS'He says random things so quickly and unexpectedly, but he is still so funny.'
p1617
aS'YTF at the end of the numbers'
p1618
aS"I ordered one in early April and it still hasn't come... -_-"
p1619
aS'When I see this, I miss the ShamWOOHOO more then ever.'
p1620
aS'TEEHEE TEEHEE TEEHEE TEEHEE'
p1621
aS'I never knew that at the end of pie was YTF'
p1622
aS'after all the times i watched this video i never realized that the pickle \nwas a carrot...'
p1623
aS'0:29 i saw it , Why that fuck !'
p1624
aS'Read, run, laungh, cry, tickle, giggle, pickle, fly, look your enemies in \nthe eye, and figure out the end of pie. CHANLLENGE PASSED '
p1625
aS'anyone notice the pickle was a carrot..... '
p1626
aS'dont you hate when you are taking a drink and then all of a sudden you \nspill your table all over it? yeah thats never happened to anyone but if it \ndoes order the shaw WOOHEE'
p1627
aS'I thought another band was another TREE. 99'
p1628
aS'He says "Have you ever happened to this"'
p1629
aS'Ryan your faces '
p1630
aS'Pause at 0:56 O_O'
p1631
aS'i told my teacher that the end of pi was YTF and she had me tested'
p1632
aS'did anyone else relise that the pickle was a carrot :P '
p1633
aS'what does the TEEHEE band have to do with spilling your table over your \nliquid? LOOOOOOOOOOOOOOOOOOOOOL'
p1634
aS'Well that perfectly normal'
p1635
aS'did anyone notice that he was holding a carrot at 0:26 ?'
p1636
aS'Yesterday,Today,Forever. Ryan in it. Its \nAndrew,Chester,Victor,D-trix,Kevjumba'
p1637
aS"I think it's a dance group that Ryan's helping support or something like \nthat. It stands for Yesterday, Today, and Forever. If you want more details \non what it means, I recommend you check out their website. I forgot what it \nwas :P but Ryan might have posted the link somewhere, maybe on one of his \nHigaTV videos. Hope that helps."
p1638
aS'0:56 LOL'
p1639
aS"hey guys my name is benji and I've been youtubing since nigahiga's how to \nbe gangster came and i was just hoping you guys would check out my videos \nand maybe if you like them you'll subscribe, but i swear you'll laugh!"
p1640
aS"Now that I think about it, I haven't seen his cat in any of his recent \nvideos."
p1641
aS'That was part of the joke.'
p1642
aS'That would be the most awesome band...of all time'
p1643
aS'Lol 0:56'
p1644
aS'i am so getting this for my birthday'
p1645
aS'HAVE YOU EVER HAPPENED TO THIS?'
p1646
aS'yeah2, try becoming kpop star. '
p1647
aS'TEEHEE! '
p1648
aS'did you guys notice that when he says "pickle" he is actually holding a \ncarrot? '
p1649
aS'There was.. 0:55'
p1650
aS'ik r'
p1651
aS'have u ever happened 2 this!?!?!?!?'
p1652
aS"da-doing. but some people aren't smart enough to get it."
p1653
aS'Have you ever happened to this! Lmao'
p1654
aS'Ur so cute wen u smile;)'
p1655
aS'I Mean 3 '
p1656
aS'What does YTF even mean?'
p1657
aS'Have you ever happened to this?!'
p1658
aS'Hey Ryan check out my video kpolo51613'
p1659
aS'sweet copy and paste skills bro!'
p1660
aS"0:20 I think that was chester see's hand!"
p1661
aS'White looks so good on him!!! <3 <3 <3'
p1662
aS'ryans cat is so awesome XD'
p1663
aS'order the TEEHEE band and all of your wildest dreams could possibly might \nnot come true!'
p1664
aS'LOL the book he was "reading" was upside down!!!'
p1665
aS'0:24 the rapping starts '
p1666
aS'This is one is kinda obvious, but did you notice the YTF at 0:30?'
p1667
aS'Have you ever happened to this?'
p1668
aS'*the '
p1669
aS'0:30 ytf'
p1670
aS'has anyone noticed when he said when it helped you to read, the book was \nupside down, and when he said pickle he pulled out a carrot'
p1671
aS'0:29 YTF'
p1672
aS'WHEN HE SAYS PICKLE ITS A CARROT (LOL)'
p1673
aS'I WANT NOW!!!!!'
p1674
aS'I spilled table all over my liquids! (\xe2\x95\xaf\xc2\xb0\xe2\x96\xa1\xc2\xb0\xef\xbc\x89\xe2\x95\xaf\xef\xb8\xb5 \xe2\x94\xbb\xe2\x94\x81\xe2\x94\xbb'
p1675
aS'@hawktiger325 it\'s "pi"'
p1676
aS'LOL! I was at a party 3 days ago and I set my cup down on the ground to get \nsomething to eat on the table and I tripped over like a leg or something \nand the table spilled all over my liquid! Then 3 days later I saw this! I \nam so glad to hear that that is perfectly normal!!'
p1677
aS'Have you ever happened to this? ^_^ '
p1678
aS'Hahaha at the end of pi it said YTF'
p1679
aS'the end of pie has YTF written on it'
p1680
aS'I happened to this'
p1681
aS'Press 6 Over & Over '
p1682
aS'itll help you to read, run, laugh, cry, ickle, pickle, tickle, fly, look \nyour enemys in the eye, and figure out the end of pi! XD'
p1683
aS'i love your cat! it looks so soft :]'
p1684
aS"Actually, he's wearing nine."
p1685
aS'everytime he said TEEHEEband so did i!!'
p1686
aS'Replay one M0:00RE Time!!'
p1687
aS'i thought it wuz gonna be a band of him saying teehee alot but the video \nwas still awesome '
p1688
aS"lol i actually went to tje link....and WHAT DO U KNO.....IT'S A REAL \nLINK!!!!!!"
p1689
aS'Have you ever happened to this?!?'
p1690
aS"Actually its not his cat its his brother Kyle's cat. "
p1691
aS'call this number HIGATV.COM lol'
p1692
aS'Hey can u run as fast as a car goin 25miles per hour'
p1693
aS'has anyone noticed that when he says "TEEHEE band" he is wearing like 8 of \nthem? :D'
p1694
aS'my sister loves writing and comedy and would appreciate it if you looked at \nher vid and leave feedback'
p1695
aS'TEEHEE '
p1696
aS'teehee jessie'
p1697
aS'pickle *holds up a carrot* XD'
p1698
aS'Teehee'
p1699
aS'i want one! i have tree.99 here ya go wheres my band?'
p1700
aS'what. was. that. AMAZING. :)'
p1701
aS'Teh TEEHEE gives u another arm >:D Im so gunna join'
p1702
aS'There\'s always that "Inside View of a Kiss - GROSS" video suggestion on \nevery ryan\'s video fml I AM NOT GOING TO WATCH THAT :D'
p1703
aS'0:55 what did he say at the end?'
p1704
aS'Thumbs up if you think Ryan should make a TEEHEE app!'
p1705
aS'The pickels a Carrot'
p1706
aS'have you ever happened to this'
p1707
aS'yay i have on teehee band'
p1708
aS'0:29 i saw that sneaky YTF!'
p1709
aS'YTF @ 0:30'
p1710
aS"I spilled Bands all over my Teehee's!"
p1711
aS'has you ever happened to this!'
p1712
aS'ryan can u introduce ur cat'
p1713
aS'Did anybody else noticed, that he was holding the magazine up side down? :D \nThumps up(:'
p1714
aS'have u ever happened to this'
p1715
aS'LOL a Teehee Band Not the Teehee band its the TEEHEE band Ill say it like \nthat XD'
p1716
aS'Is he high at the end of this vid?'
p1717
aS'\xe2\x94\x8f\xe2\x94\x81\xe2\x94\x81\xe2\x94\x81\xe2\x94\x81\xe2\x94\xb3\xe2\x94\x81\xe2\x94\x81\xe2\x94\x81\xe2\x94\xb3\xe2\x94\x81\xe2\x94\x81\xe2\x94\x81\xe2\x94\xb3\xe2\x94\x93\xe2\x95\x8b\xe2\x94\x8f\xe2\x94\xb3\xe2\x94\x81\xe2\x94\x81\xe2\x94\x81\xe2\x94\xb3\xe2\x94\x81\xe2\x94\x81\xe2\x94\x81\xe2\x94\x93 \xe2\x94\x83\xe2\x94\x8f\xe2\x94\x93\xe2\x94\x8f\xe2\x94\x93\xe2\x94\x83\xe2\x94\x8f\xe2\x94\x81\xe2\x94\x81\xe2\x94\xab\xe2\x94\x8f\xe2\x94\x81\xe2\x94\x81\xe2\x94\xab\xe2\x94\x83\xe2\x95\x8b\xe2\x94\x83\xe2\x94\x83\xe2\x94\x8f\xe2\x94\x81\xe2\x94\x81\xe2\x94\xab\xe2\x94\x8f\xe2\x94\x81\xe2\x94\x81\xe2\x94\x9b \n\xe2\x94\x97\xe2\x94\x9b\xe2\x94\x83\xe2\x94\x83\xe2\x94\x97\xe2\x94\xab\xe2\x94\x97\xe2\x94\x81\xe2\x94\x81\xe2\x94\xab\xe2\x94\x97\xe2\x94\x81\xe2\x94\x81\xe2\x94\xab\xe2\x94\x97\xe2\x94\x81\xe2\x94\x9b\xe2\x94\x83\xe2\x94\x97\xe2\x94\x81\xe2\x94\x81\xe2\x94\xab\xe2\x94\x97\xe2\x94\x81\xe2\x94\x81\xe2\x94\x93 \xe2\x95\x8b\xe2\x95\x8b\xe2\x94\x83\xe2\x94\x83\xe2\x95\x8b\xe2\x94\x83\xe2\x94\x8f\xe2\x94\x81\xe2\x94\x81\xe2\x94\xab\xe2\x94\x8f\xe2\x94\x81\xe2\x94\x81\xe2\x94\xab\xe2\x94\x8f\xe2\x94\x81\xe2\x94\x93\xe2\x94\x83\xe2\x94\x8f\xe2\x94\x81\xe2\x94\x81\xe2\x94\xab\xe2\x94\x8f\xe2\x94\x81\xe2\x94\x81\xe2\x94\x9b \n\xe2\x95\x8b\xe2\x95\x8b\xe2\x94\x83\xe2\x94\x83\xe2\x95\x8b\xe2\x94\x83\xe2\x94\x97\xe2\x94\x81\xe2\x94\x81\xe2\x94\xab\xe2\x94\x97\xe2\x94\x81\xe2\x94\x81\xe2\x94\xab\xe2\x94\x83\xe2\x95\x8b\xe2\x94\x83\xe2\x94\x83\xe2\x94\x97\xe2\x94\x81\xe2\x94\x81\xe2\x94\xab\xe2\x94\x97\xe2\x94\x81\xe2\x94\x81\xe2\x94\x93 \xe2\x95\x8b\xe2\x95\x8b\xe2\x94\x97\xe2\x94\x9b\xe2\x95\x8b\xe2\x94\x97\xe2\x94\x81\xe2\x94\x81\xe2\x94\x81\xe2\x94\xbb\xe2\x94\x81\xe2\x94\x81\xe2\x94\x81\xe2\x94\xbb\xe2\x94\x9b\xe2\x95\x8b\xe2\x94\x97\xe2\x94\xbb\xe2\x94\x81\xe2\x94\x81\xe2\x94\x81\xe2\x94\xbb\xe2\x94\x81\xe2\x94\x81\xe2\x94\x81\xe2\x94\x9b'
p1718
aS'you are awesome'
p1719
aS'i just realized he siaid have you ever happened to this in the beginning'
p1720
aS'this fucking mcdonalds ad...'
p1721
aS'that awkward moment when you spill table all over your liquid'
p1722
aS'that awkward moment when you thought teehee band was a music band...'
p1723
aS'lol '
p1724
aS'pause at 0:30 to see YTF'
p1725
aS'Teehee!'
p1726
aS'0:56'
p1727
aS'I SPILLED TABLE ALL OVER MY LIQUEDSSS'
p1728
aS'thumbs up if you kept replaying the video until you said every TEEHEE with \nhim.'
p1729
aS'the " teehee" band '
p1730
aS'Do your sexy face!?! 0:56 '
p1731
aS'HOLE'
p1732
aS'Anyone One Else See The YTF Sign On The Paper 0:30'
p1733
aS'me want teehee band'
p1734
aS'he said that on purpose it was part of the joke....'
p1735
aS'*Table on his liquid :P'
p1736
aS'Lol I came back to this from like a year ago, saw it in the suggested vids \nand still thought it was band that sings "TEEHEE" again. '
p1737
aS'"Have you ever happened to this?" "I spilled table all over my liquids" :D '
p1738
aS'copy and paste is a wonderful thing :)'
p1739
aS"0:31 Any Jacksfilms fans here? Because there's never not not nuttin. =D"
p1740
aS'reminds me of shamWOOHOO!!!!!!!lol'
p1741
aS"I'll take 9."
p1742
aS'nice ending'
p1743
aS'#STATEFARM: like a good neighbor TEEHEE band is there.... '
p1744
aS"can i seriously get that teehee band?? LOL i'd want some "
p1745
aS'Hole...'
p1746
aS'WOO HOO :D'
p1747
aS'He said he spilled liquid on his table -.-'
p1748
aS'like if you actually went in higatv.com to buy the "TEEHEE band " '
p1749
aS'it took me to pizza hut -_-'
p1750
aS'The end of pi is YTF lol'
p1751
aS'the WOOHOO sounded awesome to but TEEHEE is epic xD'
p1752
aS'no its not the tee he band its the TEE HEE band '
p1753
aS'That awkward moment when the two top comments are continuous. '
p1754
aS"If he gives a discount of 49 cents, I'll buy it."
p1755
aS'TREE. 99'
p1756
aS'Spill tables all over my liquid lol :D '
p1757
aS"I love how he says liquids... Yea I'm awesome like that ;)"
p1758
aS"Well that's perfectly normal! :D"
p1759
aS'0:29 anyone notice YTF at the end of the number'
p1760
aS'theres never not not nothing that the TEEHEE band cant not help you do'
p1761
aS'im going to buy either a teal one or black one still thinking..... but \nstill i am going to buy a teehee notebook!!! :D'
p1762
aS'WHY CANT I REPLY TO OTHER PPL?!?!?!?!?!?!!?!??!'
p1763
aS'at 0:30 hidden ytf'
p1764
aS'I watched this video a million times and never noticed...'
p1765
aS'I found a secret ytf'
p1766
aS'When he said pickle he was holding a carrot '
p1767
aS'Yesterday, Today, and Forever!'
p1768
aS'@1Mrskittle i will go now'
p1769
aS'orange pickle. :o'
p1770
aS'No Teehee!'
p1771
aS'The TEEHEE Band ,,,not teehee band'
p1772
aS'he did that on purpose obviously.'
p1773
aS'Lol I spilled table all over my liquid! ShamWoohoo flashback. These should \nb real products!'
p1774
aS'WHY U NO MAKE DIFFERENT TEEHEE!!! all is copy paste! lol'
p1775
aS"I ordered one and I'm waiting for it noow :))"
p1776
aS'0:20 lololol'
p1777
aS'not the teehee band the TEEHEE BAND'
p1778
aS'How did I get to this from the Dark Knight Rises trailer?'
p1779
aS'0:30 Did anyone see the YTF at the end?'
p1780
aS'-_- What do you mean, the YTF vid?'
p1781
aS'No! Nigahiga fans are normals people too!!!! -:( stop sayin were "nicer" we \nare normal!!!! So stop advertising on these videos!!!'
p1782
aS'You are so behind in nigahiga videos -.-'
p1783
aS'0:30'
p1784
aS'look your enemy in the eye... :D'
p1785
aS"People who advertise on these awesome videos: No offense to you, but this \nreally kinda makes you uncool. Instead of using your natural talent to get \ndiscovered, you are advertising. If you think that you can't get \ndiscovered, then you are not worth anyone's time. And for those who say \nthat they know that it is annoying and they are different, treat others the \nway you will to be treated. Do you like this video advertisements?"
p1786
aS'Read, run, laugh, cry, tickle, giggle, pickle, fly, look your enemies in \nthe eye, and figure out the end of pi'
p1787
aS'I WANT A TEEHEE BAND! ^o^'
p1788
aS'0:55'
p1789
aS'i want one too p.s. can the TEEHEE band help me \nninja-karate-samuri-ninjitsu-dojo slap my brother in the face'
p1790
aS'Ytf'
p1791
aS'hehe hole...............'
p1792
aS'Respect the TEEHEE -Trauma Tize'
p1793
aS'The book was upside down :D '
p1794
aS'Its kind of the same as the shamWOO!HOO! some how?'
p1795
aS'What the hell! 0:56! HAHAH Grin, And pure ugliness!'
p1796
aS'Whoops wrong video... TEEHEE!!!'
p1797
aS"Where's the teehee?"
p1798
aS'he just said has you ever happen to this!!!!! '
p1799
aS'what song did u use at the background (the piano sound)?'
p1800
aS"who hasn't already"
p1801
aS'what does that SAY!~?'
p1802
aS'They should make a video about figure skating!!!'
p1803
aS'Have you ever happened to this? I spilt table all over my liquid!'
p1804
aS'Just to give you a fair warning, im going to steal this.'
p1805
aS'TEE HEE lmfao i love this its so cool haha we had a school talent show and \nsome people did this song it was so cool'
p1806
aS'im from hawaii too ryan, i live on maui'
p1807
aS'Tree.99'
p1808
aS'how did you do that'
p1809
aS"Guy this video will have it's 1st anniversary tomorrow =)"
p1810
aS'i like how he says pickle yet he has a carrot in his hand 0_o'
p1811
aS'TEEHEH'
p1812
aS"dear ryan instead of dressing up like a ninja dress up like a pirate, not \nbecause ninjas ain't awesome, just something different... maybe even a \nlamp, that would be epic. you choose."
p1813
aS'0:25 the magazine is upside down :p '
p1814
aS'they should use "Teehee" to censor on vids instead of "beep"'
p1815
aS'I like this video'
p1816
aS'Get well...'
p1817
aS'Try not to laugh or grin!'
p1818
aS'I Saw the troll face at 1:02 :P'
p1819
aS'no stealing'
p1820
aS'Reading with book upside down :DDDDDDDDDD'
p1821
aS'/watch?v=D_iwP1rZOYg'
p1822
aS'fag'
p1823
aS'Tree.99 hahahahahhahahahahha'
p1824
aS'The first time I read the title of this video I thought it would be \nsomething like all of YTF saying "Teehee" in a singsong voice. In sync.'
p1825
aS'Ryan: "have u ever happened to this!" '
p1826
aS'HI Guys, please check out my latest comedy video and let me know what you \nthink! Thanks!'
p1827
aS'Anyone else notice he reads upside down ?'
p1828
aS'Look at Marley in the background when Ryan was in that 4th scene'
p1829
aS'Dear Ryan, Can you please do a video about your white cat?'
p1830
aS'I laughed so hard xD'
p1831
aS"Thumbs Up if you're wondering why you're still Subscribed to Ray William \nJohnson!"
p1832
aS"Didn't realise it was an actual product till now"
p1833
aS'0:01 The ShamWOOHOO in Soviet Russia'
p1834
aS'I want one'
p1835
aS"I'm gonna get one!!!"
p1836
aS'Are all the teehees in this video all different'
p1837
aS'This is just hilarious!!!'
p1838
aS'All you have to do is call this number!! HigaTV.com This Video, shut up \nalready. Order Order now. TEEHEE'
p1839
aS'ur looking at the 1inch one. hes talking about the smaller one'
p1840
aS'see marmar on internet icon should have watched this for the info mercial \nbefore he did his video he would have won'
p1841
aS"When he said it helped reading he held the book upside down... I think it's \nfun to read upside down but if you can't read then DONT READ UPSIDE DOWN!!! \nJk but really don't"
p1842
aS'0:21 over and over again lol '
p1843
aS"hey guys~ try 0:56 <--it's epic!"
p1844
aS'I SPILLED TABLES ALL OVER MY LIQUIDS!!!!!!'
p1845
aS'\xe2\x94\x8f\xe2\x94\x81\xe2\x94\x81\xe2\x94\x81\xe2\x94\x81\xe2\x94\xb3\xe2\x94\x81\xe2\x94\x81\xe2\x94\x81\xe2\x94\xb3\xe2\x94\x81\xe2\x94\x81\xe2\x94\x81\xe2\x94\xb3\xe2\x94\x93\xe2\x95\x8b\xe2\x94\x8f\xe2\x94\xb3\xe2\x94\x81\xe2\x94\x81\xe2\x94\x81\xe2\x94\xb3\xe2\x94\x81\xe2\x94\x81\xe2\x94\x81\xe2\x94\x93 \xe2\x94\x83\xe2\x94\x8f\xe2\x94\x93\xe2\x94\x8f\xe2\x94\x93\xe2\x94\x83\xe2\x94\x8f\xe2\x94\x81\xe2\x94\x81\xe2\x94\xab\xe2\x94\x8f\xe2\x94\x81\xe2\x94\x81\xe2\x94\xab\xe2\x94\x83\xe2\x95\x8b\xe2\x94\x83\xe2\x94\x83\xe2\x94\x8f\xe2\x94\x81\xe2\x94\x81\xe2\x94\xab\xe2\x94\x8f\xe2\x94\x81\xe2\x94\x81\xe2\x94\x9b \n\xe2\x94\x97\xe2\x94\x9b\xe2\x94\x83\xe2\x94\x83\xe2\x94\x97\xe2\x94\xab\xe2\x94\x97\xe2\x94\x81\xe2\x94\x81\xe2\x94\xab\xe2\x94\x97\xe2\x94\x81\xe2\x94\x81\xe2\x94\xab\xe2\x94\x97\xe2\x94\x81\xe2\x94\x9b\xe2\x94\x83\xe2\x94\x97\xe2\x94\x81\xe2\x94\x81\xe2\x94\xab\xe2\x94\x97\xe2\x94\x81\xe2\x94\x81\xe2\x94\x93- \xe2\x95\x8b\xe2\x95\x8b\xe2\x94\x83\xe2\x94\x83\xe2\x95\x8b\xe2\x94\x83\xe2\x94\x8f\xe2\x94\x81\xe2\x94\x81\xe2\x94\xab\xe2\x94\x8f\xe2\x94\x81\xe2\x94\x81\xe2\x94\xab\xe2\x94\x8f\xe2\x94\x81\xe2\x94\x93\xe2\x94\x83\xe2\x94\x8f\xe2\x94\x81\xe2\x94\x81\xe2\x94\xab\xe2\x94\x8f\xe2\x94\x81\xe2\x94\x81\xe2\x94\x9b \n\xe2\x95\x8b\xe2\x95\x8b\xe2\x94\x83\xe2\x94\x83\xe2\x95\x8b\xe2\x94\x83\xe2\x94\x97\xe2\x94\x81\xe2\x94\x81\xe2\x94\xab\xe2\x94\x97\xe2\x94\x81\xe2\x94\x81\xe2\x94\xab\xe2\x94\x83\xe2\x95\x8b\xe2\x94\x83\xe2\x94\x83\xe2\x94\x97\xe2\x94\x81\xe2\x94\x81\xe2\x94\xab\xe2\x94\x97\xe2\x94\x81\xe2\x94\x81\xe2\x94\x93- \xe2\x95\x8b\xe2\x95\x8b\xe2\x94\x97\xe2\x94\x9b\xe2\x95\x8b\xe2\x94\x97\xe2\x94\x81\xe2\x94\x81\xe2\x94\x81\xe2\x94\xbb\xe2\x94\x81\xe2\x94\x81\xe2\x94\x81\xe2\x94\xbb\xe2\x94\x9b\xe2\x95\x8b\xe2\x94\x97\xe2\x94\xbb\xe2\x94\x81\xe2\x94\x81\xe2\x94\x81\xe2\x94\xbb\xe2\x94\x81\xe2\x94\x81\xe2\x94\x81\xe2\x94\x9b takes 4ever to make! '
p1846
aS'its helps you read run laugh cry ticcle giggle picle fly look your enemys \nin there eye and figure out the end of pie!!!! ITS SOOOO AWSOME'
p1847
aS'Omg'
p1848
aS"sorry but i'm raping the replay-button :P"
p1849
aS'I NEED ONE OF THOSE O.o'
p1850
aS'teehee'
p1851
aS'press alt with key '
p1852
aS'I almost have tree.99. man I wish my tree will grow faster'
p1853
aS'TEEHEE TEEHEE TEEHEE TEEHEE TEEHEE TEEHEE TEEHEE'
p1854
aS'TEEHEE.'
p1855
aS'have you ever happened to this? i spilled table all over my liquid'
p1856
aS"i don't want a teehee band iwant a\xe2\x94\x8f\xe2\x94\x81\xe2\x94\x81\xe2\x94\x81\xe2\x94\x81\xe2\x94\xb3\xe2\x94\x81\xe2\x94\x81\xe2\x94\x81\xe2\x94\xb3\xe2\x94\x81\xe2\x94\x81\xe2\x94\x81\xe2\x94\xb3\xe2\x94\x93\xe2\x95\x8b\xe2\x94\x8f\xe2\x94\xb3\xe2\x94\x81\xe2\x94\x81\xe2\x94\x81\xe2\x94\xb3\xe2\x94\x81\xe2\x94\x81\xe2\x94\x81\xe2\x94\x93 \n\xe2\x94\x83\xe2\x94\x8f\xe2\x94\x93\xe2\x94\x8f\xe2\x94\x93\xe2\x94\x83\xe2\x94\x8f\xe2\x94\x81\xe2\x94\x81\xe2\x94\xab\xe2\x94\x8f\xe2\x94\x81\xe2\x94\x81\xe2\x94\xab\xe2\x94\x83\xe2\x95\x8b\xe2\x94\x83\xe2\x94\x83\xe2\x94\x8f\xe2\x94\x81\xe2\x94\x81\xe2\x94\xab\xe2\x94\x8f\xe2\x94\x81\xe2\x94\x81\xe2\x94\x9b \xe2\x94\x97\xe2\x94\x9b\xe2\x94\x83\xe2\x94\x83\xe2\x94\x97\xe2\x94\xab\xe2\x94\x97\xe2\x94\x81\xe2\x94\x81\xe2\x94\xab\xe2\x94\x97\xe2\x94\x81\xe2\x94\x81\xe2\x94\xab\xe2\x94\x97\xe2\x94\x81\xe2\x94\x9b\xe2\x94\x83\xe2\x94\x97\xe2\x94\x81\xe2\x94\x81\xe2\x94\xab\xe2\x94\x97\xe2\x94\x81\xe2\x94\x81\xe2\x94\x93- \n\xe2\x95\x8b\xe2\x95\x8b\xe2\x94\x83\xe2\x94\x83\xe2\x95\x8b\xe2\x94\x83\xe2\x94\x8f\xe2\x94\x81\xe2\x94\x81\xe2\x94\xab\xe2\x94\x8f\xe2\x94\x81\xe2\x94\x81\xe2\x94\xab\xe2\x94\x8f\xe2\x94\x81\xe2\x94\x93\xe2\x94\x83\xe2\x94\x8f\xe2\x94\x81\xe2\x94\x81\xe2\x94\xab\xe2\x94\x8f\xe2\x94\x81\xe2\x94\x81\xe2\x94\x9b \xe2\x95\x8b\xe2\x95\x8b\xe2\x94\x83\xe2\x94\x83\xe2\x95\x8b\xe2\x94\x83\xe2\x94\x97\xe2\x94\x81\xe2\x94\x81\xe2\x94\xab\xe2\x94\x97\xe2\x94\x81\xe2\x94\x81\xe2\x94\xab\xe2\x94\x83\xe2\x95\x8b\xe2\x94\x83\xe2\x94\x83\xe2\x94\x97\xe2\x94\x81\xe2\x94\x81\xe2\x94\xab\xe2\x94\x97\xe2\x94\x81\xe2\x94\x81\xe2\x94\x93- \n\xe2\x95\x8b\xe2\x95\x8b\xe2\x94\x97\xe2\x94\x9b\xe2\x95\x8b\xe2\x94\x97\xe2\x94\x81\xe2\x94\x81\xe2\x94\x81\xe2\x94\xbb\xe2\x94\x81\xe2\x94\x81\xe2\x94\x81\xe2\x94\xbb\xe2\x94\x9b\xe2\x95\x8b\xe2\x94\x97\xe2\x94\xbb\xe2\x94\x81\xe2\x94\x81\xe2\x94\x81\xe2\x94\xbb\xe2\x94\x81\xe2\x94\x81\xe2\x94\x81\xe2\x94\x9b band "
p1857
aS'....yeah...'
p1858
aS'why do they call it teehee band '
p1859
aS'the site in description should be higacom.tv'
p1860
aS';-)'
p1861
aS'TEEHEE BAND'
p1862
aS"That's perfectly normal!"
p1863
aS'well its only tree.99 so go ahead and order it'
p1864
aS"I SPILLED TABLE ALL OVA' MA' LIKWIDS"
p1865
aS'Have you ever happend to this?'
p1866
aS"I'm not sure I understand your question. Why do they call their band a \nTEEHEE band? Like, the bracelet? "
p1867
aS'That wasnt a pickle'
p1868
aS'teehee'
p1869
aS'wow this video came out on my birthday last year'
p1870
aS'ytf 0:30'
p1871
aS'i tried calling the number but i didnt work! jk!'
p1872
aS'why does he look so sexy in the white shirt? XD'
p1873
aS'I spilled table all over my liquids!'
p1874
aS'when he said pickle, he took out a carrot. :) lol'
p1875
aS'who else saw ytf at 0:29 seconds '
p1876
aS'screw all those mathematical calculations to find the value of pi, it \nactually ends with YTF!'
p1877
aS'LOL "help you to read"-magazine upside down, "pickle"-takes a carrot xDD'
p1878
aS'Read,run,laugh,cry,tickle,giggle,pickle,fly,look ur enemys in the eye, and \nfigure out the end of pie'
p1879
aS'i spilt table all over my liquids '
p1880
aS'Tottal local tree.99 lol '
p1881
aS'tree.99 is 3,99 in irish.No,literally,thats how they say 3'
p1882
aS'Awesome! I almost have tree.99!'
p1883
aS'call this number higatv.com'
p1884
aS'did any of you notice ytf on the end of pi?'
p1885
aS'Thumbs up if you thought this was gonna be a musical band (x'
p1886
aS'\xe2\x94\x8f\xe2\x94\x81\xe2\x94\x81\xe2\x94\x81\xe2\x94\x81\xe2\x94\xb3\xe2\x94\x81\xe2\x94\x81\xe2\x94\x81\xe2\x94\xb3\xe2\x94\x81\xe2\x94\x81\xe2\x94\x81\xe2\x94\xb3\xe2\x94\x93\xe2\x95\x8b\xe2\x94\x8f\xe2\x94\xb3\xe2\x94\x81\xe2\x94\x81\xe2\x94\x81\xe2\x94\xb3\xe2\x94\x81\xe2\x94\x81\xe2\x94\x81\xe2\x94\x93 \xe2\x94\x83\xe2\x94\x8f\xe2\x94\x93\xe2\x94\x8f\xe2\x94\x93\xe2\x94\x83\xe2\x94\x8f\xe2\x94\x81\xe2\x94\x81\xe2\x94\xab\xe2\x94\x8f\xe2\x94\x81\xe2\x94\x81\xe2\x94\xab\xe2\x94\x83\xe2\x95\x8b\xe2\x94\x83\xe2\x94\x83\xe2\x94\x8f\xe2\x94\x81\xe2\x94\x81\xe2\x94\xab\xe2\x94\x8f\xe2\x94\x81\xe2\x94\x81\xe2\x94\x9b \n\xe2\x94\x97\xe2\x94\x9b\xe2\x94\x83\xe2\x94\x83\xe2\x94\x97\xe2\x94\xab\xe2\x94\x97\xe2\x94\x81\xe2\x94\x81\xe2\x94\xab\xe2\x94\x97\xe2\x94\x81\xe2\x94\x81\xe2\x94\xab\xe2\x94\x97\xe2\x94\x81\xe2\x94\x9b\xe2\x94\x83\xe2\x94\x97\xe2\x94\x81\xe2\x94\x81\xe2\x94\xab\xe2\x94\x97\xe2\x94\x81\xe2\x94\x81\xe2\x94\x93- \xe2\x95\x8b\xe2\x95\x8b\xe2\x94\x83\xe2\x94\x83\xe2\x95\x8b\xe2\x94\x83\xe2\x94\x8f\xe2\x94\x81\xe2\x94\x81\xe2\x94\xab\xe2\x94\x8f\xe2\x94\x81\xe2\x94\x81\xe2\x94\xab\xe2\x94\x8f\xe2\x94\x81\xe2\x94\x93\xe2\x94\x83\xe2\x94\x8f\xe2\x94\x81\xe2\x94\x81\xe2\x94\xab\xe2\x94\x8f\xe2\x94\x81\xe2\x94\x81\xe2\x94\x9b \n\xe2\x95\x8b\xe2\x95\x8b\xe2\x94\x83\xe2\x94\x83\xe2\x95\x8b\xe2\x94\x83\xe2\x94\x97\xe2\x94\x81\xe2\x94\x81\xe2\x94\xab\xe2\x94\x97\xe2\x94\x81\xe2\x94\x81\xe2\x94\xab\xe2\x94\x83\xe2\x95\x8b\xe2\x94\x83\xe2\x94\x83\xe2\x94\x97\xe2\x94\x81\xe2\x94\x81\xe2\x94\xab\xe2\x94\x97\xe2\x94\x81\xe2\x94\x81\xe2\x94\x93- \xe2\x95\x8b\xe2\x95\x8b\xe2\x94\x97\xe2\x94\x9b\xe2\x95\x8b\xe2\x94\x97\xe2\x94\x81\xe2\x94\x81\xe2\x94\x81\xe2\x94\xbb\xe2\x94\x81\xe2\x94\x81\xe2\x94\x81\xe2\x94\xbb\xe2\x94\x9b\xe2\x95\x8b\xe2\x94\x97\xe2\x94\xbb\xe2\x94\x81\xe2\x94\x81\xe2\x94\x81\xe2\x94\xbb\xe2\x94\x81\xe2\x94\x81\xe2\x94\x81\xe2\x94\x9b BAND HEHEHE'
p1887
aS'(Parents doesn\'t believe you) "Stop lying, I know you have a crush on this \nguy! And stop watching YouTube! You are too young for that shit! They have \nbad things on there!" *takes away phone/laptop NOOOOOO!'
p1888
aS'thumbs up if u noticed that when he said pickle it was a carrot '
p1889
aS"lol thats excactly way would happen! Except my parents don't know any \nswears :P"
p1890
aS'lol not teehee, but TEEHEE'
p1891
aS'no, but that would be funny!'
p1892
aS'only tree.99'
p1893
aS'Pause on 0:56 lol'
p1894
aS'2,374 people spilled tables on their liquids..'
p1895
aS'LOL, but awkward for your parents...and you! "who the hell is this guy \ndoing on your laptop?!?"'
p1896
aS'0:27 its no a pickle'
p1897
aS'FUCK YOU! Ryan said that right in the fucken video! stop trying to steal \nwhat he said like you made it up.'
p1898
aS'OMG SAME HERE! thats sooo creepy:P'
p1899
aS'0:54 INCEPTION'
p1900
aS'Anyone noticed how when he said that it helps you to read, Ryan was holding \nthe magazine upside down? :D'
p1901
aS"who gives you the right to blame him? i'm pretty sure that he knows he's \nusing Ryan's words and no one gives a single fuck about it (except you, \nstill not sure why. jealous of those thumbs up?)"
p1902
aS'Look at your enemies in the eye...xDD'
p1903
aS'Mine too! (chinese, btw) But my mom speaks perfect English, with an accent. \nu can still understand her tho..my dad speaks a little bit of english..Me? \nPerfect english with no accent LOL =P just sayin'
p1904
aS'Where are they from?'
p1905
aS'0:57 .............'
p1906
aS'lol that would be soooo weird explaining to them....'
p1907
aS'Lol'
p1908
aS'China :P'
p1909
aS'was i the only one that saw that the leg had a teehee band too LOL '
p1910
aS'thougt it was a band no a wrist band'
p1911
aS"i'm here from internet icon and you are definitely the informercial expert. \nrewatching and still laughing. "
p1912
aS'0:56 pause full screen 1080p screenshot desktop background:)'
p1913
aS'\xe2\x94\x8f\xe2\x94\x81\xe2\x94\x81\xe2\x94\x81\xe2\x94\x81\xe2\x94\xb3\xe2\x94\x81\xe2\x94\x81\xe2\x94\x81\xe2\x94\xb3\xe2\x94\x81\xe2\x94\x81\xe2\x94\x81\xe2\x94\xb3\xe2\x94\x93\xe2\x95\x8b\xe2\x94\x8f\xe2\x94\xb3\xe2\x94\x81\xe2\x94\x81\xe2\x94\x81\xe2\x94\xb3\xe2\x94\x81\xe2\x94\x81\xe2\x94\x81\xe2\x94\x93 \xe2\x94\x83\xe2\x94\x8f\xe2\x94\x93\xe2\x94\x8f\xe2\x94\x93\xe2\x94\x83\xe2\x94\x8f\xe2\x94\x81\xe2\x94\x81\xe2\x94\xab\xe2\x94\x8f\xe2\x94\x81\xe2\x94\x81\xe2\x94\xab\xe2\x94\x83\xe2\x95\x8b\xe2\x94\x83\xe2\x94\x83\xe2\x94\x8f\xe2\x94\x81\xe2\x94\x81\xe2\x94\xab\xe2\x94\x8f\xe2\x94\x81\xe2\x94\x81\xe2\x94\x9b \n\xe2\x94\x97\xe2\x94\x9b\xe2\x94\x83\xe2\x94\x83\xe2\x94\x97\xe2\x94\xab\xe2\x94\x97\xe2\x94\x81\xe2\x94\x81\xe2\x94\xab\xe2\x94\x97\xe2\x94\x81\xe2\x94\x81\xe2\x94\xab\xe2\x94\x97\xe2\x94\x81\xe2\x94\x9b\xe2\x94\x83\xe2\x94\x97\xe2\x94\x81\xe2\x94\x81\xe2\x94\xab\xe2\x94\x97\xe2\x94\x81\xe2\x94\x81\xe2\x94\x93- \xe2\x95\x8b\xe2\x95\x8b\xe2\x94\x83\xe2\x94\x83\xe2\x95\x8b\xe2\x94\x83\xe2\x94\x8f\xe2\x94\x81\xe2\x94\x81\xe2\x94\xab\xe2\x94\x8f\xe2\x94\x81\xe2\x94\x81\xe2\x94\xab\xe2\x94\x8f\xe2\x94\x81\xe2\x94\x93\xe2\x94\x83\xe2\x94\x8f\xe2\x94\x81\xe2\x94\x81\xe2\x94\xab\xe2\x94\x8f\xe2\x94\x81\xe2\x94\x81\xe2\x94\x9b \n\xe2\x95\x8b\xe2\x95\x8b\xe2\x94\x83\xe2\x94\x83\xe2\x95\x8b\xe2\x94\x83\xe2\x94\x97\xe2\x94\x81\xe2\x94\x81\xe2\x94\xab\xe2\x94\x97\xe2\x94\x81\xe2\x94\x81\xe2\x94\xab\xe2\x94\x83\xe2\x95\x8b\xe2\x94\x83\xe2\x94\x83\xe2\x94\x97\xe2\x94\x81\xe2\x94\x81\xe2\x94\xab\xe2\x94\x97\xe2\x94\x81\xe2\x94\x81\xe2\x94\x93- \xe2\x95\x8b\xe2\x95\x8b\xe2\x94\x97\xe2\x94\x9b\xe2\x95\x8b\xe2\x94\x97\xe2\x94\x81\xe2\x94\x81\xe2\x94\x81\xe2\x94\xbb\xe2\x94\x81\xe2\x94\x81\xe2\x94\x81\xe2\x94\xbb\xe2\x94\x9b\xe2\x95\x8b\xe2\x94\x97\xe2\x94\xbb\xe2\x94\x81\xe2\x94\x81\xe2\x94\x81\xe2\x94\xbb\xe2\x94\x81\xe2\x94\x81\xe2\x94\x81\xe2\x94\x9b '
p1914
aS'me 2'
p1915
aS'Exactly! lol '
p1916
aS'"oh well ummm you see I really like this guy on youtube, and i um found \nthis picture of him... and i thought it was funny?"'
p1917
aS'This was uploaded on my bday'
p1918
aS'Really? My parents even say curse/swear words in front of me and my little \nsister. lol is that an advantage? '
p1919
aS'YAAY NOW I HAVE ANOTHER FIST!'
p1920
aS"my dad can speak english... he's just has a sorta thick accent"
p1921
aS"That's actually your desktop background?"
p1922
aS'\xe2\x94\x8f\xe2\x94\x81\xe2\x94\x81\xe2\x94\x81\xe2\x94\x81\xe2\x94\xb3\xe2\x94\x81\xe2\x94\x81\xe2\x94\x81\xe2\x94\xb3\xe2\x94\x81\xe2\x94\x81\xe2\x94\x81\xe2\x94\xb3\xe2\x94\x93\xe2\x95\x8b\xe2\x94\x8f\xe2\x94\xb3\xe2\x94\x81\xe2\x94\x81\xe2\x94\x81\xe2\x94\xb3\xe2\x94\x81\xe2\x94\x81\xe2\x94\x81\xe2\x94\x93 \xe2\x94\x83\xe2\x94\x8f\xe2\x94\x93\xe2\x94\x8f\xe2\x94\x93\xe2\x94\x83\xe2\x94\x8f\xe2\x94\x81\xe2\x94\x81\xe2\x94\xab\xe2\x94\x8f\xe2\x94\x81\xe2\x94\x81\xe2\x94\xab\xe2\x94\x83\xe2\x95\x8b\xe2\x94\x83\xe2\x94\x83\xe2\x94\x8f\xe2\x94\x81\xe2\x94\x81\xe2\x94\xab\xe2\x94\x8f\xe2\x94\x81\xe2\x94\x81\xe2\x94\x9b \n\xe2\x94\x97\xe2\x94\x9b\xe2\x94\x83\xe2\x94\x83\xe2\x94\x97\xe2\x94\xab\xe2\x94\x97\xe2\x94\x81\xe2\x94\x81\xe2\x94\xab\xe2\x94\x97\xe2\x94\x81\xe2\x94\x81\xe2\x94\xab\xe2\x94\x97\xe2\x94\x81\xe2\x94\x9b\xe2\x94\x83\xe2\x94\x97\xe2\x94\x81\xe2\x94\x81\xe2\x94\xab\xe2\x94\x97\xe2\x94\x81\xe2\x94\x81\xe2\x94\x93- \xe2\x95\x8b\xe2\x95\x8b\xe2\x94\x83\xe2\x94\x83\xe2\x95\x8b\xe2\x94\x83\xe2\x94\x8f\xe2\x94\x81\xe2\x94\x81\xe2\x94\xab\xe2\x94\x8f\xe2\x94\x81\xe2\x94\x81\xe2\x94\xab\xe2\x94\x8f\xe2\x94\x81\xe2\x94\x93\xe2\x94\x83\xe2\x94\x8f\xe2\x94\x81\xe2\x94\x81\xe2\x94\xab\xe2\x94\x8f\xe2\x94\x81\xe2\x94\x81\xe2\x94\x9b \n\xe2\x95\x8b\xe2\x95\x8b\xe2\x94\x83\xe2\x94\x83\xe2\x95\x8b\xe2\x94\x83\xe2\x94\x97\xe2\x94\x81\xe2\x94\x81\xe2\x94\xab\xe2\x94\x97\xe2\x94\x81\xe2\x94\x81\xe2\x94\xab\xe2\x94\x83\xe2\x95\x8b\xe2\x94\x83\xe2\x94\x83\xe2\x94\x97\xe2\x94\x81\xe2\x94\x81\xe2\x94\xab\xe2\x94\x97\xe2\x94\x81\xe2\x94\x81\xe2\x94\x93- \xe2\x95\x8b\xe2\x95\x8b\xe2\x94\x97\xe2\x94\x9b\xe2\x95\x8b\xe2\x94\x97\xe2\x94\x81\xe2\x94\x81\xe2\x94\x81\xe2\x94\xbb\xe2\x94\x81\xe2\x94\x81\xe2\x94\x81\xe2\x94\xbb\xe2\x94\x9b\xe2\x95\x8b\xe2\x94\x97\xe2\x94\xbb\xe2\x94\x81\xe2\x94\x81\xe2\x94\x81\xe2\x94\xbb\xe2\x94\x81\xe2\x94\x81\xe2\x94\x81\xe2\x94\x9b '
p1923
aS'i can now pickle easier!'
p1924
aS'I spilt table in my pants '
p1925
aS'Just call this number : HigaTv.com '
p1926
aS'pause at 0:56'
p1927
aS'everyone knows that '
p1928
aS"I thought he meant an actual music band...that's name was Teehee. I feel \ndumb."
p1929
aS'is that ryans bro?'
p1930
aS'Hysterical'
p1931
aS'did anyone lease see the ytf????'
p1932
aS'I spilled table all over my liquid! how the F*** did I manage that?'
p1933
aS'I spilled table all over my pants'
p1934
aS'"Have you ever happened to this?"'
p1935
aS'3.1459265358979323846264338327950288 Thats as much as I know of pi! :DD lol \nrandom '
p1936
aS'Bahahahahahahahaaha'
p1937
aS'TEEHEE BAND '
p1938
aS'@Midnafan12 they show up as an apple on a mac'
p1939
aS'thumbs up if u tried doing the tehee and shamwohoo!!! :) :)'
p1940
aS'hi Ryan you should make more commercials '
p1941
aS':O THE SHAMWHOOHOO HAS A COUSIN!!!'
p1942
aS'It said YTF... What does that mean'
p1943
aS'no stfu'
p1944
aS'Dang, Reminds me of ShamWOOHOO. ahhh. good times, good times'
p1945
aS'what book? '
p1946
aS'1:02 epic trollface!!!!!!!!!'
p1947
aS'YTF stands for Yesterday, Today, Forever. Its their band.'
p1948
aS'hav u ever happened2 this 0:00'
p1949
aS"I know more pi than him! 3.14159265358979323!! Even though it's only two \ndigits more, it still counts. I love pi! And I love pie! :D"
p1950
aS'ytf '
p1951
aS'spill table all over your liquideXXD'
p1952
aS'lol my niece loves to say Teehee now hahahah'
p1953
aS'i found the hidden YTF'
p1954
aS'So the big question is..WHY is the related video a inside view of a kiss? \nThose damn Russians! '
p1955
aS'Two videos for the effort of one lol'
p1956
aS"His brother and him doesn't look similar.. lol Im just saying. Please don't \nget mad :("
p1957
aS'i just noticed at 0:00 he sad have you ever happened to this i allways \ntought he sad has this ever happened to you'
p1958
aS"*Grabs phone* Let's see.. where do I find alphabets in the dial pad.. MOM \nGET ME A NEW PHONE! TECHNOLOGY CHANGED!"
p1959
aS'It is very difficult to read a newspaper upside down, I tried -,- 0:24'
p1960
aS"lol It's only tree.99"
p1961
aS"You don't say??"
p1962
aS'That pickle was a carrot.'
p1963
aS'I thought it was "YouTube Family"'
p1964
aS'Oh no! I spilled table all over my liquid!'
p1965
aS'I spelled table over my liquids lol'
p1966
aS'~Yesterday~Today~Forever :) <3 '
p1967
aS'TTTEEEEEEEEEEEEEEEEEEEEEEEEEEEHHHHHHHHHHEEEEEEEEEEEEEEEEEE'
p1968
aS'that wasnt a pickle it was a carrot!'
p1969
aS'Yesterday...All my troubles seem to far away...'
p1970
aS'I thought it was like a music band'
p1971
aS'I SPILT TABLE ALL OVER MY LIQUIDS!!!! LOL END OF PI: 3.141592653589793YTF \nLOL Buy it!!! Its only TREE.99!!!!!'
p1972
aS'I spilled table all over my liquids ;-)'
p1973
aS'ryan: says pickle pulls out carrot ftw?!?!?!?!?'
p1974
asS'time'
p1975
ctime
struct_time
p1976
((I2011
I6
I24
I1
I55
I45
I4
I175
I-1
t(dtRp1977
sS'id'
p1978
VQu_fNTNbhwE
p1979
s.