(dp1
S'title'
p2
VLessons To Learn From 2013
p3
sS'url'
p4
Vhttp://www.youtube.com/watch?v=rITp0sCFNik&feature=youtube_gdata_player
p5
sS'image'
p6
Vhttp://i.ytimg.com/vi/rITp0sCFNik/0.jpg
p7
sS'comments'
p8
(lp9
S'if pewdiepie have bro army we have LAMP ARMY\xef\xbb\xbf'
p10
aS'I was one ryans first subs i was like his 10th subcriber FTW\xef\xbb\xbf'
p11
aS'3:53 omg\xef\xbb\xbf'
p12
aS'i literally panicked for .2 seconds when the youtube dead page came ahh\xef\xbb\xbf'
p13
aS'pewdie pie nver has a million view unless it 3 years old\xef\xbb\xbf'
p14
aS'#lamp\xef\xbb\xbf'
p15
aS'U DESERVE MORE SUBBIES\xef\xbb\xbf'
p16
aS'What does the fox say\n(TROLOLOLOLOLOLOLOLOLOLOLOLOLOLO)\xef\xbb\xbf'
p17
aS'We are not just lamps we are higa lamps\xef\xbb\xbf'
p18
aS"Watching this video made me remember that Paul Walker is dead :'-(\xef\xbb\xbf"
p19
aS"dude you are way better than Pewdiepie (wait, hope you're not friends with \nhim because then this comment would be awks)\xef\xbb\xbf"
p20
aS'I only started watching his videos this year but I love them so far\xef\xbb\xbf'
p21
aS"I thank you for making nice guys, otherwise I don't think I would've ever \nfound you.\xef\xbb\xbf"
p22
aS"pewdie pie has more ONLY because he has been on u tube longer than u have \ndon't be disappointed\xef\xbb\xbf"
p23
aS"I'm convinced.\nNew subscriber!\xef\xbb\xbf"
p24
aS"Yo, 11 Millon subscribers are EXTREME! Plus at the time of this comment, \nyou reached 13 MILLION! Don't worry about PewDiePie and all, you know how \nimportant 1 subscriber is to some people? Keep up the great work and Peace!\xef\xbb\xbf"
p25
aS'your funnier and way more entertaining than Pewdiepie \xef\xbb\xbf'
p26
aS"Please don't get mad but it's actually \n* Mandela.... I'm sorry, I had to!!\xef\xbb\xbf"
p27
aS"he spelt nelson mandela wrong\n'romrmkmfk fffcjcjfmcokoflokfpflom wtf cjhdjruhudgrchcuybcuicrbbc lol \ncjrnccbhrngrvbhfcbgcbrcbgcbhrcbhrcbhrbrbb jk \xef\xbb\xbf"
p28
aS'Hahaha you spelt Mandela wrong\xef\xbb\xbf'
p29
aS"Don't worry. I'll never sub to PewDiePie\xef\xbb\xbf"
p30
aS'im here to look at the 2013 comments :D\xef\xbb\xbf'
p31
aS'And suddenly "what is this? it looks like a lizard." Hahahaha\xef\xbb\xbf'
p32
aS'it does look like a lizard\xef\xbb\xbf'
p33
aS'you mean the left side\xef\xbb\xbf'
p34
aS'<3 \xef\xbb\xbf'
p35
aS'the end gave me shivers c:\xef\xbb\xbf'
p36
aS'4:23 Left sturnum*\xef\xbb\xbf'
p37
aS'i have ADHD too\xef\xbb\xbf'
p38
aS'I\'ve been watching your videos since "How to be ninja" and they always make \nmy day! So, keep it up, you\'re totally awesome!!!!\xef\xbb\xbf'
p39
aS'#LAMPS.love you ryan.\xef\xbb\xbf'
p40
aS'How is that a lizard neck????\xef\xbb\xbf'
p41
aS'In my opinion pewdiepie sgouldnt have over 3 mill subscribers he is kore \nannoying than funny while nigahiga is one of the funniest people on youtube \nand put way kore effort on his vids than pewdiepie\xef\xbb\xbf'
p42
aS'PINKIE PIE, FLUTTER SHY, RAINBOW DASH , TWILIGHT SPARKLE, RARITY , APPLE \nJACK,\xef\xbb\xbf'
p43
aS'"ew what is this it looks like a lizard" \nAHAHAHAHAHAHHAAHHAAHAHAHHAHAHSDUOFIOHQAFDFASS\xef\xbb\xbf'
p44
aS'I learnt the cup song. Thanks i show it to my teacher and i get an A nope i \njust got trew by cups.lol\xef\xbb\xbf'
p45
aS'He pointed to his left and said right 4:20\xef\xbb\xbf'
p46
aS'LORDE, THOUGH.\xef\xbb\xbf'
p47
aS'The Fox say\xef\xbb\xbf'
p48
aS'I ADHD too And I have 2 subs yaayy\xef\xbb\xbf'
p49
aS'all i can say is that you have though me a lot of life lessons and i really \ndid like this video.. so no Ryan thank you, thank you\xef\xbb\xbf'
p50
aS'remember when nigahiga had the most subs on youtube?\xef\xbb\xbf'
p51
aS'Haha 4:46 Japanese yoyo\xef\xbb\xbf'
p52
aS' 160,065 liker :)\xef\xbb\xbf'
p53
aS'OMG RACHEL I SAW UR COMMENT. \xef\xbb\xbf'
p54
aS"YOU'RE WELCOME RYAN!!! ^-^\xef\xbb\xbf"
p55
aS'When the policy sign came up were you tricked by it? I was LOL\xef\xbb\xbf'
p56
aS'I sol your new video gocool vs vgede I Lit your video\n\n\xef\xbb\xbf'
p57
aS"I actually thought that it wasn't able to finish the video... I'm a fool\xef\xbb\xbf"
p58
aS'Did not like it\xef\xbb\xbf'
p59
aS'^_^ Thank you too ryan for keeping us entertained!!!!! You make people \nlaugh and give us your insights on different topics :) :D God bless you \nmore \xe2\x99\xa1\xef\xbb\xbf'
p60
aS'Welcome to he\xc5\x82\xc5\x82 fellow ADHD buddy\xef\xbb\xbf'
p61
aS'Douche is another word for justin\xef\xbb\xbf'
p62
aS'I think you are funnier than pewds cuz you have stuff no one else has done \npewds just plays video games and makes some dumb jokes and rages ... ( I \nused to be a fan of pewds btw ) \xef\xbb\xbf'
p63
aS"You don't need to thank us just keep putting great videos up.\xef\xbb\xbf"
p64
aS'Vanossgaming \xef\xbb\xbf'
p65
aS"i love your videos but i can't click like on every video you got cuz i run \ninternet cafe and i'm boss manager and i don't have a sec 2 watch awesome \nyoutube videos like yours\xef\xbb\xbf"
p66
aS"hey I'm South African here. Nelson Mandela's death was sad T.T\xef\xbb\xbf"
p67
aS"Sometimes I feel ppl subscribe to Pewdiepie but don't watch him\xef\xbb\xbf"
p68
aS'Dear Ryan can you walk in on somebody \xef\xbb\xbf'
p69
aS'Love you always :) gotta continue support u! \xef\xbb\xbf'
p70
aS'PLEASE SPONSOR OUR CHANNEL\xef\xbb\xbf'
p71
aS'SORRY BOUT THAT... LOL\xef\xbb\xbf'
p72
aS'Do a one piece video\xef\xbb\xbf'
p73
aS'I died at 3:39 XD ~1 min later died from laughter~ X_X\xef\xbb\xbf'
p74
aS'Pedipie sucks\xef\xbb\xbf'
p75
aS'Dragon ball z\xef\xbb\xbf'
p76
aS'I love you. X\xef\xbb\xbf'
p77
aS'RYAN <3\xef\xbb\xbf'
p78
aS'So its Aug. 2014 already... Wheres my Candy Crush Movie?! Huh?! \nLAV YA! <3\xef\xbb\xbf'
p79
aS'anyone else notice the window and how dark it got?\xef\xbb\xbf'
p80
aS"1:00 can't stop laughing XD\xef\xbb\xbf"
p81
aS'the best ending i cried !!!!!!!!!!!! :) \xef\xbb\xbf'
p82
aS'Dear Ryan can you be a Wizard?\xef\xbb\xbf'
p83
aS'I love your videos, and I\'ve been awfully busy lately, and your videos just \nasdfkjkdsfa (too lazy to find a good word) and dude, I totally appreciate \nyour works. I even let *coughforcecough* my sister watch your videos. :"D \n(even if she\'d say "ENOOOUGH" she\'d still watch \'til the end of the video, \nwhich I really appreciate ^^) I\'ll always share your videos. c:\n\n(I\'m addicted to "Coffee Shop Love" and "GTFO of My Room". Damn they\'re so \ncatchy ugh \xe3\x85\x87\xe3\x85\x85\xe3\x85\x87)\xef\xbb\xbf'
p84
aS"I love both Pewdiepie and Ryan Higa, there the same because they both care \nso deeply about their fans and want people to smile and laugh, they may not \nhave the same concept but they're not that bad and besides both of them are \nfreaking hilarious xD\xef\xbb\xbf"
p85
aS'I make a lot of channels (2, one for my fishie one for me) and I subscribe \nto u too, I relly like ur channel because its funny but I think ur lizard \nneck makes u look like a person with  neck like a lizards neck too\xef\xbb\xbf'
p86
aS'3:41 you got me.. i got mad and was like " WHAT THE- *explosion*"\xef\xbb\xbf'
p87
aS'XD lizard neck\xef\xbb\xbf'
p88
aS'lol best start up 10 seconds!\xef\xbb\xbf'
p89
aS'Love you always :) gotta continue support u! \xef\xbb\xbf'
p90
aS'Heart is in the middle of the chest behind the sternum. Just saying...\xef\xbb\xbf'
p91
aS'Mexico\xef\xbb\xbf'
p92
aS'Do a one piece movie\n\xef\xbb\xbf'
p93
aS'My friend is related to paul walker\xef\xbb\xbf'
p94
aS'*gasp * I LOVE UR PHONE CASE!!!!\xef\xbb\xbf'
p95
aS'i have ADHD 2\xef\xbb\xbf'
p96
aS'All of his videos have 1mil+ views.. shush\xef\xbb\xbf'
p97
aS':o AWESOEM 12,545,035th subcriber :D\xef\xbb\xbf'
p98
aS'That was sweet\xef\xbb\xbf'
p99
aS"Man Ryan needs to chill. I really like this guys videos and I have been \nsubscribed for years but why does he always need to mention how he doesn't \nhave the most subscribers anymore. Like I get that he is just saying it \nisn't as much as Pewdiepie but its over 11 million freaking subscribers. It \njust brings upon the vibe that he really only cares about subscribers and \ndoesn't have fun making videos.\xef\xbb\xbf"
p100
aS'Am I the only one who subscribed because he said he was off his meds?\xef\xbb\xbf'
p101
aS'#Lampforever\xef\xbb\xbf'
p102
aS'You are so cute! I have been looking at your vids for 6 or 7 years and I \nlove all of them.Keep up the great job and to me you are number one in \ncomedy.\xef\xbb\xbf'
p103
aS'Dragon ball z was the next video I love that video\xef\xbb\xbf'
p104
aS"Oh my\nPlease don't talk about Cory monteith and Paul walker and Nelson Mandela \nthat way. Please. Their deaths were sad, especially since some were \nunexpected. It's not nice to talk about them that way\xef\xbb\xbf"
p105
aS"I'm addicted to YouTube,paw patrol,and my phone.\xef\xbb\xbf"
p106
aS'I feel like pewds have more sub bc he upload more often and his vid are \nalso funny\xef\xbb\xbf'
p107
aS"That's Sternocleidomastoidianus lizard for you sir!!!!!!!\xef\xbb\xbf"
p108
aS'And now you have 12M subs :)\xef\xbb\xbf'
p109
aS'Lol the "because-we-said-so" policy\xef\xbb\xbf'
p110
aS'Been watching since "how to b ninja!" Luvz ur vids bro!\xef\xbb\xbf'
p111
aS'LOL that ending outro! \xef\xbb\xbf'
p112
aS'You misspelled "Mandela"\xef\xbb\xbf'
p113
aS'id anyone else cry a little at the flashbacks??\xef\xbb\xbf'
p114
aS'plz do minecraft , everybody has been waiting for you to do it.FOR LIKE \nSUCH A GREAT YOUTUBER LIKE YOU!\xef\xbb\xbf'
p115
aS'I wish I could subscribe more than once\xef\xbb\xbf'
p116
aS"I always keep on hearing about PewDiePie (or however it's spelled) but i \ncan't give a rats-ass about whoever they are, and i don't even bother \nlooking anytime soon, but Ryan Higa, you're a way better youtuber, even \nconsidered a celebrity, no one cares about pewdiepie\xef\xbb\xbf"
p117
aS'Yas!!! +Arya Mohan\xef\xbb\xbf'
p118
aS"I just want to say Ryan u re THE BEST \xe2\x99\xa5 I really love every singel of ur \nvideos. I'm watching it everytime and I really love it ..they are really \namazing. I am laughing everytime. You are such a big inspiration for \nus..RYAN FIGHTING!\xef\xbb\xbf"
p119
aS'Ryan u inspire me\xef\xbb\xbf'
p120
aS'Lol i lost it at lorde\xef\xbb\xbf'
p121
aS'You look so japanese from your icon of this clip..\xef\xbb\xbf'
p122
aS'U better than pewdiepi\xef\xbb\xbf'
p123
aS"( '.' \\) lizard neck\xef\xbb\xbf"
p124
aS'been watching you for like 5 years\xef\xbb\xbf'
p125
aS'Subscribed! :)\xef\xbb\xbf'
p126
aS'3:38 i thought it was actually real...\xef\xbb\xbf'
p127
aS"I honestly don't think it is fair that pewds has more subs. I mean, you put \na lot more effort to your vids, your vids are more fun to watch ad you'v \nbeen doing this for almost ten years.\xef\xbb\xbf"
p128
aS"OMG!!!!!!!! The cup song/Skrillex reference was the best in the \nworld!!!!!!!! Can't stop laughing!!!!! \xef\xbb\xbf"
p129
aS'thnx 4 the lizard neck\xef\xbb\xbf'
p130
aS'3,513,641 view eh good enough\xef\xbb\xbf'
p131
aS'OMG I LAUGHED SO HARD IDK WHY AT THIS PART!! XD LMAO!! 1:00\xef\xbb\xbf'
p132
aS'When did Pewdiepie get more subs than you? You were the best at one ponit!\xef\xbb\xbf'
p133
aS'Stop at 1.15\xef\xbb\xbf'
p134
aS'I subscribed I love ur channel!!!!!!!!!!!!!!!!!!!!!!!!!!!!!!\xef\xbb\xbf'
p135
aS"When a celebrity dies, you know about the talent that was left behind. You \nwatch his interviews, and you see what a lovely person he was, and you see \nhow talented he was. When a homeless person dies, it's easier to forget \nthat he was human too. \xef\xbb\xbf"
p136
aS'Hey nigahiga your my favorite\xef\xbb\xbf'
p137
aS'I hate the google plus integration. it sucks.\xef\xbb\xbf'
p138
aS'good vedio\xef\xbb\xbf'
p139
aS'hahahahahah!\xef\xbb\xbf'
p140
aS'Cory was amazing to me. Still crying.\xef\xbb\xbf'
p141
aS'You do release your heart is on the left side of your body\xef\xbb\xbf'
p142
aS'ilysm Ryan Higa!!!!!!!!!\xef\xbb\xbf'
p143
aS'That part of your neck is called your " sternocleomastoid "\xef\xbb\xbf'
p144
aS"Thank you for the laughs Nigahiga, you'll always be the comedy channel in \nmy book\xef\xbb\xbf"
p145
aS'Did you comb your hair Ryan hahahah\xef\xbb\xbf'
p146
aS'that skrillex reference\xef\xbb\xbf'
p147
aS'Your Welcome,jk your vids are awesome\xef\xbb\xbf'
p148
aS'Cory monteith is life \xef\xbb\xbf'
p149
aS'I saw you at Youtube Fanfest Sydney and hugged you :) Tehe\xef\xbb\xbf'
p150
aS'Dear ryan can you act like kpop\xef\xbb\xbf'
p151
aS"Ryan when you started ranting about Nelson Mandelas death, you should have \nput yourself in an Africans shoes. What if you were a black African and \nsomeone important like Nelson Mandela and went to jail TWICE helping black \nAfricans be free during the apartheid. That's why people were said when he \ndied. It didn't matter when he died or what age he died, he caused the \nextinction of racism in Africa and I wish people could respect that. I \nSTILL LOVE YOU RYAN\xef\xbb\xbf"
p152
aS"Your my favourite you tuber, whenever you post a new video I die inside \nbecause I'm so excited and they always make me laugh, especially when I \nfound out my dad might be homeless in less than a month so you really \ncheered me up. Cheers man :) \xef\xbb\xbf"
p153
aS'I want his phone case\xf0\x9f\x98\xb3\xf0\x9f\x92\x95\xef\xbb\xbf'
p154
aS'killing and stealing with your friends? :D\xef\xbb\xbf'
p155
aS'Loved it!  <3\xef\xbb\xbf'
p156
aS"It's funny cause you're way better than both smosh and pewdiepie\xef\xbb\xbf"
p157
aS'And now he has 12.5 almost\xef\xbb\xbf'
p158
aS"It's sad that most of his viewers are kids ranging from 7 to 16 years old. \nCongrats on all of the subscribers.\xef\xbb\xbf"
p159
aS'You have ADHD?\xef\xbb\xbf'
p160
aS'ryans fanbase is full of shitty people\xef\xbb\xbf'
p161
aS'What I learned from 2013: ONLY TEARDROPS!S!S!!SSS!S\xef\xbb\xbf'
p162
aS"I like Pewds but you deserve his numbers of subs way more. You're just \nnaturally hilarious and seem to put more effort in your videos.\xef\xbb\xbf"
p163
aS'Dear Ryan can you be 1d?\xef\xbb\xbf'
p164
aS"you make the best videos. There's not one video that doesn't make me laugh\xef\xbb\xbf"
p165
aS"I almost expected vanoss' voice.. \xef\xbb\xbf"
p166
aS"Well, on 2013 ,The Video I Liked The Most Is The 'Draw My Life ' Video\nThat Video Teach Me So Many Things About Life\xef\xbb\xbf"
p167
aS'why so much hate people... Jeesh\xef\xbb\xbf'
p168
aS'Stop at 0.15\xef\xbb\xbf'
p169
aS'hey guys this is nigahiga!!! \nthis is my second channel subsribe to this channel now\xef\xbb\xbf'
p170
aS'ryan do some magic tricks and reveal it!^^\xef\xbb\xbf'
p171
aS'1:38 lol are you doing that nice spirits mix from spring breakers? \xef\xbb\xbf'
p172
aS'Always #1 in my book.\xef\xbb\xbf'
p173
aS"Slow Down ! you're too fast , I cant Understand you anymore -,-\xef\xbb\xbf"
p174
aS'hi\xef\xbb\xbf'
p175
aS'11 million is a lot these days \xef\xbb\xbf'
p176
aS'Make a video man or I will unsubscribe \xef\xbb\xbf'
p177
aS'I have ADD\n\xef\xbb\xbf'
p178
aS'wow you stoker\nwtf\nwtf\nwtf\nwtf\xef\xbb\xbf'
p179
aS'Does ADHD count as mental illness or retardedness?\xef\xbb\xbf'
p180
aS'I love you Ryan.\xef\xbb\xbf'
p181
aS'That did sound pretty good\xef\xbb\xbf'
p182
aS' Ryan Higa, can you do something based on on minecraft\xef\xbb\xbf'
p183
aS"Dude ur awesome!!\nBy the way who the hell is puty pie I don't even no the spelling!!\xef\xbb\xbf"
p184
aS'LIAZAARD NACK\xef\xbb\xbf'
p185
aS'what is the song at the end called?\xef\xbb\xbf'
p186
aS"You talk so fast that you don't give me a chance to laugh at one point \nyoure talking about because if i did i'll just miss the other point ._.\xef\xbb\xbf"
p187
aS'This guy still exists? damn\xef\xbb\xbf'
p188
aS'Thank you for putting the time towards being so funny XD\xef\xbb\xbf'
p189
aS"you deserve it, you're videos are original. Keep it up!\xef\xbb\xbf"
p190
aS'That is a lot of subscribers!\xef\xbb\xbf'
p191
aS"From reading many comments on this video it's so painfully obvious that so \nmany dislike pewdiepie's content. Why?\xef\xbb\xbf"
p192
aS'The part where u were like Uh what is this made me laugh so hard! >~<\xef\xbb\xbf'
p193
aS'what does the fox say?!!? DEAR RYAN DO A PARODY OF WHAT DOES THE FOX \nSAY!!!!! (and thats how it all began)\xef\xbb\xbf'
p194
aS'Who feels sad for celebrities dying of drug overdoses?\xef\xbb\xbf'
p195
aS'yeah but you fuck pewdipies video view ratings in the ass. great video!\xef\xbb\xbf'
p196
aS'Lawl twerking makes you dance better lawl\xef\xbb\xbf'
p197
aS'To ordinary folks who want to lose fat some day, Just google Skinnimaker \nSystem and get started.\xef\xbb\xbf'
p198
aS'0:35 lol\xef\xbb\xbf'
p199
aS'PEWWDIIEPIIEE!! *BROFIST*\xef\xbb\xbf'
p200
aS'Me tooooooooooo\n\xef\xbb\xbf'
p201
aS'Lol....lizardneck... XD\xef\xbb\xbf'
p202
aS'Aww you talked about cory \xe2\x9d\xa4\xef\xb8\x8f\xef\xbb\xbf'
p203
aNaS'Ryan, what\'re you talking about! we always watch the video till the end! \ntill we hear the "TEEHEE"! xP we love you and will always support you. :)\xef\xbb\xbf'
p204
aS'One last lizard neck, JUST WAT I WANTED!!\xef\xbb\xbf'
p205
aS'Wow Ryan, you always put in so much effort in making videos. You deserve \nall the awesome subscribers! Love you Ryan! :)\xef\xbb\xbf'
p206
aS"Throwback, Off The Pill style, ranting video on all the lessons I learned \nfrom this past year, plus a hint at the next video that's been taking \nforever and stressing the hell out of me!\xef\xbb\xbf"
p207
aS'3:29 Game Theory?\xef\xbb\xbf'
p208
aS'Who but Ryan can rant while giving a thank you and make it funny.\xef\xbb\xbf'
p209
aS'I remember the I navigator lol that was so funny to me\xef\xbb\xbf'
p210
aS'lol it literally shifted from noon to dawn... xDD\xef\xbb\xbf'
p211
aS'3:40. AHAHAH. (no but seriously i was really dissapointed until i actually \nread what it said... lol.... xD)\xef\xbb\xbf'
p212
aS'R.I.P Nissan Main Dealer.\xef\xbb\xbf'
p213
aS"What's the ending song?\xef\xbb\xbf"
p214
aS'Not even 1/2 of his sub watch his 11 mil sub vid\xef\xbb\xbf'
p215
aS'Ryan, U R immensely talented. And not bad  on the eyes.\xef\xbb\xbf'
p216
aS'Lol at how he is on vine \xef\xbb\xbf'
p217
aS'1:05 Time flies\xef\xbb\xbf'
p218
aNaS'Who has more subs than Ryan. Two people I think are pewdiepie and smosh\xef\xbb\xbf'
p219
aS'Holy crap u talked about Cory Monteith \xef\xbb\xbf'
p220
aS'you should make gaming videos\xef\xbb\xbf'
p221
aS'You did learn something from What Does The Fox Say, Ryan! You learned what \na fox says :D\xef\xbb\xbf'
p222
aS"I remember when the How To Be videos came out... RYAN YOU ARE AWESOME! I \ntry to watch every single week when I can! You've helped me through alot \nman!\xef\xbb\xbf"
p223
aS'Paul Walker was killed by Illuminati, The Death of Paul Walker was actually \nposted all over the internet and news pages before the actual car accident \nof his death. BUT I LOVED PAUL WALKER AND  TOKYO DRIFT FAST AND FURIOUS!! \nR.I.P PAUL WALKER!!! <3\xef\xbb\xbf'
p224
aS'Ahh I remember when I first started watching nigahiga the firi vid I saw \nwas how to be ninja still enjoy watching it to this day\xef\xbb\xbf'
p225
aS'nelson\xef\xbb\xbf'
p226
aS':") \xef\xbb\xbf'
p227
aS'Omg!!!!! XD!!! Love this man\xef\xbb\xbf'
p228
aS"I don't care what anyone else thinks, to me you will always be the king of \nYouTube. Long live Ryan Higa.\xef\xbb\xbf"
p229
aS'i have adhd to\xef\xbb\xbf'
p230
aS'you look so fucking hot\xef\xbb\xbf'
p231
aS'http://m.freemyapps.com/share/url/3627ec91\xef\xbb\xbf'
p232
aS'What does the fox say?\xef\xbb\xbf'
p233
aS'Lol the ending of the video the best! Awesome Flashback of the past!\xef\xbb\xbf'
p234
aS"I love pewdiepie don't get me wrong but honestly Ryan deserves twice as \nmany subscribers than Pewds. He actually takes the time to upload \nmeaningful and hilarious videos while Pewds upload some 7 minute video of \nhim playing an app on is iPad...\xef\xbb\xbf"
p235
aS"YAY I love when you're off the pill ryan! and that lizard neck.... i mean \n...hmm mmm\xef\xbb\xbf"
p236
aS"Seriously, ryan you're hilarious\xef\xbb\xbf"
p237
aS'Lizard Neck\xef\xbb\xbf'
p238
aS'but just saying i think he pointed at the left side \xef\xbb\xbf'
p239
aS'aghh, i love you\xef\xbb\xbf'
p240
aS'Pewdiepew has about 25,000,000\xef\xbb\xbf'
p241
aS"U go Ryan! I know what it's like to be different, after all I'm autistic! \nKeep on making great vids, and you will keep getting fans. Just be your \nawesome self!\xef\xbb\xbf"
p242
aS'Cory Monteith part....#TrueDat\xef\xbb\xbf'
p243
aS"Ryan almost has twelve million subscribers!! C'mon!\xef\xbb\xbf"
p244
aS'nelson mendela? oops\xef\xbb\xbf'
p245
aS'Because we said so policy cracked me up\xef\xbb\xbf'
p246
aS'So l still have a chance at being a dancer? Me too, Ryan, me too.....\xef\xbb\xbf'
p247
aS"I'm from Morocco, and i'm a huge fan keep it like that ryan :D\xef\xbb\xbf"
p248
aS'You did science!!!! YAY\xef\xbb\xbf'
p249
aS'Dear Ryan,\nHow to fish video?\xef\xbb\xbf'
p250
aS'4:47 still wish that could have been longer. Congrats on so many subs!\xef\xbb\xbf'
p251
aS'To ordinary folks who want to lose fat some day, Just google Skinnimaker \nSystem and get started.\xef\xbb\xbf'
p252
aS'yea i like gaming videos like final fasnty xlll is a good gaming video so \nfar to me\xef\xbb\xbf'
p253
aS'dude 11million is a lot \xef\xbb\xbf'
p254
aS"I'v watched you for about 4.3 years !\xef\xbb\xbf"
p255
aS'nice vid ryan\xef\xbb\xbf'
p256
aS'160,000th liker. Yes\xef\xbb\xbf'
p257
aS'whats the ending song?\xef\xbb\xbf'
p258
aS"It's been like 6 years since I started watching your videos and they never \nfail to make me smile and laugh. And I really like this video . I want more \noff the pill videos\xef\xbb\xbf"
p259
aS'dear Ryan: why do you keep glancing at the bottom right corner.\xef\xbb\xbf'
p260
aS"Thanks we love u too. You've done a lot for your too. Continue being \nawesome \xef\xbb\xbf"
p261
aS'love all of your videos and the musical ones I actually listen to on a \nregular basis\nthey are good songs and sound fantastic dude please never stop this channel\xef\xbb\xbf'
p262
aS'YOU CANT JUST GET PREGNANT AT ANY TIME U KNOW THAT RIGHT?\xef\xbb\xbf'
p263
aS'lizard neck!!\xef\xbb\xbf'
p264
aS'Nigahigas video Im nigahigas biggest fan.\xef\xbb\xbf'
p265
aS'I\'ve seriously watched you for like I remember when you posted "how to be a \ngangster" & all those videos & me and my brother would get excited & you\'ve \ncame so far..! :\')\xef\xbb\xbf'
p266
aS'I was listening to this trying to plan the perfect moment to kiss my crush, \nand right after Ryan said "lizard neck" at the climax of the song, I kissed \nmy pillow (yeah i do that) and it felt like it would be perfect.\xef\xbb\xbf'
p267
aS'You are the best ryan \xef\xbb\xbf'
p268
aS'Tee hee!\xef\xbb\xbf'
p269
aS"that last lizard neck :'(\xef\xbb\xbf"
p270
aS'hey my name is nelon COOOL\xef\xbb\xbf'
p271
aS'I subbed during the video\xef\xbb\xbf'
p272
aS'i had to pause the video for 5 minutes because that diss to Southwest was \nso good XD\xef\xbb\xbf'
p273
aS'Man ryan you are so freaken funny yo ive been watching your vids for 8 1/2 \nyrs now make more off the pillvids and dont listen to the bad comments and \nthings thes people have to say cause ifyou think about it you take time out \nof your day to make us laugh and yeah so keep it up peace!!!!!!:-)\xef\xbb\xbf'
p274
aS'Gaming videos? Sounds good\xef\xbb\xbf'
p275
aS"Lol laughing so hard I couldn't breath after the first lizard neck\xef\xbb\xbf"
p276
aS"80 H D...THAT'S HOW MY SISTER SAY IT!!\xef\xbb\xbf"
p277
aS' You are so funkin awsome :)! $$$$$$$\xef\xbb\xbf'
p278
aS'I literally started crying...\xef\xbb\xbf'
p279
aS'the reason that pewdipi has so many subscribers is becaus he is the most \nsubscribed chanel\xef\xbb\xbf'
p280
aS"Love you too Ryan :')\xef\xbb\xbf"
p281
aS'I have been watching you for 5 years. Those where the funniest times\xef\xbb\xbf'
p282
aS'IM SORRY I DISLIKED IT BY ACCIDENT ILY RYAN\xef\xbb\xbf'
p283
aS'I have ADHD too.\xef\xbb\xbf'
p284
aS'At school my table group is southwest\xef\xbb\xbf'
p285
aS'Dear Ryan, can you play the bioshock series on hard for brass balls while \nplaying the bagpipe and kissing micky mouse in front f minnie mouse while \nscreaming bloody murder? Pwetty pwease? :3\xef\xbb\xbf'
p286
aS'I\'m sorry but Nelson Mandela is spelled with an "a" not an "e".\xef\xbb\xbf'
p287
aS'Orrrrrrrrr ctfxc\xef\xbb\xbf'
p288
aS'Did u really have to explain ur body around ur heart\xef\xbb\xbf'
p289
aS"Dear Ryan, What's Victorias secret?\xef\xbb\xbf"
p290
aS'Ryan being the nice guy and all. LIZARD NECK!!!!\xef\xbb\xbf'
p291
aS'You got me there \xef\xbb\xbf'
p292
aS"I loveeeee your VIDEO RYAN! Been watching it and don't stop alright ! \xef\xbb\xbf"
p293
aS'Lollollollol,:-P:D\xef\xbb\xbf'
p294
aS'HAH! Lizard neck had me cracking up! :D\xef\xbb\xbf'
p295
aS'More off the pill videos lol\xef\xbb\xbf'
p296
aS'Bbbvbm\xef\xbb\xbf'
p297
aS"You are so awesome!!! I love watching your videos don't ever stop :)\xef\xbb\xbf"
p298
aS'lmao, 0:57\xef\xbb\xbf'
p299
aS'I watched all the videos you showed in the flashback!!! :D\xef\xbb\xbf'
p300
aS'Cool show\xef\xbb\xbf'
p301
aS'If it helps u can say thank you to me\xef\xbb\xbf'
p302
aS'at first i thought he said he was diagnosed with hiv as a kid and i was \nreally confused for about 30 seconds before i went back and watched it \nagain\xef\xbb\xbf'
p303
aS'"They\'re not racist, so stop racing them"\nSo true :)\xef\xbb\xbf'
p304
aS'Ahahahah\xef\xbb\xbf'
p305
aS'oh dear, look at all those pewdiepie rants in the comments. and yeah, \nnelson mandela... but that was a scary time for some white people here in \nsouth africa. lol, most of the older generation thought they were all going \nto be killed off after mandela passed away. and us younger folk are, \n"naaaahhhh.... right, thabo? (looks at black friend nervously)" anyway, \nlove the vids ryan, keep it up!\xef\xbb\xbf'
p306
aS'Ryan I started watching you about two to three weeks ago, and I must admit \nyou have always been better than PewdiePie ^.^ Keep it up bro!!!!!\xef\xbb\xbf'
p307
aS'#lizardneck\xef\xbb\xbf'
p308
aS'does he really takes medication lol?\xef\xbb\xbf'
p309
aS'GOOGLE CUT OUT A PART OF YOUR VIDEO\xef\xbb\xbf'
p310
aS'Does he actually have ADHD?!\xef\xbb\xbf'
p311
aS'I liked the peg pants most!\xef\xbb\xbf'
p312
aNaS'i love ur vids ryan!\xef\xbb\xbf'
p313
aS'I toootally lost it when he got to the twerking part \xf0\x9f\x98\x82\xf0\x9f\x98\x82\xf0\x9f\x91\x8c\xef\xbb\xbf'
p314
aS'I love you Ryan !!! <3 I mean your last speech literally made me cry ..!! \n*hugs* \nAnd we all love you and we all will never stop supporting you! :D\xef\xbb\xbf'
p315
aS'Damn that lizard neck :b\xef\xbb\xbf'
p316
aS'Wow i has ADHD to an act same way :3\xef\xbb\xbf'
p317
aS"I've been watching your videos for years! You are by far my favorite \nyoutuber\xef\xbb\xbf"
p318
aS'i liked it at 3:53 xd\xef\xbb\xbf'
p319
aS'haha my first video to watch was how to be emo haha =))\xef\xbb\xbf'
p320
aS'Dear Ryan, do u actually have ADHD\xef\xbb\xbf'
p321
aS'Your awesome bro keep it up :-D\xef\xbb\xbf'
p322
aS'1:39 Skrillex xD\xef\xbb\xbf'
p323
aS'Love ur vids like this Ryan!!! I make funny vids too. Stop by my channel \nsometime. You might enjoy my videos! ;)\xef\xbb\xbf'
p324
aS'Trololololololl\xef\xbb\xbf'
p325
aS'Less than three <3\xef\xbb\xbf'
p326
aS'hi..i reli reli like d way u rant in ur vidz, u know things like current \nevents, and more...\nkeep up d goodwork\nlike a lot when u smile...\xef\xbb\xbf'
p327
aS'i know its an off a pill but nels\non mandela he spent 25 years in jail he didnt get to live that 25 years\xef\xbb\xbf'
p328
aS"I've been here for Ryan for like 6 years\xef\xbb\xbf"
p329
aS'Im nigahigas biggest fan.\xef\xbb\xbf'
p330
aS'I have been watching u since 2007\xef\xbb\xbf'
p331
aS'Mandela not mendela \xef\xbb\xbf'
p332
aS'lol lizard neck!!!!! keep making of the pill videos\xef\xbb\xbf'
p333
aNaS'Yes oh my god reference\xef\xbb\xbf'
p334
aS'I felt sooooooooooooooooo sad I cried so hard 4 a hour about paul walkers \ndeath\xef\xbb\xbf'
p335
aS'Nelson MANdela \xef\xbb\xbf'
p336
aS'where can i buy that iPhone cover?\xef\xbb\xbf'
p337
aS'lol 0:07\xef\xbb\xbf'
p338
aS'Hay u should do a doctor who theme\n\xef\xbb\xbf'
p339
aS'CLASSIC !! \xef\xbb\xbf'
p340
aS'You are so cool :) $\xef\xbb\xbf'
p341
aS'lizard\xef\xbb\xbf'
p342
aS'Lol\xef\xbb\xbf'
p343
aS"Am I the only person who doesn't like pewdiepie?\xef\xbb\xbf"
p344
aS'More than 1000000 subscribers isnt alot? lolz iv got 5 lolz muhahaha higa \nstill a legend =P\xef\xbb\xbf'
p345
aS'I would love to get together with higa tv and do some videos! cant wait to \nstart posting mine! higatv for the win!\xef\xbb\xbf'
p346
aS'Dammit I thought I was the only one who could lizard neck!!D:<\xef\xbb\xbf'
p347
aNaS'0:49 lol two eyes i thought 1 eye :p\xef\xbb\xbf'
p348
aS"Good luck Lizard-Neck, I'm proud of you.\xef\xbb\xbf"
p349
aS"I don't see why so many people are subbed to PewDiePie... I don't really \nget his humor. Oh well.\xef\xbb\xbf"
p350
aS"Love you Ryan :D I've been with you since the beginning and I'm here to \nstay.\xef\xbb\xbf"
p351
aS'You da man, Ryan!\xef\xbb\xbf'
p352
aS'I have ADD... man, playing starcraft/counter-strike without it, sucks big \ntime!\xef\xbb\xbf'
p353
aS"i understand how you fell about ADHD and i no because i have and i have to \ntake pills so if someone is making fun of him your making fun of me and i \ndon't think you want to be mean to a 10 year old\xef\xbb\xbf"
p354
aS"Lawl I've been here since he made How to be Ninja\xef\xbb\xbf"
p355
aS'AWESOME 2013! Keep it up! :D\xef\xbb\xbf'
p356
aS'I love you, Ryan :P #creepycrush\xef\xbb\xbf'
p357
aS'Nelson Mendela. Lol. Fail\xef\xbb\xbf'
p358
aS'SUBSCRIBE D:<\xef\xbb\xbf'
p359
aS'Hey Ryan, check out Boyce avenue\'s cover of Let her go!! :o You guys wear \nthe same shirt! :D Well, not exactly "the same" but anyway....\xef\xbb\xbf'
p360
aS'lizard 1:00\xef\xbb\xbf'
p361
aS'WHAT DOES THE FAX SAY\xef\xbb\xbf'
p362
aS'This video was so amazing! I loved the end \xf0\x9f\x98\x8d\xef\xbb\xbf'
p363
aS'Man I havent watched this video since about 6yrs ago...he still looks the \nsame\xef\xbb\xbf'
p364
aS'Whats EDM\xef\xbb\xbf'
p365
aNaS'I love hearing people say pewdiepie!!!\xef\xbb\xbf'
p366
aS'i have ADD i deal with it by painting... although it still dont help...\xef\xbb\xbf'
p367
aS"It's a wonder why BlastingYourHeadphonesPie has more subscribers than Higa. \nHiga's actually funny.\xef\xbb\xbf"
p368
aS'Good for you for not getting Vine. Its gay af. Dont know why I got it.\xef\xbb\xbf'
p369
aS'\xd0\xaf \xd0\xbe\xd0\xb4\xd0\xb8\xd0\xbd \xd0\xa0\xd1\x83\xd1\x81\xd1\x81\xd0\xba\xd0\xb8\xd0\xb9 \xd0\xb4\xd0\xbe\xd1\x81\xd0\xbc\xd0\xbe\xd1\x82\xd1\x80\xd0\xb5\xd0\xbb \xd1\x8d\xd1\x82\xd0\xbe \xd0\xb4\xd0\xbe \xd0\xba\xd0\xbe\xd0\xbd\xd1\x86\xd0\xb0?!\xef\xbb\xbf'
p370
aS"Hey guys I'd really appreciate a quick peek at my channel. My friends and I \nmade a cover song for Valentine's Day. Spread the love :D\xef\xbb\xbf"
p371
aS'Junior cardistry check it out\xef\xbb\xbf'
p372
aS'LOL lizard\xef\xbb\xbf'
p373
aS"Hahaha, this is great.  I may or may not have stolen what you said ad \nposted it on facebook...  I'm not sure how this is relevant, but my husband \nhas adhd and he's hilarious and I love him.\xef\xbb\xbf"
p374
aS'Did you know if you say what does the fox say to seri it says ring diding a \ndiding\n\xef\xbb\xbf'
p375
aS'haha he also watch pewds\xef\xbb\xbf'
p376
aS'Lollollollol,:-P:D\xef\xbb\xbf'
p377
aS'ive been watching you since ever <3\xef\xbb\xbf'
p378
aS'<3\xef\xbb\xbf'
p379
aS'Ya\xef\xbb\xbf'
p380
aS"HEY!\nI'm trying out YouTube too,checkout my videos? Also giving out advice! \nThanks for even READING this!\nPs.Love ya Ryan \xef\xbb\xbf"
p381
aS'"on the right side of my sternum"\n*circles left*\xef\xbb\xbf'
p382
aNaS'Dear Ryan,are you a lizard?\xef\xbb\xbf'
p383
aS'Do more off the pills\xef\xbb\xbf'
p384
aS'.-. reloaded at 3:40 2 times b4 i found out it was part of the video\xef\xbb\xbf'
p385
aS' I have ADHD to Ryan\xef\xbb\xbf'
p386
aS'Where can you find that music that plays in the background?\n\xef\xbb\xbf'
p387
aS'dam this fool has changed so much since 2010..\xef\xbb\xbf'
p388
aS'Skitzo - Lessons To Learn From 2013\xef\xbb\xbf'
p389
aS'I have adhd too. Pickle\xef\xbb\xbf'
p390
aS'i watch you sinds the "how to be" vids. stil love your vids\xef\xbb\xbf'
p391
aS'dear ryan...do you play flappy bird?\xef\xbb\xbf'
p392
aS'Left bro....left not right. Lol. Still love ya!\xef\xbb\xbf'
p393
aS'Lol\nLizard neck \xef\xbb\xbf'
p394
aS'I smiled. Thank YOU ryan, for ceaselessly planting smiles with your videos \n(:\xef\xbb\xbf'
p395
aS'That was the left side of the sternum...\xef\xbb\xbf'
p396
aS'dear ryan you should my candy crush the trailer into a real movie \xef\xbb\xbf'
p397
aS'Rayan ur so beautiful\xef\xbb\xbf'
p398
aS'Dear Ryan, Can you do movies in minutes Frozen?\xef\xbb\xbf'
p399
aS'ryan higa u changed my life!! when ever i hav a bad day i just go on \nyoutube and watch YOUR videos and thn my whole day just turned around! you \nmake me laugh smile nd happy! dont stop makeing videos!! I LOVE YOUR \nVIDEOS!!!!! <3 <3 <3 \xef\xbb\xbf'
p400
aS'Join the bruh armie\nOh shet.. wrong video\xef\xbb\xbf'
p401
aS'Love you Ryan !!  \xef\xbb\xbf'
p402
aS'Eww what is this? Looks like a lizard!\xef\xbb\xbf'
p403
aS'Dear Ryan, Can you Let It Go!?\xef\xbb\xbf'
p404
aS'Ryan, I love you! \xef\xbb\xbf'
p405
aS"Who's PutiePie I think it was? LOL, I'm serious though, WHO IS PutiePie ?\xef\xbb\xbf"
p406
aS'nice\xef\xbb\xbf'
p407
aS'slug rhyme with hug!!\xef\xbb\xbf'
p408
aS'Ryan! I bet u will have moar subs than pewds soon!\xef\xbb\xbf'
p409
aNaS"guys plz check out my channal ... look i didn't even know how to spell \nchannel .. :D \xef\xbb\xbf"
p410
aS"please don't turn into a gaming channel where i can't even understand any \nof the vid and have someone screaming and swearing at my face for no \nreason. cause if you and everyone else do, i would leave youtube for \neternity!!! \xef\xbb\xbf"
p411
aS'Mug me\xef\xbb\xbf'
p412
aS'That lizard neck was amazing. Thankyou\xef\xbb\xbf'
p413
aS'Do the nae nae next\xef\xbb\xbf'
p414
aS'I have ADHD also\xef\xbb\xbf'
p415
aS"Ryan, as long as you don't sell out and become annoying as fuck, you'll \nalways be better than PewDiePie. <3\xef\xbb\xbf"
p416
aS'Dear Ryan say my name\n\xef\xbb\xbf'
p417
aS"Hey, 11 million subs! Pewy has 22 millions, so all we have to do is invent \na cloning device and clone every single subscriber and you'll be as popular \nas Pewdy!\xef\xbb\xbf"
p418
aS'dear ryan, can you be a figure skate??\xef\xbb\xbf'
p419
aS'#lizardneck :P\xef\xbb\xbf'
p420
aS'Ryan Higa is my spirit animal.\xef\xbb\xbf'
p421
aS'these are funny but serious (lizard neck)\xef\xbb\xbf'
p422
aS'I have ADHD \xef\xbb\xbf'
p423
aS'SKITZO\xef\xbb\xbf'
p424
aS'ACTYOULLY I relly want you to play minecraft!!!!!!\xef\xbb\xbf'
p425
aS'What does the Fox say, Ryan?\xef\xbb\xbf'
p426
aS'Cool\xef\xbb\xbf'
p427
aS'Dear Ryan can you play minecraft?\n\xef\xbb\xbf'
p428
aS'Ish thish Glenn form The walking Corpses?\n\nIm nut racist.\xef\xbb\xbf'
p429
aS'where can i get a teehee iphone case like yours?!!!?\xef\xbb\xbf'
p430
aS'dear ryan can you time travel\xef\xbb\xbf'
p431
aS'Cool\n\xef\xbb\xbf'
p432
aS'Pffff Only 11 million? Geeez thats a lot\xef\xbb\xbf'
p433
aS'I just sub. to his channel and it seems very cool so far. Not to mention \nhow freaking sexy this guy looks. :)\xef\xbb\xbf'
p434
aS'We will always love u \xef\xbb\xbf'
p435
aS"OMG I'm so happy I came across your videos... I've been watching now for \nover an hour, everything hurts from laughing.. Your freaking hilarious, \nawesome, cute and sexy! Oh and one last thing.... Teeheee!!!!! \xf0\x9f\x98\x89\xef\xbb\xbf"
p436
aS'#LIZARDNECK is so nice\xef\xbb\xbf'
p437
aS'Dear Ryan can you make your own video game?\xef\xbb\xbf'
p438
aS'I love your Ryan!! I remember watching how to be a gangster when it first \ncame out<3\xef\xbb\xbf'
p439
aS'Lol\xef\xbb\xbf'
p440
aS"Is it okay if I cry? You've made it so far.. AHH!!!\xef\xbb\xbf"
p441
aS'Dear ryan what age am I 1-10\xef\xbb\xbf'
p442
aS'Hey guys, sorry for the spam!\nI made a skit channel and I just uploaded a video i have been working on \nfor 1 day now!\nIt would be amazing if you could check the video out on my channel :)\nIf i hit 100 subs ill run in to a store and sing wrecking ball..\nThanks guys :)\xef\xbb\xbf'
p443
aS"Ryan, you truly are a hero and I hope you continue making videos. I'm \nreally happy for you and I agree with insanlity: You are a legend and \nalways will be!\xef\xbb\xbf"
p444
aS'0:58 omg\xef\xbb\xbf'
p445
aS'GAMING VIDEOS PLEASE!!!!!!!!!!!!!!!!!!!!\xef\xbb\xbf'
p446
aS'the kiss tho...\xef\xbb\xbf'
p447
aS'Dear Ryan can you play minecraft?\xef\xbb\xbf'
p448
aS"Ryan, you are awesome, incredibly funny, insightful, and can always make me \nand my friends laugh. Don't ever change, *lizard neck*. ^_^ \xef\xbb\xbf"
p449
aS'Hey! A crazy girl is here! If you have an extra second, check my channel! \nYou may like it! THANK YOU for spending your time!!!!\xef\xbb\xbf'
p450
aS"If you don't like him then why the hell are you here? @Hugo \xef\xbb\xbf"
p451
aS'\xd0\xa7\xd1\x82\xd0\xbe \xd0\xb1\xd0\xbb\xd1\x8f\xd1\x82\xd1\x8c? \xd0\x93\xd0\xb4\xd0\xb5 \xd1\x8f?\xef\xbb\xbf'
p452
aS"Ryan, you'll always be my favorite Youtuber when it comes to comedy! I \nadmire your clever ideas and you never fail to make me laugh. You're one of \nthe few people I watch on Youtube, because I know that every video you \nupload will be something great. \xef\xbb\xbf"
p453
aS'Wait... does he actually have ADHD?\xef\xbb\xbf'
p454
aS'Dear Ryan... Doctor Who.\xef\xbb\xbf'
p455
aS'Lol thanx for the lizard neck Ryan u rock!!!\xef\xbb\xbf'
p456
aS'Ryan is funny! Keep up the good work, Ryan! Haters gonna hate.\xef\xbb\xbf'
p457
aS'Ryan Doe. <3\xef\xbb\xbf'
p458
aS'Please help support Joseph perkins larynx cancer fund at indiegogo.com this \nis the last month we have left with no donations to help joey battle cancer \nwhile raising his disabled daughter\xef\xbb\xbf'
p459
aS"\nRobin thicke : seems very nice and overrated. He might have a new hit in a \ncouple of years. I find him soulful. I am surprised he didn't get a grammy.\n\nNorth west : Hmmmmm...... Hopefully she will have a good life, she does \nhave a interesting name.\n\nVines : I don't know why this video is even a big deal. It's kinda like the \ndevil baby to me.\n\nMiley part : It's such a trend and its been going on for almost 9 months. I \ncan't believe people are still talking about her. It just gets worse every \nday. It's LIKE IT NEVER ENDS. She changes her hair so much.\n\n\xef\xbb\xbf"
p460
aS'it looks like a lizard O.o \xef\xbb\xbf'
p461
aS'Why mostly your in your bed room\xef\xbb\xbf'
p462
aS'Thank you for the funny videos!\xef\xbb\xbf'
p463
aS'Nigahiga is emotional. And understandable.\xef\xbb\xbf'
p464
aS'dat cheese ending haha good vid :)\xef\xbb\xbf'
p465
aS"What I learned in 2013 was that if you're mayor of Toronto it doesn't \nmatter if you smoke crack, as long as it was in a drunken stupor. It will \nactually get you more votes.\xef\xbb\xbf"
p466
aS'We Love you and we thank you for your oh-so-humorous videos as always ^^ \nthat makes us laugh...even at the saddest moments ?! XD\xef\xbb\xbf'
p467
aS'dont compare yourself to pewdiepie :/\xef\xbb\xbf'
p468
aS'\xd0\xb2\xd1\x8b \xd0\xbf\xd0\xb8\xd0\xb4\xd0\xbe\xd1\x80\xd1\x8b\xef\xbb\xbf'
p469
aNaS'Sound good...izer\xef\xbb\xbf'
p470
aS"you guys shouldn't be comparing pewds to Ryan. its completely unfair, \nconsidering they so different things and are two different people.\xef\xbb\xbf"
p471
aS'"I should probably get into gaming videos" \nLol pewdiepie\xef\xbb\xbf'
p472
aS'<3\xef\xbb\xbf'
p473
aS'Hi TEE HEE\xef\xbb\xbf'
p474
aS'Dear Ryan can u do songs in real life\xef\xbb\xbf'
p475
aS'I have ADHD \xef\xbb\xbf'
p476
aS"I've been watching nigahiga for awhile now, personally I think he makes \nsome of the cleverest videos I've ever seen. He really beats out a lot of \nother you tubers who just say 'fuck' all the time. I'm a foul-mouthed \nbastard myself, but Ryan doesn't need cheap crutches. He's just naturally \ngoddamn hilarious.\xef\xbb\xbf"
p477
aS'anyone notice the light turn off :|\xef\xbb\xbf'
p478
aS'Hi Ryan, are you in a relationship??\xef\xbb\xbf'
p479
aS'Ive been subscribed since.... How to be a ninja (:\xef\xbb\xbf'
p480
aS"You're my favorite YouTube person. I remember I subscribes back when you \ndid how to be a ninja. How to be emo and all that. I love you and your \nvideos. They are always funny. I think you should make another how to be \nninja video or something like that. I laugh way to hard at big bouncy \ninflatable green ball!\n\xef\xbb\xbf"
p481
aS'i learn that u talk really fazt\xef\xbb\xbf'
p482
aS'I have a A.D.H.D!\xef\xbb\xbf'
p483
aS'Hey guys pls check my channel out I just started and a some videos u might \nwant to c btw great vid\xef\xbb\xbf'
p484
aS"You know you're a fan when during the montage you named the title of the \nvideo each clip was borrowed from. (x\xef\xbb\xbf"
p485
aS'funnnny\xef\xbb\xbf'
p486
aS'so we just started with this whole youtube thing and i think you guys \nshould check our channel out haha idk.\xef\xbb\xbf'
p487
aS'Halo 4 love is there and anything is possible\xef\xbb\xbf'
p488
aS"There is one thing i want to say, GUYS seriously ur fighting over who is \nthe better youtuber. Everyone has different opinions so why rage and hate \nwhen someone's opinion is different than yours\xef\xbb\xbf"
p489
aS"I love you too :'(\xef\xbb\xbf"
p490
aS'I subscribed back in the days of the big inflatable green bouncing ball. \nhaha\xef\xbb\xbf'
p491
aS"DON'T YOU DARE compare yourself to PewDiePie!! you are much better!!!!\xef\xbb\xbf"
p492
aS'Dear Ryan you are the funiest person on youtube\xef\xbb\xbf'
p493
aS'11 million! :O thats amazing X3 congrats!\xef\xbb\xbf'
p494
aS'I wanted to cry at the end of his video\xef\xbb\xbf'
p495
aS'Please post more videos , i laugh so hard\xef\xbb\xbf'
p496
aS"The thing is hamming vids get a lot more subs but you don't do gaming \nvideos and your still popular \xef\xbb\xbf"
p497
aS'R.I.P you will be missed Ryan.\xef\xbb\xbf'
p498
asS'time'
p499
ctime
struct_time
p500
((I2013
I12
I17
I21
I46
I57
I1
I351
I-1
t(dtRp501
sS'id'
p502
VrITp0sCFNik
p503
s.