(dp1
S'title'
p2
VLUCY (Parody Trailer)
p3
sS'url'
p4
Vhttp://www.youtube.com/watch?v=RXlHS8Nucx4&feature=youtube_gdata_player
p5
sS'image'
p6
Vhttp://i.ytimg.com/vi/RXlHS8Nucx4/0.jpg
p7
sS'comments'
p8
(lp9
S'Now this trailer just made my day. Thanks for keeping us laughing. lol\xef\xbb\xbf'
p10
aS'its just a rip-off of matilda\xef\xbb\xbf'
p11
aS'we  use 10% of our brain\xef\xbb\xbf'
p12
aS'Sharingan yah\xef\xbb\xbf'
p13
aS"Should I subscribe to some ugly chink's video or shouldn't I? It is a funny \nvideo though.\xef\xbb\xbf"
p14
aS"Does he live in las vegas? Just asking because I saw the mirage and \nceasar's palace in the background at 1:14 \n\xef\xbb\xbf"
p15
aS"Am I the only one who saw the Sharingan in lucy's eye?\xef\xbb\xbf"
p16
aS'Parody Trailer of the movie LUCY! Which version are you excited to watch? \xef\xbb\xbf'
p17
aS'\xe5\x95\x8a\xef\xbd\x9e\xe5\xa5\xbd\xe7\x99\x82\xe7\x99\x92\xe5\x95\x8a\xef\xbd\x9e\xef\xbb\xbf'
p18
aS'If Ryan had his own studio and these movies actually happened, we would \nactually have some good parody movies again.\xef\xbb\xbf'
p19
aS'1:27 hahah his fukn DOG XD I was dying when I saw that\xef\xbb\xbf'
p20
aNaS'Isnt the concept of Lucy exactly the same as the concept of Limitless?\xef\xbb\xbf'
p21
aS'What is the last sentence *the 2+2...?) Can anybody write down for me \nplease !!!! ^*^\xef\xbb\xbf'
p22
aS'#Algebryan\xef\xbb\xbf'
p23
aS'why u hater,, we no like hater\nu mad that u cant quickscop like me\npece.\xef\xbb\xbf'
p24
aS'OMGs XDDD I saw the trailer for Lucy in the theaters and I  was really \nexcited but your trailer OMGs. "Morgan Freeman as Sam Jackson" XDDDDDD\xef\xbb\xbf'
p25
aS'wkakakakakaa.. \xef\xbb\xbf'
p26
aS'OMG, the statement that people are using 10% of their capacity is soo wrong \nand stupid ...\n\nBut this trailer is hilarious :DDD\xef\xbb\xbf'
p27
aS'How did you get Morgan Freeman to do this?\xef\xbb\xbf'
p28
aS'The REAL movie is inaccurate because we actually use 100% of our brain only \nat different times. :-)\xef\xbb\xbf'
p29
aS'*Lucy Trailer ...must see*\xef\xbb\xbf'
p30
aS"I haven't seen Lucy, but this is hilarious!\n\n#trailer   #lucymovie   #humor  \xef\xbb\xbf"
p31
aS'"i dont... care" XD\xef\xbb\xbf'
p32
aS'*Morgan Freeman as Samuel L Jackson*\xef\xbb\xbf'
p33
aS'persomones\xef\xbb\xbf'
p34
aS'bahahaha\xef\xbb\xbf'
p35
aS"I wonder why Ryan and Dom don't do collaborations anymore?\xef\xbb\xbf"
p36
aS'That was..amazing. XD\xef\xbb\xbf'
p37
aS'Limitless was so much better than Lucy\xef\xbb\xbf'
p38
aS'He was going to kill himin the chair, but instead he kills himself lols\xef\xbb\xbf'
p39
aS'THE SPELLING OF THE HUMAN BRAIN WAS SO FUNNY MY STOMACH REALLY HURTS.\xef\xbb\xbf'
p40
aS'i dont.... care\xef\xbb\xbf'
p41
aS'4\xef\xbb\xbf'
p42
aS'2 sounds like "u" and "u" is in between t and v in the alphabet like a TV \n but if everyone has computers and you have 2 TV\'s its like what is it even \n4?\xef\xbb\xbf'
p43
aS'Check out this cool app, open Safari and go to appnana.com on your iPhone \nor touch. It gives apps like Angry Birds, Fruit Ninja for free. You can \nalso get free $5, $10 and $15 iTunes, Amazon Gift Cards, Xbox live, ps \npoints, PayPal money and more as rewards. Input my invitation code d5946620 \nwe both can get 2,500 points.\xef\xbb\xbf'
p44
aS'wow you guy did a really good job look like very real movie\xef\xbb\xbf'
p45
aS'the beginning was the best XD\xef\xbb\xbf'
p46
aS'I knew it\xef\xbb\xbf'
p47
aS'laughed like hell at the four thing :D\xef\xbb\xbf'
p48
aS'She can now play Pac-Man with her eyes!\xef\xbb\xbf'
p49
aS'You should soo make this a movie! It would be so cool!\xef\xbb\xbf'
p50
aNaS'LUCY (Parody Trailer)\n\nLucy Parody Trailer by Ryan Higa  <3 Love it . Teehee\xef\xbb\xbf'
p51
aS'I love how for tge dif eyes he has a sharingan anyone els notice\xef\xbb\xbf'
p52
aS'"this is a table" jajajaja\xef\xbb\xbf'
p53
aS'Omg how did he get Morgan freeman in this video\xef\xbb\xbf'
p54
aS'BAH-HAHAHAHA!!!\n\nI recently saw this movie (which was ... ok) and this trailer is a riot!  ;)\n\nEnjoy!  :D\xef\xbb\xbf'
p55
aS'Anyone Else Notice the amazing Spiderman has been sleeping with her when \nshe first wakes up?\xef\xbb\xbf'
p56
aS'So good.\xef\xbb\xbf'
p57
aS'please do tangled trailler \xef\xbb\xbf'
p58
aS'Lucy? More like Lucyfur\xef\xbb\xbf'
p59
aS"Good trailer, it's making me want to watch the movie\xef\xbb\xbf"
p60
aS'LOL\xef\xbb\xbf'
p61
aS'I knew it\xef\xbb\xbf'
p62
aS"Ohmygosh after watching the lucy movie n come back to watch Ryan's trailer \nsrsly made me laugh so hard.\xef\xbb\xbf"
p63
aS'lucy mais regardez et vous allez rire\xef\xbb\xbf'
p64
aS'Still better than the original movie lol:)lol\xef\xbb\xbf'
p65
aS'no not cool ......... not cool at all because this movie is the best you \nguys are not funny\xef\xbb\xbf'
p66
aS'nigahiga do a vidio about you playing a game\xef\xbb\xbf'
p67
aS"I've watched this so many times so funny\xef\xbb\xbf"
p68
aS'Lol\xef\xbb\xbf'
p69
aS'what will happen when she reaches 100% i dont care\xef\xbb\xbf'
p70
aS'and i love the people throws shirt on niga\xef\xbb\xbf'
p71
aS'Is that actually morgan freeman acting?\xef\xbb\xbf'
p72
aS'1:29 that dog...hahahahah \xef\xbb\xbf'
p73
aS'Better than the real movie lol\xef\xbb\xbf'
p74
aS"It's been a long time since I saw Limitless, which reminds me of Source \nCode (epic movie), which reminds me of Now You See Me (an epicer movie) \nwhich then reminds me of Man On The Ledge (the epicist movie evar!) aaand \nthere's no point to this comment so disregard(big word! *le gasp* ) \neverything I just said and run away from any person who calls themselves \nKlutzy Killer... Thank you for watching...\xef\xbb\xbf"
p75
aS"THE SHARINGAN! So that's how you get it!\xef\xbb\xbf"
p76
aS'Can you do subway surfer video \xef\xbb\xbf'
p77
aS'what is that even for\xef\xbb\xbf'
p78
aS'awsome\xef\xbb\xbf'
p79
aS'Best parody ever!!!!!\xef\xbb\xbf'
p80
aS'You actually use your whole brain\xef\xbb\xbf'
p81
aS"OMG! first time i saw it, i was thought that was on cinema but in fact, it \nwasnt real. A big big huge sadddddd &....... silly me :)\ncuz it's really better than the original\xef\xbb\xbf"
p82
aS"Watch this it's shit balls funny\xef\xbb\xbf"
p83
aS'This trailer is way better than the whole movie put together.\xef\xbb\xbf'
p84
aS'Dear ryan can u fight godzilla\xef\xbb\xbf'
p85
aS'Oops... I mean and not andy\xef\xbb\xbf'
p86
aS'Still way better than the actual movie.\xef\xbb\xbf'
p87
aNaS'I knew it\xef\xbb\xbf'
p88
aS"Are you you crazy hahhaha that's is so funny hahhahahha\xef\xbb\xbf"
p89
aS'Am I the only one who noticed Sharingan?\xef\xbb\xbf'
p90
aS' haha.. epic\xef\xbb\xbf'
p91
aS'Can i see this plz? BeST MOVIE EVeR\xef\xbb\xbf'
p92
aS'I shared this video and most of my likers watch this video and commented on \nmy post.. its a hilarious video though\xef\xbb\xbf'
p93
aS'Can you make this a real movie I wanna see it! LOL\xef\xbb\xbf'
p94
aS'THAT PIZZA SLICER THERE LOL\xef\xbb\xbf'
p95
aS"when did you start eating chinese? that's awesome!\xef\xbb\xbf"
p96
aS'This should be A full length movie, it would definitely be better than most \nof the parody films we have now.\xef\xbb\xbf'
p97
aS"I'd love to see THIS movie!\xef\xbb\xbf"
p98
aS"Oh my god...\nThat's samuel l. Jackson..\nXD\xef\xbb\xbf"
p99
aS'omg is soooooo fuuunnnyyyy !!!!!!!!!!\xef\xbb\xbf'
p100
aS'0.59 eye of ender\xef\xbb\xbf'
p101
aS'Did anyone see the pizza in he chest\xef\xbb\xbf'
p102
aS'soo much better than the normal ver.\xef\xbb\xbf'
p103
aS'hahaha love regina.. pfft :p\xef\xbb\xbf'
p104
aS'haha this guy looks like a japanese girl from pacific rim\xef\xbb\xbf'
p105
aS"Lol why does his phone change when he's talking to the man\xef\xbb\xbf"
p106
asS'time'
p107
ctime
struct_time
p108
((I2014
I7
I12
I3
I24
I51
I5
I193
I-1
t(dtRp109
sS'id'
p110
VRXlHS8Nucx4
p111
s.