(dp1
S'title'
p2
VMost Annoying People On The Internet
p3
sS'url'
p4
Vhttp://www.youtube.com/watch?v=Tkm5K2fu0AI&feature=youtube_gdata_player
p5
sS'image'
p6
Vhttp://i.ytimg.com/vi/Tkm5K2fu0AI/0.jpg
p7
sS'comments'
p8
(lp9
S'Mapoti comment chain on every channel...I want it now.\xef\xbb\xbf'
p10
aS"Dear rayen. Hahahaha just kidding i never say this\nYou are so funny .\nYou made me laugh when you did gangamstye i didn't see that coming.\nAnd i agree with you ^-^ \nGood video\xef\xbb\xbf"
p11
aS'And those people that always say "how does this video get 30 million views \nwhen there\'s only 7 million people on Earth?" Seriously, go fuck yourselves\xef\xbb\xbf'
p12
aS'I despise the know it all or more commonly referred to as "smartasses". \nThese assholes will find every way to make themselves better and more \nsuperior to you and belittle you everytime they get. Even if you have 500 \nsources to back up your point, they will find a way to make it wrong. \xef\xbb\xbf'
p13
aS'And last but not the least, the most annoying people here: the people who \nsay Darude-Sandstorm\xef\xbb\xbf'
p14
aS'hey guys subscribe to my channel and i will subscribe back.\xef\xbb\xbf'
p15
aS'Also, the people that always bring up Darude - Sandstorm.\xef\xbb\xbf'
p16
aS'Am I the only one noticing al these people pretending they are Grammar \nNazi\'s when they make mistakes like not capitalizing the self standing \n"I\'s" In sentences or making the unforgivable mistake "your" instead of \n"you\'re"? \nWell... If you are one and you now recognized yourself, just shut the fuck \nup. \n\nThank you.\xef\xbb\xbf'
p17
aS"Lol trust me I'm a troll its fun as hell. When people get pissed some \ntrolls yes have no life but it only takes me like 10 minnuts to piss off \nalmost any 1 to the point of rage \xef\xbb\xbf"
p18
aS'"way to hard"\n\nGood job, Ryan.\xef\xbb\xbf'
p19
aS'The true most annoying people on the internet is pretty much EVERYONE that \nplays League of Legends.\xef\xbb\xbf'
p20
aS'lol, im not a guy but I love naruto\xef\xbb\xbf'
p21
aS'I hate that by the end of my life, every single person on the internet will \nhave eventually told me to "do my research" on some bizarrely specific and \nobscure topic/subject. Like, bitch, ain\'t nobody got time to read up on \nJapanese whaling history to satisfy some half-dressed douche in his living \nroom in Rhode Island. Dafuq I look like? An encyclopedia of the world\'s \nmost useless and trivial information?\xef\xbb\xbf'
p22
aS'Yes the members of the grammar gestapo\xef\xbb\xbf'
p23
aS'NARUTO!\xef\xbb\xbf'
p24
aS"Hahahaha!!! I'm guilty on some of these! I'm a MAPOTI!!! :D Well at least \nyou're aware that you are too Ryan! XD (Y)\xef\xbb\xbf"
p25
aS'the most annoying are the unrelated captions girls...\xef\xbb\xbf'
p26
aS'#i #just #got #my #food #from #mcdonals #and #it #taste #like #how #my \n#imaginary #friend #smells #like ,#happy #sun #sand # \nalwayshavefunwithhappysunandsand\n\xef\xbb\xbf'
p27
aS'XD lol\xef\xbb\xbf'
p28
aS'fuck you\xef\xbb\xbf'
p29
aS'#MAPOTI\xef\xbb\xbf'
p30
aS"You forgot the people who pretend that they're a video game/movie/show \ncharacter \xef\xbb\xbf"
p31
aS'im a grammar nazi to #MAPOTI  \xef\xbb\xbf'
p32
aS'Everyone on the interent is a MAPOTI :D\nMost of the time \xef\xbb\xbf'
p33
aS'I can be a Grammar Nazi sometimes...\xef\xbb\xbf'
p34
aS"I'm a girl and I LOVE Naruto ;w;\xef\xbb\xbf"
p35
aS"He really should've done gundam style tho it looked cool at the end\xef\xbb\xbf"
p36
aS'what is  grammar nazi?\xef\xbb\xbf'
p37
aS'iem a grammer nasi\niam a grammor naxi\nim an grammar nawi\nima ...OK FUKC THIS\xef\xbb\xbf'
p38
aS'#video #youtube #nigahiga #ryanhiga #food #funny #funnyvideo #nofilter \n#hashtag\xef\xbb\xbf'
p39
aS'He forgot the hands down most annoying person on the internet: The America \nHater. The one that goes "Americans are so fat and stupid! You lazy \nAmericans should die!"\xef\xbb\xbf'
p40
aS'Your title "The trying to hard guy" should be spelled as \'too\'. \n-Anonymous Grammar Nazi\xef\xbb\xbf'
p41
aS"Wait, but isn't correcting 'grammer' to 'grammar' spelling and not grammar?\xef\xbb\xbf"
p42
aS'Now-\nAnother annoying person is that guy who always says\nDarude- Sandstorm\xef\xbb\xbf'
p43
aS'Other honorable mentions are RABID bronies and Darude-Sandstorm users.\xef\xbb\xbf'
p44
aS"wow these are really annoying but why is it friggin' cool when Ryan does \nit... <<3\xef\xbb\xbf"
p45
aS'I Guess i am the Grammar Nazi,  GRAMMAR FOR LIFE!\xef\xbb\xbf'
p46
aS"I'm going to rap you a song!\nWhy die, I'm going cry,\nSo that I f*ck the sky,\nDam, I'm so lucky with the ducks,\nSo I call bucky to truck me!\nThere, a rap song! Can I go home now?\xef\xbb\xbf"
p47
aS'racists/homophobes/sexists/agists etc. they are the most annoying.\xef\xbb\xbf'
p48
aS"I'm a dyslexic grammar nazi, does that count? *twiddles thumbs*\xef\xbb\xbf"
p49
aS"I'm a Grammar Nazi.\xef\xbb\xbf"
p50
aS' #springbreak    #sunny    #friends    #funtimes    #funtimeswithfriends   \n#sand   #funtimeswithfriendsinsand   #nofilter  \xef\xbb\xbf'
p51
aS'I hate the people who call you 12 when you get a piece of info wrong\xef\xbb\xbf'
p52
aS'The most annoying people on the internet is COD fags.\nNO SCOPE NO SCOPE MLG PRO 360 NOSCOPE PRO!!1111\xef\xbb\xbf'
p53
aS'Dear Ryan, Can you do Gangman style\xef\xbb\xbf'
p54
aS'Stfu u mapoti ass bitch\xef\xbb\xbf'
p55
aS'Dear Ryan can you do LMFAO Party rock\xef\xbb\xbf'
p56
aS'You. Sould Get a girlfriend \xef\xbb\xbf'
p57
aS'The most ANNOYING people are the people who answer DARUDE - SANDSTORM to \nevery single question on the Internet \xef\xbb\xbf'
p58
aS'dear rian can u do gangam satelite\xef\xbb\xbf'
p59
aS'How the hell is the Hotpocket guy a Mapoti cause he is acutally better then \nthe others XD funnier \xef\xbb\xbf'
p60
aS'I am a Grammar Nazi as welll\xef\xbb\xbf'
p61
aS'NARUTOOOOOOOOOOOOOOOOOO????????????!!!!!!!!!!!!!!!!!!!!!!!!!!\xef\xbb\xbf'
p62
aS'People who try to advertise there channels on other famous \nchannels.....MAPOTI!\xef\xbb\xbf'
p63
aS"4:15... I'm sorry :(\xef\xbb\xbf"
p64
aS"Ryan, would you be interested on making a video about Hawaii? My daughter's \nsixth grade class is each assigned a state. You were the famous person she \npicked.  Your videos are so funny!\xef\xbb\xbf"
p65
aS'Most annoying people on google+\xef\xbb\xbf'
p66
aS'The "there are only 7 million people in the world" person. MAPOTI\xef\xbb\xbf'
p67
aS'In my opinion, I think the top 3 mapoti are the grammar nazis, those guys \nwho always do jokes like "how is there 1 billion views when there are only \n7 million people in the world" and the "darude - sandstorm" thingy, and \nthen the mapoti #1 is the trolls. \xef\xbb\xbf'
p68
aS'This is like a pokedex for the internet!\xef\xbb\xbf'
p69
aS'Oppa Ryan Style\xef\xbb\xbf'
p70
aS'Most Annoying People On The Internet: http://youtu.be/Tkm5K2fu0AI\xef\xbb\xbf'
p71
aS'Naruto!!!!!!!!\xe2\x9c\x8c Lol \xef\xbb\xbf'
p72
aS'My kitty just died not kidding \xf0\x9f\x98\xa2\xf0\x9f\x98\xa2\xf0\x9f\x98\xa2\xf0\x9f\x98\xa2 im not mapoti my kitty dexter just \nDIED!!!!!!!\xef\xbb\xbf'
p73
aS'I... Need... Cheesburger. SOMEONE SAVE ME!\xef\xbb\xbf'
p74
aS'ryan u make me happy :)\xef\xbb\xbf'
p75
aS'That tumbleweed is sooooooo fake.\xef\xbb\xbf'
p76
aS'MAPOTI\xef\xbb\xbf'
p77
aS'Dear Ryan. Can you do the actual gangnum style?\xef\xbb\xbf'
p78
aS'I am definitely the Grammar Nazi and Overused Sayings(Depends)xD The \naccuracy of this video is real.\xef\xbb\xbf'
p79
aS'Dear Ryan do gangnam style lol x) U MAD BRO TROLLLLLOLLLOLOLOLOLOLLOLOLOL\xef\xbb\xbf'
p80
aS'what about the people who always want to get into arguments and they always \nwana win the argument and it keeps going till the over person gives up on \nthe argument pretty much everyone who wastes their lives getting into \narguments\xef\xbb\xbf'
p81
aS'Vicky li there are more then 7 million pepole on earth there are 8 billion \npepole on earth \xef\xbb\xbf'
p82
aS'Sorry but...MAPOTI all of you.\xef\xbb\xbf'
p83
aS'Dont forget "FIRST!!!!1!!!1"\xef\xbb\xbf'
p84
aS'Um just saying there about 7 billion people on earth not 7 million \xef\xbb\xbf'
p85
aS'Ryan can you do gangmamstile \n\xef\xbb\xbf'
p86
aS'stop on\n4:43\xef\xbb\xbf'
p87
aS'I\'m going to be a faggot Grammar Nazi for this comment. Alex Lalikian, it\'s \n"are" not "is" in "The most annoying people on the internet "is" COD fags." \nYOU JUST GOT GRAMMAR FAGGED!\xef\xbb\xbf'
p88
aS'On twitter there was a lot of attention whore \xef\xbb\xbf'
p89
aS'u r mapoti\xef\xbb\xbf'
p90
aS'Are you friends with Dominic\xef\xbb\xbf'
p91
aS'Magoti\xef\xbb\xbf'
p92
aS'Dear Ryan, will you do gan gnam style?\xef\xbb\xbf'
p93
aS'Do you have snapchat?\xef\xbb\xbf'
p94
aNaS'*too >.<\xef\xbb\xbf'
p95
aS'Dear Ryan can u do gangnam style for 10 years?\xef\xbb\xbf'
p96
aS'Dear Ryan gangnam style? #troll #annoying #annoyingtroll #sub #comment \n#commentandsub #Kappa\xef\xbb\xbf'
p97
aS'3:43 THESE BITCHES ARE THE ABSOLUTE WORST\xef\xbb\xbf'
p98
aS'Dear Ryan can you do gangdam style\xef\xbb\xbf'
p99
aS'MAPOTI XD\xef\xbb\xbf'
p100
aS'Love ya, Ryan! Ur hilarious!\xf0\x9f\x92\x83\xef\xbb\xbf'
p101
aS"My sister is a major hashtager. My mom gets annoyed with it and her friends \nthink it's ridiculous but she's all: my friends don't like my has tags. \nLike...why?\n#weird#stupid#feelingshurt#omg#why??#mynameisniki#followme\nShe gets so frickin irrelevant and over does it xD\xef\xbb\xbf"
p102
aS'This video haves +13,000,000 views and there is only 7 million people on \nthis Planet. Hackers everywhere dammit. \xef\xbb\xbf'
p103
aS'The girls with the pics that have captions that have nothing to do with the \npic and put like 30 hashtags is effing annoying. "patience is virtue" while \ntheir out tanning \xf0\x9f\x98\x93\xef\xbb\xbf'
p104
aS'dear Ryan can you do gangnam style\xef\xbb\xbf'
p105
aS'How about fanboys? Easily one of the most annoying types of people online.\xef\xbb\xbf'
p106
aS'lol I watch naruto all the time\xef\xbb\xbf'
p107
aS'And the most commen one is...\nHATERS\xef\xbb\xbf'
p108
aS"I'm on of those people that piss of others just for fun..I'M GUILTY x3 \n(though if you like the same things that  i do you are my internet friend) \nhumahuma\xef\xbb\xbf"
p109
aS'That was the best gangnam style ever. Thank you! \xf0\x9f\x98\x84\xef\xbb\xbf'
p110
aS"I'm pooping right now \xf0\x9f\x99\x87\n\xf0\x9f\x92\xa9\xef\xbb\xbf"
p111
aS'dear ryan can u does gandumn stiel\xef\xbb\xbf'
p112
aS'dear rayen do the full gandnam style\xef\xbb\xbf'
p113
aS'I like Pie.\nNot Mapoti.\xef\xbb\xbf'
p114
aS'Dear Ryan, do you speak any other languages? (Probably like Spanish or \nsomething because of high school.)\xef\xbb\xbf'
p115
aS'How about Boobs and Mind.........\xef\xbb\xbf'
p116
aS'Hi\xe2\x98\xba\xef\xbb\xbf'
p117
aS'Can you do gangnam style? Sorry\xef\xbb\xbf'
p118
aS'niceeeeeee\xef\xbb\xbf'
p119
aS'Dear ryan, dear rya dear ry.. Dear ryan can u do gnagum style?\xef\xbb\xbf'
p120
aS'I expected these comments to have much more "dear ryan"...\xef\xbb\xbf'
p121
aS"I'm a Grammar nazi.\xef\xbb\xbf"
p122
aS'Not 7 million its 7 billion \xef\xbb\xbf'
p123
aS'no im not happy i wont you to do the whole thing\xef\xbb\xbf'
p124
aS'I am a Grammar Nazi.\xef\xbb\xbf'
p125
aS'Dear Ryan, do a hand stand\xef\xbb\xbf'
p126
aS'#RH.....mapoi...teeehee\xf0\x9f\x98\x9b\n\xef\xbb\xbf'
p127
aS"Where's the cutaway?   Aw hail naw-!\xef\xbb\xbf"
p128
aS"I'm overly deep...\xef\xbb\xbf"
p129
aS'Uh, you spelled too wrong you n00b!! Jk, jk.\xef\xbb\xbf'
p130
aNaS'You know the phrase "Legen... wait for it... Dary!" Thats barney\'s phrase \naka Neil patrick harris!!! Coollll thats from HIMYM i love that \nshowwwwww!!!\xef\xbb\xbf'
p131
aS'Lol naruto!!!...\xef\xbb\xbf'
p132
aS"how can  people who are still on Myspace be annoying when there aren't any?\xef\xbb\xbf"
p133
aS'I was born in japan >:(\xef\xbb\xbf'
p134
aS'Dear Ryan can you do oppa Gangnam style??!?!?!?\xef\xbb\xbf'
p135
aS'Dear Ryan,\nCan you do MORE Gangnam Style?\xef\xbb\xbf'
p136
aS'Dear Ryan can you don gangnam style\n\xef\xbb\xbf'
p137
aS'Rishi Jusia2 months ago\n \nAm I the only one noticing al these people pretending they are Grammar \nNazi\'s when they make mistakes like not capitalizing the self standing \n"I\'s" In sentences or making the unforgivable mistake "your" instead of \n"you\'re"? \nWell... If you are one and you now recognized yourself, just shut the fuck \nup. \n\nDcl Gaming2 days ago\n \nOMG YOU SAID "Grammar Nazi\'s" AS IN A POSSESSIVE NOUN WHEN ITS SUPPOSED TO \nBE "Grammar Nazis"AS IN A PLURAL NOUN\nGuys....come on this is youtube, not english class. \xef\xbb\xbf'
p138
aS'I saw all naruto series and shippuden and now im i Asylum library\xef\xbb\xbf'
p139
aS"Naruto is finished what else should i watch at night :'(\xef\xbb\xbf"
p140
aS'I felt like a mapoti noticing this but...the "trying too* hard" guy...I bet \nRyan meant to do that but i couldn\'t resist\xef\xbb\xbf'
p141
aS'Dear Ryan can you do the harlem shake?\xef\xbb\xbf'
p142
aS'ur a mapoti\xef\xbb\xbf'
p143
aS'deat ryan can u do an entire gundam style video. thank u\xef\xbb\xbf'
p144
aS'hay nigahiga you mapoti\xef\xbb\xbf'
p145
aS'dear ryan i love u :D \xef\xbb\xbf'
p146
aS'Theirs someone in my school (class) thats soooooo annoying\xef\xbb\xbf'
p147
aS'Most Annoying People On The Internet: http://youtu.be/Tkm5K2fu0AI\xef\xbb\xbf'
p148
aS'Do you have Instagram???????\xef\xbb\xbf'
p149
aS'Where is he from ??\xef\xbb\xbf'
p150
aS'DEAR RYAN CAN U DO... HARLEM SHAKE!!!!???? (Like a boss :) )\xef\xbb\xbf'
p151
aS'Dear ryan pls do gangnam style\xef\xbb\xbf'
p152
aS'Dear Ryan,\nCan you draw something that has to do with food?\xef\xbb\xbf'
p153
aS'Those "Liek if u cri erytiem" fags. The joke is old as dirt, stfu(Stop \nTickling Furry Unicorns).\xef\xbb\xbf'
p154
aS'No ladies dont fall for that\xef\xbb\xbf'
p155
aS'Lol the naruto part is funny\xef\xbb\xbf'
p156
aS'I just ate an hot pocket! .3. XD\xef\xbb\xbf'
p157
aS'Haha hahahaha\xef\xbb\xbf'
p158
aS'3:33 "trying to hard" guy, it\'s too. #grammernazi  \xef\xbb\xbf'
p159
aS"lmao the end where's the cut away !! oh hell no\xef\xbb\xbf"
p160
aS'Dear Ryan,Do gangdomstyle\xef\xbb\xbf'
p161
aS'I only watch this bc of the "NARUTOOOOOOOO" Part bc it never gets old \n\xf0\x9f\x98\x82\xf0\x9f\x98\x82\xf0\x9f\x98\x82\xef\xbb\xbf'
p162
aS'I HATE THE GRAMMAR NAZI\xef\xbb\xbf'
p163
aS'Darude- Sandstorm\xef\xbb\xbf'
p164
aS"NARUUTOOOOOOOOOOOOOOOOO ! :D i love Naruto's Anime :D \nRasenngaaaaaaaaaaaaaaaaaaaaan !\xef\xbb\xbf"
p165
aS'Like if you are watching in 2097\xef\xbb\xbf'
p166
aS'Wow, what was Wayne Brady doing in this video?\xef\xbb\xbf'
p167
aS'Dear Ryan, can you complete Gangnam Style?\xef\xbb\xbf'
p168
aS"To me... the most annoying people are those who uses big words and speeches \nto win arguments, but they have no idea what they're talking about.\xef\xbb\xbf"
p169
aS'BEST PART 3:14 XD "hot pockets make me happy."\xef\xbb\xbf'
p170
aS'Well I skipped like 100\xef\xbb\xbf'
p171
aS'Dear Brian, can u do gangdam style\xef\xbb\xbf'
p172
aS"U all r m.o.p. I got lazy so let's call it mop no dots thing to much work \nwthfkshda\xef\xbb\xbf"
p173
aS'Napoli\xef\xbb\xbf'
p174
aS'Can you do gangnam style?\xef\xbb\xbf'
p175
aS'\xe2\x80\x9cjust ate a hot pocket\xe2\x80\x9d -ryan higa\xef\xbb\xbf'
p176
aS'In slight defense of "hashtag abuse":\nUnless you\'re already a celebrity of some kind, websites that use hashtags \nlike Twitter or Tumblr are rarely likely to get you any notoriety. If I \noverload a post with hashtags, it\'s because I\'m desperately trying to bring \nattention to something that would otherwise go unnoticed.\xef\xbb\xbf'
p177
aS'i love ur vdo ... its always awesome .. everytime i like it before viewing \n... ha ha ha\xef\xbb\xbf'
p178
aS'Ha NARUTO!\xef\xbb\xbf'
p179
aS'Some other MAPOTI people are the Darude Sandstormers there annoying that \nsong is stupid and also the meme is stupid that song is just a bassline \nwith no words.\xef\xbb\xbf'
p180
aS'im hungry\xef\xbb\xbf'
p181
aNaS'Haha \xf0\x9f\x98\x82 there speaking IM\xef\xbb\xbf'
p182
aS'Dear ryan can you do gangnam style \xef\xbb\xbf'
p183
aS'3:29 I did to :D\xef\xbb\xbf'
p184
aS'#Naruto #MAPOTI\xef\xbb\xbf'
p185
aS'Dear Ryan, can you do Gentlemen - PSY? Colon three\xef\xbb\xbf'
p186
aS'Bro plz do gangnam style\n\xef\xbb\xbf'
p187
aS'Dear Ryan can you do the naenae or the Harlem Shake?\xef\xbb\xbf'
p188
aS'thnk u so much man 4 putting it out der, annoying people shud know whn dey \nr annoying;  using ur power 4 gud lol\xef\xbb\xbf'
p189
aS'Dear Ryan, can you do gangnam style?? XD (im sorry) XD\xef\xbb\xbf'
p190
aS'7 billion people on earth smart one Viky Li\xef\xbb\xbf'
p191
aS'dear ryan can you do gangmanstyle \n\xef\xbb\xbf'
p192
aS'Dear Ryan,\nWHY ARE YOU SUCH A GENIUS?! x3\xef\xbb\xbf'
p193
aS'Thank you for doing  videos  im a great fan of your work , your witty funny \nsmart   annoying in a cute way ... just wanted  to say great job  with your \nlegacy and keep going big  I want to see you with your own sitcom,  and \nanimation;) lol\xef\xbb\xbf'
p194
aS'#hashtag\xef\xbb\xbf'
p195
aS'MAPOTI!!!!!!!\xef\xbb\xbf'
p196
aS'NARUTOOOOOOO!! lol\xef\xbb\xbf'
p197
aS'make a vid of if u had kids  i come from africa  your awsome\xef\xbb\xbf'
p198
aS'"Trying too* hard" guy. It\'s basic grammar...\xef\xbb\xbf'
p199
aS"Lol go to 2:46 and pause it Ryan says if you always say no, you'll never \nsay yes but it says if always without the you. put me as a grammar nazi i \ndont care but i wanted to find the part of this video specifically so the \nfirst 5 times i watched this i had no clue \xef\xbb\xbf"
p200
aS'4:38 best part ( Opa gangnam style) 1 2 there your happy now\xef\xbb\xbf'
p201
aS"Not to be a hater or anything but at 3:34 the word 'to' should be changed \nto 'too' just sayin\xef\xbb\xbf"
p202
aS"\xe2\x95\xaf\xc2\xb0\xe2\x96\xa1\xc2\xb0\xef\xbc\x89\xe2\x95\xaf\xef\xb8\xb5 \xe2\x94\xbb\xe2\x94\x81\xe2\x94\xbb FLIP THAT TABLE.\n\xe2\x94\xbb\xe2\x94\x81\xe2\x94\xbb \xef\xb8\xb5 \xe3\x83\xbd(\xc2\xb0\xe2\x96\xa1\xc2\xb0\xe3\x83\xbd) FLIP THIS TABLE.\n\xe2\x94\xbb\xe2\x94\x81\xe2\x94\xbb \xef\xb8\xb5 \xef\xbc\xbc('0')\xef\xbc\x8f \xef\xb8\xb5 \xe2\x94\xbb\xe2\x94\x81\xe2\x94\xbb FLIP ALL THE TABLES\nSon..\xe0\xb2\xa0_\xe0\xb2\xa0\n\xe0\xb2\xa0_\xe0\xb2\xa0 Put.\n\xe0\xb2\xa0_\xe0\xb2\xa0 The tables.\n\xe0\xb2\xa0_\xe0\xb2\xa0 Back.\n(\xe2\x95\xae\xc2\xb0-\xc2\xb0)\xe2\x95\xae\xe2\x94\xb3\xe2\x94\x81\xe2\x94\xb3 \xe2\x94\xb3\xe2\x94\x81\xe2\x94\xb3 \xe2\x94\xb3\xe2\x94\x81\xe2\x94\xb3 \xe2\x94\xb3\xe2\x94\x81\xe2\x94\xb3 \xe2\x94\xb3\xe2\x94\x81\xe2\x94\xb3 \xe2\x94\xb3\xe2\x94\x81\xe2\x94\xb3 \xe2\x94\xb3\xe2\x94\x81\xe2\x94\xb3\n\xe2\x94\xbb\xe2\x94\x81\xe2\x94\xbb \xef\xb8\xb5 \xef\xbc\xbc('0')\xef\xbc\x8f \xef\xb8\xb5 \xe2\x94\xbb\xe2\x94\x81\xe2\x94\xbb\xef\xbb\xbf"
p203
aS'dont forget spammers\xef\xbb\xbf'
p204
aS'NARUTOOOOOOOOOO\xef\xbb\xbf'
p205
aS'MAPOTI\xef\xbb\xbf'
p206
aS'Maputi in tagalog means white and higa in nigahiga means lie down in \ntagalog\xef\xbb\xbf'
p207
aS'NARUTOOOOOOOOOOOOOOOOOO\xef\xbb\xbf'
p208
aS'ryan can you do the gagnam style.... lolololololol\xef\xbb\xbf'
p209
aS"Dear Ryan, can you make a video of what to do when you're sick? And I'm not \nsick with Beiber Fever by the way, I would tell you but it would take a \nlong time. I am out of ideas and all the other ideas are like, decorate a \nshoebox! Make a den! Sleep! Do homework! Can you do one please because none \nof these appeal to me. Thank you ps you are the funniest guy ever you \nshould be on TV.\xef\xbb\xbf"
p210
aS'HEY RYAN CAN U DO GHANAM STYLE ?!?! ( spelled it wrong yolo!) im doing \neverything he said in vid\xef\xbb\xbf'
p211
aS"I've been guilty of the grammar Nazi one a few times. I also used to think \ngrammar was spelt with an E.\xef\xbb\xbf"
p212
aS'MAPOTI!\xef\xbb\xbf'
p213
aS'Dear Ryan, are you apart of mapoti?\xef\xbb\xbf'
p214
aS'Search g dragon on you tube and watch one of a kind and you will see that \nyou guy look the same\xef\xbb\xbf'
p215
aS'Yeah NARUTO IS AWESOME!!!!!!!!\xef\xbb\xbf'
p216
aS' #I   #hate   #those   #people   #who   #use  hashtag #TO   #much   see i \nknow when to stop lol\xef\xbb\xbf'
p217
aS'Loved it! You forgot the clubbers, each time they go out, they need to post \npictures for us to see how cool are they.\xef\xbb\xbf'
p218
aS'Dear Ryan, can you do What the fox say ?\xef\xbb\xbf'
p219
aS'3:34 too*\xef\xbb\xbf'
p220
aS"Weeaboo. 'OMG i've seen three whole epsiodes of Naruto so now I'm \npractically fluent in japanese and Imma gonna live there, herpy derp'\xef\xbb\xbf"
p221
aS"Seriously there's that much people in the world\xef\xbb\xbf"
p222
aS'BUT GANGMAN STYLE...\xef\xbb\xbf'
p223
aS'dear ryan, please do the gangnam style while wearing middle eastern \nclothing or something arab related it will be epic!!!!!\xef\xbb\xbf'
p224
aS"Don't be a MAPOTI\xef\xbb\xbf"
p225
aS"...and I am a guy so of course I'm gonna watch some p... NARUTO!!!!\xef\xbb\xbf"
p226
aS'I always troll people who leave negative comments on your videos. Does that \nmake me a mapoti? \xef\xbb\xbf'
p227
aS'about the trying too hard guy \nwhen they say show me your brain it sounds like they want you to do their \nhomework or something\xef\xbb\xbf'
p228
aS'This video sucks CHING CHOWNG BOWNG WONG \xef\xbb\xbf'
p229
aS'*Just ate a hot pocket*\xef\xbb\xbf'
p230
aS"I'll honestly admit I'm the  hashtager on instagram one. I do agree that \ngrammar nazis are super annoying both on the internet and in real life. \nSurprisingly I have more of those in real life :/ \xef\xbb\xbf"
p231
aS':P haha funny\xef\xbb\xbf'
p232
aS'man needed  more atlast!\xef\xbb\xbf'
p233
aS'nice video\xef\xbb\xbf'
p234
aS'Oh hell no ha\xef\xbb\xbf'
p235
aS'20th time watching this!!!!!!!!!!! :) XD\xef\xbb\xbf'
p236
aS'Dear Ryan can you do gangnam style\n\xef\xbb\xbf'
p237
aS'dear ryan, can you do gangnam style\xef\xbb\xbf'
p238
aS"nigahiga is such a old youtuber I never got interested in.. never knew he's \nso good.\n\nIm agreeing with you. Btw where's Darude-Sandstorm or doge for example? :D\n\nPLZ DO LONGER GANGNAM STYLE!\xef\xbb\xbf"
p239
aS'Another annoying person on the Internet is a person that hash tags EVERY \nSINGLE WORD aka Hash tag abusers\xef\xbb\xbf'
p240
aS'haha funny.\xef\xbb\xbf'
p241
aS'NARUTO!\xef\xbb\xbf'
p242
aS'Song name? (Fuck you MAPOTIs)\xef\xbb\xbf'
p243
aS'can you do gangam style?\xef\xbb\xbf'
p244
aS'Never watched you videos before but ha I love you in 1 video \xef\xbb\xbf'
p245
aNaS'LOL OMG SF\xef\xbb\xbf'
p246
aS'HASHTAGwtf\xef\xbb\xbf'
p247
aS'Van Gogh in the background. Me like it. \xef\xbb\xbf'
p248
aS'Whats a hot pocket?\xef\xbb\xbf'
p249
aS'Dear Ryan hi \xef\xbb\xbf'
p250
aS'0:18 jajajaajajajajajajajajajajajaj\xef\xbb\xbf'
p251
aS'Hi u luve uor vodius kuup\xc3\xb6tap did anyone understand that?\xef\xbb\xbf'
p252
aS'how i met your mother references\xef\xbb\xbf'
p253
aS'+Viky Li ik Right its so annoying!\xef\xbb\xbf'
p254
aS'Dear Ryan,\n\nCan you do the full version of Gangnam Style?\xef\xbb\xbf'
p255
aS'i know like 5 hashtag people\xef\xbb\xbf'
p256
aS'0:19 NARUTO!!!!!!!!!!!!!!!!!!!!!!!!!!!\xef\xbb\xbf'
p257
aS"Do you have Vinent Van Gogh's famous starry night painting in your room? \n._.\xef\xbb\xbf"
p258
aS'0:19 porn?\xef\xbb\xbf'
p259
aS"Thumbs up if you're a grammar nazi. Show the world that we are out here and \nproud of our amazing grammar!\xef\xbb\xbf"
p260
aS'you forgot about nigahiga... oh shit\xef\xbb\xbf'
p261
aS'hey rayn do gangmen style\xef\xbb\xbf'
p262
aS'I do the same thing watching Naruto at night\xef\xbb\xbf'
p263
aS'Dear ryan , how long can you stay under water?\xef\xbb\xbf'
p264
aS'The most annoying people on the Internet are those who watch the video do \nthe same thing in the video like hashtaging being a grammer nazi or \nsomething like that #smart #toosmart #MAPOTI #MAPOTIANDTOOSMARTWITHSAND\xef\xbb\xbf'
p265
aS"The most annoying people on the internet are the ones who say \n'Darude-Sandstorm', 'How did this get to 20000000 views if there are 2 \npeople on earth?' and the ones that play Dota or Dota 2.\xef\xbb\xbf"
p266
aS'i want a hot pocket now\xef\xbb\xbf'
p267
aS'Dear Ryan, can you do Gangnam style?\xef\xbb\xbf'
p268
aS"Every guy loves Naruto. Don't deny it.\xef\xbb\xbf"
p269
aS'Do you even lift bro?\xef\xbb\xbf'
p270
aS'Mapoti \xef\xbb\xbf'
p271
aS'Also for the "Not Enough Information Person," if you don\'t want to talk \nabout it, don\'t put it on social media, where the point is for you, your \nfriends, and creepy strangers to talk about stuff conveniently. Don\'t put \nsomething up that you don\'t want to talk about.\xef\xbb\xbf'
p272
aS'"If you always say no...you\'ll never say yes".... SO DEEP I CANNOT...\xef\xbb\xbf'
p273
aS"I would say hater are the most annoying and I'm one of those people who \nhates when someone spells something wrong and grammar is spelled  with an a \n-------------------------------------------^\xef\xbb\xbf"
p274
aS'hahahahhahahha omg hahhahhaahhahaha I cant stoooooop hahahahahhahhah\xef\xbb\xbf'
p275
aS'I want u to do gangnam style!!\xef\xbb\xbf'
p276
aS'Mapoti.\nlol. \xef\xbb\xbf'
p277
aS'Haha that end tho\xef\xbb\xbf'
p278
aS"don't use it then \xef\xbb\xbf"
p279
aS'Dear Ryan do gungnum style\xef\xbb\xbf'
p280
aS'Dear Ryan - Can you do Gangnam Style?\xef\xbb\xbf'
p281
aS'hey ryan can you do Gangnam style?????\xef\xbb\xbf'
p282
aS'pinche divaaaaaaaaaaa\xef\xbb\xbf'
p283
aS"I'm the... ahem... Grammar Nazi..\xef\xbb\xbf"
p284
aS'too bad naruto ended\xef\xbb\xbf'
p285
aS'You look like vanoss\xef\xbb\xbf'
p286
aS"Dear Ryan, don't talk so fast please :)\xef\xbb\xbf"
p287
aS"I'm the over used sayings person... BRUH\xef\xbb\xbf"
p288
aS'Do fucking gangnam style \xef\xbb\xbf'
p289
aS'Dear rayan do fairy tale\xef\xbb\xbf'
p290
aS'On point \n\xef\xbb\xbf'
p291
aS'U FORGOT DARUDE-SANDSTORM AND WHATS 9+10 PPL!!\xef\xbb\xbf'
p292
aS'How is there 13 trillion views when there are only 7 million people in the \nworld? WTF!\xef\xbb\xbf'
p293
aS'Dear Ryan, can you do gangnam style?\xef\xbb\xbf'
p294
aS'My theory: Nobody goes on MySpace.\xef\xbb\xbf'
p295
aS"DEAR RYAN \nyou are so funny and I love watching your videos you probably won't see \nthis but you make every day of my life better you are my favorite you tuber \nand I want you to know that \nthank you for being you \n-Rachel \xf0\x9f\x98\x8d\xf0\x9f\x98\x98\xe2\x9d\xa4\xef\xb8\x8f\xe2\x9d\xa4\xef\xb8\x8f\xef\xbb\xbf"
p296
aS'Dear Ryan, \nCan you do gangnam style?\xef\xbb\xbf'
p297
aS"Lol, I'm watching naruto on my xbox\xef\xbb\xbf"
p298
aS'Everyone is MAPOTI. (Including Me)\xef\xbb\xbf'
p299
aS'oh god, so true xD\xef\xbb\xbf'
p300
aS'Finally! Someone I agree with!\xef\xbb\xbf'
p301
aS'Whoppa gondam style\xef\xbb\xbf'
p302
aS'I am Overly saying person...\xef\xbb\xbf'
p303
aS'# <3\xef\xbb\xbf'
p304
aS'Well... Naruto just ended so.. \xf0\x9f\x98\xad\xf0\x9f\x98\xad\xf0\x9f\x98\xad\xf0\x9f\x98\xad\xf0\x9f\x98\xad\xf0\x9f\x98\xad\xf0\x9f\x98\xad\xf0\x9f\x98\xad\xf0\x9f\x98\xad\xf0\x9f\x98\xad\xf0\x9f\x98\xad\xf0\x9f\x98\xad\xf0\x9f\x98\xad\xef\xbb\xbf'
p305
aS"Fine just never send any dear Ryan's anymore mapoti\xef\xbb\xbf"
p306
aS'NARUTO!! oh yeah\xef\xbb\xbf'
p307
aS'Sorry Ryan but with sweet wholesome gal your number 9.\xef\xbb\xbf'
p308
aS'Narutooooooooooooo\xef\xbb\xbf'
p309
aS'Mapoti! LOL\xef\xbb\xbf'
p310
aS'"Trying to hard".\nGrammar.\nYou\'re welcome.\xef\xbb\xbf'
p311
aS'i cringed\xef\xbb\xbf'
p312
aS'You awlsome\xef\xbb\xbf'
p313
aS'Dear Ryan,\n\nCan you do gangnam style?\xef\xbb\xbf'
p314
aS'Dear Ryan, How are you feeling knowing NARUTO!!! is ending in a couple \nweeks\xef\xbb\xbf'
p315
aS'And the guys who ply Minecraft 2047 2 are annoying. "Errrrr! Your such a \nnooob!"\xef\xbb\xbf'
p316
aS'NARUTOOOOOOOOO!\xef\xbb\xbf'
p317
aS'the song in the video: mrotS dnaS edurraD\xef\xbb\xbf'
p318
aS'Is it possible for one person to fit ALL the above categories, online and \nin real life? I have the ultimate MAPOTI in my class\xef\xbb\xbf'
p319
aS'Gosh I hate the hater if they don\'t like the video why comment? The motto \nin school was if you don\'t got nothing nice to say don\'t say nothing at \nall. And some bands help people go through their life. If you don\'t like \nthem, that\'s you don\'t say "go kill yourself fags". I\'m do tired of that. I \nhate Justin Bieber(no offense fans) but I don\'t go to his videos and say \n"what a fag!" If you don\'t like them why are you clicking on their videos? \nWatch something you like, not hate.\xef\xbb\xbf'
p320
aNaS'ryan can u do gangam style?\xef\xbb\xbf'
p321
aS'Haha in philippines mapoti actually means white lol\xef\xbb\xbf'
p322
aS'plz do the full dance\xef\xbb\xbf'
p323
aS"lol this is the first time that i've watched your video, and its great, so \nfunny but truth, the most of your mapoti list in your video's i like it, \ni'm agree with you, an then i want to add something important that i really \nhate people in the internet, that someone who's give her name Alay, example \n,their name is : 4d!j#h ch13enTh4 dyi!3a cYlm4nya@ ,ooh so fvcking annoying \nname and their writes it on his/her status just like that with a number, \nsymbol and alphabet (with a upper case or a lower case), in my place \nsomeone just doing like that in a social media is an Alay, they're worst \nthan anything in the internet, hate them, they keep posting an Alay photos \nwith a worst effect and editing too and the most worst style when they're \npictures them self : example they take a pictur from the top in their head \nand then their put their 2/1 fingers on their mouth, or their kiss it, or \nmake a worst body movement while their take a picture, so this is my Mapoti \n, i hope you will understand what i've been said.\xef\xbb\xbf"
p324
aS'I think that this was funny :D\xef\xbb\xbf'
p325
aS"3:34 :\nToo*\n\nI'm sorry, the irony is too much I know... But I had to...\xef\xbb\xbf"
p326
aS'Sup Ryan, could ya pls make a zombie attack video\xf0\x9f\x98\x84\xef\xbb\xbf'
p327
aS'MAPOTI!\xef\xbb\xbf'
p328
aS'Dear Ryan, can you do the gangnam style. Lol Yolo wow just kidding\n\xef\xbb\xbf'
p329
aS'cool story bro\xef\xbb\xbf'
p330
aS"I'm a grammar Nazi...\xef\xbb\xbf"
p331
aS"I'm a Grammar Nazi. I have a special type of OCD, I can't remember its \nname....\xef\xbb\xbf"
p332
aS'Dear Ryan,\nCan you do the fish bluper?\xef\xbb\xbf'
p333
aS'Dear Ryan can you play minecraft?\n\n\xef\xbb\xbf'
p334
aS'You know what, Ryan can you do gangdam style... JK\xef\xbb\xbf'
p335
aS'Just ate a hot pocket\xef\xbb\xbf'
p336
aS'Darude - Sandstorm\xef\xbb\xbf'
p337
aS'RYAN IF YOU GET HATE JUST REMEMBER THAT PEOPLE APPRECIATE YOU AND LOVE YOUR \nVIDEOS\xef\xbb\xbf'
p338
aS'that was random funny and AWESOME love ya work\xef\xbb\xbf'
p339
aS'Narutoooooo!\xef\xbb\xbf'
p340
aS'Hahahaha\xef\xbb\xbf'
p341
aS'Mapoti...\xef\xbb\xbf'
p342
aS'Dear Ryan can u do the flop\xef\xbb\xbf'
p343
aS'dear RYAN can you do one piece!!!\xef\xbb\xbf'
p344
aS'Seriously\xef\xbb\xbf'
p345
aS'dear person can u please NOT  do gangnam style\xef\xbb\xbf'
p346
aS'NARUUUUUUUUUTO!!!!!\xef\xbb\xbf'
p347
aS"Totally my favorite amongst your videos! I keep watching it and I keep \nlaughing, this is serious issue, ha-ha!  I'm a Naruto fan too, damn it!! \nha-ha, Naruto part is my favorite,actually XDDD\xef\xbb\xbf"
p348
aS"I'm the overused sayings person \xf0\x9f\x98\x82\xef\xbb\xbf"
p349
aS'Ryan can you do gang am style pls\xef\xbb\xbf'
p350
aS'DAIRY mmmmmmooooooo!!!!!!!!!!!\xef\xbb\xbf'
p351
aS'In the Philippines, "mapoti" or "maputi" literally means  a person with \nwhite skin xD \xef\xbb\xbf'
p352
aS"lol ryan I know some mapoti's toshow you to\xef\xbb\xbf"
p353
aS'NARUTOGET\xef\xbb\xbf'
p354
aS'*too hard, not to\xef\xbb\xbf'
p355
aS'Dear Ryan, can you do Gangnam Style?!??! Plz I big fun\xef\xbb\xbf'
p356
aS'3:33 Too*\xef\xbb\xbf'
p357
aS'Dear Ryan,can you do Gangnam Style?\xef\xbb\xbf'
p358
aS'the\njumpcuts\ngive\nme\ncancer\xef\xbb\xbf'
p359
aS"Some more MAPOTI's:\n\nPeople that say-\n\n'Darude-Sandstorm'\n\n'How come there's 20 million views when there's only 7 million people in \nthe world? Hax?'\n\n'Half-Life 3 confirmed'\n\xef\xbb\xbf"
p360
aS' The overly Deep person & The hashtagger\xef\xbb\xbf'
p361
aS'dude im a food photographer \xef\xbb\xbf'
p362
aS"That's one of my favorite Naruto opening.\xef\xbb\xbf"
p363
aS"Haha I like naruto and I'm a girl and I am up to episode 389 but they are \nin Japanese with subtles\xef\xbb\xbf"
p364
aS'A "teehee" iPhone case? Where and how?\xef\xbb\xbf'
p365
aS'You forgot the people who post selfies ALL DAY LONG.\xef\xbb\xbf'
p366
aS'If u see a annoying ppl on online tell then gtfo\xef\xbb\xbf'
p367
aS'Dear ryan...... ;( what does the Fox say?\xef\xbb\xbf'
p368
aS'MAPOTI YASSSSSSSS!!!!!!!\xef\xbb\xbf'
p369
aS'Nice 91000 comment\xef\xbb\xbf'
p370
aS'just ate a hot pocket ^_^\xef\xbb\xbf'
p371
aS'Check out this video on YouTube:\xef\xbb\xbf'
p372
aS'Ok ok\xef\xbb\xbf'
p373
aS"I'm a Grammar Nazi... Just not online...\xef\xbb\xbf"
p374
aS'Im with ya\xef\xbb\xbf'
p375
aS'True\xef\xbb\xbf'
p376
aS'MAPOTI !\xef\xbb\xbf'
p377
aS"Y'know I'm a guy so I obviously watch some...... NARUTO !\nProbably the funniest one-liner ever.\xef\xbb\xbf"
p378
aS'Dear ryan, can you do Gangnam Style?\xef\xbb\xbf'
p379
aS'Dear Ryan.........hi\xef\xbb\xbf'
p380
aS'Penis.\xef\xbb\xbf'
p381
aS'*GRAMMAR\xef\xbb\xbf'
p382
aS"Lol.I watched it and I'm 9year-old\xef\xbb\xbf"
p383
aS'dear Ryan, can you do more gangnam style ?\xef\xbb\xbf'
p384
aS'no, but for reals,can you do gangnam style?\xef\xbb\xbf'
p385
aS'SCYTHER :D\xef\xbb\xbf'
p386
aS'Dear Ryan beanbozled challenge\xef\xbb\xbf'
p387
aS'Kept on repeating 0:15-0:21 Lel NARUTOOOO~!!\xef\xbb\xbf'
p388
aS"The Most annoying People on the Internet aka #MAPOTI!!! Don't be these \npeople\xe2\x80\xa6 #mostannoyingpeopleontheinternet .\xef\xbb\xbf"
p389
aS'Dear ryan can you do the boiled coke challenge\xef\xbb\xbf'
p390
aS"omg! I'm a grammar nazi to. Yea i know what you want to do but resist the \nurge grammar nazis\xef\xbb\xbf"
p391
aS'Don\'t forget about people who keep on saying both "KAWAII!" and \nDarude-Sandstorm. Darude-Sandstorm is a freaking song!! Get your facts \nstraight the MAPOTI!!\xef\xbb\xbf'
p392
aS'I hate people that try to prove you right all the time but swear and get \nangry aswell.\xef\xbb\xbf'
p393
aS'#MAPOTI\xef\xbb\xbf'
p394
aS'did anybody realize that one of the gangnam style comments were harlem \nshake?\xef\xbb\xbf'
p395
aS'Darude - Sandstorn\xef\xbb\xbf'
p396
aS"Ryan what is the awesome music you always use in the background? It fits in \nso many different videos that I barely notice it's there... but it's \nawesome!\xef\xbb\xbf"
p397
aS'Dear Ryan can you be Skrillex?\xef\xbb\xbf'
p398
aS'I hate to do this.\n\nThe "trying *too hard" guy\n\nAwesome videos, guys!\xef\xbb\xbf'
p399
aS'\xf0\x9f\x98\xb1\xef\xbb\xbf'
p400
aS'Dear Ryan can you smile at me creepily. :D\xef\xbb\xbf'
p401
aS'im the quote person lol\xef\xbb\xbf'
p402
aS'Lol\xef\xbb\xbf'
p403
aS'Dear Ryan can you do the full gangnam style\xef\xbb\xbf'
p404
aS'Great grammar Nazi.  Jacksfilms.  And the non sequitur poster is known as a \nNumpty.\xef\xbb\xbf'
p405
aNaS"Looking like selena gomez isn't a good thing, she looks like a ten year \nold.\xef\xbb\xbf"
p406
aS"3:33 you spelled too wrong XD you said 'trying to hard guy' when really you \nshould've said 'the trying too hard guy'. Grammar Nazi FTW\xef\xbb\xbf"
p407
aS'make more videos\xef\xbb\xbf'
p408
aS"Don't forget 7 million people in the world troll.\xef\xbb\xbf"
p409
aS"You don't have to be a guy to watch Naruto late at night!\xf0\x9f\x98\x84\xf0\x9f\x8d\xa5\xef\xbb\xbf"
p410
aS'Hot Pockets make me happy too!\xef\xbb\xbf'
p411
aS'Hahahahahaha! My aunt also keeps on taking pictures of food! And my sister \nalways tons of tons of tons of hashtag when she post on instagram!\xef\xbb\xbf'
p412
aS"Bc I don't wanna talk about it so don't feel hc and shit because yeah... \nYou're not\xef\xbb\xbf"
p413
aS'Narutoooo! :3\xef\xbb\xbf'
p414
aS"What's the song at the end? :v\xef\xbb\xbf"
p415
aS'MAPOTI\xef\xbb\xbf'
p416
aS'Yo guys if you could please subscribe to me and ill subscribe to you back \nand i play gta and cod and more on xbox 360!!!\xef\xbb\xbf'
p417
aS'RYAN IS CO LOL :) :) :) :) :)\xef\xbb\xbf'
p418
aS'Dear,ryan are you gay\xef\xbb\xbf'
p419
aS'There are 6,914,044,935\xef\xbb\xbf'
p420
aS'mapoti\xef\xbb\xbf'
p421
aS'Grammar Nazi here!  On the slide that was for "Guys Who Try Too Hard", he \nspelled "too", T-O.  GAHH!\xef\xbb\xbf'
p422
aS'Why does 2:33 remind me of someone so much?\xef\xbb\xbf'
p423
aS'D Trix\xef\xbb\xbf'
p424
aNaS'7 BILLION people live on earth \xef\xbb\xbf'
p425
aS'dear Ryan can you do gangnam style\xef\xbb\xbf'
p426
aS'I liked your video. If you want to whatch my videos type in aeric amerel & \nyou will see all of my fights. subscribe...you did great.\xef\xbb\xbf'
p427
aS"I only point out other peoples mistakes. can't be bothered fixing my own. \nIsn't it obvious why people dont use punctuation in their speech? they just \ncant be bothered\xef\xbb\xbf"
p428
aS'I ate a dog!\xef\xbb\xbf'
p429
aS'This was sooo funnnnyy\xf0\x9f\x98\x82\xf0\x9f\x98\x82\xf0\x9f\x98\x82\xf0\x9f\x98\x82\xf0\x9f\x98\x82\xef\xbb\xbf'
p430
aS'Will never get over the "NARUTOOOOOO! ^_^ "\xef\xbb\xbf'
p431
aS"'If you always say no, you'll never say yes'\xef\xbb\xbf"
p432
aS"Haaaahahahahhaa x's 10000\xf0\x9f\x98\x82\xef\xbb\xbf"
p433
aS'we are not satisfied with gangnam style ryan\xef\xbb\xbf'
p434
aS'this is an interesting discussion ever! haha. Fighting nigahiga! :)\xef\xbb\xbf'
p435
aS' #MAPOTI  \xef\xbb\xbf'
p436
aS'Dear Ryan can u do gangnam style \xf0\x9f\x98\x9c\xef\xbb\xbf'
p437
aS'Please does anybody know what song he used in the haters scene??? (The sad \npiano)\xef\xbb\xbf'
p438
aS"I'm pretty convinced the Naruto thing at the start was the funniest thing \nI've ever seen xD Couldn't stop laughing for Atleast 5 minutes. \xef\xbb\xbf"
p439
aS"No I'm not happy man\xef\xbb\xbf"
p440
aS'dear ryan, can you slap a girl\xef\xbb\xbf'
p441
aS'Dear Ryan, why do you talk so fast in all of your videos?\xef\xbb\xbf'
p442
aS'What did I just say?\xef\xbb\xbf'
p443
aS'*gangman\xef\xbb\xbf'
p444
aS'Dear ryan do an epic sleep battle\xef\xbb\xbf'
p445
aS'jk\xef\xbb\xbf'
p446
aS'Can you do Gangnam Style\n\xef\xbb\xbf'
p447
aS'cool story bro... lol\xef\xbb\xbf'
p448
aS'NARUTOOOOOO!!!!!\xef\xbb\xbf'
p449
aS'i really am the hash tagger....    \n#whydoiusesomanyhashtagsforcompletelyirrelevantthings\xef\xbb\xbf'
p450
aS'0:19 NAYUTAAAAA\xef\xbb\xbf'
p451
aS'I would say I am most like the ATTENTION WHORE\xef\xbb\xbf'
p452
aS'I still use MAPOTI to this day :)\xef\xbb\xbf'
p453
aS'OMG LOL this was like...TOTES HILARE! LMAO, LMFAO! ROFL! ROFLOL! ROFLMAOOL \nLOL XD! Omg I\'m like so fat But people keep telling me im fit and totes \nperf! Aww haha xoxo And omg everyone who is like commenting on this are so \nstupid, they think they\'re funny but seriously, just STOP! Jeez! Can\'t \nbelieve some people. Go get a life!  And omg guys look at the comment above \nme! THATS WHAT SHE SAID RIGHT?!?! HAHA Yolo guys! And dont even hate, h8rs \ngunna h8, but whatevs, come at me bro! Do you even lift??  Wow haha im \ngreat banter, im such a legend!  Aint nobody got time fo dat! But guys.. \nremember..\n\n"anything\'s possible if you\'ve got enough nerve"\n - Jk. Rowling <3 \n\n" Love is just a word but you bring it definition"\n-Eminem <3\n\nLove life!\n\n\nomg guys #hashtag   #youtube   #youtubecomments   #comments   \n#commentingonyoutube   #commentingonyoutubevideos   \n#commentingonryanhigayoutubevideos   #commentingonnigahigayoutubevideos   \n#comment   #plzdonthatemycomment   #plzdonth8mycomment   #lovelife   \n#watchryanhiga   #watchnigahiga   #commentsarefun   #nocommentwars   #MAPOTI \n  #mostannoyingpeopleontheinternet   \n#mostannoyingpeopleontheinternetryanhuga   \n#mostannoyingpeopleontheinternetnigahiga   #dontbeaMAPOTI   \n#livelifetothefullest   #laugh   #funnyvids   #funnyyoutube   #funnyryanhiga \n  #funnynigahiga   #nofilter  \n\nGuys follow me on instagram @taraloveseminem and subscribe to me and follow \nme on twitter and all social media coz on utube i show how to make foods \nand i post pics of every single food i eat on all social media so yah.\n\nGuys... dont show me ur dick, just show me the love, thats all i need. i \ndont need looks or anything else, just love <3 #livelovelaugh   \n#lovethelifeyouliveandlivealifeyoulove  \n\nand seriously, i ur reading this u know who you are, please stop being a \nbitch! dont ask me about this.. i dont wanna talk about it.. :/\n\nand please, spell things things correctly, im sick of having to correct \npeople.\n\nplus add me on myspace!!\n\nP.S:\n\nDear Ryan, Can you do Gangnam Style?\xef\xbb\xbf'
p454
aS'"...shuffling."\xef\xbb\xbf'
p455
aS'This is so true! I hate Grammar Nazis, but especially hypocrites! (By the \nway, you misspelled "virtue" at 3:27 and used an incorrect form of the word \n"too" at 3:33. Just saying!)\xef\xbb\xbf'
p456
aNaS'Shhhhhhssh bee qwuiet im huntin gwammer natshiez \xef\xbb\xbf'
p457
aS"I'm a grammar nazi...\xef\xbb\xbf"
p458
aS'My babysitter is a hashtagger, she always uses like 23 hastags\xef\xbb\xbf'
p459
aS'Dear Ryan, \nCan you do Gangnam Style?\nlol jk\xef\xbb\xbf'
p460
aS'I only like, JUST learned what a filter is... I thought he meant like a \nwater filter but now I know XD. \xef\xbb\xbf'
p461
aS'Ur the best man lol \xef\xbb\xbf'
p462
aS'Lol\xef\xbb\xbf'
p463
aS'I expected these comments to have much more "dear ryan"...\xef\xbb\xbf'
p464
aS'Dear Ryan: DO GANGNAM STYLE I SM JUST KIDDING LOL\n\xef\xbb\xbf'
p465
aS'03:33 *too not to\xef\xbb\xbf'
p466
aS'Sadly Naruto will end>:(\xef\xbb\xbf'
p467
aS'what about the grammar police even though they are slightly diff from \ngrammar nazi\n\nlol heil grammar\xef\xbb\xbf'
p468
aS'No Actually Im not happy U DIDNT DO THE WHOLE THING!!! lol jk\xef\xbb\xbf'
p469
aS'Dear Ryan, can you please do Gangam Style\xef\xbb\xbf'
p470
aS'NARUTOOO!!!!!!! LOL\xef\xbb\xbf'
p471
aS'that was naruto opening 4 at 0:19\xef\xbb\xbf'
p472
aS'Also one of the most annoying people on the internet are when people have \ndebates about the most annoying people on the internet\xef\xbb\xbf'
p473
aS'3:33 - too*\xef\xbb\xbf'
p474
aS'My brother always says nvm and i say lol but rarely\xef\xbb\xbf'
p475
aS'Dear Ryan can you do Gangnam style\xef\xbb\xbf'
p476
aS'NARUTOOOOOO!!!!\xef\xbb\xbf'
p477
aS"MAPOTI - Vegans - I don't care if you're a vegan, that's your choice.. but \ntelling everyone that you're a vegan or fighting with someone else because \nthey eat meat isn't necessary. \xef\xbb\xbf"
p478
aS'Dear all parents it is your fault your kid is violent or cursing because \nyour not hard on your kids or they need one on one time with you.\xef\xbb\xbf'
p479
aS'stfu fgt\xef\xbb\xbf'
p480
aS'I know right!?!?!?!?!! Grammar nazis are so fcking annoying\n\xef\xbb\xbf'
p481
aS'NARUTO!!!!!!! NA-RU-TO UZUMAKI BARAGE> RASENGAN< SHDOWCLONE JUTSU,\n\nNARUTO IS THE BEST YOU GO RYAN\xef\xbb\xbf'
p482
aS"Its too not to and I'm a grammAr Nazi.\xef\xbb\xbf"
p483
aS'I dare you to put an ice cube under your tung for fifteen seconds. \xef\xbb\xbf'
p484
aS'Excuse me you just used the word your now Rishi Jusia\xef\xbb\xbf'
p485
aS'A troll is someone that wants to make you as mad as they can.. /b/\xef\xbb\xbf'
p486
aS'Dear ryan can you do Gangnam Style longer?\n\xef\xbb\xbf'
p487
aS'Wayne Brady??!!!! \xf0\x9f\x98\x82\xef\xbb\xbf'
p488
aS'Nice\n\xef\xbb\xbf'
p489
aS'NARUTO!!!!!! <3\xef\xbb\xbf'
p490
aS'Sorry my tablet suck\xef\xbb\xbf'
p491
aS'NARUTOOOO\xef\xbb\xbf'
p492
aNaS'YESSS someone understands\xef\xbb\xbf'
p493
aS'do more How To Sound Like Your Favorite Artists!\xef\xbb\xbf'
p494
aS'Dear Ryan, Can you do ALL Of gangman style? c:\xef\xbb\xbf'
p495
aS'Your the funniest guy in the world\xef\xbb\xbf'
p496
aS'4:40 That was pretty short.\xef\xbb\xbf'
p497
aS'MAPOTI :)\xef\xbb\xbf'
p498
aS'youre a mapoti\xef\xbb\xbf'
p499
aS'watch this! its awesome! i just found out my brother is 2 or 3 kinds of \nMAPOTI!! XD\xef\xbb\xbf'
p500
aS'Darude-Sandstorm-people are the most annoying ones -.-\xef\xbb\xbf'
p501
aS'Sometimes I can be a Grammar Nazi but I suck at punctuation(commas and all \nthe crap).\xef\xbb\xbf'
p502
aS'theres a difference between a troll and a hater! ie: ruan higa is a troll, \nrishi jusia is a hater\xef\xbb\xbf'
p503
aS'Heh... *raises hand* Grammar Nazi here...\xef\xbb\xbf'
p504
aS"You forgot when girls upload singing videos and the title is ''I can't sing \n:('' MAPOTI.\xef\xbb\xbf"
p505
aS'Dear ryan, please do gangnam style \n\nTEEHEE\xef\xbb\xbf'
p506
aS'I think wat he ment at 0.20 is porn\xef\xbb\xbf'
p507
aS'#iameatingpizzawhilereadingthecomments\xef\xbb\xbf'
p508
aS'Lol\xef\xbb\xbf'
p509
aS'I found another! Virtual Boy haters! \xef\xbb\xbf'
p510
aS'Dear Ryan can you do GANGNAM style\xef\xbb\xbf'
p511
aS'Grammar nazis piss me off >|:0\xef\xbb\xbf'
p512
aS'Unless You A ZOMBIE\xef\xbb\xbf'
p513
aS'Darude - Sandstorm #MAPOTI\n\xef\xbb\xbf'
p514
aS'Is it supposed to be pronounced nah-ROO-toe? or NAH-ru-toe?\xef\xbb\xbf'
p515
aS'lol i i just learned what no filter means xD makes so much sence now\xef\xbb\xbf'
p516
aS'everyday im shufflin\xef\xbb\xbf'
p517
aS'Dear Ryan, Can you do gangnam style\xef\xbb\xbf'
p518
aS"I call the trying to hard guy. Love boy' Fuck them\xef\xbb\xbf"
p519
aS'song name at end??!?!\xef\xbb\xbf'
p520
aS'Lol\xef\xbb\xbf'
p521
aS'this video is annoying\xef\xbb\xbf'
p522
aS'NARUUUTO! XD \xef\xbb\xbf'
p523
aS'Stop being a mopoti\xef\xbb\xbf'
p524
aS'dear ryan, can you do gagnam style?\xef\xbb\xbf'
p525
aS'Dear Ryan, can you do Darude - Sandstorm :P\xef\xbb\xbf'
p526
aS'Is that the guy from quest crew \xef\xbb\xbf'
p527
aS'NARUTOOOOOOOOOOOOOOOOOOOOOOOOOOOOOOOOOOO!!!!!!!!!!!!!!\xef\xbb\xbf'
p528
aS'Dear Ryan can you do a parody of gangnam style\xef\xbb\xbf'
p529
aS'I love you Regina \xef\xbb\xbf'
p530
aS'Haha watched it tons of time but I AM STILL ENJOYING THIS VID! Thanks Ryan!\xef\xbb\xbf'
p531
aS' #mapoti  \xef\xbb\xbf'
p532
aS'Dear Ryan, \nCan you please do ganam style\xef\xbb\xbf'
p533
aS'#MAPOTI\xef\xbb\xbf'
p534
aS'Dear Ryan, Can you do gangnum style.\xef\xbb\xbf'
p535
aS'Like this comment if you like nutella\xef\xbb\xbf'
p536
aS'Darude Sandstorm\xef\xbb\xbf'
p537
aS'dude i watch things better than naruto in the night............... dragon \nball Z!\xef\xbb\xbf'
p538
aS'why the fuck are people keep on telling u to do gangnam style?\xef\xbb\xbf'
p539
aS"Hahaha Ryan you're hilarious ! \xe2\x9d\xa4\xef\xb8\x8f\xef\xbb\xbf"
p540
aS"Actually, Grammar Nazis helped realize the difference between your and \nyou're, because I legitimately had no idea I was confusing one for the \nother.\xef\xbb\xbf"
p541
aS'I love your video but.....Dear Ryan can you do the Gangnam style?? hahaha\xef\xbb\xbf'
p542
aS'Dear Ryan , Can you do Gangnam style ? Nah just joking !\xef\xbb\xbf'
p543
aS'oh hellyea\xef\xbb\xbf'
p544
aS'Im sick of people that have to say shit to just get a response. Like "This \nguy sucks" then why are you watching? I really am sick of these people.\xef\xbb\xbf'
p545
aS'The people that ruin your rps! :(\xef\xbb\xbf'
p546
aS'3:16 LOL\xef\xbb\xbf'
p547
aS'Oh hell na teehee \xf0\x9f\x98\x82\xef\xbb\xbf'
p548
aS' #GangnamStyle   #RyanDancing   #Psy   #Nigahiga   #DancingtoMusicandDancing \n  #DearRyanCanYouDoGangnamStyle   #MAPOTI   #GregSmiles   #Mustache   \n#ILoveHashtags   #hashbrowns   #MoreDancing   \xef\xbb\xbf'
p549
aS'Reddit and imgur can be pretty annoying.\xef\xbb\xbf'
p550
aS'Someday Acronymic will be an official language\xef\xbb\xbf'
p551
aS'i keep hearing meows.. and i thought it was my cat.. \xef\xbb\xbf'
p552
aS'What about the stereotypical Directioner and Belieber?\xef\xbb\xbf'
p553
aS'That not gang nam style\xef\xbb\xbf'
p554
aS'oh jeez Im 2 of these annoying peeps! \xef\xbb\xbf'
p555
aS'If it was today, THE most annoying person would be the guy who says "Darude \n- Sandstorm"\xef\xbb\xbf'
p556
aS'That person that is a dick to everyone and then says "my sister/brother \nstole my account and said all that mean stuff" MAPOTI\xef\xbb\xbf'
p557
aS'ze vid waz su #fabswagyolobro  if u no agre wit me u gunna du nuffin cuz i \ncan sk8 & w8 until you stahp the h8 m8.\xef\xbb\xbf'
p558
aS"What the fuck. I thought i wass annoying. But i don't fit in...\xef\xbb\xbf"
p559
aS'Lol Dem MAPOTI XD\nLove your vids bro, keep up the great work :)\xef\xbb\xbf'
p560
aS"Yeah you encounter reaaally strange people on the internet!!o_O,but the \nthing is that's who they are,the personality shows up strongly online \nthrough your activites and you can't fake it,they can show their true color \neasily,sometimes when i read some comments it scares me!!! They sound \nfreaky and weird!! I don't think a healthy human being could write such \nthings!! Better for them to rest in a mental asylum....\xef\xbb\xbf"
p561
aS'#MAPOTI\xef\xbb\xbf'
p562
aS"It's trying too hard not to hard I'm sorry I'm one of the MAPOTI\xef\xbb\xbf"
p563
aS"Ok I will stop, oh Freddy's at nights five play please Ryan dear (read \nwords backwards)\xef\xbb\xbf"
p564
aS'#How#are#you#doing#today#.\xef\xbb\xbf'
p565
aS'Dear Ryan, can you do Gangam Style?\xef\xbb\xbf'
p566
aS'Too much my space people who do dat are mapoti so Ryan u r 2\xef\xbb\xbf'
p567
aS'3:34 >Ahem<  TOO\n#grammar#nazi#grammarnazi#naziofgrammar#commment#stopreading\xef\xbb\xbf'
p568
aS"Hey Ryan!!! I know you're not reading this because it's been a year since \nyou made this video so..... I love you Ryan!!!!! <3 hehe #immagrammarnazi\xef\xbb\xbf"
p569
aS'Love u so much!!!!\xef\xbb\xbf'
p570
aS'Dear ryan can u do gangnam style \nTEEHEE\xef\xbb\xbf'
p571
aS'My friend is a "food photographer."\xef\xbb\xbf'
p572
aS'dear ryan could you please do gangnam style\xef\xbb\xbf'
p573
aS'Dear Ryan, Dear Ryan, Dear Ryan. XD LOL!!!!!!!!!!!!!!!!!\xef\xbb\xbf'
p574
aS'Dear Ryan go Ice Skating\xef\xbb\xbf'
p575
aS'trollers are awesome\xef\xbb\xbf'
p576
aS'Naruto fuck yeah >:)\xef\xbb\xbf'
p577
aS'yuo are wrng. th trols are te mst loved pepple on the itnenet\xef\xbb\xbf'
p578
aS'Ryan can u do how to survive a zombie apocilipz\n\xef\xbb\xbf'
p579
aS'OMG it so true \xf0\x9f\x98\x91 \xf0\x9f\x98\x82 \xf0\x9f\x91\x8f\xef\xbb\xbf'
p580
aS'\xe8\xaa\xb0\xe5\x8f\xaf\xe4\xbb\xa5\xe6\x95\x99\xe6\x88\x91\xe9\x80\x99\xe7\xa8\xae\xe6\x8b\x8d\xe6\x94\x9d\xe6\x89\x8b\xe6\xb3\x95\xef\xbb\xbf'
p581
aS'Water \xef\xbb\xbf'
p582
aS'Dear Ryan,\ncan you do gangnam style?\xef\xbb\xbf'
p583
aS'I should tots stfu #stop#tickiling#fluffy unicorns\xef\xbb\xbf'
p584
aS"2:34 I can't tell if that is sarcasm or not. Ryan likes to joke a lot\xef\xbb\xbf"
p585
aS'mapoti is a nice word\xef\xbb\xbf'
p586
aS'Guysh Have you Evar don a shyree shixty noschope\xef\xbb\xbf'
p587
aS'#i #k #n #o #w #r #i #g #h #t\xef\xbb\xbf'
p588
aS'Dear Ryan can you do gangdam style\n\xef\xbb\xbf'
p589
aS"Ggs 5th nghhffhbffgbv and I can't turn to the Sun Microsystems Inc is a lot \nmore to get to work and the kids pet died So far they havent got the \nmorning and I'm just a few things have to get a lot of room we don't know \nyou can come to y\xef\xbb\xbf"
p590
aS'Naruto !!! \xef\xbb\xbf'
p591
aS'its going to be legen what\xef\xbb\xbf'
p592
aS'notaryanhiga going to the beach :)\n#springbreak #beach #friends #sunny\n#funtimes #funtimeswithfriends #sand\n#funtimeswithfriendsinsand #nofilter\xef\xbb\xbf'
p593
aS'Then there\'s that one person "OMG 30MIL SUBS??!!!!!! THERES ONLY 7000 PPL \nIN THE WORLD!!!! HAXERRRR"\xef\xbb\xbf'
p594
aS"omg everyone's faces at 4:43!\xef\xbb\xbf"
p595
aS'Just ate a hot pocket.\xf0\x9f\x98\x82\xef\xbb\xbf'
p596
aS'mapoti!\xef\xbb\xbf'
p597
aS'Just ate a hot pocket\xef\xbb\xbf'
p598
aS'He made a gangnam style parody named kl style\xef\xbb\xbf'
p599
aS'13 mil Ryan! Grats!\xef\xbb\xbf'
p600
aS'Wanna see a wannabe rapper? Look up a channel called "3pac" (Not 2pac) This \nguy makes me hate the world\xef\xbb\xbf'
p601
aS'The "Trying to hard guy" should be "Trying TOO hard guy!" Watch your \nspelling and word usage! LOL! Grammar!\xef\xbb\xbf'
p602
aS'Most annoying person internet: how does......., have ...., views if theres \nonly... In the world\xef\xbb\xbf'
p603
aS'Do gangnam style tho.\xef\xbb\xbf'
p604
aS"Sorry, I'm a grammar Nazi. \xef\xbb\xbf"
p605
aS"It's funny, the comments are filled with the very people he talked about in \nthe video. \xef\xbb\xbf"
p606
aS"Lol I'm sometimes the wannabe rapper\xef\xbb\xbf"
p607
aS'Oh hell naw! \xf0\x9f\x98\x82\xf0\x9f\x98\x82\xf0\x9f\x98\x82\xef\xbb\xbf'
p608
aS'The number of haters have increased drastically. Even worse, most of them \nhave the higher likes on comments.\xef\xbb\xbf'
p609
aS'1:29, aka the people who troll about the amount of people in the world\xef\xbb\xbf'
p610
aS'-_- im from germany\xef\xbb\xbf'
p611
aS'"If you always say no, you\'ll never say yes" hahahah XD\xef\xbb\xbf'
p612
aS'Fuck yeah, Naruto!\xef\xbb\xbf'
p613
aS'Lol wtf\xef\xbb\xbf'
p614
aS'Youre ugli idiot s . #dont comment bitches oh hell Jeah\xef\xbb\xbf'
p615
aS'Im sorry but Ryans face is ADORABLE at 00:20 xD \xef\xbb\xbf'
p616
aS'Mapoti\xef\xbb\xbf'
p617
aS"Omfg why did you do this... I can't believe this... OMFG why?!? Ugh some \npeople jezzz... \xef\xbb\xbf"
p618
aS"Being a grammar nazi feels nice,isn't it? XD\nBut it makes me feel really lazy to type so......I'm not going to continue \nbeing a grammar nazi.\nBye!\xef\xbb\xbf"
p619
aS'"Darude-Sandstorm" people, they are fucking annoying\xef\xbb\xbf'
p620
aS'Dear ryan can u eat a bannana\xef\xbb\xbf'
p621
aS'Dear Ryan, can u does gandumb stieyl plz. TEEHEE\xef\xbb\xbf'
p622
aS"If you replace 'annoying' in MAPOTI with awesome, it's still MAPOTI. \xf0\x9f\x98\x83 LOL\xef\xbb\xbf"
p623
aS'I HATE the caption girl they are everywhere \xef\xbb\xbf'
p624
aS'A friend of mine is everthing combined.ITS SO ANNOYING!\xef\xbb\xbf'
p625
aS'The end though \xf0\x9f\x98\x82\xef\xbb\xbf'
p626
aS'STOP SAYING THAT ABOUT MY SPACE\xef\xbb\xbf'
p627
aS'dear Ryan, can you do gingham style\xef\xbb\xbf'
p628
aS'MAPOTI!\xef\xbb\xbf'
p629
aS'he diss lilwayne\xef\xbb\xbf'
p630
aS'Dear rayan do gumdum style\xef\xbb\xbf'
p631
aS'Hi\xef\xbb\xbf'
p632
aS'Most annoying people on the internet are people with Encyclopedia \nDramaticas and Yoshiwii1. \xef\xbb\xbf'
p633
aS"woah there's this glitch kept the screen black(im not rracist)after i \nwatched the vid\xef\xbb\xbf"
p634
aS"Most favourite video of all time! Luuuuurvee you Ryan \xf0\x9f\x98\x8d come over to \ntoronto some time and I'll buy you naruto action figures and cook you some \nindian food \xf0\x9f\x92\x8b\xef\xbb\xbf"
p635
aS'did you see the troll face at 4:52 \xef\xbb\xbf'
p636
aS'hey Rayan Can you do Gangam Style:-  \xef\xbb\xbf'
p637
aS'Darude-sandstorm\xef\xbb\xbf'
p638
aS'Naruto rules\xef\xbb\xbf'
p639
aS'3:33 *too, and just before that *virtue\xef\xbb\xbf'
p640
aS'dear ryan go eat yourself\xef\xbb\xbf'
p641
aS"I'm a grammar nazi\xef\xbb\xbf"
p642
aS'So in love kakakakakakak \xf0\x9f\x98\x85\xf0\x9f\x98\x85\xf0\x9f\x98\x85\xef\xbb\xbf'
p643
aS"I'm a Grammar Nazi. XD\xef\xbb\xbf"
p644
aS'i sec of fucking ganam style\xef\xbb\xbf'
p645
aS'Lol\xef\xbb\xbf'
p646
aS'Omg dislik so fak\xef\xbb\xbf'
p647
aS'Awesome but where are the people who go " Darude - Sandstorm" and " GAY "\xef\xbb\xbf'
p648
aS"I'm a grammar sheriff.\nI said sheriff because using the term Nazi for a person who constantly \ncorrects people in grammar didn't kill Jews \xef\xbb\xbf"
p649
aS'Can u do hangman style\xef\xbb\xbf'
p650
aS'trueee\xef\xbb\xbf'
p651
aS'I think im not a MAPOTI\xef\xbb\xbf'
p652
aS'3:33 It is too, not to. Jeez.\xef\xbb\xbf'
p653
aS' #Mapoti   SPREAD IT\xef\xbb\xbf'
p654
aS"I got some too\n\nPeople who say Darude-Sandstorm\n-People who use unfunny and overused jokes\nExample\n\nThis is a nice video!\nReply:Darude-Sandstorm\n\nSeriously grow up\n(I bet theres someone that will reply Darude-Sandstorm here too)\n*______________________________________________________*\nPeople who makes a parody of Darude-Sandstorm comment\n-People who make an unfunny and overused jokes make it worse\nExample\n\nThis is a nice video!\nReply:Darude-Sandstorm\nReply:Dayrude-Landstorm\n\nWhat are you FIVE?!\n*______________________________________________________*\nAdvertisers\n-People who advertise their stupid channels (rarely good)\nExample\n\nHello I am (insert name here) (insert reason to visit channel here)\n(insert low subscribers here) (insert subcribers goal here)\n\nYou are only making your channel worse.\n*______________________________________________________*\nPeople who are too stupid for sarcasm\n-Should I say more?\nExample\n\nChannel:HowtoBasic\nVideo: How to make cake\n\nComment:FAAAAAKE\n\nJust.. sigh\n*______________________________________________________*\nPeople who can't ignore anything\n-They are idiots that will see a hater comment and immediaetly complains\nabout it\nExample\n\nWait where is the example?\n\n\n\nAWWW HELL NAW\n*______________________________________________________*\xef\xbb\xbf"
p655
aS'4:14 I must admit, I certainly fall into this category.\xef\xbb\xbf'
p656
aS'9gaggers\xef\xbb\xbf'
p657
aS'You forgot the squeaker #mapoti\xef\xbb\xbf'
p658
aS'Haha tru tru \xef\xbb\xbf'
p659
aS'you look like vanoss\xef\xbb\xbf'
p660
aS'Lets not forget our favorite! That one guy who posts a religious comment or \nstatement, and then some atheist replies "HA U RTRD YOU MKE ME LAUUUUGH AT \nHW STUPD U R" Or something close to that, and complain that Christians try \nto make them convert religions as if that ever happens, etc.\xef\xbb\xbf'
p661
aS'dear ryan, can you be a mapoti?\xef\xbb\xbf'
p662
aS'ma poti   lol\xef\xbb\xbf'
p663
aS'\n\xef\xbb\xbf'
p664
aS'Dear Ryan ur gay TeeHee\xef\xbb\xbf'
p665
aS'There are acully 2 billion dick\xef\xbb\xbf'
p666
aS'dear Ryan, Can you be do a prank on Omegle?\xef\xbb\xbf'
p667
aS'At 4:09 pause there Batista and jonh cena on the shirt\xef\xbb\xbf'
p668
aS'Hahahaha :-D\xef\xbb\xbf'
p669
aS'Darude sandstorm\xef\xbb\xbf'
p670
aNaS'hehe\xef\xbb\xbf'
p671
aS"I'm a hashtager  #Shock #Suprise #Mapoti #style #akward  \xef\xbb\xbf"
p672
aS'Dear Ryan can you do gangnam style?\xef\xbb\xbf'
p673
aS' #MAPOTI  \xef\xbb\xbf'
p674
aS'Dear Ryan can you do gandam \nstyle\xf0\x9f\x88\xb3\xf0\x9f\x8c\x9d\xf0\x9f\x9a\x81\xe2\x9c\x88\xef\xb8\x8f\xf0\x9f\x9a\x80\xf0\x9f\x8c\x85\xf0\x9f\x97\xbd\xf0\x9f\x9a\xa4\xf0\x9f\x9a\xbc\xf0\x9f\x9a\xb3\xf0\x9f\x9a\xb1\xf0\x9f\x94\x9e\xf0\x9f\x93\xb5\xf0\x9f\x9a\xaf\xf0\x9f\x92\xb2\xf0\x9f\x92\xb2\xf0\x9f\x92\xb2\xf0\x9f\x92\xb2\xf0\x9f\x92\xb2\xf0\x9f\x94\x9a\xf0\x9f\x94\x9d\xf0\x9f\x94\x99\xf0\x9f\x94\x9b\xf0\x9f\x94\x9c\xf0\x9f\x94\x83\xf0\x9f\x92\xae#\xe2\x83\xa3just are a hot \npocket\xef\xbb\xbf'
p675
aS'Dear Ryan, Can You Do A GOOD Gangnam style?\xef\xbb\xbf'
p676
aS'Most Annoying People On The Internet: http://youtu.be/Tkm5K2fu0AI\xef\xbb\xbf'
p677
aS'Mapoti= This is definitely a Mapoti- OMG SKRILLEX SUKS SO MUH HEZ SO GAY GO \nWACH JB BECUZ HE SINGZ BOUT HIS FEELNS!\xef\xbb\xbf'
p678
aS'Dear Ryan, can you do a debate about yo mamma jokes? What?\xef\xbb\xbf'
p679
aS'Dear Ryan can you do gandamn style\xef\xbb\xbf'
p680
aS'Dear Ryan can you do Katy Perry dark horse\xef\xbb\xbf'
p681
aS' #lol   #nigahiga   #youtube   #Mapoti  \xef\xbb\xbf'
p682
aS'wheres teehee\xef\xbb\xbf'
p683
aS'dear ryan, please do a morning routine video\xef\xbb\xbf'
p684
aS'Dear Ryan, can you do gangman style? Lol\xef\xbb\xbf'
p685
aS'Hitler is racist \xef\xbb\xbf'
p686
aS'you forgot the first likers.\xef\xbb\xbf'
p687
aS'#Hashtag\xef\xbb\xbf'
p688
aS'"People keep sayin\' I look like selena gomez but whatevah.."\nXDXDDDDDDXDDD\xef\xbb\xbf'
p689
aS'gay\xef\xbb\xbf'
p690
aS'Dear Ryan, do the full Gangnam Style\xef\xbb\xbf'
p691
aS'the naruto part kekekekekeke x3 ... i m not a MAPOTI , teehee~~\xef\xbb\xbf'
p692
aS'Dear Ryan- Can you do gangnam style.\xef\xbb\xbf'
p693
aS'Can you do gangman style\xef\xbb\xbf'
p694
aS'what is wrong with watching p-naruto \xef\xbb\xbf'
p695
aS'#MAPOTI\xef\xbb\xbf'
p696
aS'So, this really applies to everyone on the internet. You have to be 70 year \nold only be one the internet to check the news to not fall under any of \nthese categories.\xef\xbb\xbf'
p697
aS'Dear Ryan, can you do gangman style?\xef\xbb\xbf'
p698
aS'BUT... WHAT IF YOURE ALL OF THEM AT ONCE ?\xef\xbb\xbf'
p699
aS'i is grammer nazi to\xef\xbb\xbf'
p700
aS"Can you do gangam style? JK. I'm 25% Grammar!\xef\xbb\xbf"
p701
aS'I hate haters. Once there was a guy watching a minecraft video and he said \n"skydoesminecraft is a piece of shit" and then millions of people kept \ncomplaining and I had to click on da bell like 40 times yesterday OMFG they \nare just annoying And that guy doesn\'t know HOW to play minecraft. WOW. \nWell please do not complain that I play minecraft that is not nice at all. \n:(\xef\xbb\xbf'
p702
aS'*Spoiler alert*  HE DID GANGNAM STYLE!   XD\xef\xbb\xbf'
p703
aS"Da?! Hashtagers!! I'm one of em\xef\xbb\xbf"
p704
aNaS'Like!!\xef\xbb\xbf'
p705
aS'Do the full gangnam style!\xef\xbb\xbf'
p706
aS'You have the starry night picture!?\xef\xbb\xbf'
p707
aS"well mayb if there weren't any annoying ppl on the internet,then, internet \nwouldn't be any fun any more!!!\n\ni mean if everybody wud talk with humor then think bout' it it would be \nsuper boring :/\xef\xbb\xbf"
p708
aS'DEAR RYAN,\nCAN YOU GET MARRIED TO A SOCK? :DDD\xef\xbb\xbf'
p709
aS'mopoti\xef\xbb\xbf'
p710
aS"was that the really 'starry night' painting?\xef\xbb\xbf"
p711
aS'Dear Ryan can u b Jenna marbles\xef\xbb\xbf'
p712
aS"I'm a grammar Nazi... that's why I died inside at 3:34. We can't help it...\xef\xbb\xbf"
p713
aS'isnt this most annoying people on instagram?\xef\xbb\xbf'
p714
aS'Dear Ryan, can you do gangnam style? XD\xef\xbb\xbf'
p715
aS'Dear Ryan can you do gangnam style\xef\xbb\xbf'
p716
aS'mmhmmhhh\xef\xbb\xbf'
p717
aS'Dear ryan can you do the matrix\xef\xbb\xbf'
p718
aS'Dear Ryan can u do Gangnam style? :D :D :D\xef\xbb\xbf'
p719
aS'This vid almost has as much views as his subs\xef\xbb\xbf'
p720
aS'mapoti.. wow this guy is so cool........\xef\xbb\xbf'
p721
aS'This video was legen- wait for it... .... ... DARY!\xef\xbb\xbf'
p722
aS'I WAS ACTUALLY THINKING ABOUT WRITING YOU SOMETHING :o WELL WELL WELL LOL\xef\xbb\xbf'
p723
aS'Dear Ryan,\n               can u Gangnam  style ???!!!!! ( i am one of the most \nannoying people on the internet)  TEEHEE :)\n          \xef\xbb\xbf'
p724
aS"where's the TEEHEE?! \xef\xbb\xbf"
p725
aS'You forgot the "first commenter"\xef\xbb\xbf'
p726
aS'Sorry my tablet suck\xef\xbb\xbf'
p727
aS'I know right there is always that one guy who tries to hard to impress a \ngirl. Then that one guy who complains about everyone but their selves! Then \nthere are a** holes who scream at me when I talk they are always saying \n"SHUT UP SQUEAKER" It is annoying too then all I reply is Oh yeah buddy \nreal original moron or a simple Thank you.\xef\xbb\xbf'
p728
aS'Dear Ryan can u do gangman style xD\xef\xbb\xbf'
p729
aS'One Direction you like One Direction dude have you got that get it one \ndirection\xe2\x96\xb6\xe2\x99\xa5::-) E L LEANA who\xef\xbb\xbf'
p730
aS'dear ryan can you be a pokemon\nplz do this.\xef\xbb\xbf'
p731
aS'I dont think about ur boobs \ni think about ur mind\xef\xbb\xbf'
p732
aS'Mapoti\xef\xbb\xbf'
p733
aS'Maybe Gramma Nasty would be the best way to spell one of those annoying \npeople.\xef\xbb\xbf'
p734
aS'The most annoying type of person on the internet is the guy with no sense \nof humor, I HATE THEM SO MUCH!\xef\xbb\xbf'
p735
aS'Dear Ryan, Can you do gangnam style?\xef\xbb\xbf'
p736
aS'I just had this weirdest dream that someone was controling my every move \nand...da..fuck\xef\xbb\xbf'
p737
aS"I'm the acronym !!! Haha LOL \xef\xbb\xbf"
p738
aS'who else noticed he didn\'t end it with "tee hee"?\xef\xbb\xbf'
p739
aS"I'm the overused sayings person. It's ok, I will put some money in the \nshame shame jar ;-; (superwoman reference)\xef\xbb\xbf"
p740
aS'Dude hot pockets r gross!!!! \xf0\x9f\x91\x8d\xf0\x9f\x91\x80\xef\xbb\xbf'
p741
aS"You know whats even more annoying than Grammar Nazis? The people that cause \nGrammar Nazis. You know, the people who look like they didn't go through \nthe second grade when they type.\xef\xbb\xbf"
p742
aS'Ah damn, I have fallen into some of these categories... #mapoti  \xef\xbb\xbf'
p743
aS'You missed one on FaceBook.\nThe "one who saves photo and waste thier memory..."\xef\xbb\xbf'
p744
aS'Dear Ryan. . . Can you do Gangnam style.\xef\xbb\xbf'
p745
aS'Dear Ryan, *Sarude Danstorm*\xef\xbb\xbf'
p746
aS"Wish you would've put the Beliebers in this category. They're the most \nannoying group of trolls to me. Their commitment to that wannabe white \nrapper makes me want to throw up.\xef\xbb\xbf"
p747
aS'Well, I am a MAPOTI, Most AMAZING People On The Internet XDDDD\xef\xbb\xbf'
p748
aS'Oh smack dat ending just raised the like counter by 1 :D\xef\xbb\xbf'
p749
aS'"If you\'ll always say no, you\'ll never say yes"\xef\xbb\xbf'
p750
aS'How about this: Someone says "i don\'t like your videos" and the answers he \nget are "you do better then" or "you dont even have videos"... MAPOTI\xef\xbb\xbf'
p751
aS"Not trying to be a grammar nazi, but it's trying 'too' hard guy 3:33 \xef\xbb\xbf"
p752
aS'When u ask someone what song it this called and they say " darude- \nsandstorm"\xef\xbb\xbf'
p753
aS'MAPOTI\xef\xbb\xbf'
p754
aS'my sister is a food photographer.... wont let me eat in peace :/\xef\xbb\xbf'
p755
aS'OH MY GOD SO ACCURATE. And what really makes me annoyed is when people will \nput hashtags NOT EVEN RELATED TO THE PICTURE. Heres an example. \n\n*posts picture of cat*\n#cat #dog #pet #antibullying #gayrights #minecraft #nofilter #bajancanadian \n#deadlox #skytato #troubledteens\n\nYep. \xef\xbb\xbf'
p756
aS'Dear Ryan, can you please edit out the part with gangdam style\xef\xbb\xbf'
p757
aS'Dear Ryan can you make a funny vid about cheating in school\xef\xbb\xbf'
p758
aS"i admit that i'm internet psycho\xef\xbb\xbf"
p759
aS'dear ryan, can you do gagnam style?\xef\xbb\xbf'
p760
aS'whats happend are u okay ?\ni dont wanna talk about it xD MAPOTI\xef\xbb\xbf'
p761
aS'I think the MAPONI are the ones who ruin a perfect moment (aka the one on \nthe video)\xef\xbb\xbf'
p762
aS'whos ryan??????????\xef\xbb\xbf'
p763
aS"We aren't happy yet cause he didn't do it long enough . STUPID COPYRIGHT\xef\xbb\xbf"
p764
aS'NARUTO\xef\xbb\xbf'
p765
aS'Mapoti is real its a type of Indian food\xef\xbb\xbf'
p766
aS'LOL THE END\xef\xbb\xbf'
p767
aS'Must\nAdd\nPepper\nOn\nThe\nIce cream\n\n\nMe : You MAPOTI\nFriend: WHAT!? Taste gross :p\xef\xbb\xbf'
p768
aS'MAPOTI\xef\xbb\xbf'
p769
aS'I dear you to put lemon all over your face\xef\xbb\xbf'
p770
aS'#MAPOTI\xef\xbb\xbf'
p771
aS'oh and people who like every ithing even if its bad like my dog is dieing \nand they just like that\xef\xbb\xbf'
p772
aS'I am offensive and I grammar nazi find this.\xef\xbb\xbf'
p773
aS'Dear Ryan can you do Gangdam style?\xef\xbb\xbf'
p774
aS'Dear ryan can you do gangnam style\xef\xbb\xbf'
p775
aS'I\'m one of the "trolls" and I just do it when I\'m bored for fun\xef\xbb\xbf'
p776
aS'#Mapoti\xef\xbb\xbf'
p777
aS'And of course im gonna watch some...p-p-NARUTO!!!! Lmao xD\xef\xbb\xbf'
p778
aS'No teehee?\xef\xbb\xbf'
p779
aS'now im not a nerd but...\nTHAT CLIP OF NARUTO HE SHOWED WAS AT THE 1:25th SECOND OF NARUTO OPENING 5 \n#SASUKETURNSEVIL\xef\xbb\xbf'
p780
aS'I know a lot of unrelated captions girls!\xef\xbb\xbf'
p781
aS'MAPOTI\xef\xbb\xbf'
p782
aS"This is the last comment I'm puting on here so if you say somthing to me it \nwill be pointless\xef\xbb\xbf"
p783
aS'Are we not gonna talk about  how Wayne Brady ended up in this video...\xef\xbb\xbf'
p784
aS'GANGNOM STYLE\xef\xbb\xbf'
p785
aS'hahahah i like how u made urself seem as one of the annoying people on the \ninternet, loool and the gangam style part hilarious\xef\xbb\xbf'
p786
aS'Dear Ryan,can u do gangnam style :-D \xef\xbb\xbf'
p787
aS'MAPOTI V2? With Darude-Sandstormers\xef\xbb\xbf'
p788
aS'H-Having\nA-Anger\nT-Towards\nE-Everyone\nR-Reaching\nS-Success \xef\xbb\xbf'
p789
aS'Course im gonna wach some ...... \n\n\n\n\n\n\n\nNARUTO!\xef\xbb\xbf'
p790
aS'DaChampTV is MAPOTI\xef\xbb\xbf'
p791
aS'Dear ryan can you do gangnam style?\xef\xbb\xbf'
p792
aS"I'm a Darude Sandstormer and a Nazi..\xef\xbb\xbf"
p793
aS"Oh gosh! My friend is the 'unrelated captions girl' person she takes selfie \nof herself and puts random quotes. She does it for attention and it so \nannoying!\xef\xbb\xbf"
p794
aS'Yeah go Naruto\xef\xbb\xbf'
p795
aS"look at all these mapoti's in the comments\xef\xbb\xbf"
p796
aS'Dear Ryan, can you bring back "Top Raving"?\xef\xbb\xbf'
p797
aS'Narutu XD\xef\xbb\xbf'
p798
aS'Did u see that troll face at 5:01\xef\xbb\xbf'
p799
aS'Mapoti is the idiots saying America is dumb. Fuck them\xef\xbb\xbf'
p800
aS"I'm clearly a hashtagger,like I can really write a paragraph out of \nhashtags xD lol only on Instagram though\xef\xbb\xbf"
p801
aS'Some more:\nThe "Nerd" - Lol doin my hw, such a nerd ;).\nThe Idiot Who Has Spoken English All There Life But Can\'t Spell Simple \nWords - There\'s no I in happyness.\nThe One Person Who Calls Them Self a Gamer But Only Plays Minecraft or \nAngry Birds - Lol Minecraft is such a good game #nerd , #gamer , #gamergirl \n \xef\xbb\xbf'
p802
aS'I wanna see more of Gangnam Style, please.\xef\xbb\xbf'
p803
aS'Hot pockets make me happy\xef\xbb\xbf'
p804
aS'The starry night painting next to his head is on my fridge...\xef\xbb\xbf'
p805
aS'You forgot one thing. The classic Nsinghal. The guy who tries to act like a \n6 year old and gives you 100% sh*t and assuming some kind of close \nfriendship when you block him. By normal standards a Nsinghal uses "guess \nwot. chicken butt" as much and he can after putting the suffix \n"jajajajajajajajaja lolololol many funy :O)" after any annoying thing he \nsays. He tries to use as much incorrect spelling and grammar as possible. \nThe solution to Nsinghal is to block him and never give him forgiveness. He \nisn\'t "only 2". You can tell because 2 year olds don\'t play Minecraft, type \nnearly as fast, or find as many ways as possible to bullsh*t you.\xef\xbb\xbf'
p806
aS'Dear Ryan, are you gemini? If not why do you speak so fast?\xef\xbb\xbf'
p807
aS'"The trying to hard guy" Did you mean the trying TOO hard guy? Learn \ngrammar before you make a youtube video please.\xef\xbb\xbf'
p808
aS'Not gonna lie, I used to think SMH meant "So Much Hate". Only found out \nwhat it meant a couple of weeks ago. ^^;\xef\xbb\xbf'
p809
aS'Trying too hard and Grammar Na... Oh wait\xef\xbb\xbf'
p810
aS'Dear Ryan, can you do ti7i7it?\xef\xbb\xbf'
p811
aS'Ryan Do gamgamstyle\xef\xbb\xbf'
p812
aS'Narutooo !!! xD \xef\xbb\xbf'
p813
aS'yo bro this shit just made my day XD \xef\xbb\xbf'
p814
aS'My first day watching naruto so is it a good show because i just fininshed \ndragonball\xef\xbb\xbf'
p815
aS'Dear Ryan\nCan you drink a bottle of Watteau in 2 minutes?\xef\xbb\xbf'
p816
aS'Maloti\xef\xbb\xbf'
p817
aS'mapoti\xef\xbb\xbf'
p818
aS'There are people at my school like the overly used acronym guy. Which gets \nannoying. #MAPOTI  \xef\xbb\xbf'
p819
aS'Dear ryan do gangnum style\xef\xbb\xbf'
p820
aS'nARUTO!! lmao\xef\xbb\xbf'
p821
aS'First video i saw of You and wow amazing nice hair!\xef\xbb\xbf'
p822
aS'Dear Ryan can u do the bean boozeled challenge\xef\xbb\xbf'
p823
aS'Dear Ryan, Can you do the full video of Gangnam Style again? :D\xef\xbb\xbf'
p824
aS'Why is saying "grammar nazi" okay? The minute he said grammar nazi \nIa stopped watching , there is no way I am the only jewish person here that \nis offended. I hate to act like one of "those" people who goes on and on \nand starts conflict and drama but I really don\'t think making jokes about \nthe holocust is okay. It\'s a little too soon considering my moms \ngrandfather was put in a concentration camp. When you think about it, it\'s \nalmost like making jokes about 911, except the holocaust killed millions of \njewish people. I think it may be important that people see this and \nactually reflect, and think about how joking about something that tragic \nand recent could offend jewish people.\xef\xbb\xbf'
p825
aS'lol jk fdqjsfqweysh #slfu #swag  in the bag\xef\xbb\xbf'
p826
aS'I must admit, I am a grammar nazi XD\xef\xbb\xbf'
p827
aS'cool dood\xef\xbb\xbf'
p828
aS'Dear Ryan, Am I MAPOTING right now?\xef\xbb\xbf'
p829
aS'Hi\xef\xbb\xbf'
p830
aS'the gramma nazi has the benefit of being right, while being anoying\xef\xbb\xbf'
p831
aS'#YEAH , NARUTO\xef\xbb\xbf'
p832
aS'I really need to STFU :P\xef\xbb\xbf'
p833
aS'WE HAVE THE SAME PLATES AND MUGS\xef\xbb\xbf'
p834
aS'4:35 lol\xef\xbb\xbf'
p835
aS"hash taggers are the mapoti, in my opinion :o\nI mean, sometimes people put hash tags where it doesn't even work..\xef\xbb\xbf"
p836
aS'Attention whore....\nFound guilty.\nMy mom is a food photographer.\xef\xbb\xbf'
p837
aS'Dear Ryan, Can you do the gangnam style completely.....\nMAPOTI\xef\xbb\xbf'
p838
aS'Dammit now i wanna do a hashtag contest... #hastag   #contest   \n#hastagcontest   #DoItWithMe   #Please   #OhNo   #Istarteddoingit   \n#ThisIsNotGonnaEndWell   #Lol   #JustKidding  \xef\xbb\xbf'
p839
aS'Most Annoying People On The Internet: http://youtu.be/Tkm5K2fu0AI\xef\xbb\xbf'
p840
aS'NARUTOOOOOOOO\xef\xbb\xbf'
p841
aS"*If you always say no, you'll never say yes,*  - *Ryan Higa*\xef\xbb\xbf"
p842
aS'Have you ever noticed how "lol" has gone from "laugh out loud" to "I have \nnothing else to say"?\xef\xbb\xbf'
p843
aS'i say Aint Nobody got tiem fo dat, Yolo Right, and Swag!\n:o \nim a MAPOTI\xef\xbb\xbf'
p844
aS'Darude - Sandstorm\xef\xbb\xbf'
p845
aS'You Missed The Little  Population-ers (6-7 Million People In The World \nPerson)\xef\xbb\xbf'
p846
aS'The ending! Rofl! XD \nIma be like lmao. #lol #loLwithcapitalL #hi #funnyquotes #mapoti #nofilter \n#jeiejwnsvd #ehedi\nFTW! ;)\nOh btw, you misspelled several words you idiot! People who like japan are \nevil! Get a life Ryan! \n~Darude-Sandstorm \xef\xbb\xbf'
p847
aS'"I can\'t even"  \xef\xbb\xbf'
p848
aS"I'm the grammar nazi, YEAH!!!\xef\xbb\xbf"
p849
aS"I don't even know why people ask, he's obviously not Korean. like bruh get \nan atlas\xef\xbb\xbf"
p850
aS'3:00 lmao dat face XD (yea im the ultimate mapoti)\xef\xbb\xbf'
p851
aS'3:33 *Too\xef\xbb\xbf'
p852
aS"Nah the grammar nazi is not annoying, it's the best insult on a post\xef\xbb\xbf"
p853
aS'Mapoti\xef\xbb\xbf'
p854
aS'And then there\'s the people who believe in "god". And people who complain \nabout people believing in "god".\xef\xbb\xbf'
p855
aS'Very clever.  I would like to see the end of the dance...then I could say \nTEE HEE with the best of them.....  Check out my FUNDERCOVER site and you \nwill LOL and maybe even TEE HEE.  \xef\xbb\xbf'
p856
aS"Grammar Nazi for the win. Don't forget about the spammers (Darude-Sandstorm)\n\xef\xbb\xbf"
p857
aS"and for those who comment like ''how is it even possible, the video has 70 \nmillion views when there are only 7 million people on earth'' *sigh\xef\xbb\xbf"
p858
aS'Sooo cute\xef\xbb\xbf'
p859
aS"What about the person who's always advertising there channel on other \npeoples channels\xef\xbb\xbf"
p860
aS'DO THE GANGDAM STYLE AGIAN!\xef\xbb\xbf'
p861
aNaS'OMG everyone says I type like Beyonce but WATEVA\xef\xbb\xbf'
p862
aS'What is wrong with him he needs to eat taco\xef\xbb\xbf'
p863
aS'Can u do gangn style\xf0\x9f\x98\x86\xef\xbb\xbf'
p864
aS'Darude sandstorm\xef\xbb\xbf'
p865
aS'dick\xef\xbb\xbf'
p866
aS'dear ryan, can u do a video of you and friends playing minecraft together \non the server: mineplex.com?\xef\xbb\xbf'
p867
aS'Lmao \xf0\x9f\x98\x82 hot pocket!!!!\xef\xbb\xbf'
p868
aS"Dear Ryan corres Sean's moustache\xef\xbb\xbf"
p869
aS"God,he talks so friggin' fast! Its amazing how he doesn't stutter or have \nbreathing problems\xef\xbb\xbf"
p870
aS'2:16 OH MY GOSH HOW I MET YOUR MOTHER REFRENCE ASDGHJKLHGFD im a mapoti for \ndoing that right?\xef\xbb\xbf'
p871
aS'I say "cool story bro" alot to my annoying sis irl lol\xef\xbb\xbf'
p872
aS'MAPOTI\xef\xbb\xbf'
p873
aS"Ryan's so cute. Lol\xef\xbb\xbf"
p874
aS'Song name?\xef\xbb\xbf'
p875
aS'HAHAHA XD\xef\xbb\xbf'
p876
aS"I'm not one of the MAPOTI. However, I always want to correct people that \nmisspell SO BAD, but I don't want to get the title Grammar Nazi. So I \ndon't, anyway they'll always be a hater and say I was being rude. -.-\xef\xbb\xbf"
p877
aS"Makes the best vids. I've been following you since you were 14!!\xef\xbb\xbf"
p878
aS'Dear. Ryan can you do the the harlem shake\xef\xbb\xbf'
p879
aS'his face when he shouted Naruto tho lol\xef\xbb\xbf'
p880
aS'Dear Ryan, could you please do a cosplay?^^\xef\xbb\xbf'
p881
aS'Not good enough\nGangdamstale\xef\xbb\xbf'
p882
aS'If you like comedy videos check out a channel called micwester \xef\xbb\xbf'
p883
aS'Dear,ryan can you do gaundam style\xef\xbb\xbf'
p884
aS'can i be your friend\xef\xbb\xbf'
p885
aS'"Well I am a guy, so of course I\'m gonna watch some....\n\n\nNARUTO!!!!!!!!!" \n\n\nOMG laughed so hard at that :D\xef\xbb\xbf'
p886
aS'That right\xef\xbb\xbf'
p887
aS'Here are some MAPOTIs:\nDarude Sandstormers\nWomen Whining on Facebook\nSelf-Advertisers\nNazi Bronies\xef\xbb\xbf'
p888
aS'I iz troll,hater and I sayz U MAD BRO\xef\xbb\xbf'
p889
aS'You forgot the trollers and darude sandstorm retards.\xef\xbb\xbf'
p890
aS'3:33 - Am I the only person that "to" was used in the wrong way?\xef\xbb\xbf'
p891
aS'Dear Ryan can you do GANDAM STYLE \xef\xbb\xbf'
p892
aS'I wish Wayne Brady commented on my posts...\xef\xbb\xbf'
p893
aS'Gangam style part. I think I watched that 20 times.. \n\nDear ryan, can you do another second of gangam style?\xef\xbb\xbf'
p894
aS"You forgot the guy who's looks through youtube comments on a science video \nwith a open bible next to them\xef\xbb\xbf"
p895
aS"What's his Instagram name?\xef\xbb\xbf"
p896
aS"@alicethegamergirl you just spelled nazi with double z's...\xef\xbb\xbf"
p897
aS'I called someone a grammar nazi, and people literally said "Tell me one \ntime someone was killed over grammar." Calm the fuck down\xef\xbb\xbf'
p898
aS'Who else said NARUTO when he said it?\xef\xbb\xbf'
p899
aS'NARUTOOOOOOOOOOO!!!!!!\xef\xbb\xbf'
p900
aS"~how can I follow my hard when it's in thousand pieces~... OMG perf insta \nquote\xef\xbb\xbf"
p901
aS'Dear Ryan can you please do gangnam style?\xef\xbb\xbf'
p902
aS' #hashtag #mario #trollssucksobaddontthey  \xef\xbb\xbf'
p903
aS'"NARUTOOOOO!!" Lol!\xef\xbb\xbf'
p904
aS'MAPOTI gave birth to them all!\xef\xbb\xbf'
p905
aS"Hey you ugly I'm just kidding I'm just want action\xef\xbb\xbf"
p906
aS'Dear Ryan, Legend... wait for it ... dary is awesome.\nP/s this video is already 1,5 years old so you may not even notice so wth\xef\xbb\xbf'
p907
aS'HAHAHA LOL HEY, WHERES THE CUTAWAY??? *looks all over room* *looks at \nhimself* OH HEYALL NAW!!!!\xef\xbb\xbf'
p908
aS'hehe. wrong "to". it was meant to be "too". \xef\xbb\xbf'
p909
aS'#hashtag my butt\xef\xbb\xbf'
p910
aS'4:39 watch it again and again\xef\xbb\xbf'
p911
aS'Deal with gangmanstyle xD\xef\xbb\xbf'
p912
aS'dear ryan can you do gangnam style?\xef\xbb\xbf'
p913
aS'dear ryne cool lol\xef\xbb\xbf'
p914
aS'Dear Ryan, can you do Ganguam Style? Lol lmfao lmao k ttyl #Ganguam #Style \n#Ganguamstyle #dear #Ryan #dearryan #inmybed #foreveralone \n#ishouldpostthisonmyspace\xef\xbb\xbf'
p915
aS'Dear ryan- can u do how to be ninja pt. 2\xef\xbb\xbf'
p916
aS'No, im not happy\xef\xbb\xbf'
p917
aS'MAPOTI hahahaha!\xef\xbb\xbf'
p918
aS"I don't openly correct people on the internet, but hell. If you cant \ndifferentiate between your and you're, to and too, lose and loose, who's \nand whose, you shouldn't be speaking english (if it's your first language).\xef\xbb\xbf"
p919
aS"That's true!!!!!!\xef\xbb\xbf"
p920
aS'..\xef\xbb\xbf'
p921
aS'Dear Ryan can you do Gangnam Style?\n\xef\xbb\xbf'
p922
aS'Actually it\'s the "trying too hard guy" not the "trying to hard guy". \nReturn of the grammar nazis.\xef\xbb\xbf'
p923
aS'Naruto!\xe2\x9c\x8c\xc2\xaf\\*(\xe3\x83\x84)*/\xc2\xaf\xef\xbb\xbf'
p924
aS'...\xef\xbb\xbf'
p925
aS'im the one that posts food pics  sorry\xef\xbb\xbf'
p926
aS"What about those who advertise their channel? Anyway when I was like nine \nor ten I posted horrible videos not worth watching. If you watch you'll be \nscarred. It would really help if you subscribed\xef\xbb\xbf"
p927
aS'Dear Ryan can u do full ganum stlye\xef\xbb\xbf'
p928
aS'Daru--NOOO!!!\xef\xbb\xbf'
p929
aS'Dear Ryan,\n\nCan you make an anime starring the most popular Youtube stars?\xef\xbb\xbf'
p930
aS'Dear ryan can you do gangnam style?\xef\xbb\xbf'
p931
aS"How about do The NOT Smart People On the Internet! \n\n1. The Person Who Uses New words He/She doesn't know but put that in \nhis/her comment.\n2. The Trying Too Hard Person he/she tried to impress other people using \ntheir comment\xef\xbb\xbf"
p932
aS'HelloI have been inspired by all the youtubers and i hope you guys would \nwatch my video,Thanks!\xef\xbb\xbf'
p933
aS'Naruto \xe2\x9c\xa8\xe2\x9c\x8c\xef\xb8\x8f\xef\xbb\xbf'
p934
aS'NO TEEHEE\xef\xbb\xbf'
p935
aS' #imnotahashtager   #lol   #STOPTHEABUSE   #why   #ryan   #whyyoudodis   i \nno more fan :(\xef\xbb\xbf'
p936
aS'DO GANDOM STYLE!!! (or however u spell it)\xef\xbb\xbf'
p937
aS'Yeah... I watch late night Naruto too...... NAAARRUUUTTTOOO!\xef\xbb\xbf'
p938
aS"I'm annoying and I find this offensive\xef\xbb\xbf"
p939
aS'Wtf is darudo sandstorm\xef\xbb\xbf'
p940
aS'Hey Ryan, u should the als ice bucket challenge\xef\xbb\xbf'
p941
aS"Also, there is the girls on Facebook who post pictures of themselves and \ntell people to not look at it because they're ugly. If you don't want \npeople to see it then why post it in public? -_-\xef\xbb\xbf"
p942
aS'Just to troll Dear Ryan... Can you do Gangnam Style??? xD\xef\xbb\xbf'
p943
aS"How about those girls that try way too hard to look impressive, like\n''Im such a tomboy lol i only play gamez and i dont like make up :P''\nThose are a whole new level of attention whores.\xef\xbb\xbf"
p944
aS"Darude sandstorm. It's culture. Not annoying. \xef\xbb\xbf"
p945
aS'The worst mopati are the xbox and playstation fanboys buy a pic and just \nconnect a ps3 or xbox controller and Bolla \xef\xbb\xbf'
p946
aS'Was about to post a comment about the spelling of "grammar." He did it for \nme XD\xef\xbb\xbf'
p947
aS"Haters take over comment section. But sometimes it's just funny looking at \nthem.\xef\xbb\xbf"
p948
aS'i have the hater the mapoti person :(\xef\xbb\xbf'
p949
aS'No deserve the teehee\xef\xbb\xbf'
p950
aS'The annoying people who say darude sandstorm. The song is awful so fuck off\xef\xbb\xbf'
p951
aS'Can you do gagnam style??\n\n\nTeehee\xef\xbb\xbf'
p952
aS'Eric West...\xef\xbb\xbf'
p953
aS'mapoti\xef\xbb\xbf'
p954
aS'What about the "it\'s not cartoon it\'s anime you baka "people?anime are \nbasically Japanese cartoons. Yes they include things not entirely fit for \nyounger audiences, but neither do the Simpson\'s or futurama. But no ones \ncalling that anime.so it\'s really annoying seeing otakus getting so riled \nup over it.\xef\xbb\xbf'
p955
aS'Dear Ryan could u get a mustard on ur fans\xef\xbb\xbf'
p956
aS'Dear Ryan can you do gangnam style? *\\(^o^)/*\xef\xbb\xbf'
p957
aS'Im not a MAPOTI\xef\xbb\xbf'
p958
aS'The MAPOTI are the ones who kept sharing fake stories and all\xef\xbb\xbf'
p959
aS'Dear ryan can you do gangnam style?\xef\xbb\xbf'
p960
aS'Dear Ryan,\nCan you do a Gangnam Style?\xef\xbb\xbf'
p961
aS'D trix?\xef\xbb\xbf'
p962
aS'Dear Ryan can u do the Harlem Shake!\xef\xbb\xbf'
p963
aS"It's actually the trying TOO hard guy...\xef\xbb\xbf"
p964
aS'NARUTOOOO\xef\xbb\xbf'
p965
aS'Darude sandstorm\n\xef\xbb\xbf'
p966
aS'He looks like Vanoss but thinner. Like if you think so too.\xef\xbb\xbf'
p967
aS'Dear Ryan, can you do bullet time?\xef\xbb\xbf'
p968
aS'the Grammar Nazi....yup they\'re everywhere\n\n(trying to avoid them >.>" )\xef\xbb\xbf'
p969
aS'great job , funny as hell, \xef\xbb\xbf'
p970
aS'Sorry my tablet sucks\xef\xbb\xbf'
p971
aS'#nigahiga #youtube #video #youtuber #internet #hashtag #annoying #mapoti \n#teehee #watchingvideo #lol #goodvideo #waytoomuchhashtags #people #ryan \xef\xbb\xbf'
p972
aS'Dear Ryan, will you do gangnam style?\xef\xbb\xbf'
p973
aS'Ryan, can you do Gangnam Style? .3.\xef\xbb\xbf'
p974
aS"I'm the overused saying one \xef\xbb\xbf"
p975
aS'Make a second one and make one the "mapoti" the darude sandstorm people\xef\xbb\xbf'
p976
aS"I said maloti with a cracker in my mouth I know you'll hate this but it \nsounded like maphjjihg\xef\xbb\xbf"
p977
aS'no we r not happy\xef\xbb\xbf'
p978
aS'too hard and not to hard\xef\xbb\xbf'
p979
aS'who is your girlfriend ryan\xef\xbb\xbf'
p980
aS'o_0\xef\xbb\xbf'
p981
aS'MAPOTI!\xef\xbb\xbf'
p982
aS'4:01. You know Wayne Brady? He was as funny as hell on "Whose Line".\xef\xbb\xbf'
p983
aS'No, The MAPOTI is the people that say Darude - Sandstorm EVERY SINGLE TIME \nyou ask for an intro or outro song.\xef\xbb\xbf'
p984
aS'At 0:19 that sums up me as well lol\nNarrutooo!!!!!\xef\xbb\xbf'
p985
aNaS'Got to Admit it Im Do kinda hater comentsin Attention Whores._.\xef\xbb\xbf'
p986
aS'heres another +Coralthe WaterDragonSlayer \xef\xbb\xbf'
p987
aS'Girls who think owning a Wii makes them a hardcore gamer... \xef\xbb\xbf'
p988
aS'He hates it because your asking an Asian to o Gangnam Style and he thinks \nit racist\xef\xbb\xbf'
p989
aS"Darude sandstorm isn't annoying\xef\xbb\xbf"
p990
aS'what does he keep saying in the naruto jokes\xef\xbb\xbf'
p991
aS'Teehee\xef\xbb\xbf'
p992
aS'Hot pockets make me happy xD\xef\xbb\xbf'
p993
aS'Darude-Sandstorm\xef\xbb\xbf'
p994
aS'3:33 *too\xef\xbb\xbf'
p995
aS'I burnt my toung on a hot pocket :(\xef\xbb\xbf'
p996
aS'Mapoti Ryan! Jkjkjk\xef\xbb\xbf'
p997
aS'Dear Ryan can you do ganamstyle\xef\xbb\xbf'
p998
aS'i litteraly said naruto when ryan did 0-0 :D narutooooooooooooo\xef\xbb\xbf'
p999
aS'haha so .true\xef\xbb\xbf'
p1000
aS'XD hot pockets make me happy.\xef\xbb\xbf'
p1001
aS'I dear you to put lemon all over you face\xef\xbb\xbf'
p1002
aS"actually some people on instagram use hashtags use other #-s that aren't \nrelated to a photo like #food  on a selfie of a person\xef\xbb\xbf"
p1003
aS'Dear Ryan,can you do gangnam style muhaaaa\xef\xbb\xbf'
p1004
aS'u forgot hackers and         anoyying little kids with a microphone on a \ngame\xef\xbb\xbf'
p1005
aS'i know mapoti and its the selfie taker maybe?\xef\xbb\xbf'
p1006
aS'FIRST!!!!!!!!!!!!!!!!!!!!!!!! LOL LMAO STFU!!!!!!!!\xef\xbb\xbf'
p1007
aS'ZOE DUNNE STOP WITH THE FRICKING FOOD YOU @~#!\xef\xbb\xbf'
p1008
aNaS'Dear Ryan can you do gangdom style plz because that other one sucked\xef\xbb\xbf'
p1009
aS'#MAPOTIA\xef\xbb\xbf'
p1010
aS'deer rien, cen u du gengname stile??? thencs!!!!!!!!!!1\xef\xbb\xbf'
p1011
aS'Wow I love how all of you are just pretending to be grammar nazis to be an \nattention whore XD\xef\xbb\xbf'
p1012
aS'This is one of my favorite videos of all time!! Thanks Ryan for making me \nlaugh pretty much everyday since I see mapotis pretty much every hour of \nthe day..... (god damn all you mapotis..... She says while waving her fist \nin the air...) :)\xef\xbb\xbf'
p1013
aS'LOL IKR LMAOOOOO LMFAOOOO :) :D ^_^ \xef\xbb\xbf'
p1014
aS'Dear Ryan can you do the whole gangnum style vid?\xef\xbb\xbf'
p1015
aS'Ypure so Mapoti\xef\xbb\xbf'
p1016
aS'hero keyboard, haha\xef\xbb\xbf'
p1017
aS'the memer that person that only post memes\xef\xbb\xbf'
p1018
aS'you dont need that thing just use stfu\xef\xbb\xbf'
p1019
aS'What about the "it\'s not cartoon it\'s anime you baka "people?anime are \nbasically Japanese cartoons. Yes they include things not entirely fit for \nyounger audiences, but neither do the Simpson\'s or futurama. But no ones \ncalling that anime.so it\'s really annoying seeing otakus getting so riled \nup over it.\xef\xbb\xbf'
p1020
aS'MAPOTI is spelled like MAPOTIE\xef\xbb\xbf'
p1021
aS'try 4:43 lol omg i use to many acranims\xef\xbb\xbf'
p1022
aS'You forgot The "People Who Always Talk about Something in someone\'s comment \nsection but doesn\'t talk about what they\'re talking about\'\xef\xbb\xbf'
p1023
aS'great job , funny as hell, \xef\xbb\xbf'
p1024
aS'Dear Ryan, can you do psy\'s hangover? =.^\nactually, i didn\'t love it or gagnam style,i mean what\'s the cool in psy \nwhile saying:"oppa GagmanStyle" anyway.........:D\nMAPOTI :D \xef\xbb\xbf'
p1025
aS'MAPOTI THESE VID again! ahahah! throwing back OLD-AWESOME-FUNNY Videos! of \nRyan Higa!\xef\xbb\xbf'
p1026
aS'Dear Ryan can you do a second Gangman style dance \xef\xbb\xbf'
p1027
aS'Dear Ryan,\n\n\n\n\n\n\n\n\n\n\n\n\n................... \nPlz do gangnam style\n\n\nTeehee\xef\xbb\xbf'
p1028
aS'Gangnam styles part is way better than the whole original video\xef\xbb\xbf'
p1029
aS'Do gang am style\xef\xbb\xbf'
p1030
aS'Dear Ryan,can u do gangnam style :-D \xef\xbb\xbf'
p1031
aS':p\xef\xbb\xbf'
p1032
aS'LOL NARUUTOOOOOO!\xef\xbb\xbf'
p1033
aS'ryan, by posting this video,  you have made every one a mapoti \n#lol  #ryanhiga #youtube #mapoti  #hastag #internet #funny#youtubeinternetfunny \n#whatever\xef\xbb\xbf'
p1034
aS'Well said :)\xef\xbb\xbf'
p1035
aS'+like\n\xef\xbb\xbf'
p1036
aS'Lol so funny\xef\xbb\xbf'
p1037
aS'dear ryan can you do a horror movie\xef\xbb\xbf'
p1038
aS'Dear Ryan, can you explain the meaning of life using Siri?\xef\xbb\xbf'
p1039
aS'Dear Ryan, can you do more Gangnam Style?\xef\xbb\xbf'
p1040
aS'MAPOTI\xef\xbb\xbf'
p1041
aS'#hotpockets\xef\xbb\xbf'
p1042
aS'I always stay up watching Naruto \xef\xbb\xbf'
p1043
aS'Dear Ryan, can you do gangnw m style?\xef\xbb\xbf'
p1044
aS"Ya I'm a Lol guy ;)\xef\xbb\xbf"
p1045
aS'Dear  Ryan can you bring back gangnam style? TEEHEE ^-^\xef\xbb\xbf'
p1046
aS' #mapoti  XD XD This vid is awesome\xef\xbb\xbf'
p1047
aS'MAPOTI\xef\xbb\xbf'
p1048
aS'OMG! that gangnam style ending!! <3333 too bad it wasnt just a little bit \nlonger xD\xef\xbb\xbf'
p1049
aS'Spot on\xef\xbb\xbf'
p1050
aS'Hey rian can you do the ganman style? #lol  \xef\xbb\xbf'
p1051
aS"3:32. Were you doing bad grammar on purpose? Or was it a mistake in \nediting? I'm sorry if I seem like a grammar nazi, but I really just want to \nknow.\xef\xbb\xbf"
p1052
aS'as soon as he said the grammer nazi i said to myself its spelled grammar\xef\xbb\xbf'
p1053
aS'Hey its 7 minutes til 2014...\xef\xbb\xbf'
p1054
aS'magoti\xef\xbb\xbf'
p1055
aS'Seriously! True!! :D\xef\xbb\xbf'
p1056
aS'dear Rion, can you do gandumstyel... p.s. TEEHEE\xef\xbb\xbf'
p1057
aS'mapoti'
p1058
aS"Dear Ryan aren't you going to shoot yourself if someone say gang dam style \nagain"
p1059
aS'Dear Ryan, Can you play rock, paper, scissors in front of mirror and win \nit? '
p1060
aS'Dear Ryan, can you be a Mapoti'
p1061
aS'DEAR RYAN , your e awesome !'
p1062
aS'Dear Ryan, can you do gangam style? '
p1063
aS"Dear Ryan, somehow i've only just come across your vids and i have to say \nyou're a legend.. that is all."
p1064
aS'STFU - STOP TICKLING FLUFFY UNICORNS :c'
p1065
aS'NARUTOOOOOO!'
p1066
aS"Aww, Ryan is actually cute when he's angry.. :)"
p1067
aS'wow.. you expect me to forgive you? its people like you that make me want \nto hate the world.'
p1068
aS'Dear Ryan, can u play with barbies?'
p1069
aS'Dude fuck smosh and pewdie pie'
p1070
aS'(M)ost (A)nnoying (P)eople (O)n (T)he (I)nternet MAPOTI'
p1071
aS'Mapoti huh....'
p1072
aS'Dear Ryan, can you do Gangnam Style? ;)'
p1073
aS'Do a video on parkour'
p1074
aS'I love that Naruto Opening.'
p1075
aS'Dear ryan, can you pass A.P. calculus?'
p1076
aS'MAPOTI'
p1077
aS"I'm a grammar nazi and I'm not annoying... Much."
p1078
aS'dear ryan can u gangnam style ,lol '
p1079
aS'dear ryan can u wrestle yourself in a mirror and win?'
p1080
aS'Dear Ryan, Can you do Gentleman'
p1081
aS'Every girl on the internet = MAPOTI '
p1082
aS'I guess your annoyed with this comment'
p1083
aS'Map lit'
p1084
aS'i laughed so much'
p1085
aS'Funny, Both top comments are Anime pics.'
p1086
aS'I hate the hater, even a weak youtuber like me has haters already'
p1087
aS'*Like *to *3:33. You don\'t correct something if you put it in speech marks. \nHow it should have been: Like if you noticed that, "trying to hard" used \nthe incorrect homophone (3:33). '
p1088
aS'YouTube pays him so much he can afford a van gough in his how,'
p1089
aS'rappers are not like that >.< we are caguai (?'
p1090
aS'such funny is'
p1091
aS"0:37 I COULDN'T STOP LAUGHING LIKE A RYAN... JUST REALISED MY CAPS LOCK IS \nON"
p1092
aS'mapoti '
p1093
aS'Dear Ryan, can you do Gangnam Style?'
p1094
aS'N\xc3\xb2oooooo\xc5\x93\xc3\xb4\xc3\xb8\xc3\xb6\xc3\xb2\xc3\xb5\xc3\xb2oooooooooooo'
p1095
aS'Totally agree!!'
p1096
aS'Just ate a hot pocket!'
p1097
aS'Dear Ryan Can You Finish The Whole Gangnam Style Dance ?'
p1098
aS'dear ryan, CAN YOU PLEASE IMITATE WRECKING BALL PLZZZZ!!!!!'
p1099
aS'I still use myspace...'
p1100
aS'Narutoooooo8!:)'
p1101
aS'NARUTO!!!!!!!!! '
p1102
aS'Yeah... I watch a lot of "Naruto" too......'
p1103
aS'I have a friend that does the first thing'
p1104
aS'Dear ryan can you do gangnamstyle'
p1105
aS'there is nothing wrong written !! '
p1106
aS'dear ryan can you twerk'
p1107
aS'do you have a member of your family named Aiden? :)'
p1108
aS'Naruto at Night !!! ahaha xD nigahiga the best '
p1109
aS'Dear Ryan lol'
p1110
aS'Wayne Brady?'
p1111
aS'Dear Ryan, can you do What The Fox Says?'
p1112
aS"I can't lie...I say lol a lot."
p1113
aS'mapoti'
p1114
aS'Maloti!!!'
p1115
aS'dear ryan can you do gangnam style'
p1116
aS'hi '
p1117
aS'Haha Narito'
p1118
aS'Dear Ryan do a what dose the fox say vidio'
p1119
aS'You guys are mapotis'
p1120
aS'Dear Ryan can you do gangnum style'
p1121
aS"... I don't want to talk about it"
p1122
aS'3:17 lol'
p1123
aS'Dear ryan, could you try to drink spaghetti? It could work ... Or result in \na trip to the hospital. '
p1124
aS'2:04 YOU ONLY CARE BOUT PUPPIES?!WHAT ABOU KITTENS, HAMSTERS,GERBILS, \nGUINEA PIGS, AND ALL OTHER ADORABLE FUZZY CREATURES?!'
p1125
aS'TWERKING PLEASEEEEEEEEEEEEEE'
p1126
aS'Can you do it again lol omg wtf'
p1127
aS'just eat a hot pucket ^^'
p1128
aS'Ryan, can you do gagnamstlye'
p1129
aS"I'M A MAPOTI?!?!?!? TT^TT "
p1130
aS"Am I the only one who noticed that in all the 'Dear Ryan Gangnam Style' \ncomments, there was one 'harlem shake' one?"
p1131
aS'Your awesome bro'
p1132
aS"I hate myself. I actually caught and corrected 'grammer' as 'grammar' \nbefore they made the joke."
p1133
aS"I'm the hashtagger! Haha"
p1134
aS'what do you want a cookie'
p1135
aS'Lol naroto!!!'
p1136
aS'U suck balls butt'
p1137
aS'Lol the end'
p1138
aS'#funny #Brilliant lmao'
p1139
aS'Dear ryan can you do gentleman'
p1140
aS'theres always a person'
p1141
aS'fantastic'
p1142
aS'dear ryan, i just want to annoy you :D '
p1143
aS'XD'
p1144
aS'Dear Ryan do a full separate video of you doing gangnam style it needs to \nbe more than 3 minutes long'
p1145
aS'Dear Ryan: OMG like <3 this vid TOTS cool ;D <3 <3'
p1146
aS'Dear Ryan really?'
p1147
aS'Deer Ryan, can you do a chuck Norris sucks video'
p1148
aS'So if anyone who says, "That\'s what she said" is a MAPOTI, then Ryan\'s a \nMAPOTI...'
p1149
aS'Gangnam style ?'
p1150
aS'the way you spelled "grammar" makes me wish my cancer was terminal'
p1151
aS'dear ryan, can you do a miley cyrus imitation lmao'
p1152
aS'Dear Ryan, can you do The Matrix trailer? :)'
p1153
aS"lol, I also think it's annoying when some people on the internet, like show \nlike a art-work that looks very cool on like instagram or twitter, and put \ndown: My Art-Work is sooo ugly! cause they just want comments saying: It's \nnot ugly! it's great! When someone says something doesn't look good just \nfor the attention, you a should just say: You know what? it does look ugly"
p1154
aS"i've never seen ryan so unhappy at the end before :( no tee hee either :("
p1155
aS'#fuck#mum#bullshit#lol#yolo#swag'
p1156
aS'All joking aside could you plz do guan style'
p1157
aS'Dear righan can u do the dugy'
p1158
aS'hot pocket lolzz'
p1159
aS'Dear Ryan, can you do gangnam style? :)'
p1160
aS"You learn English. 1) First letter of a sentence is always capitalised. 2) \nFirst letter of each word in a name is capitalised. 3) Broh isn't a word. \n4) A full stop goes at the end of each sentence."
p1161
aS'JUST ATE A HOT POCKET lolzaaaaaah xD HIs voice \nhahahahahahahahahahahahahahahahahahahahahahahahahahahahahahahahhaahhaahhahahahahahahahahahahahahahaahhahahahahahahahahh'
p1162
aS'Hawaiian'
p1163
aS'"OH HELL NO!" XDD '
p1164
aS'Luv the mustache!'
p1165
aS'It\'s not a problem if you say "lol" in normal conversation sometimes, right \nguys? Right?'
p1166
aS'Dear Ryan can you bake a cake?'
p1167
aS'Yolo right?'
p1168
aS'Idk why people are still writing dear Ryan... when this video is old'
p1169
aS'Dear Ryan Can you do ganamstyle?'
p1170
aS'XD i was joking'
p1171
aS'dear Ryan, can you do gangnam style? LOL... srry'
p1172
aS'3:25 = Sleepy Hollow?'
p1173
aS'Dear Ryan on Halloween can you dress up as batman and go around to people \nsaying WERES RACHEL in a batman voice'
p1174
aS'Dear Ryan are u an artist'
p1175
aS'Do gangnam style'
p1176
aS'Dear ryan can you be skrillex'
p1177
aS'dear ryan, can you do the gangman style?'
p1178
aS'Dear Ryan, can you do gentleman'
p1179
aS'Mapoti'
p1180
aS'NARUTO!!!!!!!!!!!!!!!!!!!!!!!!! haha'
p1181
aS'#hashtagsarelame'
p1182
aS'Dear Ryan, can you do Gentleman?'
p1183
aS'Dear Ryan, can you do the salt and ice challenge?'
p1184
aS'Dear Ryan TRERK THE FUCK OUT OF A COCK!'
p1185
aS'M A P O T I'
p1186
aS'This vid is the worst cause im a grammar nazi'
p1187
aS'You forgot advertisers on youtube :P'
p1188
aS'Dear Ryan can you do gangam style'
p1189
aS'This is freaking true!'
p1190
aS'#MAPOTI'
p1191
aS'Dear, Ryan.. Is it possible to sing a Ophra song in reverse?? o.o'
p1192
aS"Where's the cut away......"
p1193
aS'your the best man tell the truth and nothing but the truth....AGREE.. '
p1194
aS'Dear Ryan can you do a video of you twerking lol'
p1195
aS'OH HELL NOOO'
p1196
aS'I am a Grammar nazi!!! :D.'
p1197
aS'dear ryan, can u do gangnam style x 300'
p1198
aS'Mapoti'
p1199
aS'Dear Ryan can you get YouTube to stop saying Dear Ryan? Gasp- I just said \nit too.'
p1200
aS'Dear Ryan,can you do gangnam style'
p1201
aS'Dear Ryan Gangerstle'
p1202
aS'"You happy? Now, please stop." XD'
p1203
aS'do u even lift bro? u mad bro? grammar is spelled with an a btw Ryan can u \ngangnam style?'
p1204
aS'MAPOTI ^^ LOL *_* ^_^ WTF OMG!'
p1205
aS'colon end parentheses colon d carot underscore carot less than three '
p1206
aS'Dear Ryan can u do hangman style'
p1207
aS'Dear ryan twerk'
p1208
aS'ftehee'
p1209
aS'Dear yam can you do a perody of super bass'
p1210
aS'Dear Ryan, act out your favorite anime scene ever'
p1211
aS'BEST 10 SECOND ENDING EVER!!!!'
p1212
aS'this video made my day :) haha'
p1213
aS'MAPOTI'
p1214
aS'Dear ryan can u do gangnam style #gangnam #style #dance #TEEHEE'
p1215
aS'My space hahahhaha....'
p1216
aS"I hate people who get mad over nothing. Like you say something that's not \neven mean and they just get pissed.. Well i hate people who rage i mean."
p1217
aS'Dear Ryan can you do the cinnamon challenge or get a girlfrie'
p1218
aS'Lol :3'
p1219
aS'Naruto!!!!!! '
p1220
aS'# i.....oh fuck sorry ryan its a diesie'
p1221
aS'isnt it pronounced nar-a-to?'
p1222
aS'me to not'
p1223
aS'MAPOTI!'
p1224
aS'DEAR RYAN CAN YOU DO GENTLEMEN!!!!!!!!'
p1225
aS'Dear Ryan,Please make a full Gangnam style video'
p1226
aS'Just ate a Hot Pocket. XD '
p1227
aS'Can you do gang man style'
p1228
aS'Dear Ryan can u do gentleman'
p1229
aS'MAPOTI'
p1230
aS'Its not Na-ru-to.. Its Nar-ru-to Lol'
p1231
aS'Dear Ryan can you do gangam style'
p1232
aS'Dear Ryan can you do Gentleman'
p1233
aS"Just ate a hot pocket lol i can't breath..."
p1234
aS'just ate a hot pocket hahahahaahah omfg! XD '
p1235
aS'O-O'
p1236
aS"Dear Ryan, can you talk about the stupid things people do when they're in \nlove? "
p1237
aS'What- I- Ok what ever..'
p1238
aS'Dear ryan, can you do gundam styre?'
p1239
aS'i\'m totally agree with you about "MAPOTI" ! '
p1240
aS'4:25 looooool i love ryan'
p1241
aS'If they were to do it any longer then they would have got done for \ncopyright.'
p1242
aS'Thanks?'
p1243
aS'I will never stop do full gangam stile'
p1244
aS'Hot pockets make me happy lol I did a spit tick '
p1245
aS'MAPOTI'
p1246
aS'thank you ryan for this quote it helped me alot " if you always say no . \nyoul\'ll never say yes "'
p1247
aS'Instead of Naruto he was going to say porn but messed up'
p1248
aS'? *'
p1249
aS'You are AWESOME!!!'
p1250
aS'Dear Ryan can u do the full GANGNAM style plzz :3 lol'
p1251
aS'Dear ryan hi'
p1252
aS'Dear Ryan, please do the gangnam style'
p1253
aS'Hey Ryan, can you tell me the story of your highschool life?or just tell me \na bedtime story'
p1254
aS'Dear Ryan, can you do a FULL version of Gangnam stye?'
p1255
aS"I haate people who are like OMG! I'm only 10 and ive been on that and i \nwasnt scared even lol (on a video of a roller coaster)"
p1256
aS'i thought grammar was spelled with an "E"'
p1257
aS'You speak sooo fast and it\xc2\xb4s kinda hard to understand what you\xc2\xb4re saying \nwhen english isn\xc2\xb4t my first language lol'
p1258
aS'dear ryan can you be 2 chains'
p1259
aS'MAPOTI'
p1260
aS"Give me my space... LOL YOLO ALSO DO YOU EVEN LIFT BRO NO STFU (STOP \nTICKLING FURRY UNICORNS) SHUT UP AIN'T NO BODY GOT TIME FOR DAT OMG GTFO \nALSO DEAR RYAN CAN I BE ONE OF THE MAPOTI'S CUZ I AM A SWAGGER MAYNE! "
p1261
aS'NARUTO <3'
p1262
aS"Stop it with the hashtags. It's childish."
p1263
aS'Dear ryan can u be a mermaid'
p1264
aS'mapoti'
p1265
aS'MAPOTI'
p1266
aS'The haters are what I always have to deal with...'
p1267
aS'my sister is a hashtager! '
p1268
aS'what about the spammers '
p1269
aS"Japan's awesome"
p1270
aS'Mapoti!'
p1271
aS'Dear Ryan, can you do the Baby Food challenge?'
p1272
aS'Friend'
p1273
aS'Excuse me that was just a joke u jerk'
p1274
aS"wow that's alot of creatures"
p1275
aS'War does the fox say??'
p1276
aS'Dear Ryan, Can you do the Harlem Shake?'
p1277
aS'Do more vids on naruto!'
p1278
aS'Hi ryan'
p1279
aS'Dear Ryan, can you be Miley Cyrus?'
p1280
aS'NARUTOOOOOO'
p1281
aS'Seems like he hates the gangnam style favor but he did it anyways for his \nfans. Cute!'
p1282
aS'Didear ryan do dragon ball z'
p1283
aS'Dear Ryan- can you parkour'
p1284
aS'Dear Ryan, do parody of Chinese Food.'
p1285
aS'Can you do GANGNAMSTYLE? :D :D :D :D #MAPOTI #LOL #FUNNY :D'
p1286
aS'dear Ryan can you play cat mario?'
p1287
aS'Dear Ryan can you finish the gangam style dance'
p1288
aS'Omg maloti'
p1289
aS'Lol u rock!!!!!'
p1290
aS'I watch naruto at night to'
p1291
aS'Mapoti Motha Fuckaa'
p1292
aS'no, not happy'
p1293
aS'He already did it 4:40'
p1294
aS'Dear rianvukfyyfcukycyrdukgcyfxjkgc5rsg just ask 8743 618 4221 a 7 87 44 \n444 4444 lalalalala lalalalala hello oh good lord knows hello hello'
p1295
aS'Wait....where\'s the cutaway? Oh HELL NAW! lol ^_^ I died!! Lol now that I \nthunk about it I\'ve always wondered.... Why do people write "lolz" what \ndoes that even stand for????? Laugh Out Loud Zebras????'
p1296
aS'Dear Ryan, Can you be miley cyrus?'
p1297
aS'U forgot a new one bronies, Pooonnoiieeeessss!! :P Brohoof to any bronies \nout there'
p1298
aS'trolllol'
p1299
aS'Just ate a hot pocket ... Funniest Part :D :D :D '
p1300
aS'that quote-_-'
p1301
aS'now i feel bad about the way he talked in the end:-('
p1302
aS'Can you do the fox'
p1303
aS"Fok.. I'm like three of those."
p1304
aS'Dude he said stop. '
p1305
aS'NARUTOOOOOOOOOOOOOOOOOOOOO!!!!!!!!! .'
p1306
aS'What about talking fruit?'
p1307
aS'You mean D-Trix?'
p1308
aS'I have the same plate like what Ryan has'
p1309
aS'Dear Ryan, can you make a trailer for Slenderman?'
p1310
aS'" If always say no, You\'ll never say yes. " - Ryan Higa Best quotes ever. \nLOL LMAO ROFL HAHAHAHA'
p1311
aS'Awesome'
p1312
aS'0:19 : Kawaiiii'
p1313
aS'I told you yo kill Justin Bieber before he laid eggs'
p1314
aS'me too '
p1315
aS'Dear Ryan can you do gangnam style?'
p1316
aS'Can you please twerk for Miley'
p1317
aS'LMAO'
p1318
aS'Deer Ryan'
p1319
aS'Dear Ryan Can U Do Gaynum Stile'
p1320
aS'instagram ALLL day'
p1321
aS'dear ryan'
p1322
aS'I laughed at the first part of the "hater"/"troll" segment. Shit was lulzy. \nHowever, the other two parts of that were unfunny and clearly a subjective \ninsight into trolling.'
p1323
aS'LOL! just hate ate a pot pocket '
p1324
aS'BAD GRAMMAR!! ITS " NOT ENOUGH! WE WANT FULL GANGNAM STYLE!" Lol'
p1325
aS'mapoti means white in filipino'
p1326
aS'Wow!, Laugh Out Loud!'
p1327
aS'Dear Ryan , can u do gangnam style'
p1328
aS'You should be #1'
p1329
aS'not now MAPOTI!'
p1330
aS'my friend is the the grammer natzi'
p1331
aS'Omg the hot pocket part hahhaha'
p1332
aS'FUUUUUUUUUUUUUUUUUUUUUUUUUUCK SLOW INTERNET.'
p1333
aS'Dear Ryan kill everyone except u'
p1334
aS'MAPOTI'
p1335
aS'#MAPOTI '
p1336
aS'dear ryan can you teach me how to make a youtube video?!?! '
p1337
aS'Dear Ryan'
p1338
aS'NARUTO!!!!!**'
p1339
aS'I WANT TO LICK YOUR FACE <3'
p1340
aS'Dear Ryan, Can you do Gagnam Style FULL'
p1341
aS'Hot pockets make me happy'
p1342
aS'Dear Ryan, can you do Gangnam Style?'
p1343
aS'lol #No filter'
p1344
aS'Epic'
p1345
aS'im one of those overly deep people'
p1346
aS'Dear Ryan can you be DEER Ryan?!'
p1347
aS'No.... Make a longer video.....'
p1348
aS'dear ryan, CAN YOU DO GANGMAN STYLE?'
p1349
aS'that means some years you dont have a birthday if youre born then'
p1350
aS'learn english broh, 1 full stop only '
p1351
aS'Hot pockets make me happy LMFAO'
p1352
aS"well i'm a guy so I watch you know....... naruto NARUTO :DDDDDDDDDDD"
p1353
aS"Miguel rameierez ur racist he's Hawaiian"
p1354
aS'Approximately 65% of the internets users fall under the mapoti category'
p1355
aS'MAPOTI! finally a word that explain everything to these stupid people'
p1356
aS'Mapoti, It\'s funny cause it sounds slightly like the filipino word for \n"White" '
p1357
aS'LOL just had a hotpoket'
p1358
aS'"Hot pockets make me happy."'
p1359
aS'TheSkyPiggy M.A.P.O.T.I!!'
p1360
aS'Dear Ryan'
p1361
aS'dear ryan can you please do the gangamstyle '
p1362
aS'DEAR RYAN CAN YOU DO GANGDAM STYLE? '
p1363
aS"You're"
p1364
aS'Dear Ryan Can u do gydamstyle'
p1365
aS'NARUTO!!!!!!!!!!!!!!!'
p1366
aS'Dear Ryan, Can you do FULL GANGNAM STYLE '
p1367
aS'My dick is big'
p1368
aS'butt weight (but wait)'
p1369
aS"I'm going to show this to my sister... And mother.. probably my Aunt too"
p1370
aS'my brother is wacthing nauroto '
p1371
aS"Dear Ryan, Can you sing 'What does the fox say'?"
p1372
aS'Look at the pool table 2:23'
p1373
aS'U r funny as fuck XD'
p1374
aS'Dear Ryan can you do gangnam style'
p1375
aS'Shut UUUUUUUUUUUUUUUUUUUUUUUP!!!'
p1376
aS'Love your work nigahiga teehee'
p1377
aS"He's a MAPOTI"
p1378
aS'Narutooo XD'
p1379
aS'Dear Ryan, can u do ganman style :P'
p1380
aS'MAPOTI'
p1381
aS'Can you play every sport'
p1382
aS'Dear Ryan can u tea bag somebody'
p1383
aS'Dear Ryan, you forgot people who quote famous wimple with not real quotes.'
p1384
aS'Dear Ryan can u do skydiving'
p1385
aS'Vanoss'
p1386
aS'watch some...well you know, NARUTO!!!!!!!! '
p1387
aS'dear ryan do gentleman'
p1388
aS'dear ryan can you do gangnam style'
p1389
aS'Naroto!!!!!!!!'
p1390
aS'You forgot the self-advirtiser. " Hi, I\'m a starting out you tuber and I \nthink you should go go check out my chanel..." MAPOTI!'
p1391
aS'So true'
p1392
aS'Dear ryan, can you do LosAngeles style?'
p1393
aS'Do a video with Twitter Facebook Instagram and MySpace argument video'
p1394
aS'Dear Ryan, can you do Gangnam Style?'
p1395
aS"HHMTPF. lolololol.. i'm the overly used acronyms girl. ITOUAG! dear Ryan \nare you on google+"
p1396
aS'dear rayan can you be ironman'
p1397
aS'MAPOTI'
p1398
aS'mapoti'
p1399
aS'M.A.P.O.T.I'
p1400
aS'Dear Ryan can you do gagnam style'
p1401
aS'Stop Posting Comments About Dear Ryan Can You Do Gangnam Style'
p1402
aS'Dear Ryan, can u have a spa day with Regina?'
p1403
aS'Welcome to the internet'
p1404
aS"remember guys, if you always say no, you'll never say yes."
p1405
aS"that's so deep. "
p1406
aS"Personally, I don't think grammar Nazi's are that bad. I'm a bit of one \nmyself, though I'm not that bad. Usually when I see a bad comment I just \nstare at it thinking, 'You're joking right? You're probably older than me \nand you still don't know words people should learn in kindergarten?' It \nannoys me to look at them but I don't comment on it. I'm not that rude."
p1407
aS'Dear ryan can u do gangnam style?'
p1408
aS'The only thing rhat can describe this video.....MAPOTI'
p1409
aS'Mapoti = White'
p1410
aS"I'm a MAPOTI too, but i don't know in which category i belong... I also \nlove NARUTO!!! ^_^"
p1411
aS'Blazhsian, black & aisian'
p1412
aS'Dear Ryan : can you eat a ghost pepper'
p1413
aS'I have friend who is a grammar nazi but he sucks at grammar so much or even \npronouncing words like I\'ll say what the hell and he say\'s "actually it\'s \npronounced hale" or something like that '
p1414
aS'Mapoti. '
p1415
aS'MAPOTI'
p1416
aS'#MAPOTI'
p1417
aS'nice vid'
p1418
aS'urbandictionary. com /define. php?term=MAPOTI'
p1419
aS'if someone spells gangnam style wrong one more time i wil come to your \nhouse in the middle of the night and break your fucking computers shut up'
p1420
aS'Yep. That is just the randomness of this video for ya'
p1421
aS'MAPOT!!!!!!!!!!!!!!!'
p1422
aS"So many ppl ask him to do Gangnam Style! No wonder he got annoyed! Almost \non every vid there's a comment, Dear Ryan, can u do Gangnam Style? Give him \na break XD"
p1423
aS'Maloti'
p1424
aS'dear ryan can you be gangster '
p1425
aS"Ohhhh~ *O*.....isn't what what links are for? I guess hashtags take up less \nspace."
p1426
aS'Hey...hey Ryan. Ca-can you make a parody of Gangnam Style? (Teehee)'
p1427
aS"Links take you pages like this one. Hash tags take you to a page with all \nthe other posts that have the same hash tag. If you wanted to link to that \npage you'd have to find it first, and what if I do a hash tag that isn't \ncommon or maybe never done before. Like #MAPOTI Never mind it's being use \nas of this video. urbandictionary. com /define. php?term=MAPOTI"
p1428
aS'#bestparody'
p1429
aS'I was gonna ask if you could do gangnam style, but then you did it. So now \ni wrote this comment instead.'
p1430
aS'NO! That was too short! :I'
p1431
aS'Does it come with free shipping and nobody gives a shit?'
p1432
aS"Actually when I'm in school I have this Mini Grammar Nazi living inside my \nhead... Like in Language Arts when we have nothing else to do our teacher \ngives us sentences to fix with Uppercase and lowercase letters and \npunctuation marks. I can't do those sentences anymore because I flipped my \ndesk and walked out of the classroom. >.<"
p1433
aS'#awkward'
p1434
aS'NARUTOOOOOOOOOOOOOO!!!!!!'
p1435
aS'GANGNAM STYLE'
p1436
aS"Dear Ryan, what's your favourite food?"
p1437
aS'Dear Ryan can you make my little pony in real life? Plz!!!!!!!! :3'
p1438
aS'Dear ryan can you fully do gangnam style'
p1439
aS'Dear Ryan be Pluto'
p1440
aS'Dear Ryan can you do What Does The Fox Say?'
p1441
aS'Just ate a hot pocket'
p1442
aS'did u realise that the account posted all that named notryanhiga = Not Ryan \nHiga XDD'
p1443
aS'Dear ryan kill your house'
p1444
aS'Dear Ryan, Im Bryan'
p1445
aS'D-tirix 2:31 epic I love bolth of you guys'
p1446
aS'Dear Ryan Can you do Gentlemen '
p1447
aS'[iminent=A5ZWOcgUWfOB] '
p1448
aS'MAPOTI '
p1449
aS'Dear Ryan can u do gangnam style'
p1450
aS'MAFATI'
p1451
aS"So basically we're all annoying people on the internet lol"
p1452
aS'Ryan that is so true.'
p1453
aS'0:18 Like if you thought he was going to say my little pony'
p1454
aS'#MAPOTI'
p1455
aS"And late at night, well I'm a guy so in gonna watch some.pppp.naruto! Laugh \nso hard I almost cryed"
p1456
aS'what does mapoti mean if it didnt mean most annoying people on the internet'
p1457
aS'I thought he was bouta say Porn. At the first part'
p1458
aS'dear ryan can you be a girl'
p1459
aS'Dear Ryan'
p1460
aS'Stop SAYING DEAR RYAN'
p1461
aS'Ryan your fucking awesome but play cod haha just kidding'
p1462
aS'Hahaha lol lmfao and lmao'
p1463
aS'Dear ryan dear ryan dear ryan dear ryan dear ryan dear ryan'
p1464
aS'Click the side of the video and then press 1980'
p1465
aS'Give him a break people '
p1466
aS'MMMMMHHHHHHMMMMM!!!'
p1467
aS'" stfu " " ok." Hahaha'
p1468
aS'dear ryan kan u go on and make a swiming video'
p1469
aS'You made me laugh so hard I made a snot bubble, HOW DID YOU DO THAT?!'
p1470
aS'Dear ryan, can you be higa'
p1471
aS"Dear Ryan I think something is outside my house can u come please I'm in \nSydney thx"
p1472
aS'He just did gandum style now stop asking'
p1473
aS'Dear Ryan, can you find out what the Fox says? (I bet this is like the \n500th one). '
p1474
aS'Dear'
p1475
aS'COOL STORY BRO'
p1476
aS'Stop tickling furry unicorns!'
p1477
aS'I am a grammar nazi'
p1478
aS'NARUTOOOOOO!!!!!!!!'
p1479
aS'deer RaYaN CAN u tell us all of the friends u have and put them in ur next \nvideo?? '
p1480
aS'Maloti'
p1481
aS'#MAPOTI'
p1482
aS'Dear rayan can you do a real ganman style'
p1483
aS'I love naruto!!'
p1484
aS'#youspelledsomethingwrongdonotknowwhatbutitissomething \nLOLOLOLOLOLOLOLOLOLOLOLOLOLOLOLOLOLOLOLOL'
p1485
aS'Dear Ryan can you stand on upside down on your hands while listening to a \ndub step song and balancing two plates on a stick on both feet while \nwearing a blindfold?'
p1486
aS'some...... Naruto. \nNARUTOOOOOOOOOOOOOOOOOOOOOOOOOOOOOOOOO!!!!!!!!!!!!!!!!!!!!!! XD'
p1487
aS'Dear Ryan, can you be a pokemon'
p1488
aS'Why the fuck would you say dear ryan'
p1489
aS"ahahahaha ! I'm MAPOTI too ! #lol #ahahaha #thisvidioissocool #awesome"
p1490
aS'Dear Rian, can you do gangam style?'
p1491
aS'Dear Ryan is it possible for your videos to not be delightful lol'
p1492
aS'I only post pictures of my food when I just made a new recipe. \nwatch?v=VZRM8GBKVNY'
p1493
aS'dear ryan, can you make a "wrecking ball" music video?'
p1494
aS'Dear Ryan, do it again,'
p1495
aS'Narutooooo!!! \xe0\xb9\x91^\xe2\x96\xbd^\xe0\xb9\x91 hahahahhahahahahahahhahahahha'
p1496
aS'I am aguy so ill be watching.....NARUTO'
p1497
aS'the unrelated caption girl is so funny'
p1498
aS'Can you do gangnam style???'
p1499
aS'tehehe'
p1500
aS'You forgot people who comment "FIRST!" on everything they see or watch'
p1501
aS'Can you do gamgamstil;)#'
p1502
aS'#nofilter Laughing Out Loud!'
p1503
aS'Just eat hot pocket'
p1504
aS'The trying to hard guy I fall for that'
p1505
aS'true'
p1506
aS'Hahahahahahaha!'
p1507
aS'Narutooooooooooooooooooo :D <3 '
p1508
aS'Harlem Shake!!!'
p1509
aS'Gangnam style!? Only the mapoti...'
p1510
aS'no do more gangnam style '
p1511
aS'Dear Ryan make a video when ur in space'
p1512
aS'Dear Ryan go dumpster diving'
p1513
aS'Narutooooooooooooooooooooooooooooooooooooooooooooooooooooooooooooo'
p1514
aS'Dear,Ryan Can you receive a great passive income and bake a cake :-)'
p1515
aS'I love your videos ps your so poler$'
p1516
aS'Can you do Gangam Style?'
p1517
aS'Can u do anothe skitzo?'
p1518
aS'All you guys saying Dear Ryan.. Shut up its not funny #ryansquad #yolo \n#wediditonem #dearryan #atthebeach #sand \n#inthesandatthebeachchillingwithmyfriendsatthebeachinflordia #follow4follow'
p1519
aS'Dear Ryan can you do gang nam style'
p1520
aS'You are hilarious! Kept making those videos'
p1521
aS'Dear Ryan, Can You Do Gangman Style ? :D Lol'
p1522
aS'Dear Ryan Can You Do Gangdam Style?'
p1523
aS'SPCADRCYDGS'
p1524
aS'That gangnam style part was hilarious'
p1525
aS'hey ryan can you make csi parody videos'
p1526
aS'dear tyan can you be a upsidedown twerking hotpockt or dragon if not can \nyou do gangnamstyla'
p1527
aS'STOP HE DID IT ALREADY!!!!'
p1528
aS'Think about it. Most netizens are mapoti. Haha.'
p1529
aS'can you do gangnam style'
p1530
aS'Oh hell no'
p1531
aS"I'm mapoti..."
p1532
aS'Dear ryan can u do gangnam style'
p1533
aS"I can't stop laughing!! That is so true!!"
p1534
aS'Haha.so funny'
p1535
aS'please do gangnam style'
p1536
aS'Ummm.. smtimes i feel ur speech so fast for a newbie like me... \nheheheheeee... '
p1537
aS'M.A.P.O.T.I!'
p1538
aS'Let Me See You Clap With No Hands! <3 '
p1539
aS'#MAPOTI'
p1540
aS'Dear Ryan can u make a parody of all the different sports'
p1541
aS'Dear Ryan can you do gangamstyle'
p1542
aS'MAPOTI'
p1543
aS'Dear Ryan, can you try to speak Filipino/Tagalog? :)'
p1544
aS'#No filter lol'
p1545
aS'mapoti'
p1546
aS'dear ryan, can you do gangnam style for more than 30 seconds? '
p1547
aS"OMG I have that same picture that's in his background"
p1548
aS'Actually grammar is not referring to spelling. :P'
p1549
aS'Naruto is awesome!!!!!'
p1550
aS'Dear Ryan can'
p1551
aS'Dear Ryan can you finish the gangam style dance'
p1552
aS'SO true!!!'
p1553
aS'Zeta if you actually were a grammar nazi you would have included a \npunctuation at the end of your sentence.'
p1554
aS'More fuel for the hashtagger? Nty.'
p1555
aS'Just ate a hot pocket hahahahaha!'
p1556
aS'Lol!'
p1557
aS'Funniest vid ever'
p1558
aS'u wanna know who else is annoying on the internet? One word...bronies. Not \nmuch else to say there'
p1559
aS'Dear Ryan, can you do gangnam style?'
p1560
aS'WARNING THE FOLLOWING COMMENT CONTAINS MAPOTI Dear Ryan can you do Gangnam \nStyle'
p1561
aS'MAPOTI'
p1562
aS'Lololololololololololololololololololololololololololololol'
p1563
aS'Dear Ryan: Can you be a pro soccer player'
p1564
aS'Grammar Nazis are by far the most annoying people on the planet.'
p1565
aS'Do you even lift?'
p1566
aS'MAPOTI'
p1567
aS'dear ryan pls do gangnam style'
p1568
aS'Dear Ryan Can u do gangnam style'
p1569
aS'dear tom t'
p1570
aS'MAPOTI LOL XD STFU!'
p1571
aS'Well it is 2am here right now so i guess i\'ll go watch some "Naruto"'
p1572
aS'Maloti'
p1573
aS'Please, GET OFF THE INTERNET'
p1574
aS'3;00 my sister XD '
p1575
aS'Can you do the full song'
p1576
aS"Well I'm a Grammar Jew, so does that count as being a Grammar Nazi?"
p1577
aS'dear Ryan, do gangnam style lol jk ttyl jk #yolo #jk #justplayingwithyou \n#okiwillstop jk'
p1578
aS'Dear Ryan, Can You Do Gangnam Style'
p1579
aS'Dear Ryan , I like cheese '
p1580
aS'Your skin is really nice Ryan'
p1581
aS"Don't forget the people who always remind you they got the first comment on \na YouTube video! They are so fricking annoying; NO ONE CARES who gets the \nfirst comment on a random YouTube video! MAPOTI :)"
p1582
aS'#Mapoti should actually be a thing..'
p1583
aS'ryan do #GANGNAM STYLE !!!!!!!!! LOL #I LIKE LIKE CHEESE # LOL #LIKE A SIR \nIM SORRY FOR BEING ANNOYING U ARE AWESOME BECAUSE U LIKE NARUTO \n!!!!!!!!!!!!!! IM ? '
p1584
aS'What about the Brony who thinks pinky promises originated from MLP'
p1585
aS"I'm the grammar nazi."
p1586
aS'Hh'
p1587
aS'Dear ryan, can you do gangnam style?.... "Oppa gangnam style"'
p1588
aS'Dear Ryan please do gangnam style'
p1589
aS'Shut up, loser. No one wants you here. You go fuck yourself hater.'
p1590
aS'Dear Ryan, Can you do gangnam style for a longer moment like 10 hours? lol'
p1591
aS'Is all your furniture from Ikea?? lol. '
p1592
aS' #lol #dear#ryan#can#u#do#gangnam#style'
p1593
aS'Dear Ryan, can you twerk? Lol'
p1594
aS'Dear Ryan can u stop talking too fast!!!'
p1595
aS'hot pocket '
p1596
aS'sorry ryan'
p1597
aS'Dear Ryan can you do gagnam style trollollollo'
p1598
aS'Can you make the funniest video in the world?please'
p1599
aS"it's been almost 8 months since this came out and I am just now getting the \nend"
p1600
aS'Whoopa gagnam style- There. You happy? Now please stop. LOL LOL LOL LOL LOL \nLOL'
p1601
aS'Dear Ryan can you do FULL GANGNAM STYLE'
p1602
aS'Oh god!! MAPOTI EVERYWHERE!!!!! AAAAAAAAH!!!! *jumps out window, hits a cow*'
p1603
aS'Dear Ryan ,can u do gangnam style'
p1604
aS'dear ryan, can u do gangnam style'
p1605
aS'DO FULL GANGAM SYTLE PA-PLZ!!!!!!!!! I WONT STOP SAYING IT UNTILL U DO THE \nFULL VERZION OF IT'
p1606
aS'Dear ryan lol'
p1607
aS'im not happy do more gangnam style bitch'
p1608
aS'you pretty much nailed it'
p1609
aS'Dear Ryan, can you do gangnam style'
p1610
aS'Gangnam style pls Ryan'
p1611
aS'3:35 There\'s a difference between "Trying to hard" and "Trying too hard" :P'
p1612
aS"To logan schelaas First of all, i'm not sure if I got your name wrong but \nwhatever. Second of all, do ya think ryan's gonna listen to you if you call \nhim a b****. ( BTW : ryan you are so funny. As soon as i could i \nsubscribed. )"
p1613
aS'everytime someone is being the most annoying damn person on the internet i \nmake sure i stamp them as MAPOTI!!!!!'
p1614
aS"Some of my friends do that hash tagger thing but they put hash tags not \neven related to the picture. Say they take a picture of themselves at the \nmall, they'll put #banana or other random stuff that isn't in the picture \nso people will find it."
p1615
aS'Dear Smosh, oh sorry wrong video!'
p1616
aS'Lol'
p1617
aS'if only you had dentch at the end of your name :( '
p1618
aS'Dear Ryan can you do gangnam style'
p1619
aS'were u really annoyed by the people who kept asking you to do Gangnam Style?'
p1620
aS'STOP TICKLING FURRY UNICORNS.'
p1621
aS'Dear Ryan, STOP THIS NEW MILEY SHIT'
p1622
aS'M A P O T I-> ILUMITATI. OMG :O'
p1623
aS'omg .....I really saw people asking ryan to do gangnam style ....... lol, u \ndid it :P'
p1624
aS'He forgot the TEEHEE!!!!!'
p1625
aS'U mad'
p1626
aS'dear ryan, can you do gangnam style? AGAIN ? '
p1627
aS'MAPOTI'
p1628
aS'Dear Ryan, do you have iFunny?'
p1629
aS'MAPOT\xc4\xb0'
p1630
aS'Dear Ryan, can you do the extened verison of Gangam style?'
p1631
aS'I think you should watch this video again. '
p1632
aS'Grammar natzi'
p1633
aS'#MAPOTI'
p1634
aS'"NARUTOOOOOO! "'
p1635
aS'Hey not trying to be a grammar Nazi lol but it is trying TOO hard guy not \ntrying TO hard lmaooooo'
p1636
aS'MAPOTI'
p1637
aS"Hahaha I've been laughing my ass off the entire time"
p1638
aS'Mapoti'
p1639
aS'his instagram account is notryanhiga!'
p1640
aS'Agreed'
p1641
aS'Dear Ryan, Can you do the harlem shake?'
p1642
aS'Start a gaming channel'
p1643
aS'mapoti '
p1644
aS'You forgot "epic" with the overused sayings person :p'
p1645
aS'im one of those Mapoti people i feel so ashamed ;-;'
p1646
aS'oh! no.... '
p1647
aS'Looool. I see what he did "wannabe rapper" then gave Wayne his head back.'
p1648
aS'Dear Ryan, can you dance to gentlemen'
p1649
aS'Dear Ryan can you do full gentle men by PSY please please please'
p1650
aS'can u do guyman style?'
p1651
aS'Im not anoying. '
p1652
aS'V DAMN STRAIGHT! :3'
p1653
aS"also YOU HAZ WRONG TROLL a troll is someone who jokes like husband watching \nTV husband: don't do it AWW WHY MAN!?!?!??!?!?! wife: what are you \nwatching? husband: OUR WDDING!"
p1654
aS'Dear Ryan Can you do Gentlemen now :3 TEEHEE...'
p1655
aS'Represents life so much, people who add quotes and all. Gosh.'
p1656
aS"If you always say no you'll never say yes... Never gets old"
p1657
aS'Dear Ryan'
p1658
aS'dear ryan, can you please talk a little bit slower? youre too fast dudeee. \nAnd please. do a parody of the fox \xe2\x9d\xa4'
p1659
aS'Dear ryan, could you do Gangam style?'
p1660
aS'dear ryan can you do parkour '
p1661
aS'Please ask your parents for permission before going online, boys and girls.'
p1662
aS'ringa ding ding ding'
p1663
aS"ha lol ! 2:45 if you never say no, you'll never say yes"
p1664
aS'Dear Ryan please do a fake movie trailer of mean girls'
p1665
aS'Can you do gangnam style? hahahahahha xDD :) '
p1666
aS'Dear Ryan can u do gangnam style'
p1667
aS'weird at 3:19 i have the same plates'
p1668
aS'I have 11 toes. Is that normal???'
p1669
aS'Do a back flip'
p1670
aS'Dear ryan can you do a rap song'
p1671
aS'Ryan, can you do a video on crazy baby names, if you havent already? and, \ncan you make a fake harry potter trailer if you havent already? Thx!!'
p1672
aS'dear ryan can you do knife? on yourself'
p1673
aS'dear ryan....................Teehee'
p1674
aS'############### jackass######### bitch '
p1675
aS'#YOLO'
p1676
aS'Dear Ryan, Can You Do Gangnam Style?'
p1677
aS'Mapoti'
p1678
aS'i hope that becomes the new Dear Ryan thing....'
p1679
aS'MAPOTI '
p1680
aS'U ARE funny'
p1681
aS'I keep on laughing at the hot pockets thing'
p1682
aS'To be a grammar nazi: Trying too* hard'
p1683
aS'#MAPOTI'
p1684
aS'Dear Ryan Can you eat a hot pocket?'
p1685
aS'My musik'
p1686
aS'Dear ryan, do another gangnam style video'
p1687
aS'Thats what happened after u wasting ur time in front of ur computer for so \nlong ;D'
p1688
aS'*gangdumb style'
p1689
aS'Nice nd funny'
p1690
aS'omg his talking speed !!!'
p1691
aS'The ending not so great'
p1692
aS'Can u do gangham style'
p1693
aS'he did it already! for one second! but he did it! XD'
p1694
aS'now dear ryan : can u do gentleman? :)'
p1695
aS'One more gangnam style'
p1696
aS'Trololololololololol'
p1697
aS'Can you do gangnam style?'
p1698
aS'the most beautiful part is narutoooooooo i watch it to ...teehee '
p1699
aS'\xe8\xbf\x94\xe4\xba\x8b\xe3\x81\x97\xe3\x81\xa6\xe3\x81\x8f\xe3\x81\xa0\xe3\x81\x95\xe3\x81\x84\xe3\x80\x82 '
p1700
aS'Im a overused saying person'
p1701
aS'AKA roblox '
p1702
aS'MAPOTI'
p1703
aS'$ money tagger because hashtags were so 5 minutes ago'
p1704
aS'What would do for pizza'
p1705
aS'could you do how to be a assassin? '
p1706
aS'Dear Ryan, Can you pretend to be a block of cheese. :D'
p1707
aS"I'm not really like that"
p1708
aS'Dear Ryan , can u go naked ? :D'
p1709
aS'Dear dear dear de can can ca you yo do do gangnam style'
p1710
aS'Ryan, you should do a trailer of finding nemo :P.'
p1711
aS'Dear Ryan, can you finish the rest of Gangnam Style?'
p1712
aS"I hate the not enough information person that makes posts about their \ncurrent situation but doesn't want to talk about it when you ask them \nperson. It is sooooo annoying"
p1713
aS'MAPOTI'
p1714
aS'dear Ryan can you do gangnam style'
p1715
aS'What about swerve'
p1716
aS'Dear Ryan can you do a dragon ball z fake traler'
p1717
aS'Dear Ryan, I luv u'
p1718
aS'dear ryan can you do reacnament of bridesmaid '
p1719
aS'Dear Ryan can u do gumdum stile'
p1720
aS'dear ryan plzz do a slender man related video :p'
p1721
aS'You did gang am style too short'
p1722
aS'MAPOTI'
p1723
aS'Cool'
p1724
aS'"Naruto"'
p1725
aS'Mapoti '
p1726
aS'Dear Ryan my name is Bryan. Please do a gangman style !'
p1727
aS'Dear Ryan can u do the gangnam style. # :-D LOL'
p1728
aS'WTF did i just watch '
p1729
aS'Dear ryan, can u make the film of naruto'
p1730
aS'You just earned a subscriber =)'
p1731
aS'Dear Ryan do hunger games parody'
p1732
aS'dear ryan, put a banana up your ass'
p1733
aS'LOL LMAO OMG TTYL '
p1734
aS'Dear Ryan, can u do Pokemon?'
p1735
aS'*ball'
p1736
aS'Dammit Imm a grammar nazi D:'
p1737
aS'cool'
p1738
aS'AGREED RYAN AGREED THUMBS UP IF YOUR NOOTTTT A TROLLER ON INTERNET (HATER) '
p1739
aS'Hey Ryan canu do gangnum style'
p1740
aS"I'm soo mapoti"
p1741
aS'dear ryan can you be a kpop star ?'
p1742
aS'haters mostaly go for the broines'
p1743
aS'Dear Ryan, please do gangnum style the full ver.'
p1744
aS'MAPOTI'
p1745
aS'Dear Ryan, can you be Miley and twerk'
p1746
aS'Dear Ryan, can you do Gangnam Style? :3 '
p1747
aS'Dear Ryan, can you go into chalkzone?'
p1748
aS'WOW! You really Love NARUTO just like me'
p1749
aS'Do you even lift bro? *shaking arms* XD'
p1750
aS'Wayne Brady, hahahaha!'
p1751
aS'Oh Hell NO! TEEHEE <3'
p1752
aS'Dear Ryan, can you make a parody of wrecking all?'
p1753
aS'Mapoti alert!'
p1754
aS'Dear ryan, can u twerk it'
p1755
aS"People keep saying I look like Selena Gomez but whatever I'm dead"
p1756
aS'dear ryan can u do gangnam style'
p1757
aS'Lol'
p1758
aS'Desr ryan, can you do gagnam style?'
p1759
aS'Dear Ryan, can you lick your elbow?'
p1760
aS"*he's "
p1761
aS'OMG I laughed so hard at this #your funny # nice! Lol ttyl (XD)'
p1762
aS'I am, in fact, not happy'
p1763
aS'Mapoti'
p1764
aS'MAPOTIxD'
p1765
aS'can u do gangnam style '
p1766
aS'Dear Ryan can you do gangnam style? lol jk'
p1767
aS"He's super cool I watch Naruto every night to"
p1768
aS'Me my friends we\'re saying "just ate a hot pocket" and it was funny b/c we \nwere using that deep voice'
p1769
aS'im the person who overuses hashtags... I have no shame'
p1770
aS'Holy grail'
p1771
aS'3:33 LOL'
p1772
aS'*TOO'
p1773
aS'Lol dear Ryan-can you twerk?? :3'
p1774
aS'\xf0\x9f\x93\xb2\xf0\x9f\x93\xb1can I have your cell phone number please'
p1775
aS'ryan you are the mapoti cos you keep complaining about what people doing :p \nbtw im that "unrelated captions girl"'
p1776
aS'if u wanna see him to gangnam style keep doing 4:40 - 4:44'
p1777
aS'dear ryan can you do gagnam style? :D '
p1778
aS'mapoti'
p1779
aS'Narutooooooo'
p1780
aS'mapoti'
p1781
aS'can you do the faces and animals of emojis on the iphone? '
p1782
aS'I bet he was doing a rasengan.'
p1783
aS'Dear Ryan, I apologize for all the "Dear Ryan, do this" crap. Even though I \nreally can\'t do anything, I\'d love to apologize for others when you find it \nannoying. :/ Have a nice day.'
p1784
aS'Dear Ryan relax'
p1785
aS'The troll'
p1786
aS'what he says is a grammar nazi is actually a spelling shark'
p1787
aS'Dear Ryan -can you be a banana'
p1788
aS'Dear Ryan- can be an assassin'
p1789
aS'dear ryan, do gangnam style'
p1790
aS'Ur my role model LOLZ!'
p1791
aS'OMG this is great! But you forgot about Tumblr... lqtm '
p1792
aS'Dear Ryan, can you do gangnam style'
p1793
aS'IK'
p1794
aS'Gosh diddly darn.'
p1795
aS'Dear Ryan can you make a gaming channel?'
p1796
aS'Kate bushino jutsu'
p1797
aS'gosh I hate that too 3:20'
p1798
aS'Dear Ryan can you jump a motor bike gang'
p1799
aS'NOT AT ALL'
p1800
aS'dear ryan, please do gangnam style'
p1801
aS"wait! you didnt finish gangnam style, you must do it over again, i demand \nthat you should, it's a must and finish it this time!"
p1802
aS'Lol you speak so fast and i\xc2\xb4m mad in english... but it\xc2\xb4s okay xD'
p1803
aS'Dear ryan can you do how to be cool at school'
p1804
aS'I love how one of the comments in the vid said harlem shakel'
p1805
aS'3:33 too* #MAPOTI'
p1806
aS'XD ha'
p1807
aS'If you always say no, you never say yes.'
p1808
aS'Thank god u did not do the whole gandamstyle song'
p1809
aS'Could you bring back gagnam style?'
p1810
aS'no i am not happy '
p1811
aS'MAPOTI BISH'
p1812
aS'CAN YOU PLAY MINECRAFT'
p1813
aS"I couldn't stop laughing at the one with just ate a hot pocket n all those \nthings r true about people but I don't do those things exept watch u \nknow.......NARUTO!!!!!"
p1814
aS'Swag means drappery that hangs inbetween 2 points.'
p1815
aS'Dear Ryan, can you do gangnam style'
p1816
aS'MAPOTI'
p1817
aS'#funny #joke #noflter'
p1818
aS'"just at a hot pocket." that made me laugh so hard.'
p1819
aS'4:22 watch their faces XD'
p1820
aS'XDXDXDXDXDXDXDXDXDXDXDXDXDXDXDXDXDXD'
p1821
aS'Dear rayan make a pokemon movie trailer'
p1822
aS'U annoying bro'
p1823
aS'Dear Ryan can you make a gaming channel'
p1824
aS'You have the same plate as me'
p1825
aS'Amen'
p1826
aS'You basically just described everyone on Facebook.'
p1827
aS'SASUKE!!!!'
p1828
aS'Dear Ryan, Can You Do A Vines Video ? '
p1829
aS'Can you make another of these videos'
p1830
aS'Dear Ryan can you make a video of your dog'
p1831
aS'MAPOTI'
p1832
aS'I was watching this with my little brother and hash tag wars'
p1833
aS'dear ryan can you do gangnam style? LOL jk trollin'
p1834
aS'Wait that came out wrong ._.'
p1835
aS'Dear Ryan, can u be romantic?'
p1836
aS'Dear Ryan Attack of the roaches. '
p1837
aS'Everyone on myspace'
p1838
aS"If You're Reading This Then That Means You're Gonna Die Or Stay Alive By \nClicking Like"
p1839
aS'Dear Ryan can you do parkour'
p1840
aS'I am such a grammar nazi'
p1841
aS'MAPOTI'
p1842
aS'omg stfu "dear Ryan"'
p1843
aS'Dear Ryan, Can YOU make a fail comedy trailer?'
p1844
aS'MAPOTI'
p1845
aS'guys he did the thing!!!!'
p1846
aS'Dear Ryan can u do Super Bass!'
p1847
aS'MAPOTI!!!!!1!!! '
p1848
aS'one of them is me xD'
p1849
aS"Hey, Ryan, you're forgetting someone... -_-"
p1850
aS'#nofilter...lol'
p1851
aS'dear ryan can you paint a picture '
p1852
aS':P'
p1853
aS'MAPOTI!!!!!!!!'
p1854
aS'Dear Ryan can u NOT do gangman style??? '
p1855
aS'Dear rayan can you do gangamstyle'
p1856
aS'Dear Ryan, can you do Gentleman?'
p1857
aS'Dear can u do gangnam style'
p1858
aS'dear ryan can you do an epic meal time part 2'
p1859
aS'Dear Ryan can you make a video of market and marley the corgoul or what \never its called'
p1860
aS'Dear Ryan what does the fox say?'
p1861
aS"There isn't a wannabe Rockstar. I'M NOT MAPOTI"
p1862
aS'Dear Ryan can you do your make up'
p1863
aS'dear ryan, can you find the most epic way to bake a cake?'
p1864
aS'why does every one allways say "dear Ryan"? when they want to talk to you? \nit is wierd why can\'t all of you just say whatever with out saying "dear \nRyan"?'
p1865
aS'narutooooo~~!!!!!'
p1866
aS'Sing blurred lines'
p1867
aS'Dear Ryan, can you do gangnam style? #jokes much love ;)'
p1868
aS'the hastager and the attention whore annoy me!'
p1869
aS'Sear Ryan can you become a gay person'
p1870
aS'Dear Ryan can you become a girl?'
p1871
aS'You forgot those annoying girls online and on games who say "Yeah im a girl \nand i do ect..." Like who cares if ur a girl and u do those things. Just \ngives us females who dont say that stuff bad names...'
p1872
aS'Are you fishing for more grammar Nazi\xe2\x80\x99s?'
p1873
aS'I feel so bad now! I am sort of a grammar natzi! :('
p1874
aS'Do the whole thing but parody'
p1875
aS'Do a full video of hangman style'
p1876
aS'NARUTO!!!!'
p1877
aS'D3ar ry4n g4ngnam s7yle?'
p1878
aS'Great vid'
p1879
aS'Dear Ryan whats. Keeping you from getting a fucking girlfriend'
p1880
aS'Dear ryan... idk i just wanted to say hi'
p1881
aS'The food photographer is my sisters'
p1882
aS'Dear Ryan, can you do gang nam style?'
p1883
aS'Lol'
p1884
aS'dear ryan ca you do gentleman '
p1885
aS'Dear Ryan'
p1886
aS"*what's keeping*"
p1887
aS'r u chinese?'
p1888
aS'1337'
p1889
aS'Ryan for the love of sandwiches , please do NOT twerk. '
p1890
aS'Good for you bro. (Am I a MAPOTI as well?)'
p1891
aS'Actually its oothmapoti one of the most annoying people on the internet:-*'
p1892
aS"your all mapoti's"
p1893
aS'Dear Ryan, can you be in a biker gang and throw pies at random strangers in \nthe face'
p1894
aS'Can you do Gangnam style'
p1895
aS'Dear Ryan please do gangnam style'
p1896
aS'Naruto hilarious'
p1897
aS'hot pockets make me happy... lol'
p1898
aS'Hot pockets make me happy :)'
p1899
aS'#foreveralone '
p1900
aS'Dear Ryan Can you do gangnam style'
p1901
aS'Whaz with the caps?'
p1902
aS'Hey'
p1903
aS'nice funny vieod mapoti i see form your asome shirt'
p1904
aS'MAPOTI.'
p1905
aS'MAPOTI'
p1906
aS'#springbreak #beach #friends #sunny # funtimes # funtimeswithfriends #sand \n#funtimeswithfriendsinsand #nofilter LOL'
p1907
aS'MOPOTI '
p1908
aS'Dear ryan, can you do a parody about the hunger games?'
p1909
aS'Please can you guys check my channel and help me and give me ideas on how \nto improve it , im new to this and need anyone to help THANK YOU!!:D'
p1910
aS'Gay'
p1911
aS'Dear Ryan, can you do wrecking ball parody?'
p1912
aS"oh really? omg... I m gonna dieeeeeeeeeee. I m gonna die, this can't be, I \nstill have my dreams, Im still young....ughh.............fuck you"
p1913
aS'what the fox say? '
p1914
aS'Do a full video about The Oppa gangnam style song C:'
p1915
aS'Too TRUE. and TOO HILARIOUSSS!!(: *TROLLFACE*'
p1916
aS'ARRRGG I HATE THESE PEOPLE'
p1917
aS'Dear Ryan, can you do gentleman.'
p1918
aS'"Trying to hard"? Viagra ad? '
p1919
aS'nice one.. stop tickling furry unicorns'
p1920
aS"Why'd you take my newspaper!?"
p1921
aS'WHAT THE FUCK MAN.'
p1922
aS'Gangnam style'
p1923
aS'Dear ryan can you make a longer version of gangam style? :3'
p1924
aS'Dear ryan.. Can you do a GangamStyle'
p1925
aS'DEAR,ryan will be a girl for the entire day '
p1926
aS'Love the last part.'
p1927
aS'best video evr :D you happy '
p1928
aS'GANGNAM STYLLLEEE'
p1929
aS'love ya Ryan !!! ;)'
p1930
aS"Haha it's better than I can do I mean gunggum style"
p1931
aS'Dear Ryan do gang am style'
p1932
aS"Oh he'll now Hannah style hash tag just had a hot pocket"
p1933
aS'Awesome videos'
p1934
aS' I CAN WATCH YOU FOR EVEEEEEEEEEEERRR !!!!!! fuck.'
p1935
aS"Oh my.. At least I'm not the only person who hates gangam style.."
p1936
aS'Dear Ryan, can you do Harlem Skake?'
p1937
aS'Why do you care?'
p1938
aS'Stop Tickling Furry Unicorns.'
p1939
aS'just ate a hot pocket '
p1940
aS'Dear Ryan , can you marry me ?'
p1941
aS'lol'
p1942
aS"Ohhhh, I'm totally a grammar nazi...not going to lie"
p1943
aS'Dear ryan can you be a girl for a day'
p1944
aS'not sure if spelling errors are meant to attract grammar nazi...or \nunintentionally '
p1945
aS'Dear Ryan...can you do Gangnam Style? XD '
p1946
aS'NARUTOOOOOOO HAHAHAHAHA'
p1947
aS'he already did one. '
p1948
aS'naruto...........so true lol'
p1949
aS"Trying to hard?!!! If it didn't sound MAPOTI, I'd say that's what she \nsaid..."
p1950
aS'Mapotis xD'
p1951
aS'3:33 *GASP*'
p1952
aS'Uh, omg , stp being such a mapoti , just stfup'
p1953
aS'Dear Ryan can you do gentlemen'
p1954
aS"Good job you are very good ' u '"
p1955
aS'yes '
p1956
aS'WAYNE BRADY.'
p1957
aS'rasict'
p1958
asS'time'
p1959
ctime
struct_time
p1960
((I2013
I2
I28
I21
I42
I42
I3
I59
I-1
t(dtRp1961
sS'id'
p1962
VTkm5K2fu0AI
p1963
s.