(dp1
S'title'
p2
VHarlem Shake (Brady Bunch Edition)
p3
sS'url'
p4
Vhttp://www.youtube.com/watch?v=V6A5ti7xFRM&feature=youtube_gdata_player
p5
sS'image'
p6
Vhttp://i.ytimg.com/vi/V6A5ti7xFRM/0.jpg
p7
sS'comments'
p8
(lp9
S'Is it me or that guy looks like swoozie?\xef\xbb\xbf'
p10
aS'Ryan higa!! \xe2\x99\xa1\xe2\x99\xa1 \nHarlem shake\xef\xbb\xbf'
p11
aS'So racist\n\xef\xbb\xbf'
p12
aS'tbt\xef\xbb\xbf'
p13
aS'this is a bit rasist? dont you think?\xef\xbb\xbf'
p14
aS"Some of these videos really just make me think, omg, what the F#@* did I \njust see???\n-that's not supposed to be a mean comment\n\nTEEHEE\n:P\xef\xbb\xbf"
p15
aS'How did he get Wayne Brady?\xef\xbb\xbf'
p16
aS'He looks like the brother from HIMYM\xef\xbb\xbf'
p17
aS"To all those retards who think this is racist just because of a black guy \ndancing in it, that'll sort of make you racist.\xef\xbb\xbf"
p18
aS'Lol!\xef\xbb\xbf'
p19
aS'People call our family the Brady bunch for some reason\xef\xbb\xbf'
p20
aS'Racist video, im latino but the action say all \xef\xbb\xbf'
p21
aS'omg wtf did i just watch\xf0\x9f\x98\x82\xf0\x9f\x98\x82\xef\xbb\xbf'
p22
aS'I love Wayne Brady when he was on whose line is it anyway and fast and \nloose. Hanging on a the ( my channel) was the best UK moment \xef\xbb\xbf'
p23
aS'Ha, Wayne Brady xD\xef\xbb\xbf'
p24
aS'At the start ryan looked so lazy\xf0\x9f\x98\xb4\xf0\x9f\x98\x81\xf0\x9f\x98\x81\xf0\x9f\x98\x81\xef\xbb\xbf'
p25
aS'The fuck did I just watch?\xef\xbb\xbf'
p26
aS'How did he make this? I can tell that the first one is a green screen and \nthe couch one is cropped but wit about the on on the ground dancing next to \nthe lamp?????\xef\xbb\xbf'
p27
aS'This motivated me so much, thanks u\xef\xbb\xbf'
p28
aS'WHY DID I NOT SEE THIS BEFORE?!?!?! WAYNE BRADY YOU ROCK AND NIGAHIGA YOU \nROCK SO MUCH FOR HAVING HIM IN THIS VID~!!!!!!!!!!!!!!!!!!!!!\xef\xbb\xbf'
p29
aS'Ryan higa!! \xe2\x99\xa1\xe2\x99\xa1 \nHarlem shake\xef\xbb\xbf'
p30
aS'This had me at wtf lmao \xf0\x9f\x98\x82\xf0\x9f\x92\x95\xef\xbb\xbf'
p31
aS'Man U racist...\xef\xbb\xbf'
p32
aS'Daamn, that barneys gay brother!\xef\xbb\xbf'
p33
aNaS'This was not racist ur thing the wrong way u mapoti\xef\xbb\xbf'
p34
aS'still...so good\xef\xbb\xbf'
p35
aS'This seems a little racist TLYK\xef\xbb\xbf'
p36
aS'How have i never seen this video? Well until just now...teehee \xef\xbb\xbf'
p37
aS'Funny!!\xef\xbb\xbf'
p38
aS"I'm racist, and I think this is black.\xef\xbb\xbf"
p39
aS"This is the craziest Harlem shake I've ever seen!!!!\xef\xbb\xbf"
p40
aS'wtf lol\xef\xbb\xbf'
p41
aS'bro ur a celebrity :D YOUR A BEAASSSST\nBUT DONT FUCKING CHANGE OR IMA UNSUBSCRIBE \xef\xbb\xbf'
p42
aS'Awesome Video . What is the name of that song ?\nplease I need it too bad\xef\xbb\xbf'
p43
aS"How did you get Wayne Brady to do a video with you? That's awesome...\xef\xbb\xbf"
p44
aS"I wasn't looking at the video at all\nI was looking at his house\n(It looks really big)\xef\xbb\xbf"
p45
aS'Lol, I love Wayne Brady! ^_^  \nThis is probably the only Harlem Shake I find amusing.  Cheers!\xef\xbb\xbf'
p46
aS'what the \n....................................................................\xef\xbb\xbf'
p47
aS'EBOLO BITCHES\xef\xbb\xbf'
p48
aS"Those who think this is racist..\nIs THE ONE who is racist!\nPeople never complained when a white guy danced to harlem shake but when a \nblack guy does it, people think its racist just because the one who did it \nis black.. \nLike, every human has a race!\nWhy would people even think its racist when a black guy got into the \nvideo?? \nIf you think this is racist then you are a freakin' MAPOTI!!!\xef\xbb\xbf"
p49
aS'dear ryan what would you do vs voldemort\xef\xbb\xbf'
p50
aS'OMG LUUUUUV IT!!!!!\xef\xbb\xbf'
p51
aS'Wait what xD\xef\xbb\xbf'
p52
aS"What the hell is this I'm laughing so hard\xef\xbb\xbf"
p53
aS'Wayne Brady the boss\xef\xbb\xbf'
p54
aS'didnt see that coming\xef\xbb\xbf'
p55
aS'They Black People\xef\xbb\xbf'
p56
aS'Nigga\xef\xbb\xbf'
p57
aS'WAYNE BRADY\n\n*gasms*\xef\xbb\xbf'
p58
aS'wayne brady is awesome man\xef\xbb\xbf'
p59
aS'Wayne brady!\xef\xbb\xbf'
p60
aS"Why can't I stop watching this?!! O.o\xef\xbb\xbf"
p61
aS'Awesome! I love Mr. Brady. Who else can make up a song to a random style of \nmusic?\xef\xbb\xbf'
p62
aS'LOL\xef\xbb\xbf'
p63
aS'thats acully the funniest harlem shake ever\xef\xbb\xbf'
p64
aS'epic\xef\xbb\xbf'
p65
aS'I really want 0:04-0:06 to be a gif\xef\xbb\xbf'
p66
aS'i repeated this so many times hahaha\xef\xbb\xbf'
p67
aS'The like the beginning when only Ryan was doing the harlem shake.\xef\xbb\xbf'
p68
aS'!!!!!!\xef\xbb\xbf'
p69
aS'HAHAHAHAHA!!!!!!!!\xef\xbb\xbf'
p70
aS"People don't know how to respond to certain people. He doesn't understand \nthe concept of racism, so explain it to him. I would but I don't have a \nf*cking clue either.\xef\xbb\xbf"
p71
aS'Wait, what did I just watch?\xef\xbb\xbf'
p72
aS'Best pun ever XD\xef\xbb\xbf'
p73
aS"he is barney's gay brother!!\xef\xbb\xbf"
p74
aS'This is awesomeeeeeee \xef\xbb\xbf'
p75
aS'Yup my every day life-Turning into a black guy then randomly dancing with \nstrangers who are also for some reason black.\xef\xbb\xbf'
p76
aS'Lol Omg \xf0\x9f\x98\x82\xf0\x9f\x98\x82\xf0\x9f\x98\x98\xf0\x9f\x99\x8c\xef\xbb\xbf'
p77
aS"I don't know what I just watched, but I applaud you for it.\xef\xbb\xbf"
p78
aS'Fucking Wayne Brady.\xef\xbb\xbf'
p79
aS'Dear Ryan - Can u make a "Dear Ryan" ?\xef\xbb\xbf'
p80
aS'when did ryan and wayne become friends?\xef\xbb\xbf'
p81
aS'Im so confused\xef\xbb\xbf'
p82
aS'Dear Ryan, Can you do HIMYM\xef\xbb\xbf'
p83
aS'WHERE IS UNCLE SAM\xef\xbb\xbf'
p84
aS'So funny and touching \xef\xbb\xbf'
p85
aS'WTF!!!\xef\xbb\xbf'
p86
aS'Did he improvise this video? \xef\xbb\xbf'
p87
aS'Weirdest dream ever\xef\xbb\xbf'
p88
aS'How does he know wane brady? And damn wane , you hit that harlem shake old \nschool ! \xef\xbb\xbf'
p89
aS'WAYNE !!!!!!!!!!!!!!!!!!!!!!!!!!!!!!!!!!!\xef\xbb\xbf'
p90
aS"Brady Bunch hahaha I get it now cuz it was a bunch of Brady's \xef\xbb\xbf"
p91
aS'Wayne Brady!!! Love this guy!!!\xef\xbb\xbf'
p92
aS'Omg you met Wayne Brady!!!!!!!!!!!!!!!!!!!!!!!!!!!!!!!!!!!!!!!!!!!\xef\xbb\xbf'
p93
aS'*mean\xef\xbb\xbf'
p94
aS'LOL\xef\xbb\xbf'
p95
aS'That intro though\xef\xbb\xbf'
p96
aS"You're friends with Wayne Brady?!?! OMYGOSSSSHHHHHHH I LOVE HIM!!\xef\xbb\xbf"
p97
aS'so he was robed\xef\xbb\xbf'
p98
aS'**Harlem\n\xef\xbb\xbf'
p99
aS'hahaha this was the BEST of all of them\xef\xbb\xbf'
p100
aS'Weird\xef\xbb\xbf'
p101
aS'This is crapppppppppppppppppp\xef\xbb\xbf'
p102
aS'Brady bunch my ass\xef\xbb\xbf'
p103
aS'Hahahahahahahahhaha! Best Harlem SHAKE Eva! :p\xef\xbb\xbf'
p104
aS'One word: R.A.C.I.S.T (well 6)\xef\xbb\xbf'
p105
aS'TOO MUCH WAYNE BRADY...TOO MUCH...\xef\xbb\xbf'
p106
aS'k guys know should be racsit its wrong so plz everyone shup ur piehole\xef\xbb\xbf'
p107
aS'Im black and i dont think this is racist.\xef\xbb\xbf'
p108
aS'lol\xef\xbb\xbf'
p109
aS'COPYRIGHT??\xef\xbb\xbf'
p110
aS'Lol!\xef\xbb\xbf'
p111
aS'can someone tell me how he made this video? I have no idea how to make a \nlot of myselfs in the background...\xef\xbb\xbf'
p112
aS'Awesomeness!\xef\xbb\xbf'
p113
aS'I did not see that coming.\xef\xbb\xbf'
p114
aS'Omg thqys Barneys brother from himym\xef\xbb\xbf'
p115
aS'You know Wayne Brady ! You lucky bastard * i say with love *\xef\xbb\xbf'
p116
aS':GASP:\xef\xbb\xbf'
p117
aS'?\xef\xbb\xbf'
p118
aS'What happened to "Fatality" and then "teehee" ?\xef\xbb\xbf'
p119
aS'TEEHEE!!!\xef\xbb\xbf'
p120
aS'whahahahahahahaha!\xef\xbb\xbf'
p121
aS'LMFAO\xef\xbb\xbf'
p122
aS"Just because they are black it doesn't Kean its rasist\xef\xbb\xbf"
p123
aS'Awesome video love it \xf0\x9f\x98\x9c\xef\xbb\xbf'
p124
aNaS'**Harlem\n\xef\xbb\xbf'
p125
aS'gay people\xef\xbb\xbf'
p126
aS'waaatttt where was I wen this came out\xef\xbb\xbf'
p127
aS'that was the shit\xef\xbb\xbf'
p128
aS"I wasn't expecting Wayne Brady, I was expecting what the title said. Lol \xef\xbb\xbf"
p129
aS'His moves in the Beginning Tho!! (x\xef\xbb\xbf'
p130
aS'HOW DO YOU ADD MULTIPLE "YOU" INTO ONE SCENE? PLZ! \xef\xbb\xbf'
p131
aS'This is trippy \nbroooooo......................................................................\xef\xbb\xbf'
p132
aS'DEAR Ryan which came first the lamp or the fan\xef\xbb\xbf'
p133
aS'I thought it was gonna Be the "Brady Bunch" not that guy\xef\xbb\xbf'
p134
aS'awesome !\xef\xbb\xbf'
p135
aS'Dear Ryan can you let it go\xef\xbb\xbf'
p136
aS"Oh ma god its Barney Stinson's gay brother!!!!\xef\xbb\xbf"
p137
aS'The last part was so funny \xef\xbb\xbf'
p138
aS'Lol XD\xef\xbb\xbf'
p139
aS'LMFAO\xf0\x9f\x98\x82\xef\xbb\xbf'
p140
aS'wtf lol :)\xef\xbb\xbf'
p141
aS'This is still the best harken shake EVER. Dear Ryan, can you be Spider-Man \nour batman?\xef\xbb\xbf'
p142
aS'once you go black...\xef\xbb\xbf'
p143
aS'Dear rayn how many shirts can you wear at time?\xef\xbb\xbf'
p144
aS'dear ryan, can u do gangam style\xef\xbb\xbf'
p145
aS'Hehe\xef\xbb\xbf'
p146
aS'Oh my fucking goddddddd\xef\xbb\xbf'
p147
aS"And for those wondering how he got Wayne Brady to do this, they're friends \nso...yeah\xef\xbb\xbf"
p148
aS'omg the end! leleel\xef\xbb\xbf'
p149
aS'What the fuck ummmm why did you turn the fucking same\xef\xbb\xbf'
p150
aS'haha brst harlem shake ever XD\xef\xbb\xbf'
p151
aS'what... XD\xef\xbb\xbf'
p152
aS'Anyone else see the person in the back disappear\xef\xbb\xbf'
p153
aS"At least these are actual moves that don't make me wanna cry.\xef\xbb\xbf"
p154
aS'This is AWESOME!!\xef\xbb\xbf'
p155
aS'A bit racist\xef\xbb\xbf'
p156
aS'LOL, soooo funny!!!!!!!\xef\xbb\xbf'
p157
aS'....\xef\xbb\xbf'
p158
aS'Nailed it! \xf0\x9f\x94\xa9\xf0\x9f\x94\xa8\xf0\x9f\x91\x8c\xef\xbb\xbf'
p159
aS'i love the brady on the couch and floor\xef\xbb\xbf'
p160
aS"I knew that man looks familiar when I saw him! I can't believe you met THE \nWanye Brady! So awesome\xef\xbb\xbf"
p161
aS'Whut \xef\xbb\xbf'
p162
aS'whats with all the likes on every single comments? XD \xef\xbb\xbf'
p163
aS'You actually got Wayne Brady?! AWESOME!!!!\xef\xbb\xbf'
p164
aS'Hahahahahahhahahahahahahahah\xef\xbb\xbf'
p165
aS'dear Ryan can you do a movie in seconds\xef\xbb\xbf'
p166
aS'lol at last part\xef\xbb\xbf'
p167
aS'never get bored of the TEE HEE :D\xef\xbb\xbf'
p168
aS'plot twist!!! Lol\xef\xbb\xbf'
p169
aS'"Brady Bunch" LMAO, at first I didn\'t get it. But this was hilarious!!!\xef\xbb\xbf'
p170
aS'wtf that paper at 0:16\xef\xbb\xbf'
p171
aS'That ending XD hahahaha every time\xef\xbb\xbf'
p172
aS'YOU ARE OFFICIALLY THE BEST YOUTUBER EVER!!!\xef\xbb\xbf'
p173
aS"wtf I wasn't expecting Wayne Brady jesus\xef\xbb\xbf"
p174
aS'NiggaHiga xD\xef\xbb\xbf'
p175
aS"Was he James, Barney's brother from how i met your mother?\xef\xbb\xbf"
p176
aS'U smart bastard u\xef\xbb\xbf'
p177
aS'UMMMMM. . . O...k......?\xef\xbb\xbf'
p178
aNaS'go ryan\xef\xbb\xbf'
p179
aS'I fucking love wayne he is an absolutely amazing actor\xef\xbb\xbf'
p180
aS'my real name is brady -_-\xef\xbb\xbf'
p181
aS'LOL!!!!!!!!\xef\xbb\xbf'
p182
aS'PINEAPPLE\n\xef\xbb\xbf'
p183
aS'Funny!!!\xef\xbb\xbf'
p184
aS'Holy bull shit dongs its WAYNE BEAU\n\n\xef\xbb\xbf'
p185
aS'Wait what XD so confusing\xef\xbb\xbf'
p186
aS'What did i just watcht ?\xef\xbb\xbf'
p187
aS'what have i done with my life\xef\xbb\xbf'
p188
aS'I luv de Herlem Shek is so goodi i cri\xef\xbb\xbf'
p189
aS'I love Wayne Brady\xef\xbb\xbf'
p190
aS'this is always funny no matter how many times you watch it\xef\xbb\xbf'
p191
aS'WTF\xef\xbb\xbf'
p192
aS'Lol...just,wow\xef\xbb\xbf'
p193
aS'Gasp\xef\xbb\xbf'
p194
aS"He's in how I met your mother\xef\xbb\xbf"
p195
aS'Love love love this. teehee\xef\xbb\xbf'
p196
aS"My last name's Brady :) LOL\xef\xbb\xbf"
p197
aS'Dat brady! \xef\xbb\xbf'
p198
aS'*racist*\xef\xbb\xbf'
p199
aS"Oh that wasn't a dream..Wait, What?.. *GAASP* *GAASP* *GAAAAASP*\xef\xbb\xbf"
p200
aS'what the fuck\xef\xbb\xbf'
p201
aS"That wasn't the brady bunch, that was just a bunch of, wayne...bradys....\n\nI get it. :3\xef\xbb\xbf"
p202
aS'wtf XD\xef\xbb\xbf'
p203
aS'Dear Ryan how did you Wayne Brady in your Harlem Shake video!!!!!!!! \xef\xbb\xbf'
p204
aS"I wish I could watch this again for the first time. The Harlem shake is \ngood but that ending was hysterical. I still laugh a little every time I \nsee it and I know what's going to happen. \xef\xbb\xbf"
p205
aS'TEEHEE\xef\xbb\xbf'
p206
aS'* gasp *\xef\xbb\xbf'
p207
aS"It's Wayne Brady bitch!!!\xef\xbb\xbf"
p208
aS'Shut\xef\xbb\xbf'
p209
aS'hehe\xef\xbb\xbf'
p210
aS"amg its James, Barney Stinson's brother. :0\xef\xbb\xbf"
p211
aS'FAITHFUL WORK   Joshua 21:27\nWearied by reading the tongue twisting towns of the divisions of the towns, \ncities, villages, and suburbs of the lots and the subdivisions of the \nIsraelites? Think about those who had to transcribe it from the original \nHebrew, meticulously ensuring accuracy and the truth. They did it for God \nso we would have His word now. Read every line for yourself and for others \n(your children, neighbours, and the new convert). Be faithful in reading \nGod\xe2\x80\x99s word.\xef\xbb\xbf'
p212
aS'WHA??!?!?!\xef\xbb\xbf'
p213
aS'Dear Ryan,do you Twerk\xef\xbb\xbf'
p214
aS"One of the math teachers at my school was on the show Let's Make A Deal and \nshe talked to Wayne Brady! I was so jealoussssssssssssssss!\xef\xbb\xbf"
p215
aS'DEAR RYAN CAN YOU DO GANGNAM STYLE\xef\xbb\xbf'
p216
aS'This is by far the best Harlem Shake ever XD\xef\xbb\xbf'
p217
aS'Feels racist \xef\xbb\xbf'
p218
aS"Not gonna lie but that's not how you do the Harlem shake\xef\xbb\xbf"
p219
aS'FINALLY SOMEONE DID THE HARLEM SHAKE RIGHT XD \xef\xbb\xbf'
p220
aS'lol so random!\xef\xbb\xbf'
p221
aS'WTF XD\xef\xbb\xbf'
p222
aS'WAYNE FUCKING BRADY\xef\xbb\xbf'
p223
aS'woah\xef\xbb\xbf'
p224
aS'LOL\xef\xbb\xbf'
p225
aS'#wtf #how  # i wish\xef\xbb\xbf'
p226
aS'lol\xef\xbb\xbf'
p227
aS"I'm jealous tbh that he turned into Wayne Brady\xef\xbb\xbf"
p228
aS'Not funny. -_-\xef\xbb\xbf'
p229
aS'For some odd reason i think that if there was ever a naruto movie played by \nreal people u would play sasuke\xef\xbb\xbf'
p230
aS'BEST. HARLEM. SHAKE. . . EVAR!!\xef\xbb\xbf'
p231
aS':D\xef\xbb\xbf'
p232
aS'This is terrifying.\xef\xbb\xbf'
p233
aS'Harlem Shake finally evolves into an actually funny form.\xef\xbb\xbf'
p234
aS'Lol\xef\xbb\xbf'
p235
aS'lamp god is really funny\xef\xbb\xbf'
p236
aS"And then, Barney stinson walks in to see this. And kids, in 2013, your \nuncle Barney's brother James was in one of Ryan Higa's video. *How i met \nyour mother credits roll*\xef\xbb\xbf"
p237
aS'LOL !! WTF ?? ! :P\xef\xbb\xbf'
p238
aS'TEHE\xef\xbb\xbf'
p239
aS'Funny as heck!!!!!! XD LMAO\xef\xbb\xbf'
p240
aS'Lol\xef\xbb\xbf'
p241
aNaS'Hhhhhhheeeeee\xef\xbb\xbf'
p242
aS"made my day OMG you're srsly the best\xef\xbb\xbf"
p243
aS'whos wayne brady? sorry i only speak american\xef\xbb\xbf'
p244
aS'What the?\xef\xbb\xbf'
p245
aS'Best one \xef\xbb\xbf'
p246
aS'Aaaaaaaaaaaaa JAMES ! Barney\xef\xbb\xbf'
p247
aS'Who is Wayne Brady?.... \xef\xbb\xbf'
p248
aS'This is the single greatest video on all of the internet no take backs\xef\xbb\xbf'
p249
aS"Inception is like Ryan's Gangnam Style. It's wonderfully over-played :P\xef\xbb\xbf"
p250
aS'lol the guy with the bobble-head\xef\xbb\xbf'
p251
aS'Wow best Harlem Shake yet!\xef\xbb\xbf'
p252
aS'wtf was that\xef\xbb\xbf'
p253
aS'thank you\xef\xbb\xbf'
p254
aS"WOOOH i'm on a nigahiga marathon \xef\xbb\xbf"
p255
aS'Shut\xef\xbb\xbf'
p256
aS"Oh My Gosh, I laugh every single time!! :'D Well done.\xef\xbb\xbf"
p257
aS'Wayne Brady?!?!?\nWTF!!!!\xef\xbb\xbf'
p258
aS'WAYNE BRADY!!!\xef\xbb\xbf'
p259
aS'ryan just got bradception B|\xef\xbb\xbf'
p260
aS'LOL\xef\xbb\xbf'
p261
aS"It's wayne freaking brady. holy shit lol. \xef\xbb\xbf"
p262
aS'lmao\xef\xbb\xbf'
p263
aS'"Is that all the same gu- MORE IMPORTANTLY, IS THAT WAYNE BRADY???"\n\n/unquote reaction\xef\xbb\xbf'
p264
aS'1000 points to Wayne.\xef\xbb\xbf'
p265
aS'this is the best HEHE\xef\xbb\xbf'
p266
aS'Lol.\xef\xbb\xbf'
p267
aS"At first I was like, yeah okay they got Wayne Brady and they're doing the \nHarlem Shake...big deal? But then the ending happened and now my life is \nchanged forever.\xef\xbb\xbf"
p268
aS'damn all you youtube celebritys you get to meet real ones i would love to \nmeet wayne brady\xef\xbb\xbf'
p269
aS'I CANT STOP LAUGHING!!!\nHAHAHAHAH\xef\xbb\xbf'
p270
aS'WAYNE BRADY!!!!\xef\xbb\xbf'
p271
aS'U got Brady to do the Harlem shake!!! Bet I wont see u in the half time in \nthe super bowl...or will I? Dear Ryan....need I even ask..\xef\xbb\xbf'
p272
aS"When Wayne is on the couch looks like he's trying to do a really bad fk yo \ncouch impression. \xef\xbb\xbf"
p273
aS"Dat's RACIST! Asians don't just turn black like dat!\xef\xbb\xbf"
p274
aS'Hilrious\xef\xbb\xbf'
p275
aS'Cool\xef\xbb\xbf'
p276
aS'Wayne Brady! Barneys brother in How I Met Your Mother! :D\xef\xbb\xbf'
p277
aS'Why do white people love Wayne Brady so much?\xef\xbb\xbf'
p278
aS'ROFL at the ending!!! omg\xef\xbb\xbf'
p279
aS'why have I never seen this? lol\xef\xbb\xbf'
p280
aS'whuuuuuuuuuuuut i only just realised that was THE Wayne Brady after almost \na year x.x\xef\xbb\xbf'
p281
aS'What the hell???\xef\xbb\xbf'
p282
aS'well then....\xef\xbb\xbf'
p283
aS'your funny and cute\xef\xbb\xbf'
p284
aS'cool\xef\xbb\xbf'
p285
aS"Crap lol I thought you were doing the 1960's tv show the brady bunch \nMWHAHAHAHAHAHAHAHAAHAHHAHAAHHAHAHAHAHAAHAH  Stephen Padilla the old school \nout-of-date Thingymabob\xef\xbb\xbf"
p286
aS'Lol so funny at the end\xef\xbb\xbf'
p287
aS'What the....... So funny\xef\xbb\xbf'
p288
aS'oh i get it.. brady bunch, as in Wayne Brady !! ahhhhhhh\n\nAKA: BARNEY STINSONS NOT AS AWESOME BUT STILL PRETTY AWESOME HALF GAY \nBROTHER \xef\xbb\xbf'
p289
aS'wtf                                                 WAYNE BRADY AHHHHHH\xef\xbb\xbf'
p290
aS'You made my day XD\xef\xbb\xbf'
p291
aS'WAYNE BRADY WENT TO MY HIGH SCHOOL!!!\xef\xbb\xbf'
p292
aS'lil wayne brady\xef\xbb\xbf'
p293
aS'lol\xef\xbb\xbf'
p294
aS'WTH! \xef\xbb\xbf'
p295
aS'Hahahahahahaha!!!!\xef\xbb\xbf'
p296
aS'TEEEHEEE\xef\xbb\xbf'
p297
aS"OMG!!!!! He was on Let's Make A Deal!!!!!!!!!!!!\xef\xbb\xbf"
p298
aS'Great video bro.....\xef\xbb\xbf'
p299
aS'Wayne Brady is awesome. \xef\xbb\xbf'
p300
aS'Wayne Brady FTW!!!\xef\xbb\xbf'
p301
aS'OMG WAYNE BRADY\xef\xbb\xbf'
p302
aS"That's a bunch of Brady's.\xef\xbb\xbf"
p303
aS'YOOOO\xef\xbb\xbf'
p304
aS'UUUUUUUUUUUUUUUUGH!!!!!!!!!!!!!!!!!!!!!!!!!!!!!!!!!!!!!!!!!!!!!!!!!!!!!!!!!!!!!!!!!!!!!!!!!!!!!!!!!!!!!!!!!!!!!!!!!!!!!\xef\xbb\xbf'
p305
aS"they look like Barney Stinson's brother James\xef\xbb\xbf"
p306
aS'Best one \xef\xbb\xbf'
p307
aS'best 39 sec.! xD\xef\xbb\xbf'
p308
aS'What did I just watch? A seizure survival video?\xef\xbb\xbf'
p309
aS'XD mad funny\xef\xbb\xbf'
p310
aS'umm what did I just watch o_0\xef\xbb\xbf'
p311
aS'please help my family share my video to help find my cousin victoria Glenn \nthe video is called victoria glenn missing please help if more people share \nmy video maybe someone will know something  please help us share !!!!\xef\xbb\xbf'
p312
aS'Scientists are stilling working around the clock to figure out why this has \n8 million views.\xef\xbb\xbf'
p313
aS'whos line is it anyways!\xef\xbb\xbf'
p314
aS'cool the wanye Brady xDDD\xef\xbb\xbf'
p315
aS'Dats tight\n\xef\xbb\xbf'
p316
aS'Black, black... So much black!!!!!\xef\xbb\xbf'
p317
aS'Wayne Brady! Nice!\xef\xbb\xbf'
p318
aS'U got Brady to do the Harlem shake!!! Bet I wont see u in the half time in \nthe super bowl...or will I? Dear Ryan....need I even ask..\xef\xbb\xbf'
p319
aS'Lolololollo\xef\xbb\xbf'
p320
aS'Cracked me up love ur videos\xef\xbb\xbf'
p321
aS'This is the best harlem shake ever. \xef\xbb\xbf'
p322
aS'.-.\xef\xbb\xbf'
p323
aS'LOL\n\xef\xbb\xbf'
p324
aS'Lol\xef\xbb\xbf'
p325
aS"16-20 that's the harlem shake people.\xef\xbb\xbf"
p326
aS'at first i thought he said tom brady from the patriots \xef\xbb\xbf'
p327
aS'Lol\xef\xbb\xbf'
p328
aS'dude dis is racist\xef\xbb\xbf'
p329
aS'dear ryan can you do wracking ball\xef\xbb\xbf'
p330
aS"omg when Wayne Brady appeared, I just had to laugh XD\nthis should be in 'try not to laugh'\xef\xbb\xbf"
p331
aS'How did you get wayne brady!?\xef\xbb\xbf'
p332
aS'Yays!  Wayne AND Ryan.  Fantastic.\xef\xbb\xbf'
p333
aS'wayne!!\xef\xbb\xbf'
p334
aS"Whatching this vid then all of a sudden I'm just like 'dafuq did I just \nwatch'\xef\xbb\xbf"
p335
aS'LOL\n\xef\xbb\xbf'
p336
aS'Con los terroristas\xef\xbb\xbf'
p337
aS'Sub for a sub\xef\xbb\xbf'
p338
aS'What the heck?!!!!!!!!\xef\xbb\xbf'
p339
aS'Not ur best vid\xef\xbb\xbf'
p340
aS'Funny\xef\xbb\xbf'
p341
aS'harlem shake funny\xef\xbb\xbf'
p342
aS'WAYNE BRADY! AWESOME! XD\xef\xbb\xbf'
p343
aS'Waaaaaayne brady <3\xef\xbb\xbf'
p344
aS'What The...You Became Brady?? Oh Hell No Niggah!\xef\xbb\xbf'
p345
aS'that video wasweird exept for the\xef\xbb\xbf'
p346
aS'Great !! TEEHEE !! :D\xef\xbb\xbf'
p347
aS'Omg\xef\xbb\xbf'
p348
aS'Lol the ending \xef\xbb\xbf'
p349
aS"lol x'D\xef\xbb\xbf"
p350
aS"How the hell did Ryan get Wayne Brady to be in his video?\nI absolutely love it, but I DON'T GET IT\xef\xbb\xbf"
p351
aS'The fact that you ACTUALLY got Wayne Brady to do this.\xef\xbb\xbf'
p352
aS"Me loves you Ryan! And not in a 'im in love way' in a 'I think youre cool' \nway, so dont worry lol....\xef\xbb\xbf"
p353
aS'hehe\xef\xbb\xbf'
p354
aS'Nigga edition\xef\xbb\xbf'
p355
aS'I still have no idea how Ryan got Wayne Brady to do this.\xef\xbb\xbf'
p356
aS'I love Wayne Brady!!!!!\xef\xbb\xbf'
p357
aS'Haha ur dancing make me laugh\xef\xbb\xbf'
p358
aS'jajajajajajajajajaja... :-D\xef\xbb\xbf'
p359
aS'Lol the guy in the couch\xf0\x9f\x98\x8b\xef\xbb\xbf'
p360
aS'He is one of the most famous utubers so it makes sence that he got Wayne \nBrady\xef\xbb\xbf'
p361
aS'Lol to funny\xef\xbb\xbf'
p362
aS'What?\xef\xbb\xbf'
p363
aS'This just made my day XD\xef\xbb\xbf'
p364
aS'Totally hilarious! LOVED it! U r awesome!\xef\xbb\xbf'
p365
aS'Lol\xef\xbb\xbf'
p366
aS'rolfmao\xef\xbb\xbf'
p367
aS'This look racist\xef\xbb\xbf'
p368
aS'lol\xef\xbb\xbf'
p369
aS'can u do u parody of gangnam style?\xef\xbb\xbf'
p370
aS'Wtf\xef\xbb\xbf'
p371
aS'Dear Ryan, can you do gangnam style?\xef\xbb\xbf'
p372
aS'wtf!?!?!\xef\xbb\xbf'
p373
aS'THAT WAS SO SO SO RANDOM! \nLOLZ\xef\xbb\xbf'
p374
aS'this is actually really funny :)\xef\xbb\xbf'
p375
aS'wat\xef\xbb\xbf'
p376
aS'My face ("0)\xef\xbb\xbf'
p377
aS'You should do a video about how you and Wayne Brady became friends.\xef\xbb\xbf'
p378
aS"*black little kid gif* THAT'S RACIST! THAT'S RACIST!\xef\xbb\xbf"
p379
aS'can u do me a favor and like on feburary 21 next year make a video for my \nfriend her name is amy huynh plz and tell her i told u my name is alexia\xef\xbb\xbf'
p380
aS'what just happenes\xef\xbb\xbf'
p381
aS'ITS A BLACK GUY\xef\xbb\xbf'
p382
aS'grrr i hate advertisements\xef\xbb\xbf'
p383
aS'probably the best harlem shake around.\xef\xbb\xbf'
p384
aS'How did you get him\n\xef\xbb\xbf'
p385
aS'HAHAHA OH LORD\xef\xbb\xbf'
p386
aS'O.o oh god no...\xef\xbb\xbf'
p387
aS' L.M.F.A.O.\xef\xbb\xbf'
p388
aS'MY EYES!!!! MY EYES!!!!\xef\xbb\xbf'
p389
aS'the last part \xef\xbb\xbf'
p390
aS'What the f*** just happen \xef\xbb\xbf'
p391
aS'ROFLMAO!!\xef\xbb\xbf'
p392
aS'Ryan and Wayne together, what a funny team!! LOL\xef\xbb\xbf'
p393
aS'Woah..............What was that all about?\xef\xbb\xbf'
p394
aS'My is and Brazil\n\xef\xbb\xbf'
p395
aS"I don't know what I was expecting, but I think it was a Naruto suit...\xef\xbb\xbf"
p396
aS'The best 1!\xef\xbb\xbf'
p397
aS'I liked the video for the black guys and how racist Ryan is \xef\xbb\xbf'
p398
aS'LOLCATS\xef\xbb\xbf'
p399
aS'Creppy. I was going crazy for a sec.\xef\xbb\xbf'
p400
aS'I toght that was isekc Xd\xef\xbb\xbf'
p401
aS"I think that's the first one I've seen with someone actually doing the \nharlem shake in it.\xef\xbb\xbf"
p402
aS'That last part gets me everytime hahahaha\xef\xbb\xbf'
p403
aS'TeeHee :D\xef\xbb\xbf'
p404
aS'Why did everyone turn into black guy even they r white o.o\xef\xbb\xbf'
p405
aS'LOL!!! that is the most weird harlen shake\xef\xbb\xbf'
p406
aS'WHAT THE FFFFUUUUUUU\n\xef\xbb\xbf'
p407
aS'hah\xef\xbb\xbf'
p408
aS'Dear ryan can you do the what does the fox says?\n\xef\xbb\xbf'
p409
aS'NO WAY XD I LOVE THAT GUY XD\xef\xbb\xbf'
p410
aS'I love the ending\xef\xbb\xbf'
p411
aS'#bob\xef\xbb\xbf'
p412
aS'Raisist\xef\xbb\xbf'
p413
aS'lol\xef\xbb\xbf'
p414
aS'LOL\xef\xbb\xbf'
p415
aS'Perhaps the worst series of events to ever happen.\xef\xbb\xbf'
p416
aS'Wtf!? So random lol\xef\xbb\xbf'
p417
aS' #notexpected  \xef\xbb\xbf'
p418
aNaS'So funny awesome\xef\xbb\xbf'
p419
aNaS"Yes, but it's funny. \xef\xbb\xbf"
p420
aNaS'To funny \xef\xbb\xbf'
p421
aS'this video is only 39 seconds but the viewers are 7,817,218\xef\xbb\xbf'
p422
aS'Can you do some ANIME PLEASE\xef\xbb\xbf'
p423
aNaS'LOLOLOL!!!!\xef\xbb\xbf'
p424
aS'DearRyan,Celebrities & Stars Converted To Islam,what about you ? \xd9\x85\xd8\xb4\xd8\xa7\xd9\x87\xd9\x8a\xd8\xb1 \n\xd8\xa3\xd8\xb3\xd9\x84\xd9\x85\xd9\x88\xd8\xa7\xef\xbb\xbf'
p425
aS'0:17 who da fuq threw the piece of paper on the ground -__-\xef\xbb\xbf'
p426
aNaS'ALWAYS THERE TO MAKE LOVE YOUTUBE @nigahiga\xef\xbb\xbf'
p427
aS'Lol\xef\xbb\xbf'
p428
aS'ha in the background a guy jack something\xef\xbb\xbf'
p429
aS'Hahahaha! So totally awesome!\xef\xbb\xbf'
p430
aS'OMG\xef\xbb\xbf'
p431
aNaNaNaS'Best harlem shake ever\xef\xbb\xbf'
p432
aNaNaS'#WayneBradyBitch \xef\xbb\xbf'
p433
aNaNaS'TEEHEE\xef\xbb\xbf'
p434
aNaS'Check out this video on YouTube:\xef\xbb\xbf'
p435
aS'1000 points to wayne'
p436
aS'Lol u rock Ryan!!!'
p437
aS'now you know!! xDD'
p438
aS"The original song (Baaer - Harlem Shake) is one of the best trap songs to \ndate. It's sad the song itself isn't as appreciated as the videos"
p439
aS'Lol lol lol lol lol so funny'
p440
aS'Lol Funny every time I watch it :3'
p441
aS'Who is wayne brady?'
p442
aS'dear ryan can you be racist '
p443
aS'The Harlem shake is so old'
p444
aS'Tweak'
p445
aS"You've met Wayne Brady! now I'm jelous!"
p446
aS'Hahahahahahahaha very funny'
p447
aS'Thank you ^_^'
p448
aS'I love it when he says TEEHEE hahahahah lol'
p449
aS'ive seen it all'
p450
aS'LOL y did i watch like 7 times in a row?!?!???'
p451
aS'How is it brady bunch'
p452
aS'Dear Ryan- can you twerk'
p453
aS"I'm a fan of this person. And I would just say making this man stop doing \nhis job for the sake of your son would mean the entertainment of the older \nviewers who are ok with watching this. If you would, i would suggest it \nwould be easier to just restrict your son to watching this, instead of \nmaking this person stop and stop everyone elses entertainment."
p454
aS'Lol the way the he turns into a black guy...'
p455
aS'is ryan higa gonna have to choke a b@#ch?!?!'
p456
aS'sm'
p457
aS'Then, N E R D go die in a hole. Sincerely, Your fucked up.'
p458
aS'How the fuck'
p459
aS'Lol'
p460
aS'dear ryan can u do best pf vine lik 6 sec plzz'
p461
aS'Lol'
p462
aS'"What?! OOH! HOOW! OOHW!" :D'
p463
aS'Saw one of your video. You are a immature kid.'
p464
aS"It might be a troll parent using his son's i.d. and acting like an idiot."
p465
aS'LOL'
p466
aS'Lolololololololololol'
p467
aS'Lol'
p468
aS'wtf xD'
p469
aS'Many videos (all his old ones) in and I end up dying of laughter for this \none XD'
p470
aS'Really '
p471
aS'What has the world come to!?'
p472
aS'Lmfao'
p473
aS'30,000 comment'
p474
aS'Keep going'
p475
aS'Check my channel'
p476
aS'Lol'
p477
aS'Wtf'
p478
aS'.0.'
p479
aS'Wayne Brady'
p480
aS'wtf black people'
p481
aS'lolwut'
p482
aS"I....I don't understand what to think "
p483
aS'Wayne Brady is the legendary hilarious black manfrom whos line is it \nanyway...'
p484
aS'whats up ryan'
p485
aS'Dafuq did I watch'
p486
aS'Ahahahahahahahaha'
p487
aS'LOL'
p488
aS'Hey there douchebag mother fucker!'
p489
aS'I tried doing that floor thing wayne was doing and they said I shifted my \nhip bone'
p490
aS'Hahahahahaha...'
p491
aS'ryan doesnt curse, maybe youre kid met some fuckers in school or something, \nor better yet maybe he has mental issues? now stfo and stop spamming'
p492
aS'this youtube video was awesome and is the original harlem shake now i know \nit is dying down but to me this still goes\xef\xbb\xbf'
p493
aS'hahaha! may ganito pala sya vid. Ang cute tlg ni NigaHiga :))\xef\xbb\xbf'
p494
aNaS'Haha yes\xef\xbb\xbf'
p495
aNaS"It's the black guy from Bromance +Emma Yrabbi Uh Mohammad!!!  His name is \nWayne Brady by the way.\xef\xbb\xbf"
p496
aS'No seriously this one is the perfect book end to the Harlem shake videos. \nWatch it & and tell me no\xef\xbb\xbf'
p497
aS'Crazy\xef\xbb\xbf'
p498
aNaS'*The Harlem Shake With A Very Surprising Ending!*\n\nI love it because it was unexpected!...\n=====\n#harlemshake   #funnyvideo   #waynebrady   #nigahiga   #viralvideo   #humor \n \xef\xbb\xbf'
p499
aNaNaS"Best Harlem Shake ever. And I kind of despise the Harlem Shake, so that's \nsaying something.\xef\xbb\xbf"
p500
aNaS'Want A Quick Laugh?  #joke   #joke   #funny   #tgif   #harlemshake\xef\xbb\xbf'
p501
aNaNaS'WHO LOVES RYAN HIGA?!?! (NIGA HIGA)\xef\xbb\xbf'
p502
aS'Check out this video on YouTube:\xef\xbb\xbf'
p503
aNaS"Who doesn't love that Wayne Brady? Last Harlem Shake video for this week, \npromise. Harlem Shake (Brady Bunch edition) via +YouTube \xef\xbb\xbf"
p504
aS'Twerk (Damn Auto-Correct)'
p505
aS'OMG I love Wayne Brady from whose line is it anyway'
p506
aS'This video gave me the giggles.'
p507
aS'How the heck is it racist? XD'
p508
aS'Shut the fuck up!'
p509
aS'wtf'
p510
aS'LOL'
p511
aS'Ha ha you are so funny'
p512
aS"This is for entertainment for people if you don't like it then leave or you \nwill be having 10 million people angry."
p513
aS'Funny as hell lmao'
p514
aS'Why have I not seen this one before!? I always watch your new videos! This \nwas so funny :)'
p515
aS'dear ryan can u kill justin bieber'
p516
aS'This video contains too much sexyness, Ryan AND Wayne. Nope. cant do it. I \njust cant'
p517
aS'real harlem shake rofl'
p518
aS'"Call the authorities"? Like, the Youtube police?'
p519
aS'Tatata'
p520
aS"It's obviously someone who wants attention, it's not really a parent guys."
p521
aS'What the fuck did i just watch?'
p522
aS"Nigahiga doesn't curse too much sir."
p523
aS'One day before my birthday'
p524
aS'WUT JASHDJAJS'
p525
aS'So funny!XD'
p526
aS'Wtf'
p527
aS'Brady Bunch edition...heh...heh...I see what you did there...heh...'
p528
aS"xD And it wasn't a dream either lol loved it"
p529
aS'The end of this video was amazing LOL'
p530
aS"You are one hell of an awkward parent. Ryan can act immature if he wants. \nPlus, he never curses in his youtube videos. Also, its your responsibility \nto check what you're son is watching - if you find his videos so offensive \nthat is. "
p531
aS'What the hell did I just watch'
p532
aS'Dear Ryan, can you Wop? Plz'
p533
aS'Dear Ryan can you dear Ryan'
p534
aS'Wayne Brady rocks.'
p535
aS"Dude don't twerk, stick to your regular stuff like this video here. i've \nwatching your videos since the before the sham woho video. n haven't stopped"
p536
aS'Hahaha lol'
p537
aS'Dear Ryan, can you twerk while eating dinner?'
p538
aS'Dear Ryan, Can you twerk while shi**ing in the toilet?'
p539
aS"I have like a love/hate relationship with this video. I really like your \nvideos, Ryan...but I really hate Harlem shake vids...they annoy me. Don't \nannoy me, Ryan. I want to like you. Thanks!"
p540
aS'Plot twist'
p541
aS'Oh my gosh,. Oh my gosh.... i want your marshmallow.'
p542
aS'Mind fuck'
p543
aS'Thank you ^_^'
p544
aS'Tee hee'
p545
aS'It only takes about 20 guys to flag a comment, so I think there more trolls \non the web than just 20.'
p546
aS'Dear Ryan can you twerk?'
p547
aS'Meth, Not even once.'
p548
aS'man i LOVE wayne brady!'
p549
aS'First, yeah sorry for replying that much lol. Got carried away, second- im \nnot so sure he is telling the truth...'
p550
aS'His videos always ends cool))'
p551
aS'This made me laugh sooo hard'
p552
aS'Omg'
p553
aS'Das ende ist so schrecklich:D'
p554
aS'Why did every one turn into a black guy'
p555
aS'Sort and funny'
p556
aS'Dear Ryan, can you post a really stupid video and still get alot of views \np.s I love you!!!!!'
p557
aS'Wit?'
p558
aS'Agreed.'
p559
aS'Lmao funny af'
p560
aS'WTD'
p561
aS'Dear Ryan, can you journey the world?'
p562
aS'how the actual fuck did wayne brady get ryan higa'
p563
aS"who already drank a harlem shake it's delicious "
p564
aS'Dhhdedd. Disk dm dde dde g. G god for vid dry frv d GDR verb drivers erg rh \nthyroid hrt thy. Egbert debugging t rt fg f tag fr god Gerard d try hrt hrt \ngrd did gay the yummy MGJ MGJ MJH my hg Greg rf ergs erg er Greg reg we few \nverse ewf \xc3\xaatre ef r ferret rtfg h my yummy I may not hotter free few. Erg \nhyutnnyt nth th yet thy Rutgers gtr rgt tyb YTJ thy thy YTJ hr Greg thy \nrhythm yh TYFYT yt h'
p565
aS'cant stand this shitty tune after listening to it so much a few months ago \nlol'
p566
aS'this was preety funney'
p567
aS'Ryan at his best.'
p568
aS'scene*'
p569
aS"Dear Ryan, Can u plz twerk? Let's see dat lil Asian booty go round. ;) Lol."
p570
aS"Holy shit it's Wayne Brady"
p571
aS"dude you need to monitor what your kid watches. It is not Ryan's fault that \nyour child is been acting that way. Its YOUR fault because you didn't \nmonitor your kid youtube isn't a kid site. :/"
p572
aS"Dear Ryan, PLS DON'T TWERK"
p573
aS'*gasp* '
p574
aS'Dear Ryan, why do people like n3rd53 exist?'
p575
aS'Ha ha'
p576
aS'LOL'
p577
aS'Made my day'
p578
aS'I still love this video!'
p579
aS'Lol!'
p580
aS'Dear ryan can you twerk at asian garden mall?'
p581
aS'Ryan, plz twerk'
p582
aS'Twerk! twerk! twerk! twerk! twerk! Twerk-fest!!!!!'
p583
aS'Ahahahaha'
p584
aS'Dear Ryan can you do a movie'
p585
aS'Dear Ryan can you twerk'
p586
aS'Dear ryan do soccer'
p587
aS'Dear Ryan, ca you twerk?'
p588
aS'No hes most popular video is Nice Guys Music video. Just the editing in \nthat video took 9 hours'
p589
aS'LOL this... I love it ahahah'
p590
aS'Lol'
p591
aS'Dear Ryan Dan u twerk!'
p592
aS'Dear Ryan, can you twerk?'
p593
aS'Does he REALLY know Wayne Brady?'
p594
aS'Lol'
p595
aS'Why do you guys keep on asking him to twerk, gross idiots'
p596
aS"He talked about how he was supposedly a parent, and he tells Nigahiga to \nstop making videos because he swears (lmfao), it's inappropriate (LMFAO), \nand they are stupid (LMFAOAOAOAOOAOA). Whilst he has battlefield 3 all over \nhis channels, and if you look at one of his videos, he's a child. He claims \nhis account was hacked in a later comment."
p597
aS'Dear Ryan, can you twerk like smiley Cyrus.'
p598
aS'(null)'
p599
aS"Dear Ryan do a we can't stop parody"
p600
aS'Never ever ever Twerki'
p601
aS'Dear Ryan,can you twerk?'
p602
aS'hahah still best harlem shake ever ! hahaha'
p603
aS'I seriously love Wayne Brady '
p604
aS'Yerp. :D'
p605
aS'lolol'
p606
aS"Oh no probs. But if I had a child I would've been doing the same thing. \nHave a good day sir."
p607
aS'Oh shut up. Learn to monitor what your kids watch. Nuff said Mr. \nDisappointed Parent.'
p608
aS'hahhahaaha omg hhahahah so funny uahhuhuhuhu cant help it aaaaahhoohohoho \nomg no ure fkin not u lying attention whore.'
p609
aS'What happen'
p610
aS"It means shaking your butt. Lol if he does it I'm going to die of laughter!"
p611
aS'Dear Ryan, TWERKK'
p612
aS'Hahahahaha'
p613
aS'Lawl'
p614
aS'Lol'
p615
aS'was i the only one thinking that the brady bunch would appear, not wayne \nbrady......'
p616
aS'Wyne brady took over'
p617
aS'Oh how I love you Ryan!!'
p618
aS'???.......'
p619
aS'Dear Ryan, can you make me famous on YouTube? :)'
p620
aS'I just looked on the Internet and saw that Wayne Brady and my mom are the \nsame age!'
p621
aS'lmao awesome'
p622
aS'Dear ryan, TWEEERK'
p623
aS'Twerk do it babhahhaa'
p624
aS'Dear Ryan can you twerk?'
p625
aS'um.........................ryan dosent curse'
p626
aS'Great.'
p627
aS'This one is not good. But...LOL xD'
p628
aS'Haha ^^ nice harlem shake u got there :)'
p629
aS'Dear Ryan, Can you Twerk?'
p630
aS'Dear ryan, Can You Twerk?'
p631
aS'Poor Ryan, he spends so much time and effort into his vids and and the one \nthat probably took him the least amount of time and effort to do is his \nmost popular vid :('
p632
aS'XD'
p633
aS'Dear Ryan twerk for us '
p634
aS'umm... by harlem shaking? He relpied to socknmittens:how the f*ck did you \nget wayne brady'
p635
aS'FUNNIEST VIDEO IVE EVER SEEN '
p636
aS"What did Ryan's comment say? (Please okay i'm on mobile, someone please \ntell me)"
p637
aS'Good ole wtf followed by ____ '
p638
aS'Omg, I love him'
p639
aS'what the fuck '
p640
aS'I like penis'
p641
aS'BEST VIDEO EVA'
p642
aS'you are HOT,SEXY,BEAUTIFUL,FUNNY,UNIQUE,SPECIAL,CUTE,STUPID,AMAZING. and \nthat is why i luv you'
p643
aS"That's a noon"
p644
aS'lololololololololololoololoolololololol!!!!!!!!!'
p645
aS'Tweeerrrkk'
p646
aS'ok'
p647
aS"Omg luv both yak niga's"
p648
aS"Dear ryan can u travel the world. Film edit and post it so I don't have to \npay for plane tickets. Thank you. Start off with vietnam."
p649
aS'Dear Ryan, can you twerk'
p650
aS'Ahahaaha'
p651
aS'Dear Ryan can you twerk'
p652
aS'Dear Ryan can you twerk?'
p653
aS'This made me laugh so hard!'
p654
aS'29900'
p655
aS'Butt*'
p656
aS'Hw cn a person evr giv a thumb down 2 dis'
p657
aS'Lol lol lol! xD'
p658
aS'Lol'
p659
aS'Dear Ryan can u make a small bollywood movie n mock them for copying most \nof things from other movies.'
p660
aS'rarity profile pic '
p661
aS'Ah dam! Another harlem shake! :)'
p662
aS'Haha. love it. Big fan of wayne brady!'
p663
aS'JAMES'
p664
aS'Lol'
p665
aS"That's the actual Wayne Brady, not someone dress up as him. :)"
p666
aS'This would be a nightmare for racists'
p667
aS'No \xe2\x86\x93'
p668
aS'Troooollllllll.'
p669
aS'Dear Ryan, is Ryan even your real name?'
p670
aS'Hey can you Harlem Shake LAMPS!!!!'
p671
aS'Dear ryan, can you do an epic basketball score?'
p672
aS'do NOT i BEG of you do NOT twerk!!!'
p673
aS'Totally Cool! Even the Ending!'
p674
aS'What but haha'
p675
aS'Dear Ryan..please do Pretty little liars!! ^^'
p676
aS'Dear Ryan can you twerk'
p677
aS'Funney harlem shake'
p678
aS'Dear uncle Ryan. Can u twerk'
p679
aS'Dear Ryan, can you twerk?'
p680
aS'Dear Ryan do a twerk team with Wayne Brady xD'
p681
aS'Dear Ryan can you twerk'
p682
aS'Dear ryan,do a dragonball z fake trailer'
p683
aS'Dear Ryan Twerk Twerk Twerk'
p684
aS'Dear ryan can u twerk'
p685
aS'Dear Ryan can you make a song by only using lyrics from different songs'
p686
aS'Dear ryan, can you twerk?'
p687
aS'Can u do a 5hour energy thing'
p688
aS'Teehee'
p689
aS'1337 likes! '
p690
aS'Whos wayne brady'
p691
aS'Dear Ryan can you twerk?'
p692
aS'Nono*'
p693
aS'because i have no idea'
p694
aS"You're the worst."
p695
aS'Way to late to do a harlem shake'
p696
aS'Thank you'
p697
aS'Dear Ryan can you invent the next viral trend?'
p698
aS'Dear Ryan, Why are you so amazingly perfect? P.S. Your videos are really \nfunny and they make my day better! =)'
p699
aS'we all wish so '
p700
aS"All da guys were black that's rude"
p701
aS'why would you "call authorities" because your son is acting up? that\'s your \nproblem...ma\'am.'
p702
aS'Dear Ryan, can u be a Victoria secret model?!?'
p703
aS'Best Harlem-Shake ever'
p704
aS'why did ryans comment get flag as spam'
p705
aS'Lol at the END WAS hilarious'
p706
aS'Dear Ryan, can you twerk'
p707
aS'Dat ending o.o'
p708
aS'The best harlem shake every'
p709
aS'HAHAHAHA'
p710
aS'*does lamp voice* Dear Ryan can you twerk? '
p711
aS'Love the end! XD'
p712
aS'Haha, i love Wayne Brady!!'
p713
aS"Oh that wasn't a dream. Lol"
p714
aS'Funny'
p715
aS'I wish I could like this another 10 times. '
p716
aS'Dear Ryan can you tweak?'
p717
aS'Dear ryan can you twerk?'
p718
aS'Sry bro i dont play league of legends'
p719
aS'Gay'
p720
aS"lol the guy wasn't exactly hating. just wondering how in the holy fuck he \ngot Wayne Brady into this :3"
p721
aS'Black black black black Asian Asian black'
p722
aS"Actually, Ryan almost NEVER curses. I'm probably around the same age as \nyour son and have been watching his videos for years. I don't curse often \nand my parents are told how well behaved I am by almost every adult I come \ninto contact with. Moral of the story: your son is acting up for his own \nreasons, not for the videos put up by Mr. Ryan Higa. Take responsibility \nfor his actions rather than pinning the blame on someone else."
p723
aS"I'm Wayne Brady B*#@*$"
p724
aS'Mom + Dad = a Chinese guy who can transform in to a black guy? \n...........AMAZING!!!!'
p725
aS'Dear Ryan can you Make a twerking video?'
p726
aS'Twerkkk'
p727
aS'Lol love it!!!!'
p728
aS'Lol'
p729
aS"You met Wayne' lucky :("
p730
aS'yeah sure.'
p731
aS'Wow this is orphan black magic.'
p732
aS'can you make a funny karate kid trailer my dear Ryan??'
p733
aS'@ Yuri Daki- Niga means rant in japanese and higa is his last name so it \nmeans rant higa. @Zi-Yang Zhao- He is japanese'
p734
aS"HOW'D HE GET WAYNE BRADY?!?! :O Lmao xD"
p735
aS'how the actual fuck....... WHT THE FUCK DOES THAT MEAN'
p736
aS'Can you do gangum style?'
p737
aS'Dear ryan can you be superman'
p738
aS'LOL'
p739
aS'Dear ryan, eat Sean'
p740
aS"0.0 He actually reads his comments... That's news to me xD"
p741
aS'Teehee! :D'
p742
aS'Dear ryan, can you teach how you actually make nice videos? :)'
p743
aS'Are you making a 10m subs thank you?'
p744
aS'Can I see your kid for a second? You little Shit faced Condom.'
p745
aS'Hahah'
p746
aS"I didn't think it was possible to die laughing until I watching this video"
p747
aS'Yes!!!!!!!!!!'
p748
aS"Who knows? Maybe it was hacked. Maybe it wasn't, we don't know that."
p749
aS'Oh my gosh xD Ryan, sir, can you pleeaaase tweek? cx'
p750
aS'no no noooooo!'
p751
aS'Oh.'
p752
aS'+100000000000 xDD'
p753
aS'I think if a couple of raindows raping monkeys made babies WEED have \nsomething that IS GREAT TO talk about and SMOKE but that might just be me'
p754
aS'Drinking Starbucks almost choked at the end LOL'
p755
aS"my God wayne..... HAHAHAHA that's...."
p756
aS'Haha dying because the end just happened so fast lol'
p757
aS'So? Likebots are overrated.'
p758
aS'Obvious troll'
p759
aS'Twerk'
p760
aS'Dear Ryan, can you WTF?'
p761
aS'WAYNE BRADY!!! WE LOVE YOU MAN!'
p762
aS'dont act like an asshole, shut up or ill call the authoritys on YOU lol'
p763
aS'Lol'
p764
aS'What'
p765
aS'How can u spam a YouTuber?'
p766
aS'Jajajajajajajaajajaja ur dancing is so gay jajajajajjajajajajajajaajajaja \nxD cool video xD'
p767
aS'Dear Ryan can you teach us how to cook asian style?'
p768
aS"because it's harlem shake..."
p769
aS'Teehee'
p770
aS'Haha x)'
p771
aS'Is Wayne Brady gonna have to Harlem Shake a bitch?'
p772
aS'Dear Ryan can you twerk'
p773
aS'This is amazing. Cool worming, Wayne Brady'
p774
aS'Can u twerk'
p775
aS'you dont seems mentally stable... its the internet, freedom of speech'
p776
aS'Dear Ryan, can you twerk?'
p777
aS'@Dear Ryan , can you teach me how to kill a spider without hurting its \nfeeling so that it wont take revenge being a ghost? '
p778
aS'WayneBradyCeption'
p779
aS'LOOOL xDD'
p780
aS'Yeah ...'
p781
aS'Dear Ryan, can you do a skitzo episode'
p782
aS'LOOL'
p783
aS'hey look guys a YouTube Celebrity, Hi Ryan, Bye Ryan '
p784
aS'"niga" higa? O.O'
p785
aS'Dear ryan can you twerk'
p786
aS'38 seconds of WTF'
p787
aS'Long story short can you drive a car?'
p788
aS'dear ryon do kpop pleeeeeaaaase!!!'
p789
aS'The fact that he got 7 million+ views in about 9 hours just shows how \npopular Ryan is.'
p790
aS'lol XD best harlem shake'
p791
aS'What in the world'
p792
aS'wayne brady rocks'
p793
aS'Dear ryan,can you twerk'
p794
aS'Ryan is getting funnier and funnier all the time ;-)'
p795
aS'OMG he was on how I meet ur mother!!!'
p796
aS'Hi'
p797
aS'Guc'
p798
aS'Dear Ryan can you Twerk'
p799
aS'Dear, Ryan please do Star Wars?'
p800
aS'how cute xD'
p801
aS'Like god. No one ever watches the video. Its so obvious.'
p802
aS"Your son shouldn't play battlefield 3, a disappointed youtuber"
p803
aS"He's Japanese... "
p804
aS'dear ryan can you drop it like it hot or wop or twerk'
p805
aS'Your son could be watching Smosh or a another channel that curses in mostly \nevery video. -_-'
p806
aS'TWERK!!!'
p807
aS'Wayne is so quick with his jokes, its really impressive'
p808
aS'Lol'
p809
aS'pretty%20Random'
p810
aS'WAYNE BRADY!!!!!!!!! HE IS A GREAT ACTOR. I SAW HIM ON HOW I MET YOUR \nMOTHER!'
p811
aS'wtf'
p812
aS'Dear Ryan, can u make the coolest paper airplane ever?'
p813
aS'XD lol'
p814
aS'xD'
p815
aS"You're the one acting immature.... just sayin'"
p816
aS"Before you comment, isn't it racist to call something racist just because a \nblack person is in it?"
p817
aS'Lol'
p818
aS'Thought Harlem shake died'
p819
aS'Dear Ryan can u tweak'
p820
aS'Dear Ryan, twerk'
p821
aS"i've seen one of pewdipie with 7000"
p822
aS'Andy rice, why do you post the same comment ten times a day?!'
p823
aS'Dear Ryan can you twerk'
p824
aS'Lol'
p825
aS'They are friends. have u not seen wayne brady in his other videos.. \nseriously?'
p826
aS'dear Ryan how fast can you run, can you have a race?'
p827
aS'Dear Ryan, can you do a video of how to be cool?'
p828
aS'Ahahahahaha:D do more and feature d-trix as you:))'
p829
aS"I'm done."
p830
aS'Lol'
p831
aS'dear Ryan can u be Adventure Time :) :)'
p832
aS'I love Wayne Brady so much more now...'
p833
aS'Dear ryan can you be a kpop star?'
p834
aS'wtf asian guy terned to be a black guy !!!!'
p835
aS'Dear Ryan can you make an actual Naruto movie?'
p836
aS'Dear Ryan, can you be the Avatar?'
p837
aS'The bobble head thou hahah'
p838
aS'LOL, not the Brady Bunch I was expecting which made it all the more awesome.'
p839
aS'I ment 226,224 now sorry'
p840
aS'\xeb\xb3\x91\xeb\xa7\x9b\xe3\x85\x8b\xe3\x85\x8b\xe3\x85\x8b\xe3\x85\x8b\xe3\x85\x8b\xe3\x85\x8b\xe3\x85\x8b'
p841
aS'you make the funniest videos!!'
p842
aS'But cats are evil, dogs are good. Havent you watched cats and dogs?'
p843
aS'Im wayne brady from your tv screen do i have to choke a bitch now do u \nbelieve'
p844
aS'Deaf Ryan can you twerk with Wayne Brady :D'
p845
aS'Dea Ryan Can you do a magic trick'
p846
aS'My Crazy Joe character would have been perfect for this.'
p847
aS'Dear ryan, can you twerk'
p848
aS'Dear Ryan Miley Cyrus parody'
p849
aS'dear ryan, can u be an indian? '
p850
aS'TeeHee'
p851
aS'RYAN THERE IS A GIANT MARSHMALLOW IN YOUR HOUSE ... COOLIO'
p852
aS'Lol wit?'
p853
aS'Maybe if you improve your grammar and come back I will greet you too!!!'
p854
aS"Lol it's Barney's brother"
p855
aS'i love ryan higa so much'
p856
aS'See. This shows that Ryan is not racist. To: all the haters that say he is.'
p857
aS'Lol'
p858
aS'Hahaha.......that was cool.'
p859
aS'Dear Ryan can u twerk'
p860
aS'I already start to laugh at 0:5 =X'
p861
aS'dear ryan could you know what will happen if you became the president of \nthe USA'
p862
aS'How did you get Wayne Brady on there? o_o'
p863
aS'Teehee'
p864
aS"I wasn't racist you just seeing Wayne Brady black. And saying its racist"
p865
aS'Wut?'
p866
aS'Ummmm.... vvvvvv stop letting him watch the videos then? Gosh. I mean \nreally call the authorities?what kinda parent are you.'
p867
aS'What the heck!'
p868
aS'hello'
p869
aS'Dear ryan zzz can u make a movie of twerk!!!!!????? Ps i love your videos'
p870
aS'Dear Ryan can you twerk'
p871
aS'hii'
p872
aS":D HI RYAN! HI! I'm sorry."
p873
aS'Sear Ryan can you get 10 million subs'
p874
aS'Wow, when did Ryan reach 10,000,000 subs?'
p875
aS'lol your funny'
p876
aS'Lol'
p877
aS'10 million subs wow'
p878
aS'no'
p879
aS'jajajaja XD '
p880
aS'lol'
p881
aS'xD'
p882
aS"Don't know why I said was you LOL"
p883
aS'LOL they all turn black'
p884
aS'Lmao'
p885
aS'I waited a whole week for this'
p886
aS'Lol'
p887
aS'LOL'
p888
aS'haha xD'
p889
aS"Just letting you know this was made months ago, and if you really thought \nthat was you wouldn't be watching this"
p890
aS'Funny as hell lol'
p891
aS'How u do that'
p892
aS'Wtf'
p893
aS'Dear Ryan, can you quick change into many different cosplays and do a skit \nall in them?'
p894
aS'please reply i love you so much'
p895
aS'Racist ._.'
p896
aS'AHHHH NO MOREE'
p897
aS'Ryan doing a Brady bunch video is wuddup'
p898
aS'Twerk'
p899
aS'Dear ryan can u comment me'
p900
aS'Omg wow'
p901
aS'Lol'
p902
aS'Twerk'
p903
aS'Lol so much dear ryan can u twerk'
p904
aS'Dear Ryan, can you twerk'
p905
aS'Love it'
p906
aS'dafuq is this '
p907
aS"I've seen a comment with around 5000 likes and a load of 3000 on the same \npage."
p908
aS'Gf'
p909
aS'Dear Ryan can you read the definition of twerk then twerk?'
p910
aS'This one was dumb.'
p911
aS'0:20 dude you make me cry lol'
p912
aS'Dear rayan can u terwk'
p913
aS'????? But it was funny'
p914
aS'Dear Ryan can you tweak'
p915
aS'Dear Ryan, can you twerk?'
p916
aS'Big American comedian, find him on such shows as How I met your mother, \nwhos line is it anyway (which was huge in the 90s and early 2000s), he had \nhis own daytime talkshow it was very similar to Ellen and won an award its \nfirst year running. He hosted a game show (the one where the contestants \nsang lyrics from songs, cant remember what it\\s called. He pretty awesome, \nvery funny.'
p917
aS'Still the best Harlem Shake video ever.'
p918
aS'Can u tweak'
p919
aS'Is Wayne Brady gonna have to choke a bitch?!'
p920
aS"But serously, how did you get all the Wayne Brady's when theres only...oh.. \nthe 'brady' bunch. "
p921
aS'From 16 to 17 the paper by his foot slide across the ground WTF'
p922
aS'The Harlem shake is done and over with...this vid is out of date'
p923
aS'Wtf is that !!!!!'
p924
aS'Hi ryan!!!!!!! Tee Hee'
p925
aS'TeeHee THUMBS UP IF IN 2013 :P '
p926
aS'I love you ;)'
p927
aS'Lol'
p928
aS'Heeble jeeble! Blocka deepo ishub laka lake? Bleepey opoe gusdy vacoe! XD \nsuheedo paloosh defarbe! :D'
p929
aS"Glob! Wayne Brady!!!! Awesome video! Can't stop laughing!"
p930
aS'Great! <3'
p931
aS'Ryan can you do a twerk please with all your firiends?'
p932
aS'nice '
p933
aS'ofc he can die everyone can die none of us are immortal'
p934
aS'LOL'
p935
aS'Dear ryan, can you get girls?'
p936
aS'heyyyyy '
p937
aS'im confused'
p938
aS'Omg Wayne Brady'
p939
aS"Doesn't he work with YOMYOMF? "
p940
aS'Yea'
p941
aS'Dafuq'
p942
aS'How the fi'
p943
aS'....There are no words'
p944
aS'Plz twerk'
p945
aS'Can you twerk plz??'
p946
aS'Dear Ryan Can you remove the Dear Ryan spam comments? xD'
p947
aS'Dear Ryan.....Sweet dreams:) Sweet Nightmares.'
p948
aS'Great video Ryan!'
p949
aS'Thanks eh'
p950
aS'I literally read this in your voice.'
p951
aS'Lol'
p952
aS'Dang this is still funny... HA...'
p953
aS'Dear Ryan can you rob a cop'
p954
aS'Ryan gave more subcribers than views in most of his videos'
p955
aS'Dear Ryan, can you make a hamburger a beautiful thing?'
p956
aS"Best harlem shake ever. 'nuff said "
p957
aS'Dear Ryan can u twerk'
p958
aS'I mean comments XD'
p959
aS'Dear Ryan, clearly we all want you to twerk'
p960
aS'Wtf did I just watch?'
p961
aS'What'
p962
aS'Dear Ryan can you kiss your elbow?'
p963
aS'How did u make multiple people'
p964
aS'Lol'
p965
aS'Haha best Harlem shake eva! XD'
p966
aS'Yeah'
p967
aS"I've probably seen this a bajillion times...but it is literally the best \nHarlem Shake out there!"
p968
aS'Omg'
p969
aS"Awesome! I'm so late though xD"
p970
aS'Dear Ryan can you tweak'
p971
aS'Can u do a all about you video? #dearryan'
p972
aS'MUST DESTORY VIDEO AHHGHHGKDO'
p973
aS"In the harlem shake part, how did you do so many splilt screen's?"
p974
aS'youtube.com/watch?v=UlhGgNlmlU0 C: '
p975
aS'Hey Ryan you replied!! Hi HAAAAIIIII!!! xD'
p976
aS'Ryan commented :)!!'
p977
aS'O.o like a mating call? lol'
p978
aS'Best harlem shake :)'
p979
aS'also teehee '
p980
aS'N still love it'
p981
aS'oh look, i found my comment that Ryan replied to 6 months ago ! *happy \ndances*'
p982
aS'so funny '
p983
aS'i failed you '
p984
aS'Hahaha!! Loved it!'
p985
aS'Best Harlem shake ever'
p986
aS'this was worth loggin in for'
p987
aS"You're awesome because you reply comments"
p988
aS'I need mor videos D:'
p989
aS'XD'
p990
aS'I love Wayne Brady!'
p991
aS'Magazine at 0:15'
p992
aS'WHAAAAAAAAAAT? #loves'
p993
aS'and now all he needs is troy and abed and i will be happy.'
p994
aS'OMG I LAUGHED SK HARD XD'
p995
aS'Sup ryan'
p996
aS'The people are demanding you twerk, Sir Ryan.'
p997
aS'second best reply i ever seen. next to "hold your head high but hold your \nmiddle finger higher"'
p998
aS'Umm'
p999
aS'by being cool like that'
p1000
aS'Dear Ryan, can you twerk?'
p1001
aS'lol... the ending is always the best'
p1002
aS'xDD'
p1003
aS"Lmfao there's still comments going on including mine "
p1004
aS'I get it'
p1005
aS"You're like 9 years old. You know what I had when I was 9? A Gameboy, not \nan iPhone. I also got beat if I used that language. Don't be on the \ninternet without parent's permission."
p1006
aS"Hey it's Barney's gay brother James"
p1007
aS'His most popular video is Nice Guys'
p1008
aS'Dear Ryan can you twerk'
p1009
aS'Dear Ryan, can you be a purple roasted chicken riding on a giant yet small \nelephant that eats your favourite candy every day while you eat a bag of \nmarshmallows the size of the sun with so much sugar in them you explode \ninto tiny flying bears that get eaten by a giant ant'
p1010
aS'It looks like Ryan just woke up at 6:00am in the morning'
p1011
aS'FUCK'
p1012
aS'Dear Ryan twerk'
p1013
aS'Wat!! ROFL XDXD'
p1014
aS'Old'
p1015
aS'I loved ryan ever sence i was a kid'
p1016
aS'XD'
p1017
aS'LOL! This. Was. Hilarious!'
p1018
aS'Dear ryan can u twerk!! 8D'
p1019
aS'I love Wayn Brady'
p1020
aS'Dear Ryan, can you tweak? '
p1021
aS"Corse not! I love his videos. Just want to know if he's immortal, you know, \nasians,,,,"
p1022
aS'How u do that'
p1023
aS"I really don't get it"
p1024
aS"To REALLY AWESOME people in the same video that's rare.........but not on \nRyan's videos 3"
p1025
aS'That was funny'
p1026
aS'A Candy man :3'
p1027
aS'dam! i soooooo jelous i wanna be freinds with wayne brady. i used to watch \nhim on whose line is it anyway. i love ya wayne :D'
p1028
aS'Fucking Rhianna sextape comments..'
p1029
aS"OH SHIT, IT'S WAYNE BRADY SON!!!!"
p1030
aS'Wtf/lol/lol/lmfao/omg'
p1031
aS'I love how corny yet original yet hilarious you are'
p1032
aS'Dear Ryan, can you be lord vader?'
p1033
aS'chicken'
p1034
aS'dear ryan, can you do the gentleman'
p1035
aS'omg how did you get Wayne Brady to be in ur vid? lol hilarious'
p1036
aS'end TEEHEE'
p1037
aS'Wayneception'
p1038
aS'Damn'
p1039
aS'because Dave Chappelle is unemployed. '
p1040
aS'Those gasps XD'
p1041
aS"OH MY JESUS! I'M GOING TO BURST WITH INNER SUNLIGHT-LIKE-WARMTH THAT I \nMENTIONED IN A LONG COMMENT ON YOUR HANDSHAKE SONG VIDEO. I feel like an \noverstuffed bag of popcorn in the microwave, every laugh is a burst kernel, \nexpanding my insides to a full grown bag until the bag can no longer \ncontain its contents. You, RyanHiga, are the microwaves, and YouTube is the \nmicrowave oven. Dear Ryan, can you realize my metaphor into a video? "
p1042
aS'Yaaaaaaa meeee'
p1043
aS"Tate. I'd love to fire a sawn-off shell into your head but I'm being nice \nand giving you a warning. Don't fuck around you clumsy virgin idiot. I \nthink I've made myself clear."
p1044
aS"you FOOL!! HAHAHHAAHAH you're lucky i love you "
p1045
aS'He makes the most annoying videos hilarious'
p1046
aS'Very credible from someone who post trolling video on the web and who act \nlike a kid'
p1047
aS'that wasnt a dream.....aaaa!! SO FUNNY!!! '
p1048
aS'Awsomee'
p1049
aS"Lol that's hilarious"
p1050
aS"Funny X'D"
p1051
aS'Why is this comment flagged as spam??'
p1052
aS'Dear Ryan can you tweak;-;'
p1053
aS'dear ryan can you twerk'
p1054
aS'Interesting view on turning into someone...'
p1055
aS"that's freaking awesome,I Laughed So Loud XD"
p1056
aS'ryan, are u chinese?'
p1057
aS'rainbowdash'
p1058
aS'Lol'
p1059
aS'{:'
p1060
aS'XD'
p1061
aS'Dear ryan can you make a spoof of hunger games'
p1062
aS'Da fuq...brady and ryan and...black!!!!'
p1063
aS'check out my awesome channel bros!!'
p1064
aS"Harlem shake is shoooo last year go check out 'joget caesar' that's the \nbest dance evaaaah"
p1065
aS'*dear'
p1066
aS"This was sooo funny :) how did you do it!? :D you're great!"
p1067
aS'Fear ryan can you twerk?'
p1068
aS'You would be such an awesome guest on Whose Line Is It Anyways?, Ryan :)'
p1069
aS'Lol hahahaha'
p1070
aS'Ha'
p1071
aS'Wow!!!!! Cooooool'
p1072
aS'hahahahaha'
p1073
aS'Are these the same guy?'
p1074
aS'Loooooool'
p1075
aS'Stop fucking posting about Rihanna tape stfu'
p1076
aS'Whos WANE BRADY LMFOAOFLK NO NO YEAH IM NOT SOI GOOD WITH THIS'
p1077
aS'boss '
p1078
aS'You can continue.'
p1079
aS'How the fuq u get Wayne Brady to be in ur video :O'
p1080
aS'Waaaaat'
p1081
aS'Lmao'
p1082
aS'Mind blown'
p1083
aS'Harlem bark watch?v=IYzV8Q6EUks'
p1084
aS'Lol'
p1085
aS'Lol'
p1086
aS'if thats ur house u must b making pretty serious cash!!!!!!!!!'
p1087
aS'How the fuck did you get Wayne Brady to do White Style Harlem shake.'
p1088
aS'Sofia flores i Love the hrmin shak!!!!'
p1089
aS'Wayne from whose line? Hes awesome'
p1090
aS'dominic( ryans friend) was on so you think you can dance and wayne brady \nwas a choreographer and judge. soooooo dominic probly set it up:)'
p1091
aS'you got a nice apartment'
p1092
aS"Right to left: The fish, random walking in the background, beat the hell \noutta fish, egypt to idk, kneck broke, the shakes, and the block multiple \nattackers on the ground... I'd just do the reverse moonwalk while taking a \nshot lls! This was prime comedy to say the least, thumbs up"
p1093
aS'Haha Wayne Brady'
p1094
aS'Darn you for making this so beautifully short!'
p1095
aS'ARE YOU GUYS HAPPY NOW'
p1096
aS'That is not awkward.'
p1097
aS'0:15 I was like hey thats not Ryan...'
p1098
aS'Favorite harlem shake ever.'
p1099
aS'Hahahahahaha nice one'
p1100
aS'o_o wow'
p1101
aS'Dear Ryan can you twerk'
p1102
aS'Lol good stuff'
p1103
aS'Funny.'
p1104
aS'lol '
p1105
aS'says the guy who plays battlefield 3 all over his channel.'
p1106
aS'Love it!!!'
p1107
aS'make me laugh all the time keep up the good work'
p1108
aS'Fuck you'
p1109
aS'"Is Wayne Brady gunna have to choke a bitch?"'
p1110
aS'Ik how to do the effect of a lot of people'
p1111
aS'Teehee'
p1112
aS'Hahahahaha'
p1113
aS'Dear ryan can you twerk?'
p1114
aS'Lol'
p1115
aS'Lmfao'
p1116
aS'Dear Ryan, you should do a makeup tutorial for how to look like snooki!'
p1117
aS'Thank you ^_^'
p1118
aS'If he would have moved his arm 45\xe1\xb5\x92 to the left at 0:11, he would have ended \nup with naked men rubbing themselves with turkey sandwiches. The harlem \nshake is like the fusion dance, one little slip-up can create a drastic \ndifference.'
p1119
aS"You're so right and for that you have my apologies."
p1120
aS'Ryan Higa should be a guest on Whose Line Is It Anyway.'
p1121
aS"i was expecting a harlem shake like pewdiepie's "
p1122
aS'nice try dude XD'
p1123
aS'Oh the BRADY bunch not the brady bunch :o'
p1124
aS'btw im not a dude so shut your trap'
p1125
aS'Dear Ryan can you make a troll scene'
p1126
aS'loll '
p1127
aS'that was five....'
p1128
aS'nigahiga! '
p1129
aS'How the HECK can someone like 2 thousand dislike IT'
p1130
aS'ENDING :DDDDDDDD'
p1131
aS'Haha,lol'
p1132
aS'Los espo\xc3\xb1oles molannn'
p1133
aS'cloners'
p1134
aS'Dear ryan can you be a girl'
p1135
aS'Dear Ryan can you make a troll scene'
p1136
aS'THAT BRADY!!'
p1137
aS"Lol when it said Brady Bunch I didn't think it meant Wayne Brady"
p1138
aS'Wow that was hilarious!!'
p1139
aS'Dear ryan, i have been trying to contact brady to do a show ( my mum sent \nhim an email) how did you get him'
p1140
aS'Dear Ryan, can you do a video about traveling?'
p1141
aS'LOL'
p1142
aS'Awww I love Wayne Brady!!! Especially on whose line is it anyways!'
p1143
aS'Yomyomf.'
p1144
aS'Who else thought of Whose Line when they saw Wayne!'
p1145
aS'wow that was awsome and crazy just like pewds harlem shake, great job'
p1146
aS'what the hell XD'
p1147
aS'WAYNE BRADY<3'
p1148
aS'seriously.. they all look disame...'
p1149
aS'RACIST!!!!!'
p1150
aS'Dear Ryan, Can you drop that thun thun thun???'
p1151
aS'Cool.'
p1152
aS'Dear Ryan can you twerk ?'
p1153
aS'O-O'
p1154
aS'Dear Ryan what does the fox say'
p1155
aS'That was five. Should I continue or do you got dis? :o'
p1156
aS'That was perfect'
p1157
aS'Dear Ryan, I approve this comment.'
p1158
aS'Dear Ryan, Can you be Hello Kitty? *-*'
p1159
aS'Dear Ryan could you troll with the developers of YouTube?'
p1160
aS'dear Ryan, can you teach us how to twerk? '
p1161
aS'teehee '
p1162
aS'dear ryan, can you twerk please? '
p1163
aS'Dear Ryan, can you tweak'
p1164
aS'Ryan comnented _'
p1165
aS'What does twerk mean?'
p1166
aS'Kool'
p1167
aS'Lolololol'
p1168
aS"Are you sure you're commenting on the right video? Because I'm pretty sure \nRyan beeps out the curse words in his videos."
p1169
aS'seriously?//??///?///? '
p1170
aS'Hilarious'
p1171
aS"So much epic I can't even"
p1172
aS'wayneception'
p1173
aS"I wish they put all the seasons on dvd. I'd buy it! "
p1174
aS'Lol'
p1175
aS'TEEHEE'
p1176
aS'Never gets old :D'
p1177
aS'fgdgyggdgv'
p1178
aS"it's wayne brady, b*tch!"
p1179
aS'GO DAMN IT I WAS GONNA POST THAT in the background I hear you going teehee '
p1180
aS':D Cool! Do Wayne Brady and Ryan Higa actually know each other?'
p1181
aS'what the '
p1182
aS"There's a revival on tv now and he's back in it."
p1183
aS'awesome ! '
p1184
aS'Hilarious'
p1185
aS'Wayne Bradys from whos line is it anyway'
p1186
aS'Dear Ryan, can you.... candid yourself with a can... '
p1187
aS'do thrift shop!!!!!!!!!!! PLEASE!!!'
p1188
aS'Lol'
p1189
aS'Teehee'
p1190
aS'Wayne Brady makes Bryant Gumbel look like Malcolm X '
p1191
aS'ahhaha'
p1192
aS'dafuq '
p1193
aS'hmmmm funny'
p1194
aS'Did anybody notice him dancing in the background xD'
p1195
aS'WAYNE BRADY!!!!!!! HE IS HILARIOUs!!!!!!!!! WHOSE LINE IS IT ANYWAY!! Am I \nthe only person who still watched it'
p1196
aS'So old...'
p1197
aS'BLACK!!!!!!!!!!!!!!! '
p1198
aS'^^'
p1199
aS'On the beginning Ryan should have top raving lol'
p1200
aS'your the best Ryan!'
p1201
aS'thats only 5 questions'
p1202
aS'wow'
p1203
aS'DEAR RYAN, CAN YOU TWERK FOR US!!!???'
p1204
aS'Make more YouTube videos'
p1205
aS'Dear Ryan can you play mc ?'
p1206
aS"This was back in February. You should read what's written under the video."
p1207
aS'Dear ryan, can you twerk'
p1208
aS'Us lamps like the Harlem shake!!=)'
p1209
aS'your dance moves were funny'
p1210
aS'What kind of sorcery is this'
p1211
aS'One of the very few harlem shake videos I really enjoyed'
p1212
aS'Awsome! '
p1213
aS'>_< OMG EPIC!'
p1214
aS'Is it just me or did everybody just return black...'
p1215
aS'OMG Ryan turned black no affence to black ppl'
p1216
aS'Dear Ryan, can u do the flop?'
p1217
aS"Why is his name nigahiga he's asian not black"
p1218
aS'RYAN OMG YOUR DANCE IN THEBEGINNING OWW >>>>'
p1219
aS'it was racist because there was no asians...jk'
p1220
aS'shut up'
p1221
aS"Listen, I know you guys won't believe this, but I just redeemed a $50 PSN \ncode from this h tt p:// Ge tPS N.com website! I was skeptical at first, \nbut the site was pretty smooth! Now give it a try and thank me later! Have \na nice day!"
p1222
aS'BEST HARLEM SHAKE EVER.'
p1223
aS'lmao '
p1224
aS'i enjoyed that '
p1225
aS'XD'
p1226
aS'Lol'
p1227
aS'I find it amusing when people say they are not trying to be something, or \nnot being something, and then be that something. Of course, this would only \napply to you if you had said that there were TOO many black... whatever \nthat last part was.'
p1228
aS'Wayne Beady is super popular on YouTube now...'
p1229
aS'OMG LOL'
p1230
aS'Lol'
p1231
aS'Try less.'
p1232
aS'Lolz'
p1233
aS'I just fucking lost it. '
p1234
aS"I love Wayne Brady from let's make a deal"
p1235
aS"And that's a problem because...?"
p1236
aS"thought i saw him jerking off o.o'"
p1237
aS'Omg sooooooooo beeping funny'
p1238
aS'best harlem shake... '
p1239
aS'LMFAO'
p1240
aS'One of the best harlem shake'
p1241
aS'Dear Ryan can you have a lightsaber fight with little lamp'
p1242
aS'Dear Ryan can you ban knott'
p1243
aS'THUMBS UP IF WAYN BREADY WATCHES'
p1244
aS'This is the best Harlem shake out there!'
p1245
aS'38 seconds = 7,000,000 veiws'
p1246
aS'Maybe he means the dance that Ryan did at beginning'
p1247
aS'oh my god ...........'
p1248
aS'Like how he likes it shaken not stird'
p1249
aS'Dear Ryan, can you twerk, but do it dressed as a girl and make your but \nlook big with balloons'
p1250
aS'hi '
p1251
aS'Awesome!'
p1252
aS"I did the harlem shake and wayne brady didn't show up...but a lamp did :)"
p1253
aS'Dear ryan can u be a chef'
p1254
aS'Lol'
p1255
aS'Dear Ryan, can you reenact the you shall not pass seen? :D'
p1256
aS"Another one of you guys. Listen, if you don't like this get your son out of \nyoutube, or at least in this part of youtube. He hardly even curses. I \nwould make this longer, but I don't want to explain it all."
p1257
aS'Dear Ryan Can u do a complicated video like the next Internet trend about \nwhat the fox says'
p1258
aS'Dear ryan, can you twerk?'
p1259
aS"This isn't racist"
p1260
aS'Literally the best harlem shake video in the world and Wayne Brady is the \nbest ever'
p1261
aS'Funniest harlem shake EVER!!!!'
p1262
aS"#1: If you don't like your son watching these videos, DON'T LET HIM WATCH \nTHES VIDEOS! #2: You picked a heck of a tame video to be saying this is \nmaking some kid act bad. #3: A normal person shouldn't be influenced THAT \nmuch by largely harmless videos like this."
p1263
aS'He knows somebody who knows somebody who knows somebody...Fawk this shit.'
p1264
aS'i like how wayne jumped on his butt'
p1265
aS'You mean, Sincerely, an irresponsible parent? Makes more sense to me.'
p1266
aS'NigaHiga my favourite YouTuber, How I Met Your Mother my favourite TV show, \nWayne Brady part of both now my favourite celebrity, Wayne Brady you ledge'
p1267
aS'Teehee'
p1268
aS'Dear ryan can you twerk'
p1269
aS'DO THE FUCKING HARLEM SHAKE YEAAAAAAHHHH'
p1270
aS'Lol'
p1271
aS'Omfg Wayne Brady xD'
p1272
aS'WTF!!'
p1273
aS'And yes that is actually Wayne brady he was also in bromance as well'
p1274
aS'I think I just died...'
p1275
aS'LOL c:'
p1276
aS'Shut up Meg.'
p1277
aS'Lol'
p1278
aS'OMG so racist xDD'
p1279
aS'can you do an agents of secrect stuff 2'
p1280
aS'MAPOTI'
p1281
aS"It's so funny but the beginning wuz kind of weird. No a fence nigahiga \nlovers. "
p1282
aS'What just happened?'
p1283
aS'Hell yeah niggas well ok\xc3\xa9 aim a white person but that doesent say something.'
p1284
aS'Wtf happened'
p1285
aS':-| Uh...'
p1286
aS'The beggining is the most weird '
p1287
aS'thumbs up of your watching this in 2013'
p1288
aS'Wayne is awesome :)) '
p1289
aS'This made me so happy I could pee'
p1290
aS'LOL'
p1291
aS'racist '
p1292
aS'Weird'
p1293
aS'Heh'
p1294
aS'Dear Ryan, could you twerk?'
p1295
aS'Hei Ryan, do kpop please...'
p1296
aS'lolllllllllllllll!!!!!!!!!!!!!!!!! '
p1297
aS'Dear Ryan , are you a god'
p1298
aS'Dear ryan can you twerk'
p1299
aS'y it no work oh and hi teehee'
p1300
aS'Double-tripple whammy on this - nice! ;-)'
p1301
aS'its 1 guy lol its a copy of him placed in the video while he dance '
p1302
aS'Dear Ryan, can you be an NFL player?'
p1303
aS"Dear Ryan, can you teach us how to twerk? Even if we'll all have nightmares \nfor weeks afterward?"
p1304
aS'Harlem Shake (Brady Bunch Edition)'
p1305
aS'Ok ?'
p1306
aS'This made me laugh too hard omg'
p1307
aS'Haha,cool one ryan!! XD'
p1308
aS'Dear ryan one piece'
p1309
aS'Haaah'
p1310
aS'Lol'
p1311
aS'Dear Ryan, Why is everyone asking if you can twerk?'
p1312
aS'Twerk'
p1313
aS'Dear ryan tWERK Itt!!!!!!'
p1314
aS'Uhhhhhhhhhhh... lol '
p1315
aS"no its a house I don't think any one would live under a rock "
p1316
aS'wtf is your problem?? '
p1317
aS'Lmfao'
p1318
aS'Wtf? What is wrong with people? Why would someone dislike this video? Its \nawesome!!'
p1319
aS"Did your mommy leave you or somthing? :( Don't worry i'm sure its not \nbecause nobody likes obvious trolls...."
p1320
aS'I love the teehee endings'
p1321
aS'LOLOLOLOLOLOLOLOLOL'
p1322
aS'Haha Wtf'
p1323
aS'No its not stfu kid'
p1324
aS'I love the twists u cum up with! XD tehe'
p1325
aS'Rasis'
p1326
aS'Haha lol'
p1327
aS'More gangnamstyle'
p1328
aS'ok then weird'
p1329
aS'The ending was hilarious!'
p1330
aS'haha nice!'
p1331
aS'That awkward moment when your a dancing and then you turn into Wayne \nBrady.....'
p1332
aS'I get it'
p1333
aS'Is that actually Wayne Brady?!'
p1334
aS'dear ryan are you jason borne'
p1335
aS'This is racist'
p1336
aS'I loved this v XD'
p1337
aS'you need to go to a therapist..'
p1338
aS'2,000 dislikes and 20,000 likes'
p1339
aS'lmfao BEST HARLEM SHAKE EVER!!!!!! ="-"='
p1340
aS'Great spelling bro ;D'
p1341
aS'awesome you got to do a video with wayne brady! :)'
p1342
aS'Gasp!'
p1343
aS'simply great. cant come of out the reality of getting a iphone for doing \nsome questionnaire :) . its not a joke, make sure you tell the address and \nemail properly to send the giftbox. rush it here : bit.ly/151RqmG?=ihvsug'
p1344
aS'Cool'
p1345
aS'how? '
p1346
aS'Dear Ryan, Can You Be A Wrestler For An Entire Day '
p1347
aS'Said the one called "n3rd53" ...'
p1348
aS"dear ryan ur in ur 20's but u look like a teen"
p1349
aS'And is he doing the carltob'
p1350
aS'Can you give a link for the vid then ?'
p1351
aS'Dear ryan, TWERK :)'
p1352
aS"I've seen one with like 10,000 no joke"
p1353
aS'Cool Wayne Brady came in your video! :D'
p1354
aS'You realize there is an old popular TV show called the Brady Bunch?'
p1355
aS'I fucking love the ending'
p1356
aS'LJGIHBWKEABSVFHWKLA IAWRF WEFAHGSIDFSKJ32QWES D 4EW D REPLYREW \nABSFDIUGTSTYOTSD TTHSI TSTUPID COEMMMEEENT'
p1357
aS'Lolololollolololool come to my house!'
p1358
aS'Hahahahahahahahahahahahahahahahahaha'
p1359
aS'probly by getting a friend that is a black person ( sorry if racist ) to \ndress up like him. '
p1360
aS'pure awesomeness, thats what'
p1361
aS'Come on, why do you blame Ryan for just being him? have you ever asked \nyourself if how good did you actually reared your child?? Blaming it to \nothers makes you more immature than what you think he is.'
p1362
aS'This isn\'t what I expected when I read "Brady Bunch" :\')'
p1363
aS'congrats on 10,000,000 ryan!'
p1364
aS'Very original.'
p1365
aS'Who was person in the background during the dance, the person in the dark \nhall'
p1366
aS'random'
p1367
aS"I can't believe you got Wayne Brady to do a video with you, he is so \nflippin' awesome. He is one of my all-time favorite actors. So cool!"
p1368
aS'Who the hell is that?'
p1369
aS'no its wayne brady'
p1370
aS'Reverse michal jalckson from white to black'
p1371
aS"isn't the front black guy barney's gay brother. :D"
p1372
aS'Hey I found a dime! (Like Whore)'
p1373
aS'Do gentlemen'
p1374
aS'any1 else confused?'
p1375
aS'epic'
p1376
aS'i showed up late as shit to this channel- subscribe '
p1377
aS"I thot i knew this guy form somewhere... -Barney's partner!!!!"
p1378
aS'Best Harlem shake ever'
p1379
aS'cool '
p1380
aS'SPAM'
p1381
aS'gangnam style? '
p1382
aS'Im Asian too'
p1383
aS"this is the sECOND TIME RYAN HAS INCEPTION'D ME OMFg"
p1384
aS'Lol'
p1385
aS'Aww, Hell naw.'
p1386
aS'Crap..Not its the best harlem shake ever'
p1387
aS'he knows wayne brady? faf! :D'
p1388
aS'Your dance reminds me of Napoleon dynamite.'
p1389
aS'I love the suprise, funny'
p1390
aS'Wow. From Goku himself... What an honor.'
p1391
aS'XD lol it was like 2 secs of gangnam style :P'
p1392
aS'wat that was good'
p1393
aS'Ryan, your dance in the beginning'
p1394
aS'Omg they turned black!'
p1395
aS"it'd be even more awesome if ryan got colin mochrie, drew carey and ryan \nstiles to do the harlem shake with wayne.... then it'd become the whose \nline edition :D"
p1396
aS'oh my god Wayne Brady!!!!'
p1397
aS'Funny Ryan \xe2\x99\xa1\xe2\x99\xa1\xe2\x99\xa1'
p1398
aS'WAYNE!!! :D'
p1399
aS'Ijkokoko,I,I,I,ookokok,kkkmkkmmkkk,kkkmkkmmkkk'
p1400
aS'You are one funny niga....higa'
p1401
aS'NIGGA DAFUQ '
p1402
aS'lol......'
p1403
aS'hahahahhaha this is so FUNNY '
p1404
aS'TEEHEE'
p1405
aS'I love you too Ryan I have seen every single one of ur vids and I have been \nsubscribed since day one'
p1406
aS'Ocward'
p1407
aS'LololololololololoL!'
p1408
aS'Lol'
p1409
aS'Brilliant)'
p1410
aS'This is so funny'
p1411
aS'Hahahahahaha'
p1412
aS'UGH. Im sorry man. I clicked to fast and down voted your post. 10,000 up \nvotes now :D '
p1413
aS'U gotta say it right! Or he cant take a pic of it! Its: Dear Ryan, because \nam being original and not copying, can u make a funny Karate Kid trailer?'
p1414
aS'THAT WAS WAYNE BRADY THAT WAS ACTUALLY WAYNE BRADY OMG'
p1415
aS"Oh. I was wondering why that happened. It was all a dream. Wait. IT'S NOT?"
p1416
aS"And that's what I call a bunch of Brady bunch..."
p1417
aS'the ending was fucking hilarious '
p1418
aS'that was funny tho '
p1419
aS'Black crime.'
p1420
aS'At first i was like damn "that guy in the front looks like wayne brady" i \nwas proved right!'
p1421
aS'Wayne Brady !!!'
p1422
aS'Rock paper sciccors lizard Spock'
p1423
aS'Dear god a bunch of black guy in a random house... oh wait thats actually \nnormal where i live '
p1424
aS'Wayne Brady!!!'
p1425
aS'Omg the one on the couch!'
p1426
aS'Um... =/'
p1427
aS'LOL'
p1428
aS'Funny stuff Ryan'
p1429
aS'dafuq?'
p1430
aS'LMAO'
p1431
aS'love u niga higa'
p1432
aS'Lovet neger'
p1433
aS'....Cool....'
p1434
aS'How many 999 Quadtrillion XD P.S lets make 2 babies LOL @(*_*)@ KOALA'
p1435
aS'Is Wayne Brady going to have to SHAKE a bitch?'
p1436
aS'Dear Ryan, can you be an epic gamer'
p1437
aS' reply button.'
p1438
aS'Funny'
p1439
aS'LOL!!!!!!!!!!'
p1440
aS'Wayne <3'
p1441
aS"The one Harlem shake I've actually liked"
p1442
aS"Ryan's videos are mostly clean and very clever. Most other guys out there \nswear all the time and are cheap. I would recommend Ryan. Way to go bro.... \n(y)"
p1443
aS'Dear Ryan, can you twerk?'
p1444
aS'That was funny'
p1445
aS'wtf best of vine plzz'
p1446
aS'I love Wayne Brady!!!'
p1447
aS'Aaaaaaaahaaaahahahah!!!!Arabs and Niggas'
p1448
aS'Who would dislike this? Haters gonna hate...'
p1449
aS'Lol'
p1450
aS'CHECK OUT MY CHANNEL FOR HILARIOUS TALKS, BLOGS AND UPCOMING SKETCHES!'
p1451
aS'every were i go on the internet Wayne Brady is there...... '
p1452
aS'Watching this when it has 7,777,777 views. :)'
p1453
aS'Dear Ryan twerk for youtube'
p1454
aS'what the fup fup:a random word which means nothing but sounds funny'
p1455
aS'That was funny but kinda racist'
p1456
aS'Shut up Daniel we came here to watch Ryan not u'
p1457
aS'hes probably his neibhor lol'
p1458
aS'That is racist'
p1459
aS'Dear ryan HOW DO PRONOUNCE YOUR YOUTUBE NAME ... NEGAHEGA, NYEGAHYEGA AHHHHH'
p1460
aS"But yet u have no BO2 video's? Just car's..."
p1461
aS'Brady Bunch huh ... I feel cheated :)'
p1462
aS'Wat was that'
p1463
aS'mmmmhm brady bunch. i see what you did there'
p1464
aS'that was the best thing ever... since sliced bread... of all time...'
p1465
aS'lol at wayne brady wiggling on the couch'
p1466
aS'hahaha so brilliant'
p1467
aS'bloody horney bitches obsessed with rihanna sex tapes -_-'
p1468
aS'JustKiddingFilms is way better then you!'
p1469
aS"Wayne! I loved him on Who's Line Is It Anway :>"
p1470
aS'Holy shit, this video made my night lmao'
p1471
aS'Awkward moment when the two top comments rhyme..'
p1472
aS'Dear Ryan, How was your day?'
p1473
aS'Didnt saw that coming.. Lol'
p1474
aS'P.S. Thumbs up for Wayne Brady =D'
p1475
aS"yes he's not that much funny .. he's too much funny "
p1476
aS'I wanna know too?'
p1477
aS'best 39 second in my life :D'
p1478
aS'Very short video but it was very entertaining:D'
p1479
aS'Ryan ur funny'
p1480
aS'Lol'
p1481
aS'How does he know Dwayne Brady? O.o'
p1482
aS'What the heck? That was random. But entertaining. Le gasp!'
p1483
aS'Hahaha look at the guy wiggiling on the couch'
p1484
aS'Her channel doesnt exist I really dont know'
p1485
aS'Haha'
p1486
aS"No, he's not that much funny ."
p1487
aS'Hahahahha'
p1488
aS'Dear Ryan, How do you know Wayne Brady? 0.0'
p1489
aS"LOOOOVE THIS! Best Harlem Shake Vid I've seen so far!!"
p1490
aS'I want this to happen to me'
p1491
aS'Fucking love Wayne Brady!!!!'
p1492
aS'soo expected-ly unexpected'
p1493
aS'Dear Ryan, can you twerk while proving #YOLOSWAG2013! '
p1494
aS'Cool house'
p1495
aS"Dear Ashley Wilson, Learn how to spell a simple word such as 'mine' Thanks"
p1496
aS'Dear, Ryan can you twerk.'
p1497
aS'<3'
p1498
aS'Lol'
p1499
aS'dear ryan can kiss your dog'
p1500
aS'Teehee lol'
p1501
aS'Dear Ryan can you talk to fans and lamps '
p1502
aS'old'
p1503
aS'i harlem shaked and he came out to!!!! :D lol keep being awesome \nRYAN!!!!!!!!!!!!'
p1504
aS'Dear Ryan can you do the flop'
p1505
aS'Dear Ryan can you twerk?'
p1506
aS'Wayne Brady <3'
p1507
aS'Dear Ryan, Do a fake trailer for naruto ultimate ninja storm3'
p1508
aS'dear Ryan, why u so creative?'
p1509
aS'(Somehow seemed racis..?)'
p1510
aS'Awesome'
p1511
aS'dear ryan can you shuffle?'
p1512
aS'Lol'
p1513
aS'THAT MADE ME LAUGH MY ASS OFF!!!! LOLOL!!!!!!!! XD'
p1514
aS"I'm happy that they are returning Whose Line!"
p1515
aS'HAHA WTF!!!'
p1516
aS'I was wodering why whose line was in the linked videos lol'
p1517
aS'is that why u are called nigahiga'
p1518
aS"@kedaalvarez15 he's 23"
p1519
aS'Too much of black guys!'
p1520
aS'is that u are called nigahiga'
p1521
aS'Who would search that up'
p1522
aS'rasist mothe poop!!!!! '
p1523
aS'lol averyones black'
p1524
aS"That's a dame liiiiiiieeee"
p1525
aS'of course ;)'
p1526
aS'He is not Japanese.'
p1527
aS"God, if Ryan is Japanese, i would be fangirling 10\xc3\x97 harder! ^-^ (i'm \nJapanese 3) ps. I LOVE YOU RYAN!!!"
p1528
aS'fail'
p1529
aS'What just happened???'
p1530
aS'Nu. There is only one Kakashi so lets fight to the death to see who is the \nultimite Kakashi Hatake.'
p1531
aS'how about i shove me fist down your wind pipe and leave it there'
p1532
aS"Ever since I've discovered Wayne Brady from Who's Line Is It Anyway, I have \nbeen a fan! He's so funny and seems like a really nice guy xD I'm so happy \nyou have him in this video. That's awesome. Also, I love your videos in \ngeneral! I watch them when I'm feeling the opposite of happy. Which is... \nunhappy. obviously. Yeah anyway, when I watch your videos that make me the \nopposite of unhappy. Which is happy! So thank you for making and continuing \nto make these videos."
p1533
aS'Good for you. Now go home, you broke bloke. '
p1534
aS'"Im Wayne Brady Bitch!"'
p1535
aS'lol'
p1536
aS'Dear ryan, can you be ryan?'
p1537
aS"No you didn't"
p1538
aS'Lol'
p1539
aS'Lol hahaha silly'
p1540
aS'Nice house man'
p1541
aS"Dear Ryan, can you please watch Brady Szuhaj's My Life In Color?"
p1542
aS'lol'
p1543
aS'DEAR MOTHER FUCKING RYAN, CAN YOU TWERK?'
p1544
aS'What'
p1545
aS'Dear twerk can you ryan?'
p1546
aS'Dear ryan can you show us to survive from a zombie attack?'
p1547
aS'Dear ryan can you be other youtubers'
p1548
aS"Terrific, looks like a scrubs' fantasy!!!"
p1549
aS'no ryan is mien'
p1550
aS'Dear r yan can u do time travel'
p1551
aS'why is your comment shown as spam?'
p1552
aS'LOLOLO'
p1553
aS'Dear Ryan can you twerk'
p1554
aS'Dear Ryan can you twerk'
p1555
aS'dear Ryan can you make a bleach movie'
p1556
aS'RASICT'
p1557
aS'Omg xD this is too funny!!'
p1558
aS'No one fukin cares if ur dad is getting $4000 a month alrighth'
p1559
aS'just one more niga higa then i will do my homework...'
p1560
aS'hey Ryan how old are you? Also are you Japanese? If you are can you speak \njapanese? '
p1561
aS'cute girl alarm ^.^!!!! lol '
p1562
aS'OMG how do you know wayne brady'
p1563
aS'dose the virus come in green too ??? '
p1564
aS'Dear Ryan Can you Be a Mermaid?'
p1565
aS'Teehee'
p1566
aS'Teehee'
p1567
aS"Are ya talkin' about yourself or something?..... Are you desperate or \nsomething? Does this sound mean? Is anyone going to spam this? Please don't."
p1568
aS'0:08 he looks like a ballerina and a waitress'
p1569
aS'The bobble head part always gets me! XD'
p1570
aS'Criken2'
p1571
aS"We couldn't care less. Now tell everyone you work with who posts these \nthings to stop and do something useful. Honestly, you people are worse than \ntella-marketers and those people on the side of the street that try to sell \nbullshit"
p1572
aS'Make a video about drawings coming to life'
p1573
aS'What the F**K'
p1574
aS'dear ryan , can you dance the "BAD ROMANCE"....'
p1575
aS'what the thay tern black'
p1576
aS'Really why are you here?'
p1577
aS'barneys brother how i met ypir mother'
p1578
aS'Tee hee'
p1579
aS'WTF?!?'
p1580
aS'do da harlem shake '
p1581
aS"Dear Ryan can you defeat an angry lamp with it's companion Mr. Fan? "
p1582
aS'Cool'
p1583
aS"one name: ''CaptainSparklez'' "
p1584
aS"You must've never heard of him before. You've never heard a good joke \nbefore either, apparently."
p1585
aS'dear ryan can you be superman.'
p1586
aS'Dear Ryan, can you Twerk'
p1587
aS'Dear Ryan can you be Naruto?'
p1588
aS'Awesome'
p1589
aS'Dear Ryan can you twerk ?'
p1590
aS"I don't know what emotion I should be feeling right now"
p1591
aS'please do the fox video'
p1592
aS'WAT THE F'
p1593
aS'Wow, that was really good.'
p1594
aS'Dear Ryan, What do you think about the death of Talia castellano? And how \nfar would you go to help cancer research?'
p1595
aS'I love wayne brady hahahhahahahahha'
p1596
aS'Dear Ryan can u twerk? #TwerkkkTeam'
p1597
aS'goyang ceisar indonesia please'
p1598
aS"This never never said anything about not swearing if you sue ryan I'm \npretty sure your gana lose"
p1599
aS'looooooooooooooooove wayne'
p1600
aS"you're funny."
p1601
aS"Harlem shake and goat edition was the best two things happend to YouTube \nlike me if i'm right"
p1602
aS'Lol'
p1603
aS'guys, its Wayne from the old show "Whose Line is it Anyways" xD'
p1604
aS'XD'
p1605
aS'Men who like men, are Gay, Women who like women are either gay or lesbian. \nlesbian is just specific to women, anyone no matter their sex who are \nattracted to the same sex as themselves are gay.'
p1606
aS'omg nigahiga makes funny videos!! love him so much!! marry me!!! lol'
p1607
aS'Every time I watch this it gets funnier'
p1608
aS'teehee'
p1609
aS'My mind is blowned!'
p1610
aS'ROFL'
p1611
aS'Nope pewds is it '
p1612
aS'Nice ending'
p1613
aS'dear ryan can you do a real gangman style'
p1614
aS'Then Why Havent You Done It?? '
p1615
aS'LOL!'
p1616
aS"LOOOOOLLL was so not expecting fucking wayne brady then again I don't read \ndescriptions teehee"
p1617
aS'OG MG AMAZING'
p1618
aS'Wtf'
p1619
aS"Yo friends, what's up?! WHAT?, some time ago a NEW SEXTAPE of singer \nRihanna (18+) that shows her having sex was leaked on the internet!! Watch \nit FREE on this website -> SexTapeRihanna.info ! This is UNIMAGINABLE, \nHurry up and watch Rihanna having SEX before it gets taken down! The only \nwebsite where you can find it -->> SexTapeRihanna.info"
p1620
aS'Girls can be gay......'
p1621
aS'What about that fag of yours? The guy never finished his sentence..'
p1622
aS"HAHAHAHAHAHAHA IT'S PUNNY"
p1623
aS"Aah! Its Barney's gay brother!"
p1624
aS'Teehee.'
p1625
aS'wtf'
p1626
aS'y is there so many dislikes?O.o wtf'
p1627
aS"2,112 people are jealous of Ryan's Harlem Shake moves lol WE LOVE YOU RYAN!"
p1628
aS"yo I'm listening to Rihanna right now. Creeppy."
p1629
aS'Lol'
p1630
aS'Heyy if you get a chance check out my channel^.^ NigaHiga is my \ninspiration! :D'
p1631
aS'MAPOTI'
p1632
aS'lol wutXD'
p1633
aS'Loll loll'
p1634
aS'BEST PUN EVAR :D'
p1635
aS'Where did ryan go'
p1636
aS'Wayne Brady'
p1637
aS"why the heck is RYAN's comment flagged as spam?? wtf. ...and it has 1462+ \nlikes."
p1638
aS'After you, faggot'
p1639
aS'My cousin made me the first one to shake in front of the camera...WHY ME? \nXD (I chose to do it .-.)'
p1640
aS'how the living hell was that rascist?'
p1641
aS'dear Ryan can you be a soilger'
p1642
aS'Haha funny'
p1643
aS'AHUSHaushaUSHAuhsauSHAUSH AMEI'
p1644
aS'Pizza rolls'
p1645
aS'weird'
p1646
aS'TEEHEE'
p1647
aS'A little late :p'
p1648
aS"***NEW*** AT&T, T-Mobile, and Verizon $10 refill codes now available! \nAndroid and Apple users only! Get free iTunes, Steam, Amazon, PSN, or XBL \ngift codes straight from your Android or Apple device! 1. Open up the web \nbrowser on your Android/Apple device -> go to tinyurl .com /itunes4ever 2. \nInstall an app and keep it open for 30 seconds. 3. Open the web browser \nagain to redeem and choose one of the $10 ($20 for Steam and PSN) gift \ncodes! I've received $20 worth of Steam codes yesterday!"
p1649
aS'omg your hott '
p1650
aS'TEEEHEEE'
p1651
aS'lol'
p1652
aS'The man is a show off and Ryan looks lazy and tired'
p1653
aS'No Top Comments?'
p1654
aS'Hahahaahahahaha coool XD'
p1655
aS'@KrisiDontDIe WELL IMMATURE IS FUN'
p1656
aS'Meow'
p1657
aS'TEEHEE'
p1658
aS'go on little boy...follow the crowd now! i bet you own an iphone and listen \nto the mainstream news as well? Watching shit like this and saying stuff \nlike YOLO is by far the lamest load of shit ever. maybe the Inner power \nwill kill me off (fucking sad little stoner boy) but at least i will die \nknowing what i do with my life is important....I dont just sit around \ngetting high with my Quote.."NEW BONG" Go and vanish you waste of space, \nYou WONT be missed.'
p1659
aS"dude, I'm a girl"
p1660
aS"why is youtube so anoying, videos won't load for me anymore"
p1661
aS'Wayne Brady is awesome '
p1662
aS':D '
p1663
aS'*Gasp*'
p1664
aS'i love this guy...this as'
p1665
aS'You are actually FUcking Retarded and i don\'t believe any of your "Hate \ncomments" are doing anyone Justice but your own *Inner-Ego* so i hope The \ngreater power Kills you off.'
p1666
aS'I almost run out of breath at the ending !hahaha! '
p1667
aS'Says the guy who spends the majority of his time playing "mainstream" \nvideogames...>.> I don\'t understand how that makes your life more important \nthan anyone else\'s, especially since your "achievements" mean absolutely \nnothing in the real world. Have a good day, sir! :)'
p1668
aS'dude, you havent even seen my face yet'
p1669
aS"YOU'RE too stupid to insult"
p1670
aS'u r pathetic'
p1671
aS'So the entire population (minus you) huh? Dream big, dude, dream big.'
p1672
aS'Your definitely not a firefighter'
p1673
aS'Simpl amazing, I say. :)'
p1674
aS'What does Lolz mean? Laugh out loud... Umm... Zimbabwe?'
p1675
aS'Fuck You FISH FACED GOOK'
p1676
aS'Nice'
p1677
aS'How u get so much same dude what app did u use to do that'
p1678
aS'I love nigahiga'
p1679
aS"Well good for you! But, you've clearly missed the point I was trying to \nmake. Just like you said in your reply, we all have different ways of \ndealing with stress. I watch these videos because they make me laugh, not \nbecause they're popular. Why does what we do in this down time bother so \nmuch that you result to using fallacious, ad hominem attacks to defend \nyourself? Are you really that close-minded and ignorant?"
p1680
aS'cant belive i just met you. '
p1681
aS"Don't tell him what to do"
p1682
aS'No do the nigahiga'
p1683
aS'S S by Dg guy nd kg so so Lu ?'
p1684
aS'Dear Ryan can u make a movie'
p1685
aS'XD'
p1686
aS'This is so funny '
p1687
aS'Lol'
p1688
aS'Greatest twist ending ever !! xD'
p1689
aS"I love Ryan's lazy dancing in the beginning with tha lazy expression, and \nthen- BAM. Wayne Brady. So awesome."
p1690
aS'lol yeah right bitch, who you gonna call? your mom? xD jerk, what can u \neven accuse him of? thats the most pathetic thinng ive heard.. call the \nauthoritys, get a life'
p1691
aS'this is my first time watching your video. you are funny.. :)'
p1692
aS'little late lol'
p1693
aS'LOL'
p1694
aS'LOL'
p1695
aS'Wtf'
p1696
aS'That was funny!..?xD'
p1697
aS'TEEHEE '
p1698
aS"it's for everyone"
p1699
aS'LOL OLL LLO'
p1700
aS'Did u rlly get Wayne Brady?'
p1701
aS'LOL'
p1702
aS'LOL'
p1703
aS'LOL'
p1704
aS'Hi did'
p1705
aS'THAT END LOOOL'
p1706
aS'LOL'
p1707
aS'MAPOTI'
p1708
aS'Did u actually get Wayne Brady in your video?'
p1709
aS'LOL'
p1710
aS'WAYNECEPTION'
p1711
aS'LOL'
p1712
aS'\xe5\xa4\x89\xe3\x81\xaa \xe3\x82\x84\xe3\x81\xa4;\xe3\x83\x8f\xe3\x83\x8f\xe3\x83\x8f\xe3\x83\x8f\xe3\x83\x8f\xe3\x83\x8f\xe3\x83\x8f\xe3\x83\x8f\xe3\x83\x8f\xe3\x83\x8f\xe3\x83\x8f\xe3\x83\x8f\xe3\x83\x8f\xe3\x83\x8f\xe3\x83\x8f\xe3\x83\x8f'
p1713
aS"This video made no sense.... Let's watch it again!!!"
p1714
aS'LOL'
p1715
aS'Oh! HAHAHAHAHA! xDD'
p1716
aS'hate much?'
p1717
aS'XD .....'
p1718
aS'LOL'
p1719
aS'youre harlem shake sucks but youre other videos dont'
p1720
aS'LOL'
p1721
aS'Way to be a buzzkill.'
p1722
aS'Ryan you are my roll module'
p1723
aS'Lol'
p1724
aS'How did you do that?'
p1725
aS'Awesome'
p1726
aS"First of all how do you know it was Nigahiga's videos and second you should \ncontrol what your child watches over the internet so Ryan did nothing \nwrong. You sir are a bad parent for not putting child block in the computer \nand blaming others for your mistakes."
p1727
aS'Dear Ryan (aka RYAN HIGA) can i call u RYAN for short any way can u be a \nkpop star. Hope u read this RYAN ( less than three).'
p1728
aS"Fuckin' Ryan..."
p1729
aS'Hahahaha XD'
p1730
aS'Hahaha! Great video!'
p1731
aS'Gasps! XD'
p1732
aS'is that the wayne from whose line is it anyway?'
p1733
aS'teehee'
p1734
aS'wait did he say?? he deleted the comment'
p1735
aS'IS NO ONE ELSE WONDERING HOW HE GOT WAYNE BRADY O.O'
p1736
aS'Only Harlem shake I liked c:'
p1737
aS'xD'
p1738
aS'Best one yet.'
p1739
aS'LOL '
p1740
aS"I'm not sure when it will be back, but i know the host will be some girl"
p1741
aS'He danced so funny'
p1742
aS'Perfect Xd'
p1743
aS'What was the funny comedy scit show that waynne brady was on?'
p1744
aS"Dude dat's a nice ass house."
p1745
aS'i love the TEEHEE <3'
p1746
aS'LOL'
p1747
aS"That wasn't a dream... *multiple gasps*, TEEHEE"
p1748
aS'LOL'
p1749
aS'Omg lol'
p1750
aS'Chappelle Show.'
p1751
aS'Cool '
p1752
aS'Dear Ryan can u be my cat he weighed to be 20 pounds'
p1753
aS'i got good vids, visit my channel '
p1754
aS'LOL'
p1755
aS'LOL'
p1756
aS'Force Of Will'
p1757
aS';-) :-P :-) :-) :-) :-) :-)'
p1758
aS"thats like the second time in one of ryans videos that there has been some \nweird ghost activity's :0"
p1759
aS'Oh HEEEEEEEEEEEEEEELLLLLLLLLL no!'
p1760
aS'LOL'
p1761
aS'IAMHERE21000'
p1762
aS'who kicked it? there was nobody behind him. o.o'
p1763
aS"Dude... no. Don't be that guy."
p1764
aS"Holy crap! I freaked out... Wayne Brady! That's was awesome! "
p1765
aS'You can see the guy behind him hit it with his foot...'
p1766
aS'cool '
p1767
aS'Dear rus'
p1768
aS'mind just got blown'
p1769
aS'Its wayne brady bitch.'
p1770
aS'This is beautiful.'
p1771
aS'gorgeous :D '
p1772
aS'Dead Ryan , can you twerk?'
p1773
aS'A some'
p1774
aS'Dear Ryan, can play basketball like a PRO'
p1775
aS"I still can't figure out how Ryan and Wayne Brady know each other."
p1776
aS'You are still a Sweatshop Gook....Go eat some noodles slanty eyes'
p1777
aS'Dear ryan can u tweak, twerk, twerk x 500, y twerking, ummmm attention \nfreaks'
p1778
aS'yea lets not. EVER'
p1779
aS'am I high right now'
p1780
aS'yep'
p1781
aS'HOLY CRAP WAYNE'
p1782
aS'Dear Ryan, can you cosplay as different characters?'
p1783
aS'The guy lying on the chair doing the worm thing... No just.. No..'
p1784
aS'lol'
p1785
aS'OH MY GOD'
p1786
aS'u certainly ran out of ideas did u ?!'
p1787
aS'fuck it ^^ omg my comment is on the top of nigahigas video ^^'
p1788
aS':3'
p1789
aS'LMAO'
p1790
aS'\xc4\x8cing \xc4\x8dang \xc4\x8dong!!'
p1791
aS'That was hella awesome'
p1792
aS'0:16, is Ryans house haunted or something?'
p1793
aS'Damn, I miss Whose Line Is It Anyway?'
p1794
aS'Anybody else notice the dude in the back??!'
p1795
aS"Android and Apple users only! Earn free iTunes, Steam, Amazon, PSN, or XBL \ngift codes straight from your Android or Apple device! 1. Open up the web \nbrowser on your Android/Apple device -> go to tinyurl .com /itunes4ever 2. \nInstall an app and keep it open for 30 seconds. 3. Open the web browser \nagain to redeem and receive one of the $10 ($20 for Steam and PSN) gift \ncodes of your choice! I've already received $40 worth of Amazon and iTunes \ngift codes this week!"
p1796
aS'and it is not racist'
p1797
aS'Wayne Brady !! omg i love him !'
p1798
aS'What moved that paper at 0:16?'
p1799
aS'The paper moved cause when the beat dropped the guy in the couch to ur left \nthrows the papers up in the air n thats the papers falling......'
p1800
aS'Lil'
p1801
aS'inception hahh'
p1802
aS'hey wayne are you in ssn 9 of himym?'
p1803
aS'Raped that replay button 0:15'
p1804
aS'The guy behind the guy the paper hit hit a paper at which hit another that \ndecided to be homo and hit the one that ht the guy '
p1805
aS'It was kicked if you look very closley '
p1806
aS'Wtf'
p1807
aS'LOL'
p1808
aS'is that an obama bobblehead'
p1809
aS'Is that supposed to be the original Harlem Shake?'
p1810
aS'Lol'
p1811
aS'lol'
p1812
aS'Best Harlem Shake in the history of Harlem Shakes'
p1813
aS'hahahahahaha'
p1814
aS'it was fart '
p1815
aS'Lol'
p1816
aS'why is every one talking about wayne brady we need to now what moved that \npaper on the floor at 0:16'
p1817
aS'lol '
p1818
aS'Well Tiger Woods is half Asian.'
p1819
aS'Dear Ryan can u twerk?'
p1820
aS'Hahhahah you are awesome \xe2\x99\xa5\xe2\x99\xa5\xe2\x99\xa5\xd9\x85\xd8\xa7\xd8\xb4\xd8\xa7\xd8\xa1 \xd8\xa7\xd9\x84\xd9\x84\xd9\x87'
p1821
aS'Kim'
p1822
aS"WHAT? That's crazy man, Wayne Brady! :D"
p1823
aS'Dear Ryan, the people asking you to twerk r gay'
p1824
aS'LMAO'
p1825
aS'I think you were wrong XD'
p1826
aS'? But cool'
p1827
aS'These comments are unbelievably stupid... who cares what people want to \nwatch and enjoy on their own time? Does it affect your life that much? Even \nif people want to say swag or yolo is it really life or death if they do \nthese things? Really????'
p1828
aS'Thumbs up if your here because Ryan commented !!!!'
p1829
aS'LOL'
p1830
aS'Finally! The *ORIGINAL* Harlem Shake! Sheesh... smh -_-'
p1831
aS'xXD ENDING'
p1832
aS'Hahaha'
p1833
aS'*Cleveland Show'
p1834
aS'He is Wayne Brady.'
p1835
aS'Lol'
p1836
aS'That was scary...'
p1837
aS'Ha did you see him on the couch'
p1838
aS'who is he '
p1839
aS'this was so funny that i watched it 12 times ...then i got annoyed from it '
p1840
aS'oh'
p1841
aS'HAHAH THIS MADE ME LAUGH OUT LOUD HAHAH ty ryan higa'
p1842
aS'Dear ryan do g style '
p1843
aS'dear,ryan can make a video with you "larping" with your lamps and fans.'
p1844
aS'lmafaooooo! '
p1845
aS'Hey I recently found a youtuber whos pretty funny but is not really famous \nso i decided to give him some promotion! So everyone please check out \nDanomitism!'
p1846
aS'Not a problem! A little useless information never hurt anyone. '
p1847
aS' Nigahiga? How do you even think of all this? How long does it take you to \nplan out and make just one video? '
p1848
aS'Dear Faggot can u do Gangnam Style '
p1849
aS'*GASP GASP GASP GASP!'
p1850
aS"best harlem shake i've ever seen. :)"
p1851
aS'Dear Ryan what is ratchet?'
p1852
aS'Love you guys, that was the best harlem shake ever'
p1853
aS'*Rolls On Floor Laughing*'
p1854
aS'WTF!'
p1855
aS"Android and Apple users only! Get free iTunes, Steam, Amazon, PSN, or XBL \ngift codes straight from your Android or Apple device! 1. Open up the web \nbrowser on your Apple/Android device -> go to tinyurl .com /itunes4ever 2. \nInstall an app and keep it open for 30 seconds. 3. Open the web browser \nagain to redeem and receive one of the previously mentioned $10 ($20 for \nSteam and PSN) gift codes of your choice! I've already received $40 worth \nof Steam gift codes this week!"
p1856
aS'Wayne Brady!!!'
p1857
aS'I think Tiger Woods is.'
p1858
aS"LOL SPAH's SAPPIN MAH MOBILE DIVICE!"
p1859
aS"Umm Miley Cyrus can't twerk..."
p1860
aS'Dear Ryan can you make a vines'
p1861
aS'299, 999th LIKER ON THIS VIDEO!!'
p1862
aS'The Brady at the left couch threw some paper in the air, and when it fell, \nit blew wind on the paper on the ground..'
p1863
aS'He hit 10 mill'
p1864
aS'Can u twerk'
p1865
aS'Lol'
p1866
aS'oh my GOD!! is that Wayne Brady!!!??'
p1867
aS'Tee hee'
p1868
aS'Too funny'
p1869
aS'i know what im doing lol.'
p1870
aS'lmao'
p1871
aS'Dear Ryan, can you twerk #dearryan'
p1872
aS'Wayne Brady makes Bryant Gumbel look like Malcolm X'
p1873
aS'omg!!so hilarious!!!'
p1874
aS'LOL'
p1875
aS'DO SOMETHING ABOUT GUITARS! '
p1876
aS'Looooooll never saw that comming'
p1877
aS'Where have your videos been all my life?!?!'
p1878
aS'this dude is funny asf'
p1879
aS"Hahahahahaha really freaken funny. Well done dude, it's the best Harlem \nShake I've seen till now. Lol"
p1880
aS'Funny'
p1881
aS'DEAR RYAN CAN YOU DO A TALKING 2 RANDOM PEOPLE PRANK. TEEHEE'
p1882
aS'Hey Ryan do gangnam style'
p1883
aS'lol guy on the couch doin a sideways worm'
p1884
aS'Dear Ryan, Can you sing in Arabic?'
p1885
aS'Freaking love Whose line is it anyway!'
p1886
aS"Hey Youtubers I'm guessing that you guys will scroll down away from this \ncomment but if you're still reading thank you i'm from germany and i have a \nyoutube channel with some videos that u might find funny , so i would be \nhappy if u could check my videos , thank you :-)"
p1887
aS'Hahahahahahahahaha best harlem shake video ever and I freaking love Wayne \nBrady!!! Love the ending lol.'
p1888
aS'Wayne-ception'
p1889
aS'*Cries* '
p1890
aS'LMAAOOO!!!'
p1891
aS"It doesn't matter.... he is still WAYNE MOTHER-FUCKING BRADY!!!!"
p1892
aS'best harlem shake ever'
p1893
aS'Mandingo party'
p1894
aS'Best ending ever!! xD'
p1895
aS'Haaaaaaaaa man ur funny I perly got my you tube acount and man I have allot \nof chanses'
p1896
aS'YEAH!!!'
p1897
aS'I had to watch this twice to realise wayne and ryan were the only ones \ndancing'
p1898
aS'fucking funny!! love you Ryan !! xD'
p1899
aS'fuck no'
p1900
aS'From Asia to Black'
p1901
aS'You should make more videos with wayne brady'
p1902
aS'Gaaaaaasssssspppppp Ryan can i be in ur video please im an actor who is 15 \nyrs old but no equipment :('
p1903
aS'dafq?'
p1904
aS'omg'
p1905
aS'LOL! YES! Wayne Brady! ^-^ '
p1906
aS'lol!'
p1907
aS'The only funny harlem shake'
p1908
aS"I know I'm just saying lol."
p1909
aS'One of the classes in my school did a Harlem Shake,sadly i didnt get to see \nit'
p1910
aS'Lol'
p1911
aS"Noooooo he's the guy from let's make a deal"
p1912
aS'Loved it'
p1913
aS'it is funny '
p1914
aS'Wayneception?'
p1915
aS'Dear Ryan, Tweeerrkkkk Teeeaammm'
p1916
aS'Oh god there learning!!!!'
p1917
aS'hey are you on crack?'
p1918
aS'...how come I keep seeing this same message on nigahiga videos?? '
p1919
aS'Thumbs up if you think the harlem shake was one ofthose "15 minute of fame" \nthings'
p1920
aS'ich mag dich :)'
p1921
aS'Uha'
p1922
aS'0:16 mysterious ghostly magazine move :p'
p1923
aS'Check out my Harlem shake. It\'s called "Tillamook Harlem Shake"!'
p1924
aS'u just did in this video tho.........'
p1925
aS"he follows me on twitter and i didn't even know who he was."
p1926
aS'@Anna Gomez, "Im not Racist" my butt'
p1927
aS'TEEHEE'
p1928
aS'dear ryan can you how to be a hippy '
p1929
aS'OMG its a bunch of NIGGAS! lol *NO OFFENSE TO BLACK PEOPLE, I AM NOT \nRACIST! BLACK PEOPLE ARE AWESOME!!!*'
p1930
aS'dafuq lol'
p1931
aS'YOUR SO RANDOM!! I LOVE IT!!'
p1932
aS'Fuck you'
p1933
aS'HOW DID YOU GET WAYNE BRADY I LOVE HIM'
p1934
aS'I belong on youtube'
p1935
aS'met wayne b4 hes a koo dude... '
p1936
aS'yolo '
p1937
aS'Best have seen, that waa awesome'
p1938
aS'Lol'
p1939
aS'dafuq its black people rave!!! just sayin '
p1940
aS'Dear Ryan, can you do Gentlemen?'
p1941
aS'The bobblehead'
p1942
aS'Watch my hilarious new video "Danny Bonaduce" and see why it has been \nchosen for MTV!'
p1943
aS'TEEHEE'
p1944
aS'dear Ryan are you afraid of the dark????'
p1945
aS'LOL XD'
p1946
aS'hot.'
p1947
aS"Wohw!!! Last time i say Wayne Brady was on 'Whos Line Is It Anyway' \nHaaaaahahaaa"
p1948
aS'Raising Tykie, you have to be 13 to be on youtube.'
p1949
aS"@Anna Gomez you cant say you're not racist if you just called a bunch of \nblack people niggas..... smh"
p1950
aS'LOLz'
p1951
aS'I cannot stop laughing'
p1952
aS"No, you'll turn into Wayne Brady. Big difference. "
p1953
aS'THEEHEE'
p1954
aS'Lets not'
p1955
aS'Crazy'
p1956
aS'Dear Ryan, can you o the cutest gwiyomi? teehee~'
p1957
aS'@n3rd53'
p1958
aS'Lol this is funny'
p1959
aS'Funny af. Anyways. Ur getting better. Jk you YouTube famous'
p1960
aS'Dear Ryan,'
p1961
asS'time'
p1962
ctime
struct_time
p1963
((I2013
I2
I21
I22
I27
I59
I3
I52
I-1
t(dtRp1964
sS'id'
p1965
VV6A5ti7xFRM
p1966
s.