(dp1
S'title'
p2
VTweet Whore
p3
sS'url'
p4
Vhttp://www.youtube.com/watch?v=W4Ck7JQJxhs&feature=youtube_gdata_player
p5
sS'image'
p6
Vhttp://i.ytimg.com/vi/W4Ck7JQJxhs/0.jpg
p7
sS'comments'
p8
(lp9
S"I watch this video everyday for three reasons\nFirst reason: Because it's Ryan <3\nSecond reason: The song is so catchy\nThird reason: At one part of the video he is shirtless :D\xef\xbb\xbf"
p10
aS'was i the only one who waited for "teehee"?\xef\xbb\xbf'
p11
aS'TEEHEE?\xef\xbb\xbf'
p12
aS'2:23 XD LOL\xef\xbb\xbf'
p13
aS"Oh my gosh I remember when this first came out and now I'm going back and \nwatching all of the old videos and wooooaaaahhhhh.\xef\xbb\xbf"
p14
aS'HIS NECKLACE HAHAHA\xef\xbb\xbf'
p15
aS'1:17\xef\xbb\xbf'
p16
aS'WOAH WOAH HE DIDN"T PUT THE TEEHEE IN HE DIDN"T PUT THE TEEHEE BUT STILL \nCOOL VIDEO THOSE SPECIAL FX THOUGH HEY IF YOU WANT TO SEE MORE WEIRD \nSPECIAL FX IN VIDEOS CLICK MY NAME RIGHT THERE IT WOULD BE GREAT IF YOU DOI \nONLY HAVE 2 SUBSCRIBERS WHICH IS SAD I KNOW BUT HOPEFULLY YA"LL WOULD LIKE \nME SO ANYWAY THANKS!\xef\xbb\xbf'
p17
aS'so many dislikes omg\xef\xbb\xbf'
p18
aS'Your voice is ok\xef\xbb\xbf'
p19
aS'he looks so young back then!\xef\xbb\xbf'
p20
aS'I remember when Twitter was like that :p wahhh I feel sooo old ...\xef\xbb\xbf'
p21
aS'I love ur vocie (not creepy way) :D\xef\xbb\xbf'
p22
aS"this video doesn't have a teehee :(\xef\xbb\xbf"
p23
aS'Ryan higa: Making Miley cirus jokes since 2009!\xef\xbb\xbf'
p24
aS'Woa this is a huge throwback \xe2\x9d\xa4\xef\xb8\x8f\xef\xbb\xbf'
p25
aS'Ah, still watching it 5 years later...:) Man I love you Ryan!\xef\xbb\xbf'
p26
aS'twitter then > twitter now\xef\xbb\xbf'
p27
aS'he looks so young here o.O\nlike a 12 year old, even though he was already 19!\xef\xbb\xbf'
p28
aS'5 years ago, Ryan signed up for Twitter on this day. :)\xef\xbb\xbf'
p29
aS'Did anyone notice the ring on his left ring finger? Purity ring, \nengagement, or just for the heck of it?\xef\xbb\xbf'
p30
aS"hahah I'm a tweet whore... I tweet about One Direction a lot. bc I'm a fan \ngirl lol \xef\xbb\xbf"
p31
aS'Just ate a hotpocket\xef\xbb\xbf'
p32
aS'Lol!!\xef\xbb\xbf'
p33
aS'He know the miley think was coming \xef\xbb\xbf'
p34
aS'Why is there no teehee\xef\xbb\xbf'
p35
aS'Because of this video I totally logged on to Twitter for the first time in \nabout three years o.O ....\xef\xbb\xbf'
p36
aS'Every time you show up in your video and wear nothing................\xef\xbb\xbf'
p37
aS'No teehee??\xef\xbb\xbf'
p38
aS'"I like goats. Your last tweet was funny. so ramdom, pikachu is at lvl 100. \nBimbimbap! bokchoy, bokchoy, eggroll in face. WTF IS GOING ON!!\xef\xbb\xbf'
p39
aS'This was actually the video that got me into Twitter! I really hate how it \nhas become now haha.\xef\xbb\xbf'
p40
aS"Uploaded on my birthday :).... Aaannnddd nobody cares. I'm going to shut up \nnow. Purple Llama attack hah!!!\xef\xbb\xbf"
p41
aS'What? No teehee?!?\xef\xbb\xbf'
p42
aS'That was along time ago I think before teehee\n\xef\xbb\xbf'
p43
aS'woah twitter used to look like that?\xef\xbb\xbf'
p44
aS'Your out if sync in the vid\xef\xbb\xbf'
p45
aS'loooool did Ryan really make this?! hahaha, I love you Ryan but this was so \nlame lol\xef\xbb\xbf'
p46
aS'Um....this is an awkward question but.....what happened to his shirt?\xef\xbb\xbf'
p47
aS'2:06 when that shirt came off i was blushing\xef\xbb\xbf'
p48
aS'Lol\n"Bananas go spurs go my left boob kinda hurt teehee cheese I LOVE UNICORNS \npurple llama attack\xef\xbb\xbf'
p49
aS'Forgot teehee\xef\xbb\xbf'
p50
aS'Wow, its like Ryan knew of the evolution of the now Miley Cyrus\xef\xbb\xbf'
p51
aNaS"#haters , if you hate this song, go to Ryan's draw my life. Or go f..k \nyourself.\xef\xbb\xbf"
p52
aS'tweethee\xef\xbb\xbf'
p53
aS'You forgot teehee\xef\xbb\xbf'
p54
aS'Love this! XD I tweet 24/7 does that make me a tweet whore? Lol..but not \nevery minute of course ha ha ha\xef\xbb\xbf'
p55
aS'Teehee\xef\xbb\xbf'
p56
aNaS'Are u a *tweet whore?* Ryan has a song just for u!\xef\xbb\xbf'
p57
aS'Check out this video on YouTube:\xef\xbb\xbf'
p58
aS'this song rang in my head the whole yesterday!gosh!'
p59
aS'Dear Ryan make The Stalking Mangina already please!!!!'
p60
aS'cheese?'
p61
aS'look at the date genius '
p62
aS'i love your chain lol'
p63
aS'I like goats, your last tweet was funny, so random, pikachu is a lvl 100, \nbibimbap!, bokchoi bokchoi!, egg roll in face!, WTF IS GOING ON!!!'
p64
aS'Hilarious'
p65
aS'Nice editing haha'
p66
aS'Pause at 0:51'
p67
aS'7,269 are tweet whore '
p68
aS'Unicorns? '
p69
aS"It's an Asian thing ;)"
p70
aS'You dorgot the teehee'
p71
aS'This is my new favorite video on YouTube!!'
p72
aS'Love this song'
p73
aS'uuuummmm ok?'
p74
aS'Dafuq did I just watch?!'
p75
aS'how old are you while made this video? lol!'
p76
aS'Dude I remember the day you posted this lol'
p77
aS'I like Ryan Higa but what the crap'
p78
aS'All the people that disliked are tweet whores'
p79
aS'Awsome'
p80
aS'Awesome song'
p81
aS'YOU FORGOT THE TEEHEE'
p82
aS'Twitter doesnt look like this anymore haha xD'
p83
aS'TEHEE pls c:'
p84
aS'the end was a black screen for like 7 seconds'
p85
aS'lol this song is so true'
p86
aS'...My channel name is THEREALCoCoCastle :3 and it said THEREALRyanHiaga'
p87
aS"I don't have tweet"
p88
aS'lol <3'
p89
aS'chest?'
p90
aS"7305 dislikes, cause there's no teehee? Really?"
p91
aS'No thanks'
p92
aS'Is this the first?'
p93
aS'\xe2\x9d\xa4\xe2\x9d\xa4\xe2\x9d\xa4\xe2\x9d\xa4\xe2\x9d\xa4\xe2\x9d\xa4\xe2\x9d\xa4\xe2\x9d\xa4\xe2\x9d\xa4\xe2\x9d\xa4\xe2\x9d\xa4\xe2\x9d\xa4\xe2\x9d\xa4\xe2\x9d\xa4\xe2\x9d\xa4\xe2\x9d\xa4\xe2\x9d\xa4\xe2\x9d\xa4'
p94
aS'That last part cracked me up'
p95
aS'Yea 2:13 if u read first sentence of text behind, it says I like goats'
p96
aS'Xilbvcg'
p97
aS'are you a christian?'
p98
aS'please make another movie in minutes :( '
p99
aS'2:13 in the text'
p100
aS'7,308 people are not tweet whore'
p101
aS'Hey no tee hee!'
p102
aS'he might not be, the necklace was made of tinfoil if you look closely. \nsooo..... If he is christian it would make more sence to use a real cross \nnecklace'
p103
aS'i did too! '
p104
aS'Average n.o. of tweets per day dropped 50% following the release of this \nvideo.'
p105
aS'Like a boss'
p106
aS"Are they, YAY i'm asian"
p107
aS'TEEHEE???'
p108
aS"Ah... I miss the old Ryan. I'm not saying that I don't support him now, \nit's just that I think he lost some of his innocent comedy. :("
p109
aS'Hey yo Teehee'
p110
aS'of course that is puberty and "armit??"'
p111
aS'1:58 is just too cute!'
p112
aS'ryan you look fit without a shirt * nosebleed * '
p113
aS'Shirtless Ryan. Gosh.'
p114
aS'Even with the autotune,,,'
p115
aS'HE FORGOT THE TEEHEE!!!'
p116
aS'This is so stupid but addicting'
p117
aS'Is it wrong that i have this on my playlist l0l'
p118
aS"Don't worry, they only post these comments on about every NigaHiga video."
p119
aS'Get dat mudaf****in cross away from me!'
p120
aS'Wtf'
p121
aS"i'm that noob who is actually like that XD"
p122
aS'I just watched the music rant. Oh the irony.'
p123
aS'well what if i don`t want to?? huh?'
p124
aS'No teehee? WHAT HAS THE WORLD COME TO!?!?'
p125
aS'Tweet like a whore like me LMAO '
p126
aS'Someone Tweet Andy Biersack and tell him I love him!'
p127
aS'great man'
p128
aS'Are you a whovian?'
p129
aS"Hahahah! I've noticed!"
p130
aS'No TEE'
p131
aS'#bestvideoever!'
p132
aS'no teehee?'
p133
aS'I do love miley ;D'
p134
aS'im watching this is 2008'
p135
aS'what do you mean you are stuck in 2009'
p136
aS'Nice greenscreen...'
p137
aS'im in love with you'
p138
aS'No one gives a poopoo.'
p139
aS'\xe2\x9d\xa4\xe2\x9d\xa4\xe2\x9d\xa4\xe2\x9d\xa4\xe2\x9d\xa4\xe2\x9d\xa4\xe2\x9d\xa4\xe2\x9d\xa4\xe2\x9d\xa4\xe2\x9d\xa4\xe2\x9d\xa4\xe2\x9d\xa4\xe2\x9d\xa4\xe2\x9d\xa4\xe2\x9d\xa4\xe2\x9d\xa4\xe2\x9d\xa4\xe2\x9d\xa4\xe2\x9d\xa4\xe2\x9d\xa4\xe2\x9d\xa4\xe2\x9d\xa4\xe2\x9d\xa4\xe2\x9d\xa4\xe2\x9d\xa4\xe2\x9d\xa4\xe2\x9d\xa4\xe2\x9d\xa4\xe2\x9d\xa4\xe2\x9d\xa4\xe2\x9d\xa4\xe2\x9d\xa4\xe2\x9d\xa4\xe2\x9d\xa4\xe2\x9d\xa4\xe2\x9d\xa4\xe2\x9d\xa4\xe2\x9d\xa4\xe2\x9d\xa4\xe2\x9d\xa4\xe2\x9d\xa4\xe2\x9d\xa4\xe2\x9d\xa4\xe2\x9d\xa4\xe2\x9d\xa4\xe2\x9d\xa4\xe2\x9d\xa4\xe2\x9d\xa4\xe2\x9d\xa4\xe2\x9d\xa4\xe2\x9d\xa4\xe2\x9d\xa4\xe2\x9d\xa4\xe2\x9d\xa4\xe2\x9d\xa4\xe2\x9d\xa4\xe2\x9d\xa4\xe2\x9d\xa4\xe2\x9d\xa4\xe2\x9d\xa4\xe2\x9d\xa4\xe2\x9d\xa4\xe2\x9d\xa4\xe2\x9d\xa4\xe2\x9d\xa4\xe2\x9d\xa4\xe2\x9d\xa4\xe2\x9d\xa4\xe2\x9d\xa4\xe2\x9d\xa4\xe2\x9d\xa4\xe2\x9d\xa4\xe2\x9d\xa4\xe2\x9d\xa4\xe2\x9d\xa4\xe2\x9d\xa4\xe2\x9d\xa4\xe2\x9d\xa4\xe2\x9d\xa4\xe2\x9d\xa4\xe2\x9d\xa4\xe2\x9d\xa4\xe2\x9d\xa4\xe2\x9d\xa4\xe2\x9d\xa4\xe2\x9d\xa4\xe2\x9d\xa4\xe2\x9d\xa4\xe2\x9d\xa4\xe2\x9d\xa4\xe2\x9d\xa4\xe2\x9d\xa4\xe2\x9d\xa4\xe2\x9d\xa4\xe2\x9d\xa4\xe2\x9d\xa4\xe2\x9d\xa4\xe2\x9d\xa4\xe2\x9d\xa4\xe2\x9d\xa4\xe2\x9d\xa4\xe2\x9d\xa4\xe2\x9d\xa4\xe2\x9d\xa4\xe2\x9d\xa4\xe2\x9d\xa4\xe2\x9d\xa4\xe2\x9d\xa4\xe2\x9d\xa4\xe2\x9d\xa4\xe2\x9d\xa4\xe2\x9d\xa4\xe2\x9d\xa4\xe2\x9d\xa4\xe2\x9d\xa4\xe2\x9d\xa4\xe2\x9d\xa4\xe2\x9d\xa4\xe2\x9d\xa4\xe2\x9d\xa4\xe2\x9d\xa4\xe2\x9d\xa4\xe2\x9d\xa4\xe2\x9d\xa4\xe2\x9d\xa4\xe2\x9d\xa4\xe2\x9d\xa4\xe2\x9d\xa4\xe2\x9d\xa4\xe2\x9d\xa4\xe2\x9d\xa4\xe2\x9d\xa4\xe2\x9d\xa4\xe2\x9d\xa4\xe2\x9d\xa4\xe2\x9d\xa4\xe2\x9d\xa4\xe2\x9d\xa4\xe2\x9d\xa4\xe2\x9d\xa4\xe2\x9d\xa4\xe2\x9d\xa4\xe2\x9d\xa4\xe2\x9d\xa4\xe2\x9d\xa4\xe2\x9d\xa4\xe2\x9d\xa4\xe2\x9d\xa4\xe2\x9d\xa4\xe2\x9d\xa4\xe2\x9d\xa4\xe2\x9d\xa4\xe2\x9d\xa4\xe2\x9d\xa4\xe2\x9d\xa4\xe2\x9d\xa4\xe2\x9d\xa4\xe2\x9d\xa4\xe2\x9d\xa4\xe2\x9d\xa4\xe2\x9d\xa4\xe2\x9d\xa4\xe2\x9d\xa4\xe2\x9d\xa4\xe2\x9d\xa4\xe2\x9d\xa4\xe2\x9d\xa4\xe2\x9d\xa4\xe2\x9d\xa4\xe2\x9d\xa4\xe2\x9d\xa4\xe2\x9d\xa4\xe2\x9d\xa4\xe2\x9d\xa4\xe2\x9d\xa4\xe2\x9d\xa4\xe2\x9d\xa4\xe2\x9d\xa4\xe2\x9d\xa4\xe2\x9d\xa4\xe2\x9d\xa4\xe2\x9d\xa4\xe2\x9d\xa4\xe2\x9d\xa4\xe2\x9d\xa4\xe2\x9d\xa4\xe2\x9d\xa4\xe2\x9d\xa4\xe2\x9d\xa4\xe2\x9d\xa4\xe2\x9d\xa4\xe2\x9d\xa4\xe2\x9d\xa4\xe2\x9d\xa4\xe2\x9d\xa4\xe2\x9d\xa4\xe2\x9d\xa4\xe2\x9d\xa4\xe2\x9d\xa4\xe2\x9d\xa4\xe2\x9d\xa4\xe2\x9d\xa4\xe2\x9d\xa4\xe2\x9d\xa4\xe2\x9d\xa4\xe2\x9d\xa4\xe2\x9d\xa4\xe2\x9d\xa4\xe2\x9d\xa4\xe2\x9d\xa4\xe2\x9d\xa4\xe2\x9d\xa4\xe2\x9d\xa4\xe2\x9d\xa4\xe2\x9d\xa4\xe2\x9d\xa4\xe2\x9d\xa4\xe2\x9d\xa4\xe2\x9d\xa4\xe2\x9d\xa4\xe2\x9d\xa4\xe2\x9d\xa4\xe2\x9d\xa4\xe2\x9d\xa4\xe2\x9d\xa4\xe2\x9d\xa4\xe2\x9d\xa4\xe2\x9d\xa4\xe2\x9d\xa4\xe2\x9d\xa4\xe2\x9d\xa4\xe2\x9d\xa4\xe2\x9d\xa4\xe2\x9d\xa4\xe2\x9d\xa4\xe2\x9d\xa4\xe2\x9d\xa4\xe2\x9d\xa4\xe2\x9d\xa4\xe2\x9d\xa4\xe2\x9d\xa4\xe2\x9d\xa4\xe2\x9d\xa4\xe2\x9d\xa4\xe2\x9d\xa4\xe2\x9d\xa4\xe2\x9d\xa4\xe2\x9d\xa4\xe2\x9d\xa4\xe2\x9d\xa4\xe2\x9d\xa4\xe2\x9d\xa4\xe2\x9d\xa4\xe2\x9d\xa4\xe2\x9d\xa4\xe2\x9d\xa4\xe2\x9d\xa4\xe2\x9d\xa4\xe2\x9d\xa4\xe2\x9d\xa4\xe2\x9d\xa4\xe2\x9d\xa4\xe2\x9d\xa4\xe2\x9d\xa4\xe2\x9d\xa4\xe2\x9d\xa4\xe2\x9d\xa4\xe2\x9d\xa4\xe2\x9d\xa4\xe2\x9d\xa4\xe2\x9d\xa4\xe2\x9d\xa4\xe2\x9d\xa4\xe2\x9d\xa4\xe2\x9d\xa4\xe2\x9d\xa4\xe2\x9d\xa4\xe2\x9d\xa4\xe2\x9d\xa4\xe2\x9d\xa4\xe2\x9d\xa4\xe2\x9d\xa4\xe2\x9d\xa4\xe2\x9d\xa4\xe2\x9d\xa4\xe2\x9d\xa4\xe2\x9d\xa4\xe2\x9d\xa4\xe2\x9d\xa4\xe2\x9d\xa4\xe2\x9d\xa4\xe2\x9d\xa4\xe2\x9d\xa4\xe2\x9d\xa4\xe2\x9d\xa4\xe2\x9d\xa4\xe2\x9d\xa4\xe2\x9d\xa4\xe2\x9d\xa4\xe2\x9d\xa4\xe2\x9d\xa4\xe2\x9d\xa4\xe2\x9d\xa4\xe2\x9d\xa4\xe2\x9d\xa4\xe2\x9d\xa4\xe2\x9d\xa4\xe2\x9d\xa4\xe2\x9d\xa4\xe2\x9d\xa4\xe2\x9d\xa4\xe2\x9d\xa4\xe2\x9d\xa4\xe2\x9d\xa4\xe2\x9d\xa4\xe2\x9d\xa4\xe2\x9d\xa4\xe2\x9d\xa4\xe2\x9d\xa4\xe2\x9d\xa4\xe2\x9d\xa4\xe2\x9d\xa4\xe2\x9d\xa4\xe2\x9d\xa4\xe2\x9d\xa4\xe2\x9d\xa4\xe2\x9d\xa4\xe2\x9d\xa4\xe2\x9d\xa4\xe2\x9d\xa4\xe2\x9d\xa4\xe2\x9d\xa4\xe2\x9d\xa4\xe2\x9d\xa4\xe2\x9d\xa4\xe2\x9d\xa4\xe2\x9d\xa4\xe2\x9d\xa4\xe2\x9d\xa4\xe2\x9d\xa4\xe2\x9d\xa4\xe2\x9d\xa4\xe2\x9d\xa4\xe2\x9d\xa4\xe2\x9d\xa4\xe2\x9d\xa4\xe2\x9d\xa4\xe2\x9d\xa4\xe2\x9d\xa4\xe2\x9d\xa4\xe2\x9d\xa4\xe2\x9d\xa4\xe2\x9d\xa4\xe2\x9d\xa4\xe2\x9d\xa4\xe2\x9d\xa4\xe2\x9d\xa4\xe2\x9d\xa4\xe2\x9d\xa4\xe2\x9d\xa4\xe2\x9d\xa4\xe2\x9d\xa4\xe2\x9d\xa4\xe2\x9d\xa4\xe2\x9d\xa4\xe2\x9d\xa4\xe2\x9d\xa4\xe2\x9d\xa4\xe2\x9d\xa4\xe2\x9d\xa4\xe2\x9d\xa4\xe2\x9d\xa4\xe2\x9d\xa4\xe2\x9d\xa4\xe2\x9d\xa4\xe2\x9d\xa4\xe2\x9d\xa4\xe2\x9d\xa4\xe2\x9d\xa4\xe2\x9d\xa4\xe2\x9d\xa4\xe2\x9d\xa4\xe2\x9d\xa4\xe2\x9d\xa4\xe2\x9d\xa4\xe2\x9d\xa4\xe2\x9d\xa4\xe2\x9d\xa4\xe2\x9d\xa4\xe2\x9d\xa4\xe2\x9d\xa4\xe2\x9d\xa4\xe2\x9d\xa4\xe2\x9d\xa4\xe2\x9d\xa4\xe2\x9d\xa4\xe2\x9d\xa4\xe2\x9d\xa4\xe2\x9d\xa4\xe2\x9d\xa4\xe2\x9d\xa4\xe2\x9d\xa4\xe2\x9d\xa4\xe2\x9d\xa4\xe2\x9d\xa4\xe2\x9d\xa4\xe2\x9d\xa4\xe2\x9d\xa4\xe2\x9d\xa4\xe2\x9d\xa4\xe2\x9d\xa4\xe2\x9d\xa4\xe2\x9d\xa4\xe2\x9d\xa4\xe2\x9d\xa4\xe2\x9d\xa4\xe2\x9d\xa4\xe2\x9d\xa4\xe2\x9d\xa4\xe2\x9d\xa4\xe2\x9d\xa4\xe2\x9d\xa4\xe2\x9d\xa4\xe2\x9d\xa4\xe2\x9d\xa4\xe2\x9d\xa4\xe2\x9d\xa4\xe2\x9d\xa4\xe2\x9d\xa4\xe2\x9d\xa4\xe2\x9d\xa4\xe2\x9d\xa4\xe2\x9d\xa4\xe2\x9d\xa4\xe2\x9d\xa4\xe2\x9d\xa4\xe2\x9d\xa4\xe2\x9d\xa4\xe2\x9d\xa4\xe2\x9d\xa4\xe2\x9d\xa4\xe2\x9d\xa4\xe2\x9d\xa4\xe2\x9d\xa4\xe2\x9d\xa4\xe2\x9d\xa4\xe2\x9d\xa4\xe2\x9d\xa4\xe2\x9d\xa4\xe2\x9d\xa4\xe2\x9d\xa4\xe2\x9d\xa4\xe2\x9d\xa4\xe2\x9d\xa4\xe2\x9d\xa4\xe2\x9d\xa4\xe2\x9d\xa4\xe2\x9d\xa4\xe2\x9d\xa4\xe2\x9d\xa4\xe2\x9d\xa4\xe2\x9d\xa4\xe2\x9d\xa4\xe2\x9d\xa4\xe2\x9d\xa4\xe2\x9d\xa4\xe2\x9d\xa4\xe2\x9d\xa4\xe2\x9d\xa4\xe2\x9d\xa4\xe2\x9d\xa4\xe2\x9d\xa4\xe2\x9d\xa4\xe2\x9d\xa4\xe2\x9d\xa4\xe2\x9d\xa4\xe2\x9d\xa4\xe2\x9d\xa4\xe2\x9d\xa4\xe2\x9d\xa4\xe2\x9d\xa4\xe2\x9d\xa4\xe2\x9d\xa4\xe2\x9d\xa4\xe2\x9d\xa4\xe2\x9d\xa4\xe2\x9d\xa4\xe2\x9d\xa4\xe2\x9d\xa4\xe2\x9d\xa4\xe2\x9d\xa4\xe2\x9d\xa4\xe2\x9d\xa4\xe2\x9d\xa4\xe2\x9d\xa4\xe2\x9d\xa4\xe2\x9d\xa4\xe2\x9d\xa4\xe2\x9d\xa4\xe2\x9d\xa4'
p140
aS'this is actually more relevant now a days xD '
p141
aS'#tweet_like_a_whore'
p142
aS'They are!'
p143
aS':( where is the teehee :| where? I loved it'
p144
aS'I agree with daisymay2552'
p145
aS'what?'
p146
aS'Almost forgot about this :P'
p147
aS'I like goats, your last tweet was funny, so random, pikachu is at lvl 100, \nbibimbap!, bokchoi bokchoi!, eggroll in face!,mWTF IS GOING ON!!!'
p148
aS'making miley cyrus jokes before it was cool :P '
p149
aS'take off your shirt'
p150
aS'wait tweet like a whole like me who made this song is it you or smosh '
p151
aS'No teehee? :('
p152
aS'does nobody notice the tags like my left boob kinda hurt'
p153
aS'you guys should type in jon super wii he has most of ryans old vids'
p154
aS'love it'
p155
aS'Hey, Could you do toy story?'
p156
aS'Cool'
p157
aS'Awesome'
p158
aS'then why didnt you reply to it?'
p159
aS'Something like "OMG FIRST"'
p160
aS'I did it. It was by Suckmyleftbean and the contents of the comment were \n"Wow first"'
p161
aS'My second video! youtube.com/watch?v=E6Fq0dUcK5w . . . . . .'
p162
aS'So I guess by his little dance Tweet Whores all have breasts....even the \nguys'
p163
aS'I did.'
p164
aS'nice foil necklace ... XD!'
p165
aS'Ok good '
p166
aS'I logged on to twitter after watching this...'
p167
aS'Is that naklace made of aluminum?'
p168
aS'Wow!...My brother is a tweet whore..not suprising'
p169
aS'no teehee this time'
p170
aS"Twitter wasn't even that popular at the time. "
p171
aS'all the birds are offended'
p172
aS'Its not tee hee its TEEHEE'
p173
aS'Tweet Wh(.)re'
p174
aS'Uve really gone down hill, ryan. Shame. Im not joking, please. get back to \nhow you used 2'
p175
aS'MAPOTI'
p176
aS'What, no TEEHEE?!?!'
p177
aS'Y U NO REPLY TO COMMENT?!'
p178
aS'....................'
p179
aS'why no TEEHEE? '
p180
aS'you just said TEEHEE '
p181
aS'tila tequila and miley cyrus'
p182
aS'What u talkin bout? '
p183
aS'Why didnt you keep your shirt of the whole time? I bet most the other girls \nare thinking that'
p184
aS"I got one..... When you like everyone's comment *Tweet whore* I'm not sure \nif that one was mention."
p185
aS'Yeah. Yeah it was. '
p186
aS'not a tweet whore a like whore'
p187
aS'TWEEHEET'
p188
aS'To the person below me shut the heck up its awesome'
p189
aS'\xe2\x9d\xa4\xe2\x9d\xa4\xe2\x9d\xa4\xe2\x9d\xa4\xe2\x9d\xa4\xe2\x9d\xa4\xe2\x9d\xa4\xe2\x9d\xa4\xe2\x9d\xa4\xe2\x9d\xa4\xe2\x9d\xa4\xe2\x9d\xa4\xe2\x9d\xa4\xe2\x9d\xa4\xe2\x9d\xa4\xe2\x9d\xa4\xe2\x9d\xa4\xe2\x9d\xa4\xe2\x9d\xa4\xe2\x9d\xa4\xe2\x9d\xa4\xe2\x9d\xa4\xe2\x9d\xa4\xe2\x9d\xa4\xe2\x9d\xa4\xe2\x9d\xa4\xe2\x9d\xa4\xe2\x9d\xa4\xe2\x9d\xa4\xe2\x9d\xa4\xe2\x9d\xa4\xe2\x9d\xa4\xe2\x9d\xa4\xe2\x9d\xa4\xe2\x9d\xa4\xe2\x9d\xa4\xe2\x9d\xa4\xe2\x9d\xa4\xe2\x9d\xa4\xe2\x9d\xa4\xe2\x9d\xa4\xe2\x9d\xa4\xe2\x9d\xa4\xe2\x9d\xa4\xe2\x9d\xa4\xe2\x9d\xa4\xe2\x9d\xa4\xe2\x9d\xa4\xe2\x9d\xa4\xe2\x9d\xa4\xe2\x9d\xa4\xe2\x9d\xa4\xe2\x9d\xa4\xe2\x9d\xa4\xe2\x9d\xa4\xe2\x9d\xa4\xe2\x9d\xa4\xe2\x9d\xa4\xe2\x9d\xa4\xe2\x9d\xa4\xe2\x9d\xa4\xe2\x9d\xa4\xe2\x9d\xa4\xe2\x9d\xa4\xe2\x9d\xa4\xe2\x9d\xa4\xe2\x9d\xa4\xe2\x9d\xa4\xe2\x9d\xa4\xe2\x9d\xa4'
p190
aS'he said whore'
p191
aS'then dont .... no one asked u to be a smartass about it'
p192
aS'im not tweeting cause i like miley '
p193
aS'Anyone notice at 0:50 the second tweet? Purple Llamas attack... '
p194
aS"NO. I won't suck your left bean"
p195
aS'MY JAM DOE!!'
p196
aS"Why didn't all girls keep their shirt off the whole time? I bet most the \nother guys are thinking that (JOKESTEAL)"
p197
aS'no one asked for you to be an ass.'
p198
aS'if you assume that i did this to feel good about my self then you need to \nrethink your life because i did this for the plain and simple fact that \neven now his old videos can still make me laugh. furthermore if you have to \nleave a replies to comments where you bring people down then i suggest that \nyou rethink wat it is you are doing with you life.'
p199
aS'Dear Ryan wAT is a life in jersey shore like?'
p200
aS'i love autotune '
p201
aS'teehee?'
p202
aS"@gamenerd67 Bitch please, I'm watching this in 3013!"
p203
aS'\xe2\x9c\x8a'
p204
aS'TEEHEE !!!'
p205
aS'This should be on iTunes'
p206
aS'Like if your wathcing this is 2013'
p207
aS'lol 2:19 !'
p208
aS'somehow this song is kinda scary'
p209
aS'1:43 good thing we have intsagram now'
p210
aS"Read the lyrics... your and you're are almost always misused."
p211
aS'ManyFaces1999 I FOUND IT!!!! HE GETS IT!!!'
p212
aS"Dumbass he didn't even have a channel then."
p213
aS'Omg Ryan I love you'
p214
aS'Good luck looking through 50,000 comments :D'
p215
aS'*Farthest'
p216
aS'whats twitter??'
p217
aS"Autotunes.....we can't live without you"
p218
aS'NOOOOOOOOOOOOOOOOOOOOOOOOOOOOOOOOOOOOOOOOOOOOOOOOOOOOO!!! I WAS LOOKING FOR \nTHE FIRST COMMENT THEN WHEN I WAS @ 2 YEARS I ACCIDENTLY PRESSED ON THE \nYOUTUBE ACC!!! FUUUUUUUUUUUCKKK'
p219
aS'I had to take a shower, sorry'
p220
aS"any body notice freakin' awesome armpit hair?!!! It was gross actually..."
p221
aS'hahahahahaha so true'
p222
aS'loll ya'
p223
aS'2009!!!!'
p224
aS"I didn't notice that one o.o"
p225
aS'dat old 360p'
p226
aS'But what if we agree that your ugly? P.s. that was a lie'
p227
aS'Turn the subtitles on Thank me later'
p228
aS"I'm now, not attracted to you."
p229
aS"Y is Ryan so hot?! I'm f*ckin dying over here p.s I'm a tweet whore k...luv \nu xx"
p230
aS'thumps up, if u guys r still watchin dis in 2013!!'
p231
aS'im still wachin old videos of nigahiga in 2013 '
p232
aS'pause at 1:04 LOL'
p233
aS"i love ryan he's so funny and awesome!!! lol i can't stop watching his \nvideos "
p234
aS"it's so catchy :D"
p235
aS'Still watching in 1943 :)'
p236
aS'Gosh ur so hot Ryan!!'
p237
aS"It's a good song NOT!!"
p238
aS'No teehee?'
p239
aS"That hand motion... I've watched this video so much, I memorized the hand \nmotions. TWEET WHORE!!!"
p240
aS'Me? Thanks'
p241
aS'Ryan should get a cool intro for the beginning of his vids'
p242
aS'where our teehee?! TEE HEEE IS NEEDED HERE I LOVE IT ITS JKS AND NEVA GETS \nOLD!!'
p243
aS'TEEHEE'
p244
aS"Dear ryan can you do a miley cyrus we can't stop parody?"
p245
aS'Where is the TEEHEE? Oh god'
p246
aS'i dont know why but I LOVE THIS VIDEO AND I LOVE THIS SONG AND THE BEAT AND \nTHE LYRICS. my personal fav vid ryan :D '
p247
aS'HehHeh, he has armit hair. XD'
p248
aS'Pikachu is at lvl 100? What?'
p249
aS"I've seen a six foot tall Asian..."
p250
aS'he alredy did'
p251
aS'thats fine it was more for liking mentally then physically '
p252
aS"It's not the first video, he started 7 years ago"
p253
aS'acacia loves you lol'
p254
aS'Used to be a tweet whore ._. (not really) -Trauma Tize'
p255
aS"I remember watching this days after I got my Twitter account and I'm like \ndamn, he knows!"
p256
aS'1:04 AAW YEAH'
p257
aS'bibimbap!'
p258
aS'AWW HE MADE A SONG ABOUT ME!!!'
p259
aS'He never said TEEHEE'
p260
aS"I didn't know your account is TheRealRiahnna"
p261
aS'Love this video!<3'
p262
aS'Nope, get out more.'
p263
aS'No teehee?'
p264
aS'dig a hole, go in it, have someone bury yhu, then die. he means sing bad!! \nduuhhhh looks like yhur too dumb to figure tht out'
p265
aS"I don't know if I like this"
p266
aS"He didn't say Tee Hee!! The world is going to explode on 5.66.2016, now.. \n-_- Great.. He even made the month 39 days longer because of it.."
p267
aS"Funny Everyone on tweeter is Tweet Whore that's why i don't do it "
p268
aS'tweet'
p269
aS'does anybody notice his necklace is made out of foil?'
p270
aS'Is there an original song he took the music from?'
p271
aS'PIKACHU IS AT LVL 100'
p272
aS'Lol Ryan xD <3 ;)'
p273
aS'No....He called himself a tweet door.....!Yes he called himself a tweet \nwhore'
p274
aS'That mind Raped me!'
p275
aS"Didn't you read it in the tweet at 0:50 ? "
p276
aS'lol i read the tweets anand Ryan said "My left boob kinda hurts" XD lol'
p277
aS'higa is japanese last name'
p278
aS'o: I love this video lol.'
p279
aS'Lmfaoo XD '
p280
aS'No, Filipino is spelled with "F". The actual country is spelled with "Ph". \nAnd if you are true Pilipino you spell with just p '
p281
aS'Hahhahahah! Funny as hell!'
p282
aS'@ 2:01 onwards... he kinda looks like jay chou o.o anyone??'
p283
aS'You didint even spell it right..... ph not f'
p284
aS'o: I love'
p285
aS'Inspired me get twitter'
p286
aS'teehee?'
p287
aS'lol the tweets in the back'
p288
aS"Asian's are amusing. Glad I'm Filipino."
p289
aS'He didnt do teehee yet this is one of the old videos in 2009 its 2013'
p290
aS'Omg, 0:49- 051 his abs 0.0'
p291
aS'what did i just watch.'
p292
aS'Lol'
p293
aS'Nobody likes you. Go away.'
p294
aS"He wore a ring. Who's his gf at the time??????"
p295
aS'R Dizzle did a good job =P'
p296
aS'U wer so wittle'
p297
aS'WHERES THE TEEHEE ???!!?!?!?!??!?!?!?!??! '
p298
aS'Natural singing right? :)'
p299
aS'To be raped'
p300
aS'I love how Ryan was in the commercial before this'
p301
aS"it is ''first''"
p302
aS'#almonds!'
p303
aS'this is nice and funny'
p304
aS'NO TEEHEE!?'
p305
aS"I'm saying that no matter how old Ryan Higa's Videos are.... it's still \nbeing watched in 2013 !! :DD"
p306
aS'nice eyes.....'
p307
aS'why is there a ring on his left hand at :32'
p308
aS'tilamily '
p309
aS"Mmmm bibimbap sounds good right about now, it's meat and mixed vegetable \nrice."
p310
aS'He turns me on'
p311
aS'Thumbs up if u r watching in 2013 and it never gets boring '
p312
aS'no tehee?!?!'
p313
aS'pause at 0:51 and u will see a teehee'
p314
aS"Wow, Twitter's certainly changed :P"
p315
aS'TEEHEE'
p316
aS"Memories man lol I remember when he first posted this video haha couldn't \nget enough"
p317
aS'cuz hes married jk just to look cool i guess '
p318
aS'cause sometimes, when people feel like dressing up an outfit, they put on \naccessories '
p319
aS'tweet like you love miley !! hahaha'
p320
aS'stop at 1:11. LOLOL'
p321
aS'I WANT TEEHEE'
p322
aS':|]'
p323
aS'Love you Ryan!!!!'
p324
aS"Ryan, you're not a tweet whore anymore"
p325
aS"he must've had a lot of time on his hands to create that chain -_-"
p326
aS'cool'
p327
aS'0:50 read the tweets'
p328
aS'why is this the first time im watching this... the fuuuuckk'
p329
aS'Miley Cyrus is just a whore. Not a tweet whore.'
p330
aS'Tweet tweet motherfucker ;D'
p331
aS'Now when I watch this, I feel like his nipples are missing some cows. :{D'
p332
aS'this video didn`t have a teehee at the end sooooo . TEEHEE'
p333
aS'at 32 sec. you can see his promise ring to his gf '
p334
aS"its crazy... I mean at 0:16 I didn't understand him really, and I thought \nhe said Tlumley, which happens to be my first initial and my last name, so \nI kinda freaked lol."
p335
aS'"Like when I fart, cry, laugh, burp and when I have to pee" xD'
p336
aS"WHERE'S TEEHEE? "
p337
aS'great lyrics for twitter haha!! '
p338
aS'he looks like lee hom here~ haha~ :)'
p339
aS'lololololololololololololololololololollolololololololololoololololololol \npeople just dieee!!!! who cares lol (whispersZZZZZZZ) I just want u guyus \ntodie pwease jkjjkjjkjkjkjkjkjkjkjkjkjkjkjkjkjkjkjkjkjkjk'
p340
aS'who is Miley Cyrus? '
p341
aS'lol in my other tab i have miley cyrus we cant stop cover of Chester See \nhahaha and the song talks about miley :)'
p342
aS"no, i'm watching this in 400 B.C in my IStone :P"
p343
aS'TheRealRyanHiga'
p344
aS'He never mentioned that in the video'
p345
aS'super old but do you like bibimbap?? and bokchoi?? those are my favorite \nKorean dishes!!'
p346
aS'Dat auto tune'
p347
aS"He's engaged! O.O"
p348
aS'Same here lol'
p349
aS'what did he say at 0:16 ?'
p350
aS'No teehee'
p351
aS'WHAT? no TEEHEE?'
p352
aS'Watch his abs at 0:47 - 0:49 '
p353
aS'I use Twitter to stalk Team Starkid. What about you?'
p354
aS'No teehee! D:'
p355
aS'watch me myself and i episode 1 its a new web show but it looks like its \ngoing somewhere and its hilarius '
p356
aS'Lol i just watched rant on music b4 this lol'
p357
aS'You have a great body Ryan'
p358
aS'Aww no teehee?'
p359
aS'gangsta ryan '
p360
aS"OMFG. ''My left boob kinda hurts..'' You need to go get that checked out..."
p361
aS'there is a teehee 0:51'
p362
aS'Ryan do you ever look back on your videos and think, What the heck was I \nthinking.?'
p363
aS'hey guess what?! NO'
p364
aS"It's horrible I don't like this vedio I am not saying this to offend Ryan I \nlike ur veidoes but this one sucks"
p365
aS'love ur icon!'
p366
aS'There was no teehee'
p367
aS'DID ANYONE ELSE SEE: Snipplefonipple? Df..'
p368
aS'what. the. fuck. did. I. just. watch.'
p369
aS'Man no teehee ;('
p370
aS"My sister to me: You were waiting for them clothe sto come off. Me:It's not \nmy fault he's a beautiful man. :P"
p371
aS'Stupid gay people listening to a stupid mind fucking song! what can i say \nhaters gonna hate! Bitches'
p372
aS'@BLUEDAWN1213'
p373
aS'Theres no teehee'
p374
aS'wtf'
p375
aS'I LOVE UNICORNS! lmaoo ryan yu kill me '
p376
aS'Cant believe i never saw this and the tweet at the top made me laugh so \nmuch xD egg roll in face'
p377
aS'I was purposely waiting for the topless part lol'
p378
aS'he still has the same black background! ;") '
p379
aS'Asian whore lol jk'
p380
aS'Are int you in supa ninjas'
p381
aS'he was hot without the shirt lol'
p382
aS'seeing as this video didn`t have a TEEHEE at the end i said it for him... :D'
p383
aS'Ryan , do you live in Las Vegas?'
p384
aS"I'm currently tweeting about this song right now."
p385
aS"*he's"
p386
aS'@scarl831'
p387
aS'TEEHEE ?? '
p388
aS'so. much. autotune. only he could make it work'
p389
aS'gahaha youre so coool'
p390
aS'lol i am gonna tweet about this '
p391
aS'Yea ~'
p392
aS"and why there's no TEEHEE as usual?"
p393
aS'Where is the teehee??? :-('
p394
aS'I WISH RYAN WUD STOP TAKING HIS SHIRT OFF IN HIS VIDEOS I LOVE FOR HIS \nCOMEDY STUFF NOT HIS CHEST'
p395
aS"I don't have twitter and I'll never have it because my life nor is anyone \nelse's is so important or funny/exiting/awesome to keep following them."
p396
aS'TWEET THIS VIDEO!!!!!'
p397
aS'Well, I owe you a sub, so here you are'
p398
aS'no TEEHEE?'
p399
aS'I tweet like a whore..'
p400
aS'Oh no he didnt say Tehee'
p401
aS'me too! '
p402
aS'lolzzzzzzzzzzzzzzzzzzzzzzzzzzzzzzzzzzzzzzzzzzzzzzzzzzzzzzzzzzzzzzzzzzzzzzzzzzzzzzzzzzzzzzzzzzzzzzzzzzzzzzzzzzzzzzzzzzzzzzzzzzzzzzzzzzzzzzzzzzzzzzzzzzzzzzzzzzzzzzzzzzzzzzzzzzzzzzzzzzzzzzzzzzzzzzzzzzzzzzzzzzzzzzzzzzzzzzzzzzzzzzzzzzzzzzzzzzzzzzzzzzzzzzzzzzzzzzzzzzzzzzzzzzzzzzzzzzzzzzzzzzzzzzzzzzzzzzzzzzzzzzzzzzzzzzzzzzzzzzzzzzzzzzzzzzzzzzzzzzzzzzzzzzzzzzzzzzzzzzzzzzzzzzzzzzzzzzzzzzzzzzzzzzzzzzzzzzzzzzzzzzzzzzzzzzzzzzzzzzzzzzzzzzzzzzzzzzzzzzzzzzzzzzzzzzzzzzzzzzzzzzzzzzzzzzzzzzzzzzzzzzzzzzzzzzzzzzzzz'
p403
aS'is this wat the world has come to'
p404
aS'No teehee? D;'
p405
aS'twit like a hore like me'
p406
aS'2013 and still watching it! '
p407
aS'where the hell is my TEEHEE!'
p408
aS'you are so great!! '
p409
aS'was?!'
p410
aS'This is great XD'
p411
aS'Nigahiga you made that video on my birthday!!!!!!!!!!!!!!!!!!! THANK YOU!'
p412
aS'No teehee: ('
p413
aS'not anymore.. ;) lolz'
p414
aS'WTF!? He still is!'
p415
aS"Ryan Higa IS hot! That's what I meant. He is hot. As in, in the present. He \nwas hot here and his hot now. People be mad defensive xp"
p416
aS'listen to willie bum bum'
p417
aS'He forgot the teehee'
p418
aS'bokchoi! BOKCHOI!!!!!!!!'
p419
aS'What is a tila/miley?'
p420
aS'lol i 4got about this, made a new account. i havent seen this since 7th \ngrade xD'
p421
aS"Omg. I remember when this was just uploaded :') memories"
p422
aS'IS'
p423
aS'was???'
p424
aS'SHIT HES HOTT 2:03 !!'
p425
aS'with all the autotuning i think you are still a bit off the tune \nRyan..haha. teehee!'
p426
aS'Look at his followers there, so crazy :L'
p427
aS'Just wow'
p428
aS"Dude i'm so tweeting this"
p429
aS'Omg the old twitter... It felt like forever lol'
p430
aS"damn! he's hot!"
p431
aS'is*'
p432
aS'Is he wearing a wedding ring'
p433
aS'gonna be doing the tweet whore dance tomorrow at school now x)'
p434
aS'Follow me on twitter @maliklibra23'
p435
aS'I use Facebook'
p436
aS"was? HE'S STILL SEXY"
p437
aS'I just got an IDEA GAME!!!'
p438
aS'Yo nice rap !'
p439
aS'love how the top comments haves the same amount of likes as each other'
p440
aS'Damn it i miss the old twitter'
p441
aS'Pffft, first. Thats nothing. Im 44,737th'
p442
aS'NO IM NOT WATCHING THIS IN 2013 IM WATCHING IT IN 2009'
p443
aS'Was that a pic of ur family... or atleast ur mom and dad'
p444
aS'OMG AM GOING TO TWEET TO TWITTER xD'
p445
aS'oh dude, you just described everyone on twitter '
p446
aS'No teehee? Rejection :c'
p447
aS'Nice nipples Ryan XD'
p448
aS'teehee?'
p449
aS'if you need likes this bad to feel good about yourself then you need to \nreevaluate your life, if you dont then stop being a like whore'
p450
aS'What grade are you in now? O,O'
p451
aS'lol damn Brits. So whorish. '
p452
aS"No teehee?!?! Momy I'm scared!"
p453
aS'you forgot the f'
p454
aS"You're commenting so WHORE-ably! HAHAHA. Ha. Ha... Ha... no?"
p455
aS'damn not Tee Hee , o well :/'
p456
aS'this video is there since 2009, great if you just realized the tweet \nwritten in the background in 2013 hahaha '
p457
aS'no teehee?'
p458
aS'Is that a compliment or insult? XD'
p459
aS'When your under 10 but over 68 >.<'
p460
aS"Who didn't?"
p461
aS'God he was sexy'
p462
aS'This was uploaded on my birthday:)'
p463
aS'no tee hee'
p464
aS'Definatley a compliment:) '
p465
aS"it's so crazy to hear you cuss, even though it's just whore"
p466
aS'is he married ? that ring on his finger is so confusing '
p467
aS'wow this is like the first nigahiga video where you can see the red dislike \nbar'
p468
aS'sponsered by Facebook '
p469
aS'lol tweet like teelamalee i actually dont know what here said there but the \nsongs kind of catchy '
p470
aS'0:51 second comment'
p471
aS'ryan, please put your shirt back on.....--___-- '
p472
aS'He is looking like ok teacyoen more and more XD'
p473
aS'is this a parody?'
p474
aS'true'
p475
aS'2:01 <3 <3 <3'
p476
aS"1) Pause the video at 0:51 , And read what's wrote on the tiwitter."
p477
aS'Or with IE8.'
p478
aS'DAMN he has HUGE muscles '
p479
aS'Just had to see it because of his 6 million subscribers XD Looking back at \nthe good old time x)'
p480
aS'I just noticed that chain is made from foil'
p481
aS'I broke my Nexus One??? What abt that?'
p482
aS'purple llamas attack..!! WAKAKAKAKAKAKA.. TEEHEE !!'
p483
aS"This is long time ago . Of course there's no teehee dumbass."
p484
aS'turn on subtitles lol'
p485
aS'who else after realizing thats ryans twitter account went and followed him \nnope just me ok then (-_-)'
p486
aS'& 2:00 :D'
p487
aS'no teeehe'
p488
aS'Where was the teehee??????'
p489
aS'who else noticed he randomly took off his shirt?'
p490
aS'No.Hes not engaged or married...i dont think he even has a girlfriend.'
p491
aS'no TEEHEE? :O'
p492
aS'lol seeing him with the hat and chain reminds me of the Chris Brown and \nRihanna video xD '
p493
aS'lol,grammar people....awesome:)'
p494
aS'Your Videos are awesome in fact im making a youtube series called Ryan T.V. \nand there are 3'
p495
aS'That comment made no sense until I watched the video x)'
p496
aS'Wait!!! No teeheee at end'
p497
aS'i agree with you. i love all the music he makes in his videos. especially \nthis one and im a chingsta. :)'
p498
aS'7,308 people are tweet whores '
p499
aS"Sometimes I just stalk Ryan's YouTube channel."
p500
aS'ATTENTION!!! I have an important announcement: pikachu!! that is all...'
p501
aS'no TEEHEE AHHHHH'
p502
aS'Ur cute, and handsome and funny, and intelligent, and bipolar ;) love ya!!!!'
p503
aS'lol'
p504
aS'LOL xD'
p505
aS'I like goats, your last tweet wa so random the pikachu is at lvl 100, \nbokchol bokchol! eggroll in face. WTF IS GOING ON!!!'
p506
aS'Please keep your shirt off...'
p507
aS'haha yeah i guess! thanks :D '
p508
aS'SO adorkable!!!! :P '
p509
aS'pause at 0:51 and read the background'
p510
aS'I finally saw Ryan with his shirt off! LIFE COMPLETE'
p511
aS'I am so a tweet whore'
p512
aS'He wasn\'t as "buff" as he is now.'
p513
aS"Lol funny song I luv nigahiga he's so cool"
p514
aS'0:51 says teehee'
p515
aS'So this was Twitter looks like before.. '
p516
aS"the end........ it's soo empty, something is missing, maybe a word that \nstart with a T and end with a eehee soooooooooo empty"
p517
aS"it's a part of male puberty..."
p518
aS"Guys aren't supposed to shave their 'arm' hair, But if you're a girl, You \nare supposed to shave."
p519
aS'lol at 0:51 , my left boob kinda hurt'
p520
aS'Does he have a wedding ring on?o.O'
p521
aS'he posted this on my birthday!!! :)'
p522
aS'That is so weird'
p523
aS'Heehee'
p524
aS'It says in one of the tweets, "my left boob kinda hurt".'
p525
aS'There needs to be an Instagram song ;) \xe3\x81\x82\xe3\x82\x8a\xe3\x81\x8c\xe3\x81\xa8\xe3\x81\x86'
p526
aS'well there was a teehee in the tweet at 0:47'
p527
aS'i kept waiting for the teehee but sadly it never came so i sat there like \nan idiot staring blankly at my computer, wondering where the teehee i so \nlonged for '
p528
aS'I LIKE YOUR CAP BillAbong'
p529
aS'u didnt notice?'
p530
aS"i'd like to hear your real not autotuned voice ryan"
p531
aS'no teehee nooooooooooooo!!!!!!!!!!!!!!!!!!'
p532
aS'Dear Ryan, does Red Bull give you wings?'
p533
aS'Innovative!'
p534
aS'Are you a tweet whore? I signed up for twitter a year ago! Follow Me on \ntwitter! :)'
p535
aS"Where's the teehee"
p536
aS'im sharing this on twitter '
p537
aS'actually the video was uploaded on Jul 3, 2009 (copy paste ;) ) so the \nworld has come to a better place with a teehee at the end of the videos ;)'
p538
aS'no a laptop with no youtube.'
p539
aS"LOL no. He's not married. That's a promise ring. Ryan used to wear that to \nremind him of his commitment to his girlfriend (Tarynn Nago), who is a high \nschool senior in Hawaii that time. They already broke up though.. They \ndated for 4 years (2006-2010). ^^"
p540
aS'Nice way to copy my comment ;)'
p541
aS'lol chain is foil'
p542
aS'Gotta be kidding me... Y U COPY MY COMMENT'
p543
aS'*tila not tiley lol'
p544
aS'Ik this sounds stupid, but even though hes not as cool, my boyfriend looks \njust like nigahiga when he was younger.'
p545
aS'billabong hat '
p546
aS'wtf is teelamilee????????? :S xx'
p547
aS'im thinking tiley tequila and miley cyrus combined? ^.^'
p548
aS'No Teehee'
p549
aS'REALLY CATCHY...NOW I CANT GET IT OUT OF MY HEAD,'
p550
aS'ok in that case better wording would be something like "his videos are \nstill good in 2013" or something where you express you like it , but asking \nfor likes is pointless, obviously anyone who sees your post is in 2013, by \nthe time its 2014 your post will probably be far down on the list. i don\'t \nneed to post comments where i put people down, i am just hoping that by \nsaying this you wont do this again,, its unoriginal, almost everyone is \nhere cause they like his videos still, and it wastes space'
p551
aS"You're talking about your boob, That is enough to take 15 people attention \n(Count me in!)"
p552
aS'yeah ok..i stay up late so that i can see him tweet! :D'
p553
aS'are you implying he is no longer sexy?'
p554
aS"oh god, now i can't get it out of my head =m= and i don't do tweet ! =w="
p555
aS'Ppl who comment negativly is probably a twit whore so leave ryan alone'
p556
aS"I don't use twitter anymore. People were being boring and tweeting about \nlunch or something. Never anything important enough to take my tumblr time"
p557
aS'teeeeheee follow me ryan i luv uuuuuuuuuuu @sushigurl78'
p558
aS"Because people don't like the vid but i think the video is funny"
p559
aS'When he wear cap he looks kindof like jay chou 2:00'
p560
aS'true dat'
p561
aS'BEEEF '
p562
aS'1:04 ...ryan.... nice backround... hahaha '
p563
aS'NO TEEHEE.'
p564
aS'twitter sucks'
p565
aS'So are those the actual signings for "tweet whore"? xD (for the literal \npeople on the internet I AM BEING SARCASTIC!)'
p566
aS'I love bibimbop!'
p567
aS'Tweet whore ;)'
p568
aS"i love the part when he say ''I write that's i'm ugly that's you can \ndisagree.''"
p569
aS'You do realize that you are a douche?'
p570
aS'This video is so old that Ron Artest and Soulja Boy are trending background'
p571
aS'tweet whore?!?!?! '
p572
aS'This is so funny!'
p573
aS'but I thought this video was a good...I thought u meant u were so \ninterested u felt like it was hours...'
p574
aS'"Tweet until you\'re sounding dumb"!? oh Ryan, you\'re far past that!'
p575
aS'RYAN ARE YOU REALLY MARRIED?! HAHAHAH. ANSWER ME PLEASE.'
p576
aS'This is before he started saying teehee'
p577
aS"Nah, I just watch your vids till it's super late X3"
p578
aS'Cause he uploaded this in 2009, what do you expect ? '
p579
aS'lol jokes on u "wteeder"'
p580
aS'Dear ryan, what song is this a spoof of?'
p581
aS'Why the hell is the dislike bar visible?? The song is good and funny!!'
p582
aS'If ryan tweets more than he talks then he must, tweet A LOT!!!'
p583
aS'I expect a "TeeHee"'
p584
aS'ha ha jokes on u i dont have wteeder '
p585
aS"Then I've been here for 10 hours. :3"
p586
aS'is that a good thing?'
p587
aS'Is that an insult?'
p588
aS'pause at 0:51 and read'
p589
aS"This was made in 2009 that's why lol."
p590
aS'2012'
p591
aS'obviously not as time flies when ur having fun. its an insult'
p592
aS'XD i love the "tweet whore" dance....:)'
p593
aS'lol old but still great :D '
p594
aS'some men just want to watch this world burn'
p595
aS'oh, great, now i got this stuck in my head, and now have the urge to get \ntwitter!'
p596
aS'cause he doesnt have a shirt on?'
p597
aS"Even though he can't sing ,, i find him really attractive "
p598
aS'SWOG^'
p599
aS'The ring on his finger...'
p600
aS"That's funny hahaha!"
p601
aS'You look exactly like the guy that likes me and you act like him too!'
p602
aS'7000 people are tweet whores'
p603
aS'1. Turn on the captions 2. Laugh your ass of'
p604
aS'bibimbop bok choy'
p605
aS'you clearly dont know Ryan....go die in a hole '
p606
aS'WHERE IS THE TEEHEE'
p607
aS'this means that.....we missed a wedding.... shame.. '
p608
aS'Ryan likes unicorns... I see where this is going, right bros?'
p609
aS'in a negative or possotive way?'
p610
aS'LOL THIS IS SO ME ON TWITTER '
p611
aS'Captions: When you have over a hundred updates, when you say up to rethink \nits super late Me: ROFL'
p612
aS'we can still see his abs on his other video Like a good boy at 0:43. hahaha \n:)))'
p613
aS'possotive!'
p614
aS'Lol the real Ryan higa that cracked meh up sssssssooooooo hard!!!!!'
p615
aS'This shit is weird and funny.'
p616
aS'best song ever'
p617
aS'This could in the billboard tmr! '
p618
aS"This is not his best video thigh I didn't really like it"
p619
aS'-Tweets about Ryan Higa and his song Tweet Whore-'
p620
aS'New Tweet: watching tweet whore its so funny'
p621
aS'wow 1:27 '
p622
aS'The Location said Las Vegas XD'
p623
aS'I read something weird :/ " my left boob kinda ... " LOL '
p624
aS"he's....sparkling ._. vampire..."
p625
aS'Ryan + shirtless + singing a random but awesome song = TOO MUCH SEXYNESS ON \nYT!!!!!!!!!'
p626
aS'0:31 Thought it said blow me? :0'
p627
aS'0:51 read the second paragraph O.O'
p628
aS'OMG IM GOING TO TWEET THIS VIDEO'
p629
aS'Look to the right of the thumbs down, and its the very last button with the \npiece of paper and the highlighted section c: just click that'
p630
aS'I love that part :D \xe2\x99\xa5'
p631
aS'how?'
p632
aS'positive of course'
p633
aS'@TangelaLove I Follow Back (:'
p634
aS'Ryan make 2 minuets feel like 1 hour'
p635
aS'HEY HEY HEY! Pikachu getting lv100 is a serious milestone.'
p636
aS"where's the TEHEE ?? :("
p637
aS'TeeHee???'
p638
aS"Are you trying to annoy us Ryan? cos' it's really working."
p639
aS"He used to live in Vegas, you know. I don't know if he still lives there."
p640
aS'pause at 1:27 and read o:'
p641
aS'0:48 pause'
p642
aS'we didint get to c his abs! :('
p643
aS'July 3 is my birthday'
p644
aS'MAPOTI. I did it to myself so you guys will shut up. lol'
p645
aS'what the hell is going on?? he has a ring on his ring finger at 0:20!!! oh \ngod..'
p646
aS'NO TEEHEE?!'
p647
aS'he still is sexy'
p648
aS'2:00 yesssss!!!!! (been waiting for that)'
p649
aS'*such'
p650
aS'Lol WAS?? '
p651
aS'I wonder what the first comment on this was? whoever gets it gets a sub'
p652
aS'Tweet like a bird'
p653
aS'u loke so young'
p654
aS'Teehee'
p655
aS'tweet tweet till your hands are long... SLENDERMAN'
p656
aS'my left boob hurt?!? did anyone else see that in the background?'
p657
aS'did you see the shipplefonipple in the backround? '
p658
aS'did you act in the movie 7am arivu '
p659
aS'Like a whore!'
p660
aS'oh my gosh its 2012 and this is from 2009 he is still sexy'
p661
aS'Dear Ryan, can you show us how to attract Asian men?'
p662
aS'LOLOLOLOLOLOL '
p663
aS'1:39 captions on Ryan sing when you computer gets a virus. Captions say \nwhen your computer gets dumped by race xDDDDD'
p664
aS'1st vid that I didnt like by u'
p665
aS'He used to have 17,000 followers now he has 700,000.'
p666
aS"You're solo, I'm watcfhing this in 1412."
p667
aS'1:56 .. i like goats your last tweet was funny so random pikachu is at lvl \n100 bibimbat bokchoi bokchoi eggroll in face ... wtf is going on :l'
p668
aS'are you christian '
p669
aS'In the background second paragraph it says: My left boob kinda hurts 0:51 '
p670
aS'0:20 wtf?? XD'
p671
aS"woooow in 2009 Ryan couldn't rap! :P"
p672
aS'this is me now'
p673
aS"o_o The worst part is that the video ended D': But then I replayed it but \nit keeps ending! D:"
p674
aS'soo that means??'
p675
aS'nope ur not the only one....... :P'
p676
aS'Nope, watch his video: The Worst Boyfriend Ever.'
p677
aS'lol xD'
p678
aS'look at his face at 1:11 lol '
p679
aS'Tweet?'
p680
aS"No one's whatching in 2012... I'm sure there are plenty of people WATCHING \nthis... the chances of the entire world completely avoiding a video because \nof a date is non existant"
p681
aS'if you want to laugh turn on closed captions '
p682
aS'YTF!!!!!!!!!!!!'
p683
aS'But...but you are following Miley Cyrus!!!'
p684
aS" I'm with you babe."
p685
aS'The twitter theme song XD lmbo'
p686
aS'The beat is too catchy, crap now im gonna be singing this all week'
p687
aS'im literally crying because its so funny '
p688
aS'waiting for teehee in the end. wasted 5 seconds of my life'
p689
aS'2:00 - 2:10 the best part! haha. Shirtless Ryan <3'
p690
aS'umm twitter was made in 2009.... WTF i just got a facebook that year..'
p691
aS'lol 1:06 the captions say "Screams juvenile diabetes he seems to me senator \nand civil rights leader" LOL xP'
p692
aS'Still so :) I love tweeting...TWEET TWEET TWEET BISH!'
p693
aS'1:58 - terrorists o_o'
p694
aS'lol theyre so freakin messed up'
p695
aS'wait wait wait what happened to sean???????'
p696
aS"0:22- you sound believe that the whole let me dream-like tale of miami \nguests we need?? You're right."
p697
aS'dear ryan can become a racer '
p698
aS'lol notice even with autotune the pitch is off'
p699
aS'WHAT THE??? AHAAHAHAHAHAHAHAHAHAHA'
p700
aS'Thats the biggest dislike bar i have ever seen in one of your videos x['
p701
aS'2:00 got my attention real quick! '
p702
aS'no teehee!'
p703
aS'no teehee?'
p704
aS'It\'s funny how, when someone obviously like whores by saying "thumbs up if \nyou\'re watching this in 2013" they get 30+ likes, but when someone simply \nstates that they are watching it in 2013, they get too many negative votes \nfor the comment to display by default. I will never understand the internet.'
p705
aS'"I like goats, your last tweet was funny, so random, pikachu is at lvl 100, \nbibimbam!, bokchoi!, eggroll!, in face!, WTF IS GOING ON!!!!" tweet in the \nback '
p706
aS'No TEEHEE? :('
p707
aS'NO.'
p708
aS'its kinda catchy :) :D'
p709
aS'I like goats, your last tweet was funny, so random, pikachu is at lvl 100, \nbibimbap!, bokchoi bokchoi!, eggroll in face!, WTF IS GOING ON!!! Bananas, \ngo spurs go, ShippleFoNipple, My left boob kinda hurt, Teehee, cheese?, \nwhriling peasl, I LOVE UNICORNS, purple llamas attack! I need 2 more \ntweets, someone give me something REALLy random to say'
p710
aS'no,no you are not.'
p711
aS'WTF IS WORNG WITH YOU ! you forgot the TEEHEE :('
p712
aS'I like goats, your last tweet was funny, so random, pikachu is at lvl 100, \nbibimbap !, bokachoi bokchoi!, eggroll in face!, WTF IS GOING ON!!!'
p713
aS'yes,partially'
p714
aS'Its between him, Dominic, and Victor.. '
p715
aS'What I see on twitter these days: - I JUST TOOK A SHIT GUYS! - I JUST SAW A \nBIRD - FUCK YOU JUSTIN BIEBER'
p716
aS'chester see is'
p717
aS'When he made this vid he had 17,590 followers and now, 693,330'
p718
aS'I miss the old twitter'
p719
aS'I like goats,your last tweet was funny, so random,pikachu at lvl 100 \nbibimbap! bokchoi bokchoi!,eggroll in face!, wtf is going on !'
p720
aS'No teeheee'
p721
aS"don't worry i'm a tweet whore :)"
p722
aS'pikachu at level 100 lol'
p723
aS'On the old vids there r not as much TEEHEES'
p724
aS'NO '
p725
aS'WTF i thought back wen i listened to this song I was ummmmm 12 lol now a \nrandom tear drop fell from my eye lol'
p726
aS'I like goats, your last tweetwas funny, so random, pikachu is at lvl 100 \nbibimbap! Bokchoi bokchoi!, eggroll in face. LOL! And thank u ryan for \nposting this on my birthday!'
p727
aS'yeah you must be mental coz dtrix is !!!! '
p728
aS"no, you're not the only one :-)"
p729
aS'yes'
p730
aS'hes alwas so skinny I mean doesnt he eat at all. I guess his metabolism is \nreally fast working :D'
p731
aS'HE is??'
p732
aS'Holy crap Twitter was so different then.'
p733
aS'lol at that time he had 404 updates and now he has 13,968 XD XD XD'
p734
aS'it should be till your hand are bleeding'
p735
aS'MbhhbgvbhhggggggvvgvvvbbxyjvyjvftugffjbvfjbvfykjgdujvftjbcyhjgukbdtjjvtukggukjgykhfyksefdfkoilP'
p736
aS'bibimbap bokchoy u can see dis at 0:50 pause'
p737
aS'No teehee'
p738
aS'no facebook ? fuuuuuuuuuuuuuuuuuuuuuuuuuuuuuuuuuuu'
p739
aS'my left boo* is kinda hurt lol'
p740
aS'No teehee?????'
p741
aS'u think your the only one? wowowowoowowowowow............do u think of \nanybody else but yourslef?'
p742
aS"On a different tab, this plays after another vid... Me: WHAT THE CRAP IS \nTHIS?!?! *sees video* Me: Oh, it's just Ryan with autotune... that makes it \nok :)"
p743
aS'Oh, the time when he had only 17,590 followers on twitter. Seems like just \nyesterday. Our boy grew up so fast.'
p744
aS'Follow these steps... 1. Turn the Captions on in English... 2. Laugh your \nhead off!'
p745
aS'2:00 DAMN!'
p746
aS'ring on finger.... suspicious... teehee'
p747
aS'Dear Ryan, Can you shave your armpits? PLEASE do it for humanity! (no \noffence)'
p748
aS'This is in 2009. Wow'
p749
aS'This song is cool!'
p750
aS'Ok...'
p751
aS'this was uploaded after 2 divide 12 months and 30 days xD '
p752
aS'Bananas, go spurs go, ShippleFoNipple, My Left boob kinda hurt, Teehee, \nCheese?, Whirling peas!, I LOVE UICORNS, purple llamas attack.....!'
p753
aS'omg my tweet is on here lol my fcking god '
p754
aS"I'm going to go tweet this song :D"
p755
aS'HEE'
p756
aS'lol . when ur computer gets a virus..when u tweet like miley cyrus'
p757
aS'Teehee where the fuck is the teehee man?!?!?'
p758
aS'why do people have to hate -.-'
p759
aS'Dear Ryan please get on g+ you havent been on in a year now! i really wish \nyou could get on more often, im your my biggest fan! Best wishes, lorena :)'
p760
aS'If we removed Ryan in this video and used a random dude with the same \nvoice, i bet the video would have alot of dislikes :p.'
p761
aS'now he has 683,000 followers '
p762
aS'why is he wearing a wedding ring?'
p763
aS'7.015 people wont realise that they are Tweet Hores '
p764
aS'That chain is so....swog!!'
p765
aS"I never saw this video before and I've been watching his videos more than \nanyone else? And THERE'S NO TEEHEE!"
p766
aS'"Tweet \xc2\xb4till you\xc2\xb4re sounding dumb" If everyone did that, tweet count would \ndrop by at least 90%'
p767
aS"Tweet like You Love Miley o_o LOVE YA HIGA << My every letter after a \ncomment on a higa's c;"
p768
aS'nice beat'
p769
aS'Jk i dont own twitter :D'
p770
aS'I like goats, your last tweet was funny, so random, pikachu is at level \n100, bimbimbap!, bokchoi bokchoi!, eggroll in face, WTF IS GOING ON!!!'
p771
aS'Now I\'ll never be able to think about Twitter without seeing the "Tweet \nWhore" dance...*shudders*'
p772
aS'Uuumm...'
p773
aS'itunes my bad'
p774
aS'I can just imagine Miley Cyrus watching this! lol'
p775
aS'/watch?v=D_iwP1rZOYg'
p776
aS'his face at 1:11 xD'
p777
aS'read what it says in the background.lol.'
p778
aS'did any one notice his necklace was made out of tinfoil (or looked like it \nwas) teehee c;'
p779
aS'IKR ? O_O '
p780
aS'i sing this in clas'
p781
aS"i remember when you just uploaded this video and everyone gone crazy cause \nTHERE'S NO FUCKIN TEEHEE"
p782
aS'Lol'
p783
aS"(this probably isn't true, but i read this online somewhere.) ryan wore a \nring on his ring finger because he wanted to marry tarynn nago, apparently, \nbut she rejected him because she thought she wasn't ready and they were \ngoing to different colleges. These are the rumors, but they probably aren't \ntrue."
p784
aS"I'm tweeting me tweeting a tweet"
p785
aS"OMG HE'S SHIRTLESS!!"
p786
aS'this is hillarious. hold on i gotta tweet that i posted a comment on youtube'
p787
aS'I NEVER SAW THIS VIDEO :O'
p788
aS'ohmg did that say 19,000 followers when you just got? '
p789
aS'A well built Asian :D'
p790
aS'oh my god lol'
p791
aS'dear ryan, shave your armpits? '
p792
aS'Before I saw this video I thought "Why do people dislike this stuff?" Then \nI watched the video. That answered my question....... There was no TEEHEE.'
p793
aS'put this song in twitter'
p794
aS'Hey i dnt tweet tht much now let mego on twitterand tell everyone i dnt \ntweet tht much'
p795
aS':( No TEEHEE...'
p796
aS'why is my mcdonalds commercial in spanish?'
p797
aS'no more teehees?!?'
p798
aS'I never understood why he wore a ring on his ring finger. '
p799
aS'Oh god ..... Lol'
p800
aS'you like goats Ryan wow'
p801
aS'That awkward moment when I just made a new Twitter account because of you. \nXD'
p802
aS'This was the first comment.'
p803
aS'Man thats when people were obsessed with twitter now its not sooo much'
p804
aS'Ryan, you are so adorable and so funny! I love you!! Kisses'
p805
aS'WHERES MY BEBIMBAP!'
p806
aS'lolll 1:26 '
p807
aS"There is one! It's in the tweet behind him at 0:47!"
p808
aS'ryan tweet whore -.- ( ;) )'
p809
aS"You're not ugly, Ryan, you're FREAKING HOT AND SEXY!!"
p810
aS'Its in one of the background tweets'
p811
aS'i dont even think i was tweeting in 2009 aha'
p812
aS'tweet like u lovemileeeey :P'
p813
aS':-)'
p814
aS'to imagine that i remember when this was uploaded and i was subscribed'
p815
aS'comment whore :D'
p816
aS'Im a tweet whore'
p817
aS"Where'd he get the necklace ;o"
p818
aS'still better than lil wayne'
p819
aS'What... No TeeHee?!?'
p820
aS'[='
p821
aS'Omg at :25 u can see ring on wedding finger'
p822
aS'Those are the worst, then It\'s those "lms if I\'m cute" I\'m just like, get \nthe hell out of here.'
p823
aS'tit whore?'
p824
aS'your not ugly your fucking gorgeous'
p825
aS'pause at 0:51'
p826
aS"like if you tried the 'tweet whore' movement."
p827
aS'you sing better then bieber'
p828
aS'...luv ya ryan!!! <3 <3...'
p829
aS'Tweet Here!!!!'
p830
aS"I don't think i'm a tweet whore I just constantly check tweets. :)"
p831
aS"I haven't seen that twitter layout in a while."
p832
aS'hi hi hi hi'
p833
aS"the twitter's dash on the back is really nostalgic."
p834
aS"wowwwww watching this after internet icon and this really is so similar to \nmarlin chan's videos"
p835
aS'No teehee. WHAT THE FU- *explodes*'
p836
aS'just shared this on Twitter... :p #LittleBitOfATweetWhore... :p'
p837
aS'You mean Tweethee? You see what I did there?!?!?! :D '
p838
aS"if you had a twitter in 09 you're a champ. "
p839
aS'Tweet whore!'
p840
aS'7011 people are tweet whores and are not able to admit it '
p841
aS'purple llamas attack'
p842
aS'The only reason i refuse to like your comment is because it has 69 likes :)'
p843
aS'7,005 people have no life, and have no sense of humor.. I LOVE NIGAHIGA<3'
p844
aS"lol I'm a tweet whore ^-^;;;;"
p845
aS'lol!!!'
p846
aS'so you made this video to get us to follow you on twitter'
p847
aS'Must keep watching...the...song!!!'
p848
aS'ecchhh'
p849
aS'Can you follow me ? @HetAngeltje ;)'
p850
aS"I know a 17-year-old-or-close-to-that chick who tweets all the time when \nshe's not asleep. Hey, since her parents or boyfriend (s) are paying for \nher food, rent, clothes, etc., nothing's wrong with that, right? "
p851
aS'Dear Ryan Can you be the kamen rider dragon knight !!!!!!!!!!!!'
p852
aS"i think it's the first time you get 7,309 dislikes .. you usually don't \nnotice the dislikes :D"
p853
aS'lol my mom calls people on twtter, she calls them twits XD'
p854
aS'Bananas, go spurs go, ShippleFoNipple, My Left boob kinda hurt, Teehee, \ncheese?, whirling peas!, I LOVE UNICORNS, purple llamas attack.....! <--- \nWhat?!'
p855
aS'Fuck, the Doctor sent me to the year 100,000 '
p856
aS'His other songs are better'
p857
aS'NO'
p858
aS'This beat sounds familiar like a rap song I know from back in the day its \ndriving me crazy, the tempo is slower here tho'
p859
aS'Follow Ikoayy, will Follow back'
p860
aS'Ryan, we, all your fans since the beginning that have been seeing your \nvideos for years already, are glad you kept sharing your talent and \nbringing happiness in our life. You grew up to be such a successful, \namazing and not to forget HOT and beautiful man. Love you <3'
p861
aS'i inserted my own teehee.'
p862
aS'can you guys do a game of thrones parody? '
p863
aS'Ha ha pikachu...'
p864
aS'you forgot the teehee '
p865
aS'Nice Aluminum Foil Necklace'
p866
aS"It's above you."
p867
aS'FAIL'
p868
aS'when your computer gets a virus (you fix it)'
p869
aS'epic armpit hair '
p870
aS'tin foil necklace ftw wut bout de teehee :_( '
p871
aS'You look different in this Video. :)) '
p872
aS'what no TEEHEE'
p873
aS'I really enjoy the aluminum foil chains. '
p874
aS'NO TEEHEE!'
p875
aS'Ive been on twitter for 3 hours and Im following 192 people and have 11 \nfollowers. Im 11'
p876
aS'how can you tell? oh thats right BECAUSE UR LYING'
p877
aS"this is so stupid but he's so freaking funny "
p878
aS'lol this describes my friend '
p879
aS'i learnt how to copy and paste too.'
p880
aS'\xe2\x94\x8f\xe2\x94\x81\xe2\x94\x81\xe2\x94\x81\xe2\x94\x81\xe2\x94\x93\xe2\x95\x8b\xe2\x95\x8b\xe2\x95\x8b\xe2\x95\x8b\xe2\x94\x8f\xe2\x94\x93\xe2\x95\x8b\xe2\x94\x8f\xe2\x94\x93 \xe2\x94\x83\xe2\x94\x8f\xe2\x94\x93\xe2\x94\x8f\xe2\x94\x93\xe2\x94\x83\xe2\x95\x8b\xe2\x95\x8b\xe2\x95\x8b\xe2\x95\x8b\xe2\x94\x83\xe2\x94\x83\xe2\x95\x8b\xe2\x94\x83\xe2\x94\x83 \xe2\x94\x97\xe2\x94\x9b\xe2\x94\x83\xe2\x94\x83\xe2\x94\xa3\xe2\x94\xbb\xe2\x94\x81\xe2\x94\xb3\xe2\x94\x81\xe2\x94\x81\xe2\x94\xab\xe2\x94\x97\xe2\x94\x81\xe2\x94\x9b\xe2\x94\xa3\xe2\x94\x81\xe2\x94\x81\xe2\x94\xb3\xe2\x94\x81\xe2\x94\x81\xe2\x94\x93 \xe2\x95\x8b\xe2\x95\x8b\xe2\x94\x83\xe2\x94\x83\xe2\x94\x83\xe2\x94\x83\xe2\x94\x81\xe2\x94\xab\xe2\x94\x83\xe2\x94\x81\xe2\x94\xab\xe2\x94\x8f\xe2\x94\x81\xe2\x94\x93\xe2\x94\x83\xe2\x94\x83\xe2\x94\x81\xe2\x94\xab\xe2\x94\x83\xe2\x94\x81\xe2\x94\xab \n\xe2\x95\x8b\xe2\x95\x8b\xe2\x94\x83\xe2\x94\x83\xe2\x94\x83\xe2\x94\x83\xe2\x94\x81\xe2\x94\xab\xe2\x94\x83\xe2\x94\x81\xe2\x94\xab\xe2\x94\x83\xe2\x95\x8b\xe2\x94\x83\xe2\x94\x83\xe2\x94\x83\xe2\x94\x81\xe2\x94\xab\xe2\x94\x83\xe2\x94\x81\xe2\x94\xab \xe2\x95\x8b\xe2\x95\x8b\xe2\x94\x97\xe2\x94\x9b\xe2\x94\x97\xe2\x94\x81\xe2\x94\x81\xe2\x94\xbb\xe2\x94\x81\xe2\x94\x81\xe2\x94\xbb\xe2\x94\x9b\xe2\x95\x8b\xe2\x94\x97\xe2\x94\xbb\xe2\x94\x81\xe2\x94\x81\xe2\x94\xbb\xe2\x94\x81\xe2\x94\x81\xe2\x94\x9b'
p881
aS'Follow me, @Ikoayy'
p882
aS'Omg gotta tweet this video!!! ( being serious )'
p883
aS'thumbs up if you paused it to read tweets in back :) '
p884
aS'twitter suks'
p885
aS'rofl. feel free ^^'
p886
aS'I HATE TWITTER! -_-'
p887
aS'No TEEHEE?!'
p888
aS'Lol'
p889
aS'0:48 pause and melt (abs)'
p890
aS'This should really be on youtbe... I would buy it'
p891
aS'watching*'
p892
aS'Fail.......'
p893
aS'lots of reply on this :D'
p894
aS"Wow I'm gon have 2 follow u and take notes!"
p895
aS"This perfectly explains me! I've been on twitter 3 hours and i'm following \n18 people and have 4 followers! and I'm 12"
p896
aS'does he have an engagement ring :D'
p897
aS'are you a facebook stalker'
p898
aS'Weres the "tehe"?:\'('
p899
aS'me too. XD'
p900
aS'There was no teehee so I said teehee instead lol'
p901
aS'what happened to his shirt '
p902
aS'Hi guys, im just a Person with a dream. Please take the time to subscribe \nto me. It would make me the hapyest person alive. If you comment on my last \nvideo i will subscribe to you back(You MUST be susbcribed to me first, i \nwill chek.. If you arent i cant susbcribe to you) , But please subscribe to \nme! I just wanna follow my dream :D And stay tooned for new videos comming \nsoon! :]'
p903
aS'You could a put TeeHee saves alot of tim'
p904
aS'Im gona tweet about this song'
p905
aS'follow @A_Puar'
p906
aS'How many ppl put TeeHee??? '
p907
aS'\xe2\x94\x8f\xe2\x94\x81\xe2\x94\x81\xe2\x94\x81\xe2\x94\x81\xe2\x94\x93\xe2\x95\x8b\xe2\x95\x8b\xe2\x95\x8b\xe2\x95\x8b\xe2\x94\x8f\xe2\x94\x93\xe2\x95\x8b\xe2\x94\x8f\xe2\x94\x93 \xe2\x94\x83\xe2\x94\x8f\xe2\x94\x93\xe2\x94\x8f\xe2\x94\x93\xe2\x94\x83\xe2\x95\x8b\xe2\x95\x8b\xe2\x95\x8b\xe2\x95\x8b\xe2\x94\x83\xe2\x94\x83\xe2\x95\x8b\xe2\x94\x83\xe2\x94\x83 \xe2\x94\x97\xe2\x94\x9b\xe2\x94\x83\xe2\x94\x83\xe2\x94\xa3\xe2\x94\xbb\xe2\x94\x81\xe2\x94\xb3\xe2\x94\x81\xe2\x94\x81\xe2\x94\xab\xe2\x94\x97\xe2\x94\x81\xe2\x94\x9b\xe2\x94\xa3\xe2\x94\x81\xe2\x94\x81\xe2\x94\xb3\xe2\x94\x81\xe2\x94\x81\xe2\x94\x93 \xe2\x95\x8b\xe2\x95\x8b\xe2\x94\x83\xe2\x94\x83\xe2\x94\x83\xe2\x94\x83\xe2\x94\x81\xe2\x94\xab\xe2\x94\x83\xe2\x94\x81\xe2\x94\xab\xe2\x94\x8f\xe2\x94\x81\xe2\x94\x93\xe2\x94\x83\xe2\x94\x83\xe2\x94\x81\xe2\x94\xab\xe2\x94\x83\xe2\x94\x81\xe2\x94\xab \n\xe2\x95\x8b\xe2\x95\x8b\xe2\x94\x83\xe2\x94\x83\xe2\x94\x83\xe2\x94\x83\xe2\x94\x81\xe2\x94\xab\xe2\x94\x83\xe2\x94\x81\xe2\x94\xab\xe2\x94\x83\xe2\x95\x8b\xe2\x94\x83\xe2\x94\x83\xe2\x94\x83\xe2\x94\x81\xe2\x94\xab\xe2\x94\x83\xe2\x94\x81\xe2\x94\xab \xe2\x95\x8b\xe2\x95\x8b\xe2\x94\x97\xe2\x94\x9b\xe2\x94\x97\xe2\x94\x81\xe2\x94\x81\xe2\x94\xbb\xe2\x94\x81\xe2\x94\x81\xe2\x94\xbb\xe2\x94\x9b\xe2\x95\x8b\xe2\x94\x97\xe2\x94\xbb\xe2\x94\x81\xe2\x94\x81\xe2\x94\xbb\xe2\x94\x81\xe2\x94\x81\xe2\x94\x9b '
p908
aS'LOL i thought the same thing.. :D'
p909
aS'Why the hek is this the top comment???!!!'
p910
aS'Press that little button in the right corner with CC then click it again \nand press transcribe audio click ok and enjoy.'
p911
aS"I haven't seen this video o.O And I thought I watched every video by him \n.... "
p912
aS'no TEEHEE? '
p913
aS'Then stfu.'
p914
aS'this is so fucking catchy'
p915
aS'thnx'
p916
aS'You know, ryan should read act 1 of homestuck then react to it ._. Thumbs \nup if u agree'
p917
aS"Stop fighting everyone just look at Ryan's shirtless self in the video and \nyou'll be happy."
p918
aS'Oh yeah? I have 44 likes. Do you have likes? You smell like your own mother.'
p919
aS'You go girl! '
p920
aS'STOP AT 1:54 AND LOOK AT HIS TWEETS! It says "Bananas, go spurs go, \nShippleForNipple" THEN WHAT COMES NEXT? "My left boob kinda hurts" BOOB?!!?'
p921
aS"because it says TeeHee dumbass. haven't you seen ANY of the other NigaHiga \nvideos?"
p922
aS'I am a tweet whore.... Ahhh well...'
p923
aS'*16 mins later* Do you have a condom?'
p924
aS'1:10 fail "tweet like the whoore like me"? its tweet like A whore like me'
p925
aS'And I bet you also thought you used correct grammar too, huh? Seen, not \nwatched'
p926
aS'1:05 do u see the: WTF IS GOING ON?'
p927
aS'I am not your f*cking mother.'
p928
aS'What the fuck I was just watching kids react'
p929
aS'=w= Is a face.'
p930
aS'im sorry, this is the only video i dont like... '
p931
aS'lol i love this one '
p932
aS'Yeah ME TOO ! '
p933
aS"But i can't see it O.o Do you know what it tells?"
p934
aS'Your tweet whore gesture is hilarious!'
p935
aS'Do I care about that?'
p936
aS'\xe2\x94\x8f\xe2\x94\x81\xe2\x94\x81\xe2\x94\x81\xe2\x94\x81\xe2\x94\x93\xe2\x95\x8b\xe2\x95\x8b\xe2\x95\x8b\xe2\x95\x8b\xe2\x94\x8f\xe2\x94\x93\xe2\x95\x8b\xe2\x94\x8f\xe2\x94\x93 \xe2\x94\x83\xe2\x94\x8f\xe2\x94\x93\xe2\x94\x8f\xe2\x94\x93\xe2\x94\x83\xe2\x95\x8b\xe2\x95\x8b\xe2\x95\x8b\xe2\x95\x8b\xe2\x94\x83\xe2\x94\x83\xe2\x95\x8b\xe2\x94\x83\xe2\x94\x83 \xe2\x94\x97\xe2\x94\x9b\xe2\x94\x83\xe2\x94\x83\xe2\x94\xa3\xe2\x94\xbb\xe2\x94\x81\xe2\x94\xb3\xe2\x94\x81\xe2\x94\x81\xe2\x94\xab\xe2\x94\x97\xe2\x94\x81\xe2\x94\x9b\xe2\x94\xa3\xe2\x94\x81\xe2\x94\x81\xe2\x94\xb3\xe2\x94\x81\xe2\x94\x81\xe2\x94\x93 \xe2\x95\x8b\xe2\x95\x8b\xe2\x94\x83\xe2\x94\x83\xe2\x94\x83\xe2\x94\x83\xe2\x94\x81\xe2\x94\xab\xe2\x94\x83\xe2\x94\x81\xe2\x94\xab\xe2\x94\x8f\xe2\x94\x81\xe2\x94\x93\xe2\x94\x83\xe2\x94\x83\xe2\x94\x81\xe2\x94\xab\xe2\x94\x83\xe2\x94\x81\xe2\x94\xab \n\xe2\x95\x8b\xe2\x95\x8b\xe2\x94\x83\xe2\x94\x83\xe2\x94\x83\xe2\x94\x83\xe2\x94\x81\xe2\x94\xab\xe2\x94\x83\xe2\x94\x81\xe2\x94\xab\xe2\x94\x83\xe2\x95\x8b\xe2\x94\x83\xe2\x94\x83\xe2\x94\x83\xe2\x94\x81\xe2\x94\xab\xe2\x94\x83\xe2\x94\x81\xe2\x94\xab \xe2\x95\x8b\xe2\x95\x8b\xe2\x94\x97\xe2\x94\x9b\xe2\x94\x97\xe2\x94\x81\xe2\x94\x81\xe2\x94\xbb\xe2\x94\x81\xe2\x94\x81\xe2\x94\xbb\xe2\x94\x9b\xe2\x95\x8b\xe2\x94\x97\xe2\x94\xbb\xe2\x94\x81\xe2\x94\x81\xe2\x94\xbb\xe2\x94\x81\xe2\x94\x81\xe2\x94\x9b Copying and pasting is fun! ;)'
p937
aS"RYAN HIGA IS NOT A WHORE is amazing,hot,sexy,nice, generous, smart,not \nstupid and he doesn't tweet like a whore because he was the first person i \nfollowed and he answers questions and occasionally writes about himself SO \nDON'T EVER DIS RYAN HIGA AGAIN"
p938
aS'he likes goats?!?'
p939
aS'He has a ring on his left hand!!!!!!!!!'
p940
aS'I learnt how to copy and paste too.'
p941
aS'You made it on FruityLoops. PC!'
p942
aS"Well, I don't care about that."
p943
aS"Ryan's tweet says i like goats, your last tweet was funny, so random, \npikachu is at lvl 100, bibambap!, bokchoi Bokchoi!, eggroll in face!, WTF \nIS GOING ON!!!!"
p944
aS'Ryan I want you.'
p945
aS'Starting at 1:25 I was watching it and could NOT stop laughing!xDDDDD'
p946
aS"Damn, I did not know that. But IDK you can't trust everything you read on \nthe internet. "
p947
aS'lol 2009, back when people still realized Twitter was retarded.'
p948
aS'ryan,your calling yourself a whore'
p949
aS':40 he is wearing what looks like a wedding ring'
p950
aS'2012'
p951
aS'It was 2009 two months ago?!?!'
p952
aS'Tweet Whore. xDD'
p953
aS'Was necessary to take your shirt off though?'
p954
aS'lol his asian tits'
p955
aS'how is that related to the video?'
p956
aS'Armpit hair!'
p957
aS'I think its a promise ring.'
p958
aS'Did anyone notice that Ryan has a wedding ring on?'
p959
aS'U forgoit the TEEHEE T_T'
p960
aS"That's true, nice catch on that :)"
p961
aS'1:04 that girl is hot '
p962
aS'i follow u on twitter, then u ended up following me on twitter....... THEN \nU UNFOLLOW ME.'
p963
aS'what the hell is the ring he has??? '
p964
aS'1. press cc button 2.choose english 3.have fun ^^'
p965
aS"*It's"
p966
aS'please Ryan do something about zombies'
p967
aS'CREEPY!'
p968
aS'This describes my best friend perfectly.'
p969
aS'autotune FTW'
p970
aS'Pause at 1:27 to read the tweets behind him. '
p971
aS'lol, very catchy'
p972
aS'lol same'
p973
aS'what the hell is with the dance?'
p974
aS'6,977 twitter fans...'
p975
aS"Ok haters, I LOVE THIS VIDEO! It's really awesome so if you don't like it \nGTFO"
p976
aS'u.. use mac? '
p977
aS'Nice armpit hair lol!'
p978
aS'nice song '
p979
aS'did anyone notice that at 0:50 , he says "need" but he mouths the word \n"have" XD LESS THAN THREE, RYAN! <3'
p980
aS'of course his bling would be me made out of aluminium foil...hahaha'
p981
aS'@lexi hadley it is awesome'
p982
aS'the people who disliked are tweet whores'
p983
aS'so are people who tweet twits or twats'
p984
aS'Your lip sync is way off'
p985
aS"seriously? - -''"
p986
aS'pause at 1:27 and read it '
p987
aS'HA HA HA HA HA HA HA!!!'
p988
aS'I like his tinfoil chain. I want it. :)'
p989
aS'love al these videos watch them all the time!!!!!!!'
p990
aS'me 2'
p991
aS"well I'm a tweet whore "
p992
aS'haha yea'
p993
aS'yes i finally paused it right on ryans abs lol'
p994
aS'do about instagram'
p995
aS'stop the video at 0:51 and read the comments on the back round screen... \nKinda weird.....'
p996
aS'What does =w= mean? o.o'
p997
aS'This is so true especially about how girls post a pic saying there ugly. I \nlike this video though. haha <333'
p998
aS'I deleted my account!'
p999
aS'Its made outta foil brainiac '
p1000
aS"I can't tell if you're actually using a hashtag on YouTube or if you're \nmaking a Twitter reference with hashtags..."
p1001
aS'Thumbs Up if You Notice The Chain Made Of Foil o_O ..'
p1002
aS'is it me or is it that every time he takes of he shirt i start stareing O_O'
p1003
aS'hahahhahahaha i just tried it :P'
p1004
aS'i forgot that twitter used to look like that, wow o:'
p1005
aS'Well I spent 3 hours and gave up and found the fathest one i could reach. \nGot anything to say to that?'
p1006
aS'I like bibimbap too'
p1007
aS'O YESH AGREE! But Ryan should tweet a lot so we can catch up on him :)))'
p1008
aS'shut up whore '
p1009
aS'YOU WHORE!!!!!!!!!!!!!!!!!!!!!!!!!!!!!!!!!!'
p1010
aS'bling from how to be ganster '
p1011
aS'...is your bling made out of aluminum foil?'
p1012
aS'I normally forget i even have a twitter '
p1013
aS'you should do one on facebook :) '
p1014
aS'at 0:51 I like goats, your last tweet was funny, so random, pikachu is at \nlvl 100, bibimbap!, bokchoi bokchoi!, eggroll in face!, WTF IS GOING ON!!! \nXD'
p1015
aS'The name of the bird of twitter is called Larry...ironic'
p1016
aS'when he is singing tweet like a whore like me he is lip singing i can easly \nsee that but i still liked this video'
p1017
aS'no tee hee or i my comp acting up???? '
p1018
aS'HAHAHAHAHA XD Riiiiiiight. You should watch his video on haters. '
p1019
aS'@epicninja4444 yeah when you make a music vid you lip sync'
p1020
aS"It's funny when you turn on the captions and transcribe the audio. "
p1021
aS"OMG, this SONG! I was 100% addicted to it last year. XD Memories. <'3"
p1022
aS'There is no TEEHEE only TeeHee.'
p1023
aS'LOLOLOLOL!! AWESOME!'
p1024
aS'tha fuck is wrong with u?'
p1025
aS'who notist the word pikachu'
p1026
aS'twitters = tweakers'
p1027
aS'found it in 1 sec without ctrl f xD '
p1028
aS'*deep voice* Tweet Whore'
p1029
aS'Lmao, his actions XD'
p1030
aS'who would do that dance for a dollar :) i would '
p1031
aS'I wonder how busy is Ryan cause Justin Bieber tweeted a lot more than him '
p1032
aS"pikachu level 100? Ah, he's such a lad :)"
p1033
aS'He has a nice necklace... Wonder how long it took him to make that...'
p1034
aS'how does this get 5 million views... not... even funny'
p1035
aS'there are dislikes because so many people ARE tweet whores... sad truth of \ntwitter.'
p1036
aS"6972 People don't have a twitter"
p1037
aS'You\xc2\xb4re so smart. OMG|!!'
p1038
aS'can someone type the lyrics so i can tweet this! '
p1039
aS"justin tweets like he's dumb"
p1040
aS"I love that sign he has for Tweet Whore. That's like, my thing now. I \nthink. Actually, no. But it's still cool."
p1041
aS"6 973 aren't Tweet Whores!"
p1042
aS'how does dat work?'
p1043
aS'no 6972 people are Tweet Whores'
p1044
aS'even faster F3 ... :)'
p1045
aS"I'm ony now dicovering some of these short videos...weird...."
p1046
aS'pause at 0:50. "my left boob kinda hurt" XDD'
p1047
aS'Tee hee? :<'
p1048
aS' do you use mac? '
p1049
aS'do u have facebook'
p1050
aS'ha ha that is so my sis'
p1051
aS'HAHAHAHAHAHAHAHAHAHAHAHAHAHAHAHAHAHAH..... Funny.'
p1052
aS'lo \xc3\xbanico que entend\xc3\xad: "Miley Cyrus" askdaskdasd LOL'
p1053
aS"i read the background while he's singing is that wrong? somewhere i found \nbeef and i found bannana i don't remember but i read it D:< oh and \nnipples....what the heck llamas??? LOL reading the background made me laugh \n^^"
p1054
aS"You weren't that good at miming you failed a bit noticed it a while ago but \nyou're good now. :9"
p1055
aS'First Comment'
p1056
aS'love the vid, lol =D, but u can kinda tell he is lip sicing. '
p1057
aS'what?'
p1058
aS'"I need 2 more tweets, someone give me something REALLY random to say..."'
p1059
aS'also: i need 2 more tweets; someone give me something REALLY random to \nsay...'
p1060
aS'so only anime people huh lol :)'
p1061
aS'is it awkward that i actually LIKE this as a real song ?'
p1062
aS'lol'
p1063
aS'C-U-N-T'
p1064
aS"aaaah, the old twitter :')"
p1065
aS"Yup, that's definitely R-Dizzle"
p1066
aS'tweet more than Miley Cyrus? damn they mst have no life at all'
p1067
aS'Why all the dislikes?!?! :('
p1068
aS"OMFG PUT YOUR SHIRT BACK ON!I'm not a perv and I'm uncomfortable seeing \nreal people with out a shirt on. "
p1069
aS'boy how twitter has changed!!'
p1070
aS"so just because its made in 2009 it doesn't have a tee he e"
p1071
aS'so obvious, dude.'
p1072
aS'whats the name of original song?? '
p1073
aS"i'm gonna do the tweet whore move randomly at school tomorrow :P"
p1074
aS'Their animated!So their not real!Makes a big difference!'
p1075
aS'/watch?v=wCra2HsFXDw '
p1076
aS'Tumblr!!! '
p1077
aS"There was also 'Bananas, go spurs go, ShippleFoNipple, My Left boob kinda \nhurt, Teehee, cheese?, whirling peas!, I LOVE UNICORNS, purple llamas \nattack.....!'"
p1078
aS'more like a tweet boar'
p1079
aS"funny there wasn't usual tee he e at the end of this video "
p1080
aS'Bananas, go spurs go, ShippleFoNipple, My left boob kinda hurt, Teehee, \ncheese?, whirling peas!, I LOVE UNICORNS, purple llamas attack.....! this \nis frum same place (^_^) (^'
p1081
aS'My friend is a facebook whore. Always posting dumb shit'
p1082
aS'is this the only video without the "TEEHEE" ? '
p1083
aS'Oh. . .This is how I knew he had Twitter. . . . '
p1084
aS'lol'
p1085
aS'hmmm... its pretty hard'
p1086
aS'meh hes made better vids but this is still awesome '
p1087
aS'Haha...his necklace was made of tin foil =P'
p1088
aS"You realize i know what your doing, top comment stealer, its obvious where \nthe teehee is so people see where it is and then like, so you get top \ncomment so please dont flag this, because you know it's true thank you for \nyour time :3"
p1089
aS"this song got stuck in my head since the 1st time i'm hearing it -__-"
p1090
aS'Funny ass video'
p1091
aS'How is it that on almost every single video one of the top comments is \nsomebody copy + pasting a fancy "TEEHEE"? Seriously, how unoriginal can \npeople get?'
p1092
aS"It's so catchy. :)) hahaha"
p1093
aS'I was in math with my ipod, and I have this song on it. So, right when we \nwere about to start a quiz i played it at the loudest volume, and since \nNigahiga is so awesome my whole class new the song and we sang the whole \nsong during math. SOOOO awesome!! :)'
p1094
aS"how come i've never seen this one before?!"
p1095
aS'some did.'
p1096
aS'XD *reeeet*'
p1097
aS"I dont get it, WHERE'S THE TEEHEE?? :("
p1098
aS'Maybe because it was made in 2009...'
p1099
aS"i like goats,your last tweet was funny, so random, pikatchu is at lvl 100, \nbibimbop! bokchoi, bokchoi! egg roll in face! WTF is going on!!! banana's \ngo, spurrs go.ShippleForNipple my left boob kind hurt. TeeHee! Cheese?. \nwhirling peas? I LOVE UNICORNS. Purple llamas attack! i need 2 more tweets, \nsomeone give me something REALLY random to say...BEEEF! "
p1100
aS'The background says "left boob kinda hurt"'
p1101
aS"This is why... I don't have a twitter.. :)"
p1102
aS'Chris brown is a tweet whore, check him out, he posted a pic of him taking \na shit'
p1103
aS'haha funny dance'
p1104
aS'can you even say thoes woreds on tv girl keep it in the inside '
p1105
aS"I don't have a twitter.... Is that bad? =.="
p1106
aS'at 2:16 u can see the tang top under his shert'
p1107
aS'hey ryan when is your birthday and funny vid'
p1108
aS'Niggahiga likes GOATS :D !! Thumbs up if u get it ;)..'
p1109
aS'dud what happened to your shirt?!?!?!?! other than that ( actuate including \nthat ) nice '
p1110
aS"I'm a tweet whore"
p1111
aS'I was actually waiting for TEEHEE lol. Still, I love Ryan, as always. Our \nnigahiga <3'
p1112
aS'gtfo.'
p1113
aS'best part 1:24- 1:47'
p1114
aS'Tweet me @jayebeejb'
p1115
aS'This Is So Like Wordy Weird, Just Like Me!!!, But Yet So Understandable XD'
p1116
aS'Tweet whore!!!:))'
p1117
aS'I need 2 more tweets, someone give me something REALLY random to say... \nThumbs up if you see it! '
p1118
aS'No teehee?'
p1119
aS'like if you see this in 2012 '
p1120
aS'lol tweet whore = every teen on facebook'
p1121
aS'Is that a dilver duct tape cross necklace?'
p1122
aS"Dear Ryan can you be KevJumba's Dad?"
p1123
aS'<3 the tinfoil chain :D'
p1124
aS':3'
p1125
aS'haha, tweet whore 1:25 - 1:48'
p1126
aS'I have never tweeted on mine, does that make me a tweet bore?'
p1127
aS'He signed up for twitter and added this video on my birthday!'
p1128
aS"I never tweet but when I do it's like 40 tweets a minute xD"
p1129
aS'Plus no. TEEHEE'
p1130
aS"He didn't have the teehee cuz he was just starting out"
p1131
aS'dear ryan do you have a skype?'
p1132
aS"i bet u commented on fuzzykitty141's comment because of the name huh X3"
p1133
aS'!!!'
p1134
aS'WTF NO TEHEHEE OMG IM SO TWEETING ABOUT THIS AND IM UNFRIENDING YOU ON \nTWITTER.(ryan)HURTFUL I HATE YOU BYE BYE LOOSER like if if you uhh you know \nliked (AFTERWARDS) IM BORED IM GONNA START TWETTING ABOUT STUFF THATS NOT \nTRUE hmmmm............ '
p1135
aS'Is it me or he start taking mroe clothes off as he goes along...?'
p1136
aS'Follow me! :) @iTweetTheGlobe'
p1137
aS'Nice pits'
p1138
aS'k thanxz. I guess u know the way to deal with assholes lyk me dont u ???'
p1139
aS'I like your tin-foil necklace!'
p1140
aS'No teehee'
p1141
aS'hi '
p1142
aS'I like goats, your last tweet was funny, so random, pikachu is at lvl 100, \nbibimbap!, bokchoi bokchoi!, eggroll in face!, WTF IS GOING ON!!! Like if \nyou know where I got this from ^^ :P'
p1143
aS'"I LOVE UNICORNS,Purple llamas attack." o.o...'
p1144
aS'XD'
p1145
aS'twitter,facebook,myspace.......its all shit'
p1146
aS'Tweet me @nellyzayas245 and plz follow me'
p1147
aS'Bananas,go spurs go,ShippleFoNipple,My left boob kinda hurt,Teehee \nchees?,whirling peas,I LOVE UNICORNS,Purple llamas attack... ...!'
p1148
aS"if it's not for this video, I can't even remember what the old Twitter \nlayout looked like xD"
p1149
aS"That's why I'm jealous of asian people, they look younger than they really \nare "
p1150
aS'2:10 ---- 2:20 omg that thing is just fake its handmade but still nice done '
p1151
aS"i'm a tumblr whore.. does that count?"
p1152
aS'Follow @CoutoSwag , I follow back!! Tweet tweet.'
p1153
aS'I can copy and paste too. ;)'
p1154
aS'Your never on twitter though!'
p1155
aS'Check out my channel If you want to know about earrings'
p1156
aS'So catchy'
p1157
aS' I will admit this video is funny tho '
p1158
aS'DANGG!! Twitter has changed!'
p1159
aS"Lol this is from like frekin 2009 & now it's like 2012 & just now I'm \nfinding this video :P cute video"
p1160
aS'i cant get enough of this guy?hes funny as fuck.'
p1161
aS'What!!!!! No TEEHEE at the end!!!!!!! '
p1162
aS'funny vid....but the autotune eh work'
p1163
aS'OMG why is every1 copying my teehee!!'
p1164
aS'Asians!! '
p1165
aS'no wat i meant is that i get lot of comments asking can i copy this and \nthat so shutup dude and dnt be oversmart the TEEHEE is Nigahiga for sure i \njust asked how many likes for it .............douche!!'
p1166
aS'@MyDinoSayzRawr i just got a major brwin overload reading that.'
p1167
aS"Wow, Ryan's lip syncing was really bad 'back in the day'"
p1168
aS'I would be a tweet whore.... if i knew how to use twitter lol'
p1169
aS'exactly at 2:02, i had a major nosebleed... u guys can figure out y and how.'
p1170
aS'\xe2\x94\x8f\xe2\x94\x81\xe2\x94\x81\xe2\x94\x81\xe2\x94\x81\xe2\x94\xb3\xe2\x94\x81\xe2\x94\x81\xe2\x94\x81\xe2\x94\xb3\xe2\x94\x81\xe2\x94\x81\xe2\x94\x81\xe2\x94\xb3\xe2\x94\x93\xe2\x95\x8b\xe2\x94\x8f\xe2\x94\xb3\xe2\x94\x81\xe2\x94\x81\xe2\x94\x81\xe2\x94\xb3\xe2\x94\x81\xe2\x94\x81\xe2\x94\x81\xe2\x94\x93 \xe2\x94\x83\xe2\x94\x8f\xe2\x94\x93\xe2\x94\x8f\xe2\x94\x93\xe2\x94\x83\xe2\x94\x8f\xe2\x94\x81\xe2\x94\x81\xe2\x94\xab\xe2\x94\x8f\xe2\x94\x81\xe2\x94\x81\xe2\x94\xab\xe2\x94\x83\xe2\x95\x8b\xe2\x94\x83\xe2\x94\x83\xe2\x94\x8f\xe2\x94\x81\xe2\x94\x81\xe2\x94\xab\xe2\x94\x8f\xe2\x94\x81\xe2\x94\x81\xe2\x94\x9b \n\xe2\x94\x97\xe2\x94\x9b\xe2\x94\x83\xe2\x94\x83\xe2\x94\x97\xe2\x94\xab\xe2\x94\x97\xe2\x94\x81\xe2\x94\x81\xe2\x94\xab\xe2\x94\x97\xe2\x94\x81\xe2\x94\x81\xe2\x94\xab\xe2\x94\x97\xe2\x94\x81\xe2\x94\x9b\xe2\x94\x83\xe2\x94\x97\xe2\x94\x81\xe2\x94\x81\xe2\x94\xab\xe2\x94\x97\xe2\x94\x81\xe2\x94\x81\xe2\x94\x93 \xe2\x95\x8b\xe2\x95\x8b\xe2\x94\x83\xe2\x94\x83\xe2\x95\x8b\xe2\x94\x83\xe2\x94\x8f\xe2\x94\x81\xe2\x94\x81\xe2\x94\xab\xe2\x94\x8f\xe2\x94\x81\xe2\x94\x81\xe2\x94\xab\xe2\x94\x8f\xe2\x94\x81\xe2\x94\x93\xe2\x94\x83\xe2\x94\x8f\xe2\x94\x81\xe2\x94\x81\xe2\x94\xab\xe2\x94\x8f\xe2\x94\x81\xe2\x94\x81 \n\xe2\x95\x8b\xe2\x95\x8b\xe2\x94\x83\xe2\x94\x83\xe2\x95\x8b\xe2\x94\x83\xe2\x94\x97\xe2\x94\x81\xe2\x94\x81\xe2\x94\xab\xe2\x94\x97\xe2\x94\x81\xe2\x94\x81\xe2\x94\xab\xe2\x94\x83\xe2\x95\x8b\xe2\x94\x83\xe2\x94\x83\xe2\x94\x97\xe2\x94\x81\xe2\x94\x81\xe2\x94\xab\xe2\x94\x97\xe2\x94\x81\xe2\x94\x81\xe2\x94\x93 \xe2\x95\x8b\xe2\x95\x8b\xe2\x94\x97\xe2\x94\x9b\xe2\x95\x8b\xe2\x94\x97\xe2\x94\x81\xe2\x94\x81\xe2\x94\x81\xe2\x94\xbb\xe2\x94\x81\xe2\x94\x81\xe2\x94\x81\xe2\x94\xbb\xe2\x94\x9b\xe2\x95\x8b\xe2\x94\x97\xe2\x94\xbb\xe2\x94\x81\xe2\x94\x81\xe2\x94\x81\xe2\x94\xbb\xe2\x94\x81\xe2\x94\x81\xe2\x94\x81\xe2\x94\x9b'
p1171
aS'He should make more hilarious commercials '
p1172
aS"OKay xD !~ am I the only one who thinks he's extra sexy? xD"
p1173
aS'wtf'
p1174
aS'oh my god... I dare you. :D'
p1175
aS'why repost? asshole'
p1176
aS'your teehee YOUR TEEHEE i dont know u so i like nigahiga better so post \nsome proof that u came with TEEHEE'
p1177
aS'Ha Filipino! We are awesome cuz were asian'
p1178
aS'DAMMIT XO IMMA TWEET WHORE! I sing this song on a daily basis.'
p1179
aS'\xe2\x94\x8f\xe2\x94\x81\xe2\x94\x81\xe2\x94\x81\xe2\x94\x81\xe2\x94\xb3\xe2\x94\x81\xe2\x94\x81\xe2\x94\x81\xe2\x94\xb3\xe2\x94\x81\xe2\x94\x81\xe2\x94\x81\xe2\x94\xb3\xe2\x94\x93 \xe2\x94\x8f\xe2\x94\xb3\xe2\x94\x81\xe2\x94\x81\xe2\x94\x81\xe2\x94\xb3\xe2\x94\x81\xe2\x94\x81\xe2\x94\x81\xe2\x94\x93 \xe2\x94\x83\xe2\x94\x8f\xe2\x94\x93\xe2\x94\x8f\xe2\x94\x93\xe2\x94\x83\xe2\x94\x8f\xe2\x94\x81\xe2\x94\x81\xe2\x94\xab\xe2\x94\x8f\xe2\x94\x81\xe2\x94\x81\xe2\x94\xab\xe2\x94\x83 \xe2\x94\x83\xe2\x94\x83\xe2\x94\x8f\xe2\x94\x81\xe2\x94\x81\xe2\x94\xab\xe2\x94\x8f\xe2\x94\x81\xe2\x94\x81\xe2\x94\x9b \n\xe2\x94\x97\xe2\x94\x9b\xe2\x94\x83\xe2\x94\x83\xe2\x94\x97\xe2\x94\xab\xe2\x94\x97\xe2\x94\x81\xe2\x94\x81\xe2\x94\xab\xe2\x94\x97\xe2\x94\x81\xe2\x94\x81\xe2\x94\xab\xe2\x94\x97\xe2\x94\x81\xe2\x94\x9b\xe2\x94\x83\xe2\x94\x97\xe2\x94\x81\xe2\x94\x81\xe2\x94\xab\xe2\x94\x97\xe2\x94\x81\xe2\x94\x81\xe2\x94\x93 \xe2\x95\x8b\xe2\x95\x8b\xe2\x94\x83\xe2\x94\x83\xe2\x95\x8b\xe2\x94\x83\xe2\x94\x8f\xe2\x94\x81\xe2\x94\x81\xe2\x94\xab\xe2\x94\x8f\xe2\x94\x81\xe2\x94\x81\xe2\x94\xab\xe2\x94\x8f\xe2\x94\x81\xe2\x94\x93\xe2\x94\x83\xe2\x94\x8f\xe2\x94\x81\xe2\x94\x81\xe2\x94\xab\xe2\x94\x8f\xe2\x94\x81\xe2\x94\x81 \n\xe2\x95\x8b\xe2\x95\x8b\xe2\x94\x83\xe2\x94\x83\xe2\x95\x8b\xe2\x94\x83\xe2\x94\x97\xe2\x94\x81\xe2\x94\x81\xe2\x94\xab\xe2\x94\x97\xe2\x94\x81\xe2\x94\x81\xe2\x94\xab\xe2\x94\x83\xe2\x95\x8b\xe2\x94\x83\xe2\x94\x83\xe2\x94\x97\xe2\x94\x81\xe2\x94\x81\xe2\x94\xab\xe2\x94\x97\xe2\x94\x81\xe2\x94\x81\xe2\x94\x93 \xe2\x95\x8b\xe2\x95\x8b\xe2\x94\x97\xe2\x94\x9b\xe2\x95\x8b\xe2\x94\x97\xe2\x94\x81\xe2\x94\x81\xe2\x94\x81\xe2\x94\xbb\xe2\x94\x81\xe2\x94\x81\xe2\x94\x81\xe2\x94\xbb\xe2\x94\x9b\xe2\x95\x8b\xe2\x94\x97\xe2\x94\xbb\xe2\x94\x81\xe2\x94\x81\xe2\x94\x81\xe2\x94\xbb\xe2\x94\x81\xe2\x94\x81\xe2\x94\x81\xe2\x94\x9b '
p1180
aS'I hate twitter, people always say "Im gonna tweet about what just happened" \nyour not a bird and you don\'t TWEET! It just seems better if you say "I\'m \ngonna put what just happened on twitter" but i guess that\'s just my \nopinion...'
p1181
aS'Dis be catchy.'
p1182
aS'no probs'
p1183
aS'1:07 PIKACHU!!! is at Lvl 10!!!!'
p1184
aS'thats over used'
p1185
aS'why are people getting thumbs up for word art? -------------------- theres \na snake. wheres my thumbs up?'
p1186
aS'omg i remember watching this 2 years ago, ah.... nigahiga is da man!'
p1187
aS'omg i love uuuuuuzzzzz: ur just so dang funny fallow me at @marandaLatinas'
p1188
aS'"I like goats, you tweet was so funny, so random, pikachu is at lvl 100, \nbibambap!, bokchoi, bokchoi!, eggroll in face! WTF IS GOING ON!!!" That was \nso funny. Like if you see the same thing!'
p1189
aS'\xe2\x94\x8f\xe2\x94\x81\xe2\x94\x81\xe2\x94\x81\xe2\x94\x81\xe2\x94\xb3\xe2\x94\x81\xe2\x94\x81\xe2\x94\x81\xe2\x94\xb3\xe2\x94\x81\xe2\x94\x81\xe2\x94\x81\xe2\x94\xb3\xe2\x94\x93\xe2\x95\x8b\xe2\x94\x8f\xe2\x94\xb3\xe2\x94\x81\xe2\x94\x81\xe2\x94\x81\xe2\x94\xb3\xe2\x94\x81\xe2\x94\x81\xe2\x94\x81\xe2\x94\x93 \xe2\x94\x83\xe2\x94\x8f\xe2\x94\x93\xe2\x94\x8f\xe2\x94\x93\xe2\x94\x83\xe2\x94\x8f\xe2\x94\x81\xe2\x94\x81\xe2\x94\xab\xe2\x94\x8f\xe2\x94\x81\xe2\x94\x81\xe2\x94\xab\xe2\x94\x83\xe2\x95\x8b\xe2\x94\x83\xe2\x94\x83\xe2\x94\x8f\xe2\x94\x81\xe2\x94\x81\xe2\x94\xab\xe2\x94\x8f\xe2\x94\x81\xe2\x94\x81\xe2\x94\x9b \n\xe2\x94\x97\xe2\x94\x9b\xe2\x94\x83\xe2\x94\x83\xe2\x94\x97\xe2\x94\xab\xe2\x94\x97\xe2\x94\x81\xe2\x94\x81\xe2\x94\xab\xe2\x94\x97\xe2\x94\x81\xe2\x94\x81\xe2\x94\xab\xe2\x94\x97\xe2\x94\x81\xe2\x94\x9b\xe2\x94\x83\xe2\x94\x97\xe2\x94\x81\xe2\x94\x81\xe2\x94\xab\xe2\x94\x97\xe2\x94\x81\xe2\x94\x81\xe2\x94\x93 \xe2\x95\x8b\xe2\x95\x8b\xe2\x94\x83\xe2\x94\x83\xe2\x95\x8b\xe2\x94\x83\xe2\x94\x8f\xe2\x94\x81\xe2\x94\x81\xe2\x94\xab\xe2\x94\x8f\xe2\x94\x81\xe2\x94\x81\xe2\x94\xab\xe2\x94\x8f\xe2\x94\x81\xe2\x94\x93\xe2\x94\x83\xe2\x94\x8f\xe2\x94\x81\xe2\x94\x81\xe2\x94\xab\xe2\x94\x8f\xe2\x94\x81\xe2\x94\x81 \n\xe2\x95\x8b\xe2\x95\x8b\xe2\x94\x83\xe2\x94\x83\xe2\x95\x8b\xe2\x94\x83\xe2\x94\x97\xe2\x94\x81\xe2\x94\x81\xe2\x94\xab\xe2\x94\x97\xe2\x94\x81\xe2\x94\x81\xe2\x94\xab\xe2\x94\x83\xe2\x95\x8b\xe2\x94\x83\xe2\x94\x83\xe2\x94\x97\xe2\x94\x81\xe2\x94\x81\xe2\x94\xab\xe2\x94\x97\xe2\x94\x81\xe2\x94\x81\xe2\x94\x93 \xe2\x95\x8b\xe2\x95\x8b\xe2\x94\x97\xe2\x94\x9b\xe2\x95\x8b\xe2\x94\x97\xe2\x94\x81\xe2\x94\x81\xe2\x94\x81\xe2\x94\xbb\xe2\x94\x81\xe2\x94\x81\xe2\x94\x81\xe2\x94\xbb\xe2\x94\x9b\xe2\x95\x8b\xe2\x94\x97\xe2\x94\xbb\xe2\x94\x81\xe2\x94\x81\xe2\x94\x81\xe2\x94\xbb\xe2\x94\x81\xe2\x94\x81\xe2\x94\x81\xe2\x94\x9b'
p1190
aS'welllllllllll..............you copied me!'
p1191
aS'NO TEHEE!!!!!'
p1192
aS"He's the one that first wrote up that teehee "
p1193
aS"I've never seen this video"
p1194
aS'Ryan is awesome and SOOOO cute :)'
p1195
aS"stole ur comment :P now I'm gonna post it on other nigahiga vdo's :P"
p1196
aS"you're not the only one~"
p1197
aS'\xe2\x94\x8f\xe2\x94\x81\xe2\x94\x81\xe2\x94\x81\xe2\x94\x81\xe2\x94\xb3\xe2\x94\x81\xe2\x94\x81\xe2\x94\x81\xe2\x94\xb3\xe2\x94\x81\xe2\x94\x81\xe2\x94\x81\xe2\x94\xb3\xe2\x94\x93\xe2\x95\x8b\xe2\x94\x8f\xe2\x94\xb3\xe2\x94\x81\xe2\x94\x81\xe2\x94\x81\xe2\x94\xb3\xe2\x94\x81\xe2\x94\x81\xe2\x94\x81\xe2\x94\x93 \xe2\x94\x83\xe2\x94\x8f\xe2\x94\x93\xe2\x94\x8f\xe2\x94\x93\xe2\x94\x83\xe2\x94\x8f\xe2\x94\x81\xe2\x94\x81\xe2\x94\xab\xe2\x94\x8f\xe2\x94\x81\xe2\x94\x81\xe2\x94\xab\xe2\x94\x83\xe2\x95\x8b\xe2\x94\x83\xe2\x94\x83\xe2\x94\x8f\xe2\x94\x81\xe2\x94\x81\xe2\x94\xab\xe2\x94\x8f\xe2\x94\x81\xe2\x94\x81\xe2\x94\x9b \n\xe2\x94\x97\xe2\x94\x9b\xe2\x94\x83\xe2\x94\x83\xe2\x94\x97\xe2\x94\xab\xe2\x94\x97\xe2\x94\x81\xe2\x94\x81\xe2\x94\xab\xe2\x94\x97\xe2\x94\x81\xe2\x94\x81\xe2\x94\xab\xe2\x94\x97\xe2\x94\x81\xe2\x94\x9b\xe2\x94\x83\xe2\x94\x97\xe2\x94\x81\xe2\x94\x81\xe2\x94\xab\xe2\x94\x97\xe2\x94\x81\xe2\x94\x81\xe2\x94\x93 \xe2\x95\x8b\xe2\x95\x8b\xe2\x94\x83\xe2\x94\x83\xe2\x95\x8b\xe2\x94\x83\xe2\x94\x8f\xe2\x94\x81\xe2\x94\x81\xe2\x94\xab\xe2\x94\x8f\xe2\x94\x81\xe2\x94\x81\xe2\x94\xab\xe2\x94\x8f\xe2\x94\x81\xe2\x94\x93\xe2\x94\x83\xe2\x94\x8f\xe2\x94\x81\xe2\x94\x81\xe2\x94\xab\xe2\x94\x8f\xe2\x94\x81\xe2\x94\x81 \n\xe2\x95\x8b\xe2\x95\x8b\xe2\x94\x83\xe2\x94\x83\xe2\x95\x8b\xe2\x94\x83\xe2\x94\x97\xe2\x94\x81\xe2\x94\x81\xe2\x94\xab\xe2\x94\x97\xe2\x94\x81\xe2\x94\x81\xe2\x94\xab\xe2\x94\x83\xe2\x95\x8b\xe2\x94\x83\xe2\x94\x83\xe2\x94\x97\xe2\x94\x81\xe2\x94\x81\xe2\x94\xab\xe2\x94\x97\xe2\x94\x81\xe2\x94\x81\xe2\x94\x93 \xe2\x95\x8b\xe2\x95\x8b\xe2\x94\x97\xe2\x94\x9b\xe2\x95\x8b\xe2\x94\x97\xe2\x94\x81\xe2\x94\x81\xe2\x94\x81\xe2\x94\xbb\xe2\x94\x81\xe2\x94\x81\xe2\x94\x81\xe2\x94\xbb\xe2\x94\x9b\xe2\x95\x8b\xe2\x94\x97\xe2\x94\xbb\xe2\x94\x81\xe2\x94\x81\xe2\x94\x81\xe2\x94\xbb\xe2\x94\x81\xe2\x94\x81\xe2\x94\x81\xe2\x94\x9b'
p1198
aS"Can't.get.this.song.out.of.my.head ;o"
p1199
aS'LOL'
p1200
aS'Ryan is so handsome *__*'
p1201
aS'no tee hee????'
p1202
aS'thumbs up if you just watched tweet whore. :D'
p1203
aS'What does that mean? I have seen it on everything?'
p1204
aS'There is a good part of SOPA it will get rid of Twitter'
p1205
aS'um why was he wearing a wedding band in his old videos?? '
p1206
aS'Who would dislike this!!!!'
p1207
aS'No. Just no.'
p1208
aS'Bahah. His tweetwhore gesture...'
p1209
aS'r u married? i see u have a ring on ur ring finger'
p1210
aS'TWEET WHORE! lol '
p1211
aS"lyrics: Fuck like a whore like me Fuck like tyla miley fuck till your hands \nare numb fuck till you sounding dumb... cuz im fucking all day and i seem \nto fuck more girls than i really do say cuz im always fucking all the \nbeautiful girl you see like taylor, britney,katy and jeniffer lopez im \ngoing to the party cuz i have to catch a girl did you really need to know \nthat? of course, that's insane! i'll think i take a picture twitpic for you \nto see i'll write that i'm naked so, that you can disagre "
p1212
aS'GREAT NOW I NEED TO GET ON TWITTER!'
p1213
aS'the akward moment when both the top comments are about the same thing: how \nthe top comments are the same.'
p1214
aS'tweet >-^.^-< whore (. Y .)'
p1215
aS'poop '
p1216
aS'You are so pathetic.'
p1217
aS'oh my gosh...NO TEEHEE! D:'
p1218
aS'Lmfao ikr?'
p1219
aS'old twitter'
p1220
aS'cool song man!, but cud u make a same kind of song about facebook?'
p1221
aS'6,927 have no tweets '
p1222
aS'what the fuck? i can see red stuff?'
p1223
aS'WAIT He did take it off but barley showed us -.- lmfao xD'
p1224
aS'Where did his shirt go? O .O'
p1225
aS'This one is very special to me. I tweeted the "Bibimbap Bok choy" bit to \nRyan and he included it on the screen behind him.'
p1226
aS'Where is the TEEHEE Ryan ??'
p1227
aS'No, just no... '
p1228
aS"where's the teehee??"
p1229
aS'ALUMINUM CHAIN!!! ROFLROFLROFLROFL'
p1230
aS'press two then three and then he says tweet when i have to pee'
p1231
aS'so hot'
p1232
aS'U forgot teehee'
p1233
aS'6928 people are Tweet nerds'
p1234
aS'LOL. Miley deleted her twitter though.. then she made a new one.'
p1235
aS'I think its also the last video where Ryan wears tin foil bling. He can \nafford real bling now. The tin foil bling was adorable, though.'
p1236
aS"who doesn't do that :D"
p1237
aS'I LOVE RYAN HIGA!!!!!'
p1238
aS'What is that red stuff on the like bar, ketchup? '
p1239
aS'I love ur chest'
p1240
aS'ryan OMG u r sooo sexy n u got style!!! (o i really like diz song too!!)'
p1241
aS'Gotta go tweet about how i just saw Ryan Higa shirtless :P'
p1242
aS'Ryan just take the shirt off . Youre sexy !'
p1243
aS'Bananas, go spurs go, SpippleFoNipple, My left boob kinda hurt, Teehee, \ncheese?, whirling peas!, I LOVE UNICORNS, purple llamas attack.....!'
p1244
aS"Tweet like a Ryan higa fan hope that he responds tweet till its been 3 days \nconstantly checking his page when u tweet like a Ryan higa fan he might \nrespond plz respond this I'm a comment whore"
p1245
aS'your a good example right there :D '
p1246
aS'This was uploaded on my birthday!!!!!!!!'
p1247
aS'2013 and still catchy'
p1248
aS"What's the line after tweet like a whore like me"
p1249
aS'I think it took you longer to make the foil necklace than to film this.'
p1250
aS'@haleyharper2525 Annoying but attractive. \xe2\x99\xa5 '
p1251
aS'Ur hot'
p1252
aS'he use MAC yeah!'
p1253
aS'@liyah986 ok smart one w.e'
p1254
aS'whats a whore?'
p1255
aS'@webk109 wow nice '
p1256
aS"@Pantalonez1 sorry i don't get it :D :D "
p1257
aS'WER THE F IS THE TEEHEE?!?!?!!?!'
p1258
aS'why are the top two comments not only the same but they are by the same \nperson!'
p1259
aS'are you a whore'
p1260
aS"i hate how the top comments are 1: it's the same thing 2: its the same guy \n3: one has 19 likes and the other has 52 : P"
p1261
aS"Omg.... I just realised that all of my favorite songs are the one's that \nnigahiga makes! o.o"
p1262
aS'same top comments?'
p1263
aS'@liyah986 e3w3w3w3w3w3w3w3w3w3w3w3w3'
p1264
aS'Annoying!'
p1265
aS'I really like the "tweet whore" pantomime XD'
p1266
aS'WHATS WIT THE TALKING HANDS THEN BOOB MOTION???'
p1267
aS'You should make a video about Facebook'
p1268
aS'@liyah986 bamf stfu'
p1269
aS'ITS OVER 9000!!!!!!!!!!!!'
p1270
aS'why does that guy have both top comments?'
p1271
aS"No teehee... I'll do it for you guys. TEHEE!"
p1272
aS'Lololol pause at 1:09 thumbs if you rofl'
p1273
aS'woah calm the fk down its not that big of a deal'
p1274
aS'eww armpit hair 2:19'
p1275
aS'Wow what a tweet whore teehee'
p1276
aS'The top comments are the same by the same person, fucking gay...'
p1277
aS'-|-'
p1278
aS'I love your voice! :$ <3'
p1279
aS'Why No TeeHee D: '
p1280
aS'TEEHEE '
p1281
aS'@pokemon2002145 \xe2\x94\x8f\xe2\x94\x81\xe2\x94\x81\xe2\x94\x81\xe2\x94\x81\xe2\x94\xb3\xe2\x94\x81\xe2\x94\x81\xe2\x94\x81\xe2\x94\xb3\xe2\x94\x81\xe2\x94\x81\xe2\x94\x81\xe2\x94\xb3\xe2\x94\x93\xe2\x95\x8b\xe2\x94\x8f\xe2\x94\xb3\xe2\x94\x81\xe2\x94\x81\xe2\x94\x81\xe2\x94\xb3\xe2\x94\x81\xe2\x94\x81\xe2\x94\x81\xe2\x94\x93 \xe2\x94\x83\xe2\x94\x8f\xe2\x94\x93\xe2\x94\x8f\xe2\x94\x93\xe2\x94\x83\xe2\x94\x8f\xe2\x94\x81\xe2\x94\x81\xe2\x94\xab\xe2\x94\x8f\xe2\x94\x81\xe2\x94\x81\xe2\x94\xab\xe2\x94\x83\xe2\x95\x8b\xe2\x94\x83\xe2\x94\x83\xe2\x94\x8f\xe2\x94\x81\xe2\x94\x81\xe2\x94\xab\xe2\x94\x8f\xe2\x94\x81\xe2\x94\x81\xe2\x94\x9b \n\xe2\x94\x97\xe2\x94\x9b\xe2\x94\x83\xe2\x94\x83\xe2\x94\x97\xe2\x94\xab\xe2\x94\x97\xe2\x94\x81\xe2\x94\x81\xe2\x94\xab\xe2\x94\x97\xe2\x94\x81\xe2\x94\x81\xe2\x94\xab\xe2\x94\x97\xe2\x94\x81\xe2\x94\x9b\xe2\x94\x83\xe2\x94\x97\xe2\x94\x81\xe2\x94\x81\xe2\x94\xab\xe2\x94\x97\xe2\x94\x81\xe2\x94\x81\xe2\x94\x93 \xe2\x95\x8b\xe2\x95\x8b\xe2\x94\x83\xe2\x94\x83\xe2\x95\x8b\xe2\x94\x83\xe2\x94\x8f\xe2\x94\x81\xe2\x94\x81\xe2\x94\xab\xe2\x94\x8f\xe2\x94\x81\xe2\x94\x81\xe2\x94\xab\xe2\x94\x8f\xe2\x94\x81\xe2\x94\x93\xe2\x94\x83\xe2\x94\x8f\xe2\x94\x81\xe2\x94\x81\xe2\x94\xab\xe2\x94\x8f\xe2\x94\x81\xe2\x94\x81 \n\xe2\x95\x8b\xe2\x95\x8b\xe2\x94\x83\xe2\x94\x83\xe2\x95\x8b\xe2\x94\x83\xe2\x94\x97\xe2\x94\x81\xe2\x94\x81\xe2\x94\xab\xe2\x94\x97\xe2\x94\x81\xe2\x94\x81\xe2\x94\xab\xe2\x94\x83\xe2\x95\x8b\xe2\x94\x83\xe2\x94\x83\xe2\x94\x97\xe2\x94\x81\xe2\x94\x81\xe2\x94\xab\xe2\x94\x97\xe2\x94\x81\xe2\x94\x81\xe2\x94\x93 \xe2\x95\x8b\xe2\x95\x8b\xe2\x94\x97\xe2\x94\x9b\xe2\x95\x8b\xe2\x94\x97\xe2\x94\x81\xe2\x94\x81\xe2\x94\x81\xe2\x94\xbb\xe2\x94\x81\xe2\x94\x81\xe2\x94\x81\xe2\x94\xbb\xe2\x94\x9b\xe2\x95\x8b\xe2\x94\x97\xe2\x94\xbb\xe2\x94\x81\xe2\x94\x81\xe2\x94\x81\xe2\x94\xbb\xe2\x94\x81\xe2\x94\x81\xe2\x94\x81\xe2\x94\x9b there it is'
p1282
aS' I still stuck on "my left boob" :D'
p1283
aS"Go on roblox I'm bigplayer2001"
p1284
aS'Why is the top comments the same person and the same thing?'
p1285
aS'@nelly nyssa im not saying it its in the background smart one!'
p1286
aS'wheres teehee!!!'
p1287
aS'ok well you obviously need mental help so......by'
p1288
aS'LMFAO! :D'
p1289
aS'The top comments are the same and by the same person...time to change \nthat...mhm... WHERES THE TEE HEE!!!!'
p1290
aS'TWEETHEE'
p1291
aS'Selling out? ;}'
p1292
aS'Omg guise shut up about the top comments ._.'
p1293
aS"No teehee... I'll do it for you guys. TEEHEE!"
p1294
aS"sec, gotta tweet i'm watching nigahiga! (kiddin' i don't even have twitter \nyo! )"
p1295
aS'Beihdfvubhjwdvfhijbdvef'
p1296
aS"RYYYAAAAAAN!!!! YOU GOT THAT SONG IN MY HEAD NOW!!! It's also strangely \nlikeable :D"
p1297
aS"Could go to sleep to this song lol it's great tho"
p1298
aS'(Awesome) video '
p1299
aS'..O.O shirtless... Omgosh :D'
p1300
aS'wait who timalalili or whatever'
p1301
aS'lol what a lip sink '
p1302
aS'@wachter206 yup, and im the duke of cambridge. love you nigahiga '
p1303
aS"@animan23845 he's saying Tila/Miley (Tila Tequila/Miley Cyrus)"
p1304
aS'6,913 people are tweet whores. '
p1305
aS'Im a record producer and i might give you a title and you could win a \ngrammy in rap.'
p1306
aS'@SonicFan2456 i now know much more about being a terrorist'
p1307
aS'BACKCHOI ACKCHOI BAB-EH! :D~'
p1308
aS'@best8376 no.... thats just wrong sorry'
p1309
aS'ohmygoshhetookhisshirtoff<3333333333'
p1310
aS'u are hott'
p1311
aS'@SonicFan2456 haha it said terrorists!'
p1312
aS'@awesomeairsoftify Recheck all the comments that you saw. then check the \ndates... Now check mines date....'
p1313
aS':( no TEHEE'
p1314
aS'whats up with no shirt spam much '
p1315
aS'I watched this a couple of years back... And finally, after so long of \nresisting... I have recently became a Tweet Whore >.<'
p1316
aS'so to a deaf person this song would be about terrorists. i love the \ntrascribe audio.'
p1317
aS"that transcribe audio sure likes the word 'terrorist.' ... "
p1318
aS'@SonicFan2456 ha! it thinks it\'s saying "terrorists" in the background. haa'
p1319
aS'@MyrnaMurphy psh, yeah okay.'
p1320
aS'The top comment is over used.'
p1321
aS'Dear Ryan, How many accents can you do?'
p1322
aS"@SonicFan2456 1:05 screams juvenile diabetes he seems to me senator and \ncivil rights leader..... 1:23 season three joe your hands and i'll talk to \nhim terrorist acts and.... LOL"
p1323
aS'he never said teehee!!!!!'
p1324
aS'6,914 tweet like a whore'
p1325
aS'1) Turn on captions 2) Go on Transcribe Audio 3) Have fun'
p1326
aS'thumbs up if the laidys think that ryan should take his shirt off more \noften ;D'
p1327
aS'Um.... All that comes to mind is wow. '
p1328
aS'like if you notice his mouth isnt moving to the right words'
p1329
aS'hey this is a girl from 2013 ask me something and the world will not end i \npromis '
p1330
aS'@screwOBAMAforever hellz yeah'
p1331
aS'@sonicfan2456 "screams juvenile diabetes" hahahaha thanks for the tip this \nis hilarious xD'
p1332
aS'@awesomeairsoftify Omfg stop using my fucking comment you fuck faces.'
p1333
aS'i love nigahiga, but... dafuk did i just see?'
p1334
aS'@SonicFan2456 what the hell was he talking about? '
p1335
aS'sounds like beibs'
p1336
aS'i do i do hehehehe'
p1337
aS'tweet like a whore like me LMAO'
p1338
aS'7,036 people are not tweet whores'
p1339
aS'Bananas, go spurs go, ShippleFoNippple, my left boob kinda hurt, Teehee, \ncheese?, whirling peas!, I LOVE UNICORNS, purple llamas attack...'
p1340
aS'Omg shirtless ryan! XD'
p1341
aS'LOOOOOOOOOOOOOOOOOOOOOOL'
p1342
aS'o_0'
p1343
aS"What's this ring on his left hand?"
p1344
aS'this is because he is just starting'
p1345
aS"IT IS! YOU JUST HAVE TO STOP HATING AND YOU'LL REALIZE, THAT IT IS INDEED \nVERY FUNNY."
p1346
aS"@awesomeairsoftify weird 'cuz I'm watching this in 3023 on my Itoilet."
p1347
aS'the 6901 people who disliked dont have twitter'
p1348
aS"@whitewolfking123 That's Ryan's .. "
p1349
aS'tweet whore like if u know a whoore'
p1350
aS"Thumbs up If You don't care what year you're watching it in"
p1351
aS'thumps up if your watching this i..... OH WAIT!!! no one cares -_-'
p1352
aS'XD I just came from basketball practice and found dis.'
p1353
aS'its called facebook. twitter is WHACK!'
p1354
aS'@MrLulabi Fuck off hipster. '
p1355
aS'@awesomeairsoftify wow.original.lol'
p1356
aS'Ryan, your so much better than this.'
p1357
aS'1:36 i like goats too!!!!!! '
p1358
aS"has anyone noticed that Ryan's chain is made out of foil?"
p1359
aS'i like goats, your last tweet was funny, so random, pikachu is at lvl 100, \nbibimbap!, bokchoi, bokchoi!, eggroll in face!, WTF IS GOING ON!!! lol that \nis random tweeting'
p1360
aS'I have the urge to sign up for twitter. TWITTER BLAST HA'
p1361
aS'@boomstik60 ur dum'
p1362
aS"I remember when this first came out. I was just like WHAT THE FUCK IS \nTWITTER? And then I got it, and now I'm addicted."
p1363
aS'Hi Ryan Higa Ummm You Neeed To shave those are PIT HAIR no Offence. '
p1364
aS"@awesomeairsoftify Really! I'm watching this on my RockBook Pro."
p1365
aS'i dont have twitter'
p1366
aS'this was made on my birthday!!!!!!!!!!! ysy finally on vid on july 3!!!! \nbut it had to be this one? '
p1367
aS'I do rest TEEHEE'
p1368
aS'@awesomeairsoftify ive heard this 8 months ago......and i was like \nhahhhahaha....but now it is too mainstream..... '
p1369
aS'Great video, Ryan. One sec guys, I gotta tweet this.'
p1370
aS"@awesomeairsoftify How are the iStones? I'm stuck with a myStone. Oh my god \nit is so slow!"
p1371
aS'if u own ipod or iphone get apptrailer and input pandon and get a itunes \ncard after 3 commercial'
p1372
aS'i dont even use my twitter! '
p1373
aS'@boomstik60 wat everrr'
p1374
aS'wow im wondering how many emails ryan got!'
p1375
aS'was that cross made out of aluminum foil?'
p1376
aS'L\xc3\x96L'
p1377
aS'check out my channel just vids of me singing please ? :) '
p1378
aS'WHERE IS THE TEEHEE??? '
p1379
aS'im gonna go tweet this video........;)'
p1380
aS'too much armpit hair for me '
p1381
aS'he has alot of armpit hair'
p1382
aS'@JustcallmeTORY facebook is dum'
p1383
aS'@awesomeairsoftify the comment u just said is overused aswel -_____-'
p1384
aS'tweet till you love hannah montana ._. well.. im done...'
p1385
aS'Damn. HOT. XD'
p1386
aS'Who else paused so you could read the random tweets?'
p1387
aS'The sad thing is, I would actually buy this song on iTunes and play it for \nevery bitch with an addiction to pressing the "share" or "post" button. :3 '
p1388
aS'@boomstik60 heyy jerk'
p1389
aS'@jackroksursoksoff What if...IM FROM THE FUTURE!!! O.O'
p1390
aS'you forgot the teeeeeeeeeeeheeeeeeeeeeeeeeeeee'
p1391
aS'"I like goats, your last tweet was funny, so random, pikachu is at lvl 100, \nbibimbip!, bokchoi bokchoi!, egroll in face!, WTF IS GOING ON!!"'
p1392
aS'I am a Tweet Whore.'
p1393
aS'yea .... yea it duz XD'
p1394
aS'Tweet me!'
p1395
aS'wat about the facebook whores '
p1396
aS"Love your videos ! you're so fucking insane!!! "
p1397
aS'lol all his outfits'
p1398
aS'lllllllllllllllllllllllllllllllllllllllllllllllllllllllllllllluuuuuuuuuuuuuuuuuuuuuuuuuuuuuuuuuuuuuuuuuuuuuuuuuuuuuuuuuuvvvvvvvvvvvvvvvvvvvvvvvvvvvvvvvvvvvvvvvvvvvvvvvvvvvvvvvvvvvvvvvvvvvvvvvvvvvvvvvvv \nu. '
p1399
aS"Ryan im not gonna lie....you're extremely hot. Take ur shirt off more \noften. Oh and ur song is still genius in 2012."
p1400
aS'Hmmm..... Has a nice catchie ritme....'
p1401
aS'dear ryan can you be a big bouncy inflatable green ball?'
p1402
aS"Wait... You... Like... BIPBMBOP???(it's spelled wrong. I know!)"
p1403
aS'5 million !! really '
p1404
aS'@YourEvilHeroz get a life'
p1405
aS"where is the TEEHEE ?? :'("
p1406
aS'@PrshutKiller Lol xD'
p1407
aS'ok i cant lie your hot hehe'
p1408
aS'@YourEvilHeroz wheres vidieo?'
p1409
aS'@jackroksursoksoff shut the fuck up. No one cares'
p1410
aS"like if youre watching this in 3075! oh right, you guys haven't invented \nthe time machine yet..."
p1411
aS'tweet tweet like a whore like me!'
p1412
aS"thumbs up if you don't care what year your watching this in. "
p1413
aS'I got a virus from youtube .___.'
p1414
aS'@froo13 whats ur point?'
p1415
aS'@landrover853 Oh thank you, I am blushing!!!'
p1416
aS'@YourEvilHeroz i want to see it xD '
p1417
aS'@AshleyRudySupaThick exactly!! i wanted to ask tht!!! Well i did, but i \ncant find it anywhere to see if anyone commented on it..... o-o'
p1418
aS'"My left boob kinda hurt" Lol...'
p1419
aS'<3 that was wierd but funny and nice jacket'
p1420
aS'@jackroksursoksoff Thumbs up if your watching this in 2073'
p1421
aS'I was just gonna say... You look young here.. and your twitter set up is \nold (; '
p1422
aS'@27131king @jackroksursoksoff OVERREACTING just calm urself seriously Jack \nsaid one little harmless comment and then ur both all like "MWAH MAAHHH \nF**K YOU!" WTF? Calm yourself! You are the prime example of what is wrong \nwith the Internet!!'
p1423
aS'@jackroksursoksoff top comment whore'
p1424
aS'hotie'
p1425
aS"@YourEvilHeroz Sooooooooooooooo when's the vid coming ho?"
p1426
aS'6887 tweet whores!!XD'
p1427
aS'I love the tin foil necklace. It ties the whole video together :3'
p1428
aS'@fire26000 Ofc this is from 2009 lol'
p1429
aS'Im sorry , this isnt one of your best videos :/ I still love you tho -3 (:'
p1430
aS'@jackroksursoksoff Im watching this in 2768 with my Ipad 100'
p1431
aS'2:19 fake aluminum gangster chain'
p1432
aS"i like your video's but STOP making video's with only songs "
p1433
aS'@27131king fuck ur self '
p1434
aS'that dose not make any seance why should people thumbs up you!'
p1435
aS'u didnt teehee at da end :('
p1436
aS'@diviagirl3725 he was 19 when this was made'
p1437
aS"don't throw that cross necklace :("
p1438
aS'ps. ryan is HOOOOOOOOOOOT '
p1439
aS'no teehee? is this video really that old'
p1440
aS'I remember watching this when it came out, and thinking it was the coolest \nthing ever that he had Twitter as the background..'
p1441
aS'the tweet said i like goats was funny, so random pikachu is at lvl 100 \nbibimbap!,bokchoi,bokchoi,eggroll in face!, WTF is going on'
p1442
aS'errr........ fuck politics'
p1443
aS'He has a Billabong hat ;)'
p1444
aS'no its not a weeddin ring there'
p1445
aS'omg no way no teehee im so maddddddd why do that i always watch to the last \ni dont uslly do that on vedios only his '
p1446
aS'I used to be this way about tumblr ... Then all the assholes joined it \n-____-'
p1447
aS'EGGROLL! '
p1448
aS'wait is your real name ryan?'
p1449
aS'Hey there is no TEEHEE '
p1450
aS'Old twitter'
p1451
aS'any one else notice the second tweet down it says ShippleFoNipple My left \nboob kinda hurts?'
p1452
aS'Awwwwwww :-D '
p1453
aS'dude youre a tweet whore... thats pretty messed and just sad...'
p1454
aS'..........hot'
p1455
aS'ryan, ur cute. but can you do something with those armpits?'
p1456
aS'hi nigahiga fans i have been making videos like nigahiga and im affrad ill \nnever get noticed so can you please view and subscribe to my channell thanks'
p1457
aS'@zeezoutje yeah i will. i got a vid of me throwing an egg at my teacher on \nmy channel'
p1458
aS'Wheres TEEHEE ? :('
p1459
aS'Dear Ryan, could you make a lot more Vids without wearing a shirt? =) '
p1460
aS'NO TEEHEE.'
p1461
aS'@IFriedDaRice me to'
p1462
aS"@araxalot that's so. Racist"
p1463
aS'No teehee not good Ryan !!'
p1464
aS'Got turned on by the face at 1:42 <3'
p1465
aS'@aroxalot no need to get jealous bro'
p1466
aS'Wtf o_O'
p1467
aS'@venicemoon12345 ps i am a man using my sisters account'
p1468
aS'1:Pause 2:Click 0 3:Your welcome'
p1469
aS'lol thumbs up if you stopped at :51 to read the background'
p1470
aS'Tweet like the whore below me!!!'
p1471
aS'You forgot teehee'
p1472
aS"Actually, ......... ZzzzzzzzZzzzZzzZzzzz Oh! There is a teehee in one of \nthe tweets. It is unspoken and therefore different from the rest. Cuz all \nthe teehee's are different!"
p1473
aS'Am I tweet whore because I sang along?'
p1474
aS'@BellaC706 no'
p1475
aS'@KayaKayaEmma Loolz'
p1476
aS'i dnt even have a twitter!!!!!!! hahahahahaha'
p1477
aS"@RobinBoyWonder100 the question is who ISN'T."
p1478
aS'like if you saw in the backround he said "pikachu" ( bless you lol get \nbecause i don\'t also like if you do ) :D bye '
p1479
aS'is ryan higa married? hes wearing a wedding band.'
p1480
aS'This Sexy Beast... xD\xe2\x99\xa5'
p1481
aS'are you married ? '
p1482
aS'"I like goats, your last tweet was funny, so random, pikachu is at lvl 100, \nbibimbap!, bokchoi bokchoi!,eggroll in face! WTF IS GOING ON!!! " I just \nkeep trying to decipher it...'
p1483
aS'going and checking your twitter right after this song ;D'
p1484
aS'I feel like I heard this song before but with different lyrics... is this \nsupposed to be a parody of another song?'
p1485
aS'he forgot to do the teehee'
p1486
aS'TEEHEE'
p1487
aS'Why no TEEHEE?'
p1488
aS'-|- = +'
p1489
aS'I like goats'
p1490
aS'epic armpit hair at 2:22'
p1491
aS'This video was posted on the 2009! LOL he looked soo much younger then'
p1492
aS'@BoonasaurusRexGoRawr epic!!!!!!'
p1493
aS'Is it me or does Ryan have a sparkly jacket'
p1494
aS'asians are savages to think they could have talent'
p1495
aS"he's so cute"
p1496
aS'y so many dislikes?'
p1497
aS'PUT THIS SONG ON ITUNES'
p1498
aS'@BellaC706 its tin foil that goes with his other tin foiled bling :D'
p1499
aS"@RandomTechUniversity *you're"
p1500
aS'Im watching this on the year Two Thousand X!! On my iReploid!! >:|'
p1501
aS'@IFriedDaRice Only when am completely alone I try to make the most sound \nother wise I get pee shy lol'
p1502
aS'@IFriedDaRice I pee in the center of the toilet and grunt as loudly as \npossible to assert my dominance. '
p1503
aS'@IFriedDaRice ME TOO'
p1504
aS'tweet tweet 8======D SUCKING HOMO '
p1505
aS"@BellaC706 no, around the time he put up this vid. I think he had a \nrelationship to the girl that was in his twilight spoof and some other \nvideos. That's a relationship ring."
p1506
aS'Anybody else blowing off homework and sleep to roam youtube?'
p1507
aS'I love this song i listen to it a 1,000 time a day'
p1508
aS'@BellaC706 no its on his finger. bitch. '
p1509
aS'@Swindian101 because those r jus haters'
p1510
aS'I love the foil chain! '
p1511
aS"I'm watching this in A.D.1,000,000,000,XXX on my iCrazy."
p1512
aS'damn commercial...'
p1513
aS'O:33 YOU ALREADY SOUND DUM '
p1514
aS'0:18 I do something else until my hands are numb.'
p1515
aS"No TEEHEE, I'm sad...jk"
p1516
aS'@Xtremekilla213 Mate, that comment is just as hackneyed as the "Thumbs up \nif you\'re watching this in 2012" comments. Stop being a tryhard.'
p1517
aS'Eh, inspired me to go make a twitter....off i go'
p1518
aS'@Xtremekilla213 lol fail, there were no iStone untill 450 BC'
p1519
aS'@connorzerres im with ya'
p1520
aS"@MegaCoolBuddies hahahaa thats funny as I'm LOL omg i'm glad i stoped on \n1:30 TEEHEE"
p1521
aS'LOL the tweet whore dance he does :3'
p1522
aS'@elflaco07 Haha same here'
p1523
aS'all the tweets at the back say: follow @therealnigahiga'
p1524
aS'Isn\'t the music from jay z\'s "corporate takeover" ?'
p1525
aS'@pouffipouff i dont think anybody will do that...your just really creepy '
p1526
aS"Funniest person I'm the fucking universe not world but UNIVERSE!-3"
p1527
aS'@aroxalot whoa, racist much?'
p1528
aS'@BellaC706 its a gangster ring I think hes about 20 there so he probably \nisnt married^^'
p1529
aS'purple llamas attack!!!! :D:D:D'
p1530
aS'no Teehee'
p1531
aS'CREEPY FACE AT 1:58'
p1532
aS"thumbs up if you replayed 0:48-0:50 again and again cause he's hot!"
p1533
aS'I love it when someone copies the top comment just to get a top comment... \n(BTW that was sarcasm)'
p1534
aS"The only bad thing about being Asian is Not being 6 foot tall cause I'm \nAsian"
p1535
aS'*the end* TEEHEE!!!'
p1536
aS'Grammar Nazi Sixx at your service, Sir :D.'
p1537
aS'ok.. i have seen a couple vids of this guy, but until nw i just notice he \nis quite really good looking :p ur hot dude ;)'
p1538
aS'@Xtremekilla213 how original'
p1539
aS'chains of foil :DDDDDDD'
p1540
aS'@XbullsniperX hi'
p1541
aS'@sakuranlianan7777 noo, i think ryan is single Oo'
p1542
aS'is that a wedding ring on his hand?!?!'
p1543
aS'U forgot the TEEHEE!!!'
p1544
aS'tweet till ur sounding dum! lolololololololololololol'
p1545
aS'@BellaC706 i think no Oo'
p1546
aS'@woulaskywalker ok.... dont like...whatever dude'
p1547
aS'Im 10 years old...'
p1548
aS'I like goats, your last tweet was funny, so random, pikacu is at lvl 100, \nbibimbap!, bokchoi bokchoi!!, eggroll in face!, WTF IS GOING ON'
p1549
aS'thumbs up if you are the 5,320,509 viewer!'
p1550
aS'@kitkat62095 Why is he not?'
p1551
aS'* facepalm* This is the worst video you have done so far but i am still ur \nfan! '
p1552
aS'u can keep da shirt off! ;)'
p1553
aS'Imma add you'
p1554
aS"why at 2:00 he's not wherein a shirt"
p1555
aS'@MonkeyPants4977 no, i did to XD '
p1556
aS'@Xtremekilla213 still on the istone? dude i just got my upgrade. sweet'
p1557
aS"Ryan you r good looking ! :) You're voice is amazing"
p1558
aS"@tawfiqnsair I can't... I'm the 5.321.053 viewer :D"
p1559
aS"lol gosh , i haven't watched this in foreeever <3"
p1560
aS'@fefebabes2 i love u for knowing rain. <3 international kpop love ^.^'
p1561
aS'wait! pause at 1:04'
p1562
aS'i like goats, your last tweet was funny,so random, pickachu is at lvl 100 , \nbibimbap!,bokchoi bokchoi!,egg roll in face!, WTF IS GOING ON!!!'
p1563
aS'Just realised that Ryan got more muscles from then to now in 2012! GOOD JOB \nRYAN! THE IMPROVMENT SHOWS! AND THE IMPROVMENT SHOWS FAN GIRLS (not exactly \nme, but ur wicked ass funny) UR HOT! (akward to say ur hot, thats not comin \nfrom me, i meant the fangirls :) TEHEE)'
p1564
aS'i dont even own a twitter account.....i just love nigahiga, no homo'
p1565
aS'@twinsis35 its autotune -_-'
p1566
aS'there was somewhere a girl in a bikini or bra '
p1567
aS'wtf is this lol? others i know but the 1st time i watched it it was like \nwtf?'
p1568
aS"@kitkat62095 That's really not a problem.."
p1569
aS'6,858 dislikers forgot to fucking get out of this channel!'
p1570
aS'Hi'
p1571
aS'@stephenpogi998 speak normal english?'
p1572
aS'Why do people always say "thumbs up if watching in whatever year." If it\'s \na good video who cares what year it is or how old the video is? Just watch \nit and enjoy.'
p1573
aS'@Xtremekilla213 XD LOL '
p1574
aS'i am going to start making my jewelry in foil'
p1575
aS'i paused at 0:51 just to read the thingy behind ryan... '
p1576
aS'@albertofilms2 yep i saw itt'
p1577
aS'@HitlerFullParodies 17000+ followers and he just signed up'
p1578
aS'@XxScotland no but your dad.'
p1579
aS"lol gosh , i haven't watched this in foreeever <3"
p1580
aS'Wow 2009 seems like so long ago.'
p1581
aS'@Xtremekilla213 me too, how much did it cost? mine costed two mammoths'
p1582
aS'omg!!! are you married nigahiga? cuz i saw a ring on you ring finger '
p1583
aS'No TEEHEE ?'
p1584
aS'I like goats, your last tweet was funny, so random, pickachu is at lvl 100, \nbibimbap!, bokchoi bokchoi!, eggroll in fache!, WTF IS GOING ON!!! / \nBananas, go spurs go, ShippleFoNipple, my left boob kinda hurt, Teehee, \ncheese?, whirling peas!, I LOVE UNICORNS, purple llamas attack.....! / I \nneed 2 more tweets, someone give me something REALLY random to say... / \nBEEEP!! xD'
p1585
aS'lol this is really funny'
p1586
aS'omg'
p1587
aS'what no TEEHEE???'
p1588
aS'i like the beat'
p1589
aS'This song is so beautiful.'
p1590
aS'armpithair :P'
p1591
aS"I'm gonna tweet this"
p1592
aS'what song is this based on?'
p1593
aS'say your ugly so people can disagree! XD'
p1594
aS'.... 2:00 where did his shirt go? XD'
p1595
aS"Omg, we don't care what year we are watching this video omg"
p1596
aS'is it weird that after watching this song, i got a twitter??? (O.O)'
p1597
aS'@SuperMonkeybutt2000 ur a disgrace to my religion and to asian ppl!!!'
p1598
aS'@Djrock5296 you tweet whore jk'
p1599
aS'Wow if girls saw him in real life they would be so happy.'
p1600
aS'Damn yhur hot! !!!!!!!!'
p1601
aS"MyaYouFool i agree he's hot "
p1602
aS'BOMB ASS SONG! XD'
p1603
aS'I already love Miley......'
p1604
aS'@iheartskeletonjack On the floor where it should stay.'
p1605
aS"@reket777pvl fuck 2012. i'm watching this in the stone age in my rock chair \non my iClay. -_-"
p1606
aS'lol look @1:15 '
p1607
aS'HAHAA ! I LOVE THE SONG its pretty catchy! lol for those who have twitter \nFOLLOW ME : @LeighCahill :)'
p1608
aS'I think he made this video just so more people could follow him on twitter \nhaha. But who cares? I LOVE YOU, RYAN.'
p1609
aS'Thumbs up if watching it in 2012'
p1610
aS"@lordcoolz337 that's ok :)"
p1611
aS'Ryan is sooooo F***king hot, And funny '
p1612
aS'Love this song, just thought that you guys should follow me on twitter: \n@Swaggatron_Nick'
p1613
aS'@MyaYouFool Da fuq u talkin bout?!'
p1614
aS'@fefebabes2 You forgot Ryan Sheckler'
p1615
aS"@kcarter909 get a life he is out of your league and doesn't know u"
p1616
aS'where the f*ck was the teehee??'
p1617
aS'omg Send From My Android Device'
p1618
aS'I like goats, our last tweet was so random, pikachu is at lvl 100, \nbibimbab!, bokchoi bokchoi!, eggroll in face!, WTF IS GOING ON haha laughed \nwhen i read that in the background'
p1619
aS'No Tee Hee? '
p1620
aS'haha good one Callekanon'
p1621
aS'@123456789annat sorry i overreacted. now that i looked at the comments i \nrealized everyone wrote that. sorry :)'
p1622
aS"I'll tweet Tweet! Tweet! "
p1623
aS"Your body's. Sooooo cute"
p1624
aS'@AzulPrime99 OMFG, are you mentally ok?'
p1625
aS"This reminds of vampires. Dont you think its a bit like vampires? Or hot \ndogs. It reminds me of those too. Not that they have any relation. \nWhatsoever. But on the other hand whatsoever is an awesome word. It has all \nthree words in it: 'What' and 'Soever'. I feel a bit light headed. I'll \njust tweet it and head to bed..."
p1626
aS'@kcarter909 Woooooow.'
p1627
aS'hey he made this video on the day that waz close to my birthday '
p1628
aS"You're hot"
p1629
aS'look at 1:15 he sticks his tung out '
p1630
aS'@SuperMonkeybutt2000 and the next day of the video that hemade waz my \nbirthday!'
p1631
aS'me to i never go on twitter but i do have an acount and this is probibly \ngonna get a spam or alot of dislikes -_- *sigh*'
p1632
aS'haha wow'
p1633
aS'One of my favourite Ryan videos !'
p1634
aS'tweetwhore? :p i don\'t know about twitter but facebook gets ppl addicted to \npoint of "whoredom"!'
p1635
aS' i love his dance movet'
p1636
aS'Is it that sad that after listening to this song, I went to Twitter? \n#tweetwhore DID I JUST HASHTAG THAT? Fail.'
p1637
aS'I just tweeted this video on twitter :D'
p1638
aS'@MyaYouFool what r u smokin?'
p1639
aS'kyaaa!! ryan shirtless!! <3'
p1640
aS'who else paused at 0:51 to read the background?'
p1641
aS"that deep tweet tweet reminds me of family guy where stewie's pig goes OINK"
p1642
aS'lol, ahh, memories......'
p1643
aS'i love ryan'
p1644
aS'Lol whats up with the really random tweets in the background ?? Lol was it \nsome kinda contest?'
p1645
aS'Lip Syncing!!!!!'
p1646
aS'check out my channel fignoodle'
p1647
aS"where's the teehee???? "
p1648
aS" 6,838 ppl doesn't have twitter . "
p1649
aS"Haha.. very funny... i thank i ain't a tweet whore"
p1650
aS"If you read the tweets in the back, I'm positive you'll laugh or at least \nsmile. :) XP"
p1651
aS'This is my new favorite song!'
p1652
aS"@sweetestloveever and 1 person doesn't know English."
p1653
aS'When he had his shirt off, I realized how murf he got over the years lol. \n(By the way, I wasn\'t sure if murf is used outside of Hawaii, so I looked \nit up and apparently it\'s not..? Anyway, "murf" pretty much means muscular. \nYou could also say "moke," the newer version. But even if "murf" is the old \none, people use that more. :))'
p1654
aS'1:27 pikachu is at level 100 Bibibamp!'
p1655
aS'i like the song, simple but sounds good..;)'
p1656
aS"Very interesting....i don't even have a twitter...so at least i don't have \nto worry about being a tweet whore. :D"
p1657
aS"@Dreadslayer36 Oh, I see. In that case I'm sorry."
p1658
aS'love the tweet whore dance move'
p1659
aS'@MyaYouFool Your comment made me lol so much. xD'
p1660
aS'throw it at your dog. BARK!!'
p1661
aS'@LoveMeselfXD Oh.. and I hate her :P'
p1662
aS'@HerhCThang That someone is Ryan himself... at 0:51 you can read all of it.'
p1663
aS'is he married? '
p1664
aS'@MyaYouFool ikr hes lke super uper duper hot'
p1665
aS'omg there are some guys i believe dont need shirts.. a few are 1. Bi Rain \n2. Ryan Gosling 3. Ryan Reynolds 4. The Rock 5. Ryan higa..my latest \naddition to the list. Ryan you are too hot too hide behind a stupid shirt! \nTake it off!'
p1666
aS'@sweetestloveever NO! 6,838 ppl do have twitter :D'
p1667
aS'i cant believe ive never seen this video before'
p1668
aS'I remember when this video came out :) <3'
p1669
aS'Ga.He is so freaking sexy.I love when he says the whole "tweet like a whore \nlike me" >:O I want him for my birthday!!<3'
p1670
aS'i like the part where they talk about twitter'
p1671
aS"@ninawth Actually it's at 0:57 gotta give it time to load so people don't \nskip it :P"
p1672
aS"Is it just me, or is NigaHiga really hot. I think he's really hot. I like \ngoats. But you see, He is really hot. I mean, if only he could make a video \nshowing off how hot he really is. Not in an up-himself-like-a-duck kinda \nway but still. Ducks are really up themselves. I mean, the way they walk \naround with their beaks in the air. UGH. "
p1673
aS'Ryan are you married I SEE A RING ;)'
p1674
aS'im not trying to be a hater but this song sucked -,-'
p1675
aS'thumbs up if you were reading the tweets in the background instead of \nlooking at ryan ;)'
p1676
aS"i don't find it hilarious, but it is funny, like every ryan's video... and \nryan deserves more than 5 million views :)"
p1677
aS"@YourEvilHeroz I gave you a red thumb, cuz u won't do any of those things \n-.- you're just trying to get thumbs up...."
p1678
aS"@aroxalot Haha, It's funny that you actually think you're right. And sad \nthat your parents fed you that lie. "
p1679
aS'@noodlepoodle12 yeah '
p1680
aS"Where's Chester when you need him ?"
p1681
aS'Turn on your subtitles! :D:D '
p1682
aS'My lvl 100 tyrannitar would rape your pikachu'
p1683
aS'tweet till tweetlimite~~'
p1684
aS'Ryan can you be a celebrity ? '
p1685
aS"I don't stay up super late going on twitter, I stay up super late watching \nyour videos! I'm posting this at 2:15 am, and I was sent to bed a long time \nago 'cause I'm 12 and there's a lot of rules in my house, and this whole \ntime I've been watching yours and ksvjumbas videos!!! Whoa did I just make \na whole paragraph?! Sorry... :P"
p1686
aS'LOL, You must tweet a lot O_o'
p1687
aS'\xe2\x96\xac\xe2\x96\xac\xe2\x96\xac\xe2\x96\xac\xe2\x96\xac\xe0\xae\x9c\xdb\xa9\xe0\xae\x9c\xe2\x96\xac\xe2\x96\xac\xe2\x96\xac\xe2\x96\xac\xe2\x96\xac\xef\xbc\xb4\xef\xbc\xa5\xef\xbc\xa5\xef\xbc\xa8\xef\xbc\xa5\xef\xbc\xa5\xe2\x96\xac\xe2\x96\xac\xe2\x96\xac\xe2\x96\xac\xe2\x96\xac\xe0\xae\x9c\xdb\xa9\xe0\xae\x9c\xe2\x96\xac\xe2\x96\xac\xe2\x96\xac\xc2\xad\xc2\xad\xc2\xad\xc2\xad\xc2\xad\xc2\xad\xc2\xad\xc2\xad\xc2\xad\xe2\x96\xac\xe2\x96\xac WHERE IS IT :( ITS MISSING!!!!!! \n\xe2\x96\xac\xe2\x96\xac\xe2\x96\xac\xe2\x96\xac\xe2\x96\xac\xe0\xae\x9c\xdb\xa9\xe0\xae\x9c\xe2\x96\xac\xe2\x96\xac\xe2\x96\xac\xe2\x96\xac\xe2\x96\xac\xef\xbc\xb4\xef\xbc\xa5\xef\xbc\xa5\xef\xbc\xa8\xef\xbc\xa5\xef\xbc\xa5\xe2\x96\xac\xe2\x96\xac\xe2\x96\xac\xe2\x96\xac\xe2\x96\xac\xe0\xae\x9c\xdb\xa9\xe0\xae\x9c\xe2\x96\xac\xe2\x96\xac\xe2\x96\xac\xc2\xad\xc2\xad\xc2\xad\xc2\xad\xc2\xad\xc2\xad\xc2\xad\xc2\xad\xc2\xad\xe2\x96\xac\xe2\x96\xac '
p1688
aS'\xef\xbc\xb4\xef\xbc\xa5\xef\xbc\xa5\xef\xbc\xa8\xef\xbc\xa5\xef\xbc\xa5'
p1689
aS'omg no teehee wtf rayn'
p1690
aS"@LagoonaGhoul12 Duh what'd you think he was?"
p1691
aS'funny song but ...hmm i like it'
p1692
aS'i tweeted after this'
p1693
aS'@silentassassin20 wich One?'
p1694
aS'"I like goats, your last tweet was funny, so random, pikachu is at lvl 100, \nbibimbop!, bokchoi bokchoi!, eggroll in face!, WTF IS GOING ON!" Weirdo.. :3'
p1695
aS'lol someone wrote" My Left Boob kinda hurt" at 0:44 lol'
p1696
aS'@3viLCL0wNxxx xD'
p1697
aS'I signed up on twitter yesterdy ;D .'
p1698
aS'@AwesomenessItself87 whahh?!'
p1699
aS'i love twitter!!!!!!!!!!!!!!'
p1700
aS'@Stardgaf100 You need Hook on Fonik. '
p1701
aS"@HerhCThang well this song is about 'tweet whores' ;)"
p1702
aS'Just relized how hot nigahiga is .........'
p1703
aS'@024ian it also says FUCK ME'
p1704
aS"i am can't have a twitter account. if i told you why i would be arrested."
p1705
aS'this beat is from It blows My Mind by Snoop Dogg :o'
p1706
aS'this make me wana tweet XD '
p1707
aS'@wishkaya a whore!!!!!!!!'
p1708
aS'@HerhCThang lol ShipplefoNipple 0:47'
p1709
aS'im like 16 and im not allowed have twitter:( and my mum asks why i watch so \nmuch of higa tv and nigahiga '
p1710
aS'so Justin Bieber is a Whore!!!!!???????'
p1711
aS'not tweeting... youtube-ing'
p1712
aS'\xe2\x96\xac\xe2\x96\xac\xe2\x96\xac\xe2\x96\xac\xe2\x96\xac\xe0\xae\x9c\xdb\xa9\xe0\xae\x9c\xe2\x96\xac\xe2\x96\xac\xe2\x96\xac\xe2\x96\xac\xe2\x96\xac\xef\xbc\xb4\xef\xbc\xa5\xef\xbc\xa5\xef\xbc\xa8\xef\xbc\xa5\xef\xbc\xa5\xe2\x96\xac\xe2\x96\xac\xe2\x96\xac\xe2\x96\xac\xe2\x96\xac\xe0\xae\x9c\xdb\xa9\xe0\xae\x9c\xe2\x96\xac\xe2\x96\xac\xe2\x96\xac\xc2\xad\xc2\xad\xc2\xad\xc2\xad\xc2\xad\xc2\xad\xc2\xad\xc2\xad\xc2\xad\xe2\x96\xac\xe2\x96\xac'
p1713
aS"@024ian Because that's Tila Miley's page (the 'whore' that Ryan sings about \nin the song)"
p1714
aS'I was watchin Lunchtime With Smosh and Ryan tweeted them.'
p1715
aS"Challenge time. I challenge the YTF gang to do a video that has something \nto do with The Beatles. NOT THE BUG BUT THE BAND. or the bug.... I will \nsend this to everyones page. I think everyone does one on their own then \none as a group. Be creative. Do combainations of song or dance. Do \nsomething funny with their songs. Make a rap about the beatles. Hopefully \nyou don't chicken out ;3. ~courtney <3"
p1716
aS'My lvl 100 tyrannitar would rape ur pikachu'
p1717
aS"I don't stay up late on twitter! I stay up late watching ur vids! XP"
p1718
aS'autotune -_-'
p1719
aS'o m g he did forget the teehee '
p1720
aS'thats a catchy song can i download it on my iPod human?! :D'
p1721
aS'53,106 people tweet but still like this'
p1722
aS'where is the teehee!?'
p1723
aS'Stop at 0:51 to read the all the tweets. (;'
p1724
aS'Thiszz isz kindaa dumm -__- i thot itll e funier ut nohh >.<'
p1725
aS'@PhisWord OMFG REALLY O__O?? I thought his voice sounded like an accordion \nnaturally *crushed*'
p1726
aS'omg how much for the foil necklace '
p1727
aS'how can i sound dumb when im tweeting ???? i dont speak when im \ntyping?????? '
p1728
aS'He has a wedding ring on his left hand! Or is that just for the video?'
p1729
aS"1:09 here is it, next to cheese;) (I know it's not the same...)"
p1730
aS'@VeryLowBudgetFilmz here ill do it for u TEEHEE!'
p1731
aS'i luv his vids, but this one was just stupid. '
p1732
aS'2:00 *____________* soooo hot!!!'
p1733
aS'lol why did he put the shirt back on :<'
p1734
aS"Pause at 1:58 !! Ryan's sooo cute!"
p1735
aS"@garifunaHondureno But it is him , he's always HOT , when he looks like a \nlittle kid he's sooo cute!"
p1736
aS'@TheEMOdollXxX I think its part of his costume..BLING BLING...:D'
p1737
aS'LOL keep pressing 3 xD'
p1738
aS'Too distracted trying to read the background :) '
p1739
aS'im disappointed i expected better from u'
p1740
aS'Oh no he forgot the teehee D; >.<'
p1741
aS'Wow. this was a great birthday present. (MY B_DAYS JULY 3rd)'
p1742
aS'@gsfreedom123 ahahahanahahanahahhaannaahaahhaanananawananananananaan'
p1743
aS'@024ian yup '
p1744
aS"WERE'S MAH TEEHEE!??!?! xD"
p1745
aS'-groan- are these girls talking about ryan?'
p1746
aS'thumbs up if u have twitter on the next tab XP'
p1747
aS'@victory7911 Yep .'
p1748
aS'No teehee!?!?'
p1749
aS'Tweet'
p1750
aS"@024ian Because Tila Tequila is a whore and thinks she's hot. :D"
p1751
aS'YOU FORGOT UR TEEHEE!!!'
p1752
aS'ehhh kenapa suka komen org teruk2 ek??kau bagus sgt ke??hahahaa'
p1753
aS'Thumps up if you think this is so much better than Justin Bieber! :D'
p1754
aS'"tweet whore"'
p1755
aS'2:13 Likee If Youu Read His Tweets Lmaoo! xD '
p1756
aS'I died at 2:00 ;)'
p1757
aS'if i wanted to tweet, i would be a bird instead'
p1758
aS'love it!'
p1759
aS'i wonder how long it took Ryan to make that chain necklace out of aluminum \nfoil....'
p1760
aS'@024ian tila tequila .. '
p1761
aS'His necklace is made out of tin foil!!! -3 ( less than three)'
p1762
aS"haters... press 4 repeatly beacause you dont wanna be....well...press 4 and \nit'll explain everything xD"
p1763
aS'you iz BUFF!!!! ; )'
p1764
aS'PURPLE LLAMAS ATTACK! '
p1765
aS'teehee! tweet whore :P'
p1766
aS'wait is he married?? he has a ring on his fingiee :O'
p1767
aS"did someone notice 'teehee!' word at one of the tweet? "
p1768
aS"hey...don't judge me "
p1769
aS'Tumblr now?'
p1770
aS'He might not be married, it could be his purity ring maybe?'
p1771
aS'@pickachulover12345 who are u a girl?'
p1772
aS'Lol'
p1773
aS'No teehee!'
p1774
aS'@pickachulover12345 that doesnt even look like him and hes always cute'
p1775
aS"@KitKatSceneQueen , um hi. he's a boy. they're supposed to have them. he's \nso hot."
p1776
aS'you forgot to put :TEEHEE :O'
p1777
aS'Dear Ryan, Will Youu Marryy Mee!? <33333 '
p1778
aS'yah omg that wierd'
p1779
aS'did anyone else see the ring on his left hand ring finger'
p1780
aS'I never knew he was married.....unless he likes wearing rings on his ring \nfinger'
p1781
aS'i used to tweet but then i took an arrow to the knee'
p1782
aS'@123456789annat gee thanks for copying and pasting from my comment'
p1783
aS'@SandwaaaxD yea he said it like 5 times in the whole vid lolXD'
p1784
aS'Does anyone else notice how hot Ryan is?'
p1785
aS'and yes i dissagree that you are ugly you are better than justin bieber'
p1786
aS'6,814 people have faceboook'
p1787
aS'I <3 U'
p1788
aS"@lordcoolz337 i didn't know or c it"
p1789
aS'lolz '
p1790
aS'@Aleah Y E A H !'
p1791
aS'tinfoil lol'
p1792
aS"I don't have twitter so what's a tweet whore?"
p1793
aS'He is so cute!!<3'
p1794
aS'i have a charzard level 3 wat a pro'
p1795
aS'pikachu 0:51'
p1796
aS'do you like pokemon'
p1797
aS'@0:51 I LOVE UNICORNS, purple llamas attack.....! XD'
p1798
aS'1:28 pictuchu is lvl 100'
p1799
aS'at 1:04 why is the background a girl only wearing a pante and s bra thumbs \nup if you saw'
p1800
aS'"I like goats, your last tweet was funny, so random, Pickachu is at lvl \n100, bibibap!, bokchoi bokchoi!, eggroll in face!, WTF IS GOING ON!" LOL'
p1801
aS'posting this on twitter. too bad only 4 people will see it.'
p1802
aS'@farida986 +203'
p1803
aS'Has anyone noticed that he pushes up his imaginary boobs when he says tweet \nwhore in the deep voice?'
p1804
aS'No TeeHee'
p1805
aS'funny but literally has the shitest voice on earth, but he has swag so i \nrespect '
p1806
aS'@Furious2013 OMFG IS RYAN HIGA MARRIED??!?!??!?? AND YESS I SAW DA RING!!!'
p1807
aS'funny, gooooooo BIBAMBOP'
p1808
aS'is this beat original ?'
p1809
aS'WHERE THE HELL WAS THE TEEHEE!!!??!?!!?!?! xD'
p1810
aS'@o0xiahness0o u cant have a ring without bein married? lol.'
p1811
aS'brony for ever'
p1812
aS'1:04 WTF????'
p1813
aS"OMG!! he's married?! I saw the ring...."
p1814
aS'He forgot the teehee...'
p1815
aS'0:51 I like goats, Your last tweet was funny, so random, pikachu is at lvl \n100, bibimbap!, bokchoi bokchoi!, egg roll in face!, WTF IS GOING ON!!!'
p1816
aS"Wow I wonder how long he's had that old man mask for"
p1817
aS'0:14 wtf '
p1818
aS'Take your shirt back off'
p1819
aS'halariouse lol do another about faebook'
p1820
aS'@ 0:08 who noticed the acc. name and pic was pixelated??'
p1821
aS'is he wearing a wedding ring!?!'
p1822
aS'ur a whore????'
p1823
aS'Ryan has gotten so much funnier and better at making his videos. Total \nopposite of Peter Chao :('
p1824
aS"omg i'm a tweet whore :O "
p1825
aS'where the tehee>('
p1826
aS'Did anyone else do the TWEET WHORE dance?? XD'
p1827
aS'haha @ old twitter.'
p1828
aS'I GOT TO PEE ILL WRITE THAT I AM UGLY THAT U CAN DISAGREE '
p1829
aS'I like goats, your last tweet was funny, so random, pickachu is at lvl \n100,bibimbap!,bokchoi bokchoi!, eggroll in the face!, WTF IS GOING ON!!! \nBananas,go spurs go, ShippleFoNipple, My Left boob kinda hurt, Teehee, \ncheese? whirling peas!, I LOVE UNICORNS, purple llamas attack.....!'
p1830
aS'@lilkjDaGreatest you cant be serious...how long did that take'
p1831
aS'what no TEEHEE? :('
p1832
aS'damn he has some awesome foil skills:)'
p1833
aS'His hand dont look num.. '
p1834
aS"Twitter was there at 2009?! LOL I DID'NT KNEW! XD "
p1835
aS'THEY FORGOT THE TEEHEE!!!!'
p1836
aS'Shave ur pits'
p1837
aS'@L1TtL3M4cK :3'
p1838
aS'tweet: i like goats, your last tweet was funny, so random, pikachu is at \nlvl 100, bibimbap!, bokchoi, bokchoi!, eggroll in face!, WTF IS GOING ON!!! '
p1839
aS'All the 6,807 haters of this video are twitter whores.'
p1840
aS'People who use Facebook are Facebookers...People who use Youtube are \nYoutubers...so does that people who use Twitter are Twits?'
p1841
aS'0:51 Read his tweets lol'
p1842
aS'@thiniusfamily stop being a hater '
p1843
aS"0.14 Did he just say he's a whore?._."
p1844
aS"I don't have a Twitter... :D"
p1845
aS'2:18 Uh Oh! Somebody has some armpit shaving to do!'
p1846
aS'Yep'
p1847
aS'ill write that i am ugly so that u can disagree - guilty!!'
p1848
aS'@MrEringe No! Thats not true. By the way check me out on twitter'
p1849
aS'@thiniusfamily stop being a hater '
p1850
aS'6806 people like facebook '
p1851
aS'Twitter in background says: I like goats, your last tweet was funny, so \nrandom, pikachu is at lvl 100, bibambap!, bokchoi bokchoi!, egroll in \nface!, WTF IS GOING ON!!!'
p1852
aS'Ryan Ur So Fakinqqq Hot!!!!!!!!!!!'
p1853
aS'press 7 for "eat like a whore like me"'
p1854
aS'Massive armpit hair action at 2:20'
p1855
aS'best song evaaaaaa '
p1856
aS"Ryan is a TweetWhore and most of us are FaceBookWhores aren't we?"
p1857
aS'Omg this is so old'
p1858
aS"over 100 updates? pfft. I'm at 1000 tweets already!"
p1859
aS'derp'
p1860
aS'pause at 1:42'
p1861
aS'Facebook-People I know and hate Twitter-YTF, do I have to say more..?'
p1862
aS'@fierothehedgehog not anymore but ur still getting thumbs up - oops there i \ngo pressing that green button write there'
p1863
aS'Keep wearing a hat. You look cuter that way. lol'
p1864
aS'Ew? twitter sucks.....Tumblr!? dont even get me started!! -.- '
p1865
aS'Cachy song.!'
p1866
aS'if your man pause at 1:04 '
p1867
aS'@myzlexiboo22 they do forget the TEEHEE '
p1868
aS'have you try tumblr? at tumblr.com'
p1869
aS'Mario vs. sonic'
p1870
aS'hahahahahaha he grabs his stuff at 1:25'
p1871
aS"I'm a youtube whore "
p1872
aS'When you tweet like Miley Cyrus! Tweet Whore!'
p1873
aS'OMG! SEXXXYYY! OMG! <3 <3 <3 JUS DIED PPL! '
p1874
aS'@nessaisladygaga ... FOLLOW . :DDD'
p1875
aS'@Dizzle429 sweet tweet!'
p1876
aS'im like that with nigahiga does that make me a nigahiga whore?'
p1877
aS'this video was uploaded on my bday '
p1878
aS"Why does Ryan look Darker than He Does In the Video's he does these Days?? \n(I'm NOT Being Racist!)"
p1879
aS'i watched the video over and over again cause i like the song ITS AWESOME! '
p1880
aS'@Yukirufanforlife IMA FACEBOOK WHORE!!!!!!!!!!!!!!'
p1881
aS'SO funny '
p1882
aS'WHAT HAPPENED TO THE TEEHEE!!!'
p1883
aS'this song is retarded'
p1884
aS'i like to thumbs up my videos. does that make me a noob whore? or am i just \na whore?!'
p1885
aS'ryan shirtless sexy let me come over :P'
p1886
aS'follow me. @emptystyle I follow back.'
p1887
aS'you should shave yr armpit hair...No offence'
p1888
aS'there was no teehee.....'
p1889
aS'@vampirepup808 :/'
p1890
aS'Ruans a beast who makes beastly vids and u haters r just fags'
p1891
aS'I used to be a facebook whore, but then I took an arrow to the knee.'
p1892
aS'this song is sweet! dont be a hater!'
p1893
aS'There is not a Tehee OO'
p1894
aS'"tweet till ur sounding dumb..." Umm... A little to late for that pal!'
p1895
aS'Aww no teehee'
p1896
aS'I stayed like that fom 8am to 12pm!!!!!!'
p1897
aS'i followed u!'
p1898
aS'TWEET LIKE A WHORE I LIKE'
p1899
aS'tweet whore or tweet more?'
p1900
aS'Ahahaha I saw bok choi >w<'
p1901
aS'Amazing song! I love you!'
p1902
aS'wow nice loser tweeters do tweet to much '
p1903
aS"I'm...just a whore"
p1904
aS'i am registering now to Tweeter xD'
p1905
aS'woohoo shirtless...........finally <3'
p1906
aS'pikachu xD'
p1907
aS'No teehee!?'
p1908
aS'wow you are out of tune using auto tune. how do you even do that?'
p1909
aS'@Yukirufanforli'
p1910
aS"I'll write I am ugly so you can disagree :)"
p1911
aS'2:18 hair on pits xD'
p1912
aS'Tee hee ? Where is it ?!'
p1913
aS"I'm like that with copying the top two comments am I a copying whore?"
p1914
aS'@fierothehedgehog and now your one too :D'
p1915
aS'O.o lolssssssssss'
p1916
aS'i luv ryans hat @ 2:20.'
p1917
aS'your married? '
p1918
aS'put this on iTunes'
p1919
aS'No TEEHEE'
p1920
aS'THE TWEET DOESNT MAKES NO SENSE!! "I Like Goats, Your Last Tweet Was So \nFunny, So Random, Pikachu Is At Lvl 100, Bibimbap!, Bokchoi Bokchoi!, \nEggroll In Face!, WTF IS GOING ON!!!"'
p1921
aS"follow me! : _RxxR_ i'm from holland (:"
p1922
aS'1:09 Background "My Left Boob kinda hurt"'
p1923
aS'Lol I love the tweet whore dance ( hands go frm head to man boobs)'
p1924
aS'@Webcampod if ur a guy-wow if ur a girl-u should call me if u think there \nis a third option then ur probably a blond chick and super hot so do the \nsecond one'
p1925
aS'lol'
p1926
aS'@1GeekUndercover1 ur female (or gay)'
p1927
aS"I'm like that with facebook. does that make me a facebook whore?"
p1928
aS'never mind its weird.seriously WTF was that.'
p1929
aS"where's our TEEHHE AT ? "
p1930
aS'IM like that with youtube does that make me a youtube whore??'
p1931
aS'6,791 people are not tweet whores '
p1932
aS'Thumbs Up if ur a Tweet Whore '
p1933
aS"@purpletreezdancing1 purple llamas attack.. proll y got tht from my kitty's \ntwitter"
p1934
aS"Okay what the EFF!! The last three videos I watched by you didn't have a \nTEEHEE at the end! What is happening!!! Lol j/k"
p1935
aS'i just love classic ryan higs vids <3'
p1936
aS'@adamsbrandy well he is a man soooooo yeah he does lol '
p1937
aS'I love unicorns and goats, too!!!\xc2\xa1\xc2\xa1!!!\xc2\xa1\xc2\xa1'
p1938
aS"where's the TEEHEE??!"
p1939
aS'The I love unicorn ahaha'
p1940
aS'Bananas,Go Spurs Go , ShippleFonipple. My Left boob kinda hurt, Teehee \nCheese? Whirling peas! I LOVE UNICORNS, PURPLE LLAMAS ATTACK....!'
p1941
aS'@Raxxer1993 thanks bitch!! :)'
p1942
aS'@punkwolf17 Femalee; not gay.'
p1943
aS'ooohh i hope its good i am waiting for it to load. :)'
p1944
aS'Ryan putting his hands under his moobs whenever it says Tweet Whore xD'
p1945
aS'lol this video is so accurate'
p1946
aS'i love twitter/facebook/youtube. twitter helps me stalk celebs. facebook \nlets me stalk the people i know. youtube lets me watch celebs and ppl i \nknow.'
p1947
aS'was that really him? :S 1:58'
p1948
aS'@Raxxer1993 i wasnt talking to you was i no i wasnt soo STFU!!! :)'
p1949
aS'i totally copied his moves when he said Tweet Whore - so funny'
p1950
aS'no TEEHEE?'
p1951
aS'No Teehee Nooooooooooo'
p1952
aS'hey what happend to kimchee????'
p1953
aS'he is outta tune '
p1954
aS'sexy body'
p1955
aS'another song that gets stuck in my head.... '
p1956
aS'0:20 WAS RYAN ENGAGED!?!?!'
p1957
aS"@EstonianLammaS lets look on the bright side. at least he doesn't have \nspace my."
p1958
aS'I was waiting for a teehee. ):'
p1959
aS'@nalleburgeri NOBODY LIKE THIS IT HAS 69 likes haha'
p1960
aS'AUTOTUNE'
p1961
aS'@purpletreezdancing1 cat carrier'
p1962
aS'IM A WHORE. PERIOD'
p1963
aS'no teehee'
p1964
aS'You like this video. Well I know that duhh'
p1965
aS'i like turtels '
p1966
aS'shut up '
p1967
aS'"My left boob kinda hurts" LOL'
p1968
aS'facebook whore '
p1969
asS'time'
p1970
ctime
struct_time
p1971
((I2009
I7
I3
I18
I23
I0
I4
I184
I-1
t(dtRp1972
sS'id'
p1973
VW4Ck7JQJxhs
p1974
s.