(dp1
S'title'
p2
VMovies In Minutes - Chronicle
p3
sS'url'
p4
Vhttp://www.youtube.com/watch?v=w7i80TwYVGo&feature=youtube_gdata_player
p5
sS'image'
p6
Vhttp://i.ytimg.com/vi/w7i80TwYVGo/0.jpg
p7
sS'comments'
p8
(lp9
S'haha...the references. ftw XD *rofl* \xef\xbb\xbf'
p10
aS'Since chronicle is the greatest movie ever made, I guess that makes this \nthe greatest parody ever made. Ahhh, Joshua Trank is a god among men! \xef\xbb\xbf'
p11
aS'GOD DAMNIT ANDREW! XD\xef\xbb\xbf'
p12
aS'Who was holding the camera filming Andrew? \\\xe2\x80\xa20\xe2\x80\xa2/\xef\xbb\xbf'
p13
aS'AAAAAAAH FETUS RYAN AWWWWWWWW\xef\xbb\xbf'
p14
aS'I just saw this movie for the first time and now I finally understand this \nvideo haha\xef\xbb\xbf'
p15
aS"GUYS WHAT'S GOING ON WHY DO YOU KEEP SHOUTING AT ME\xef\xbb\xbf"
p16
aS'This made me laugh soooo hard\xef\xbb\xbf'
p17
aS'andrew !!!\xef\xbb\xbf'
p18
aS'Andrew!!!!\xef\xbb\xbf'
p19
aS'I love this video!\xef\xbb\xbf'
p20
aS'Yolo\xef\xbb\xbf'
p21
aS'Critics: "Rave"\xef\xbb\xbf'
p22
aS'Ive seen that marry go round its at a 99 cent store bye were i live ha that \npart was HILARIOUS \xef\xbb\xbf'
p23
aS'ANDREW!!!\xef\xbb\xbf'
p24
aS'MIND GEEK MOMENT 1:11!!!!!!\xef\xbb\xbf'
p25
aS'ANDREW!\xef\xbb\xbf'
p26
aS'Holo\xef\xbb\xbf'
p27
aS'I have these super powers too\xef\xbb\xbf'
p28
aS'ANDREW!!\xef\xbb\xbf'
p29
aS"where's the (insert ryan voice) TEEHEE? :((\xef\xbb\xbf"
p30
aS'Aaaandreeeew!!!!\xef\xbb\xbf'
p31
aS'Am I the only one who enjoyed Chronicle?\xef\xbb\xbf'
p32
aS'Ryan and I are dating nice acting baby I love you\xef\xbb\xbf'
p33
aS'FUNNY!\n\xef\xbb\xbf'
p34
aS'Chronicle was a really shitty film\xef\xbb\xbf'
p35
aS'I never saw the movie but ok XD :P\xef\xbb\xbf'
p36
aS'AAAAAAAAAAAAAAAAAANDREW!!!!!\xef\xbb\xbf'
p37
aS'HI\xef\xbb\xbf'
p38
aS'ANDREW!\xef\xbb\xbf'
p39
aS'I love movies in minutes\xef\xbb\xbf'
p40
aS'who else went back to the baby ryan part?\xef\xbb\xbf'
p41
aS'This video was awesomr! Wait no i meant to type e instead! ANDREW!!!!!!!\xef\xbb\xbf'
p42
aS'the cute little kid is ryan !?!?!?!?!?! ohhhhhh soooooo cute soo cute !!!!! \n>___< TEEHEE\xef\xbb\xbf'
p43
aS'*Andrew*\xef\xbb\xbf'
p44
aS'2:02 BWAHAHAHHA XD\xef\xbb\xbf'
p45
aS"Androoo Androoo Androoo\nThe rate it was repeated in the movie you'd think it was some bird mating \ncall\xef\xbb\xbf"
p46
aS'Reminds me of mind geek...just saying lol\xef\xbb\xbf'
p47
aS'i need a movie about andrew so bad\xef\xbb\xbf'
p48
aS'Look at Andrews face :p Andrew! Look at the state of your face! XD\xef\xbb\xbf'
p49
aS'Did you actually go and do this to random people in public.\xef\xbb\xbf'
p50
aS'Is that chester see?\xef\xbb\xbf'
p51
aS"So apparently there's a movie about me and I didn't even know it. Damn...\xef\xbb\xbf"
p52
aS'Anyone know the name of the song at 00:35\xef\xbb\xbf'
p53
aS'"It\'s about andrewwwww".\xef\xbb\xbf'
p54
aS'UMG ITS HOTTY CHESTA :D\xef\xbb\xbf'
p55
aS'#Andrew!!!!!!!!!!!!!!!!!!!!!!!!Andrew Andrew Andrew Andrew Andrew andrew \nAndrew Andrew Andrew Andrew Andrew Andrew Andrew Andrew #septiccomments\xef\xbb\xbf'
p56
aS"Aww he's a cute toddler \xef\xbb\xbf"
p57
aS'Haha :D\xef\xbb\xbf'
p58
aS'Andreeeeeeew\xef\xbb\xbf'
p59
aS"I liked Chronicle actually, but I see why people don't. I think the movie \nis best when watched blind (that is, watching without knowing any thing \nabout it). I saw the movie on TV and didn't know anything about it at all. \nSo throughout the movie I was wondering what would happen next. \xef\xbb\xbf"
p60
aS"I LOVE this film but this made me realise how it was just a lot of 'ANDREW! \nWhy u do this Andrew? Andrew stahp! Andrew pls'\xef\xbb\xbf"
p61
aS'Dear Ryan,what would u do in the hunger games\xef\xbb\xbf'
p62
aS'ANDREW! :)))\xef\xbb\xbf'
p63
aS'1:46.....lol\xef\xbb\xbf'
p64
aS'ANDREW!!!!!!!\xef\xbb\xbf'
p65
aS'Love the movie\xef\xbb\xbf'
p66
aS'ANDREW!!!!!!!\xef\xbb\xbf'
p67
aS'Lmao omg\xef\xbb\xbf'
p68
aS'This is one of my favorite videos ever XD\xef\xbb\xbf'
p69
aS'So CUTE\xef\xbb\xbf'
p70
aS'Dear ryan can you juggle and ride unicycle\xef\xbb\xbf'
p71
aS'Andrew!!!\xef\xbb\xbf'
p72
aS'chronicle was a good movie\xef\xbb\xbf'
p73
aS"Best superhero film since the notebook......\n\nTotally agree that it is not a superhero film-in the whole film they didn't \nsave anyone, but killed a whole load of people...\xef\xbb\xbf"
p74
aS"We've got powars\xef\xbb\xbf"
p75
aS'That movie was amazing.\xef\xbb\xbf'
p76
aS'Lol\n\xef\xbb\xbf'
p77
aS'ANDREW!!!\xef\xbb\xbf'
p78
aS"Who's the little baby?\xef\xbb\xbf"
p79
aS'Hheheheheheehhehehehehehteehee\xef\xbb\xbf'
p80
aS'LOL 0:32\xef\xbb\xbf'
p81
aS'ANdrew lmfao\xef\xbb\xbf'
p82
aS"When Ryan was first staring at the car I didn't get it I thought he was \ncrazy :D then I finished it and remembered the movie :D really funny vid \nRyan x\xef\xbb\xbf"
p83
aS'My names Andrew....They yell at me too much in this vid...\xef\xbb\xbf'
p84
aS'Toddler Ryan was UBER CUTE!! <3\xef\xbb\xbf'
p85
aS"We've got pow\xef\xbb\xbf"
p86
aS'"He\'s changing" !\xef\xbb\xbf'
p87
aS'This reminds me of mind geek <3\xef\xbb\xbf'
p88
aS'Make movie in minutes again\xef\xbb\xbf'
p89
aS'LOL\xef\xbb\xbf'
p90
aS'ANDREW!!!\xef\xbb\xbf'
p91
aS'Ryan has been having those powers since his removed video called mind geek\xef\xbb\xbf'
p92
aS'Awww Baby Higa!! <3\xef\xbb\xbf'
p93
aS'ANDREW!!!!!!!!!\xef\xbb\xbf'
p94
aS'2:10 - 2:20 ROFL LOL \xef\xbb\xbf'
p95
aS'L M A O !!!!!!!!!!!!!!!!!!! the most hilarious! lol \xef\xbb\xbf'
p96
aS'Chronicle was was incredible but the ending was sad\xef\xbb\xbf'
p97
aS'I loooove the movie soo much #Andrew\xef\xbb\xbf'
p98
aS'ih wait i forgot..Divergent\xef\xbb\xbf'
p99
aS'OMG!!! So funny\xef\xbb\xbf'
p100
aS'This brings back memories of Ryan\'s old movies where\'d he\'d pretend to use \nthe "force" to move things. Damn I\'m old ;)\xef\xbb\xbf'
p101
aS'Still enjoyable.\xef\xbb\xbf'
p102
aS'How come the video from your childhood have better quality then your early \nvideos.\xef\xbb\xbf'
p103
aS'HAHAHAHA XD ANDREWWW!!!\xef\xbb\xbf'
p104
aS'Ryan dont forget :\nThe Hunger Games\nPercy Jackson..\nHarry Potter (please make another)\nJeepers Creepers\nFrozen\nThe Mortal Instruments\n...and others\xef\xbb\xbf'
p105
aS'dear ryan, please share the full video of your childhood\xef\xbb\xbf'
p106
aS'Two words: Mind geek\xef\xbb\xbf'
p107
aS'Dear ryan would would you win the hunger games\xef\xbb\xbf'
p108
aS'Hi\xef\xbb\xbf'
p109
aS'#Andrew!\xef\xbb\xbf'
p110
aS'Cool. Now do the Lego trick. \xef\xbb\xbf'
p111
aS'They really have super power!\xef\xbb\xbf'
p112
aS'FUCKING ANDREW!\xef\xbb\xbf'
p113
aS"It's much better than the original!\xef\xbb\xbf"
p114
aS'Andrew!\xef\xbb\xbf'
p115
aS"I just saw the movie and this couldn't be more accurate \xef\xbb\xbf"
p116
aS'ANDREW GARCIA! I saw u at our performance at the u of m\xef\xbb\xbf'
p117
aS'lol spongebob reference\ngj its great ><\xef\xbb\xbf'
p118
aS'Lewl ... xD\xef\xbb\xbf'
p119
aS'So smart haha(x\xef\xbb\xbf'
p120
aS'Your so cute when u were a baby!\xef\xbb\xbf'
p121
aS'OMG Ryan you were so adorable \xe2\x99\xa5\xe2\x99\xa1\xef\xbb\xbf'
p122
aS'Andrew!\xef\xbb\xbf'
p123
aS'Dear Ryan, can u be in minecraft?\xef\xbb\xbf'
p124
aS"Dear anyone who reads this... don't get the movie... it sucks, its not \nworth toured time or money. My recommendation, to someone who likes that \nmovie, I'm sorry for you.\xef\xbb\xbf"
p125
aS'JASON!\xef\xbb\xbf'
p126
aS'ANDREW!!!\xef\xbb\xbf'
p127
aS'Andrew!\xef\xbb\xbf'
p128
aS'It never fails!!! I love you guys!!!\xef\xbb\xbf'
p129
aS'Dear ryan please make a video about frozen\xef\xbb\xbf'
p130
aS'Awee Lil Ryan\xef\xbb\xbf'
p131
aS'NAILED IT\xef\xbb\xbf'
p132
aS'Andrew!!!!!!!\xef\xbb\xbf'
p133
aS'Fucking andrew \xef\xbb\xbf'
p134
aS'Vote up if u think he should do movie in minutes for coraline and the \nhunger games\xef\xbb\xbf'
p135
aS'Chronicle was actually a good movie :/\xef\xbb\xbf'
p136
aS'Do movies in minutes: Coraline! That shouldbe fun to watch :-)\xef\xbb\xbf'
p137
aNaS'Pot\xef\xbb\xbf'
p138
aS'My name is Andrew lol\xef\xbb\xbf'
p139
aS'What did i do now\n\xef\xbb\xbf'
p140
aS'My big bros name is andrew\xef\xbb\xbf'
p141
aS'2:39-The Tripod XD\xef\xbb\xbf'
p142
aS'dear ryan higa are you my friend????? :)\xef\xbb\xbf'
p143
aS'Dear Ryan what would you do if you were in paranormal activity?\xef\xbb\xbf'
p144
aS'DearRyan, do the Hunger Games\xef\xbb\xbf'
p145
aS"these girls in the room next to mine have a friend named andrew and they're \nalways saying his name just like ryan and chester say it and i'm over here \nlaughing all by myself because all i can think about is this video\xef\xbb\xbf"
p146
aS'Awwww baby Ryan is so cute!\xef\xbb\xbf'
p147
aS'#ANDREW!!!!!!\xef\xbb\xbf'
p148
aS'Dear Ryan,can you do a cover of let it go from frozen?\xef\xbb\xbf'
p149
aS'dear Ryan can you do Mr Bean\xef\xbb\xbf'
p150
aS"OMG :') he was so cute as a baby :)\xef\xbb\xbf"
p151
aS'Oh my gosh \xf0\x9f\x98\x82\xef\xbb\xbf'
p152
aS'ANDREW!\xef\xbb\xbf'
p153
aS'this is what you did in your first video :D\xef\xbb\xbf'
p154
aS'This is hilarious ...\xef\xbb\xbf'
p155
aS'Dear Ryan what would you do in the hunger games\xef\xbb\xbf'
p156
aS'2:17 aaaaaw little ryan!!! :DD\xef\xbb\xbf'
p157
aS'that looks like his mind geek video\xef\xbb\xbf'
p158
aS'you forgot the crazy dad haha\xef\xbb\xbf'
p159
aS'1:43 Andrews face\xef\xbb\xbf'
p160
aS"My name's andrew\n\xef\xbb\xbf"
p161
aS'WTF\xef\xbb\xbf'
p162
aS'dear ryan ,can u be a ghost\xef\xbb\xbf'
p163
aS'ALVIN!.. i mean ANDREW\xef\xbb\xbf'
p164
aS'Andrew.... like annoying orange :))\xef\xbb\xbf'
p165
aS"This is basically the same thing as Ryan's old video, Mind Geek.\xef\xbb\xbf"
p166
aS'Who was speaking spanish? I heard "no manches" :D\xef\xbb\xbf'
p167
aS'\nDear Rayn can you be a character in Fairy Tail(eg. natsu or happy)??\xef\xbb\xbf'
p168
aS'How did you move the objects ? \xef\xbb\xbf'
p169
aS'2:18 oh my god hes so so so so so cuute!!!! \nAHHHHHHH............\n\nteehee\xef\xbb\xbf'
p170
aS"the green drink is honey boo boo's go go juice\xef\xbb\xbf"
p171
aS'WATCH THE ORIGINAL MOVIE TRAILER FIRST (\\030/) \xef\xbb\xbf'
p172
aS"Can't watch this video?! O.O\xef\xbb\xbf"
p173
aS'Lol \nLove the powers\xef\xbb\xbf'
p174
aS'Was it an accident? *Camera pans to wet bed* I burst into tears on that.\xef\xbb\xbf'
p175
aS'0:45 Andrew\xef\xbb\xbf'
p176
aS"Omg he is sooo cute when he's little. That eyebrows amazed me. LOL \xef\xbb\xbf"
p177
aS'Lol\n\xef\xbb\xbf'
p178
aS'omg this is funniest video ive watched for ages\xef\xbb\xbf'
p179
aS'ANDREW !!!!!!!!!!!! LOL \xef\xbb\xbf'
p180
aS"How come Ryan doesn't do videos with Chester anymore?? haven't seen any \nrecently O.o \xef\xbb\xbf"
p181
aS'you should do a hunger games 1\xef\xbb\xbf'
p182
aS'andrew made the car go into the line\xef\xbb\xbf'
p183
aS'You were so cute wen u were little! Aww\xef\xbb\xbf'
p184
aS'emo andrew\xef\xbb\xbf'
p185
aS"Chronicle\nIt's about Andrew\nTEEHEE\xef\xbb\xbf"
p186
aS'Wait wait, the elevator said he was on the thirteenth floor! \xef\xbb\xbf'
p187
aS'he only help the people to parking, nothing is wrong\xef\xbb\xbf'
p188
aS'Was that glow in the dark sprite\xef\xbb\xbf'
p189
aS'Finally watched this movie last night!  ... yup... its all about Andrew...\xef\xbb\xbf'
p190
aS'I actually saw Chronicle after this video.. ANDREW!\xef\xbb\xbf'
p191
aS'FUCKIN WITH RANDOM PEOPLE IN THE STREET. CUZ THATS HOW WE ROLL. \xef\xbb\xbf'
p192
aS'Om god was that you as a baby :D\xef\xbb\xbf'
p193
aS'This movie was OFF THE CHAIN! It was sooo awesome!! :D\xef\xbb\xbf'
p194
aS'The funniest thing about this Is that my name is andrew\xef\xbb\xbf'
p195
aS'Loled soooo hard\xef\xbb\xbf'
p196
aS"It's about Andrew. lol.\xef\xbb\xbf"
p197
aS'Woh woh woh woh, thats racist\xef\xbb\xbf'
p198
aS'i was watching this with my sis. when it ended she said: "what?"\xef\xbb\xbf'
p199
aS'jajajajajajajajajajajajaj hehehehehehehehehehehehe jajajajajajajajaja\xef\xbb\xbf'
p200
aS"Dude that's racist\xef\xbb\xbf"
p201
aS'I lost my shit when u guys are on the horsey thing and Andrew is \n"controlling" it\xef\xbb\xbf'
p202
aS'U guys r just pure genius...\xef\xbb\xbf'
p203
aS'andrews face lol \xef\xbb\xbf'
p204
aS'my name is andrew lol\xef\xbb\xbf'
p205
aS'Andrew\xef\xbb\xbf'
p206
aS'now i get the last joke\xef\xbb\xbf'
p207
aS'Do The Hunger Games next\xef\xbb\xbf'
p208
aS'Lol, I love the way Ryan says ANDREW! :D\xef\xbb\xbf'
p209
aS'I also laughed at 2:16 \xef\xbb\xbf'
p210
aS'What was wrong with making a car go left?\xef\xbb\xbf'
p211
aS'ryan is the best\xef\xbb\xbf'
p212
aS'"Wait, if I\'m here, and you\'re there, and Andrew\'s here, then who\'s holding \nthe camera??" *sees Andrew waving and holding the camera.* "Andrew!!" \xf0\x9f\x98\x86\xef\xbb\xbf'
p213
aS'DAMN IT ANDREW!\xef\xbb\xbf'
p214
aS'ANDREW!!!!\xef\xbb\xbf'
p215
aS'Cha Chang :DD LOL\xef\xbb\xbf'
p216
aS'O MI GOD U R SO FRIGGIN CUTE AS A BABY\xef\xbb\xbf'
p217
aS"I miss the YTF days :'(\xef\xbb\xbf"
p218
aS'instead of a black guy you used an asian guy instead\xef\xbb\xbf'
p219
aS"HAHAHAHAhaha... Is it only me who laughed like crazy at 2:16 when ryan \nrewinded too much to when he was a kid with 'teehee' grin on his face? \nXD that is the BEST! hahaha... just made my day :')\xef\xbb\xbf"
p220
aS'dat ending lol\xef\xbb\xbf'
p221
aS'dat andrew face -_-\xef\xbb\xbf'
p222
aNaS'Hahaha\xef\xbb\xbf'
p223
aS'Omfg is that u when your little?\xef\xbb\xbf'
p224
aNaS'Lmao those powers r useless \xef\xbb\xbf'
p225
aS'i just watched this\xef\xbb\xbf'
p226
aS'ANDREW! \xef\xbb\xbf'
p227
aS'enjoy!!!!!!!!!!!!!!!\nXD\xef\xbb\xbf'
p228
aS'Check out this video on YouTube:\xef\xbb\xbf'
p229
aS'Check out this video on YouTube:\xef\xbb\xbf'
p230
aS'"Was it an accident?"\nLol\xef\xbb\xbf'
p231
aS'ANDREW!!!!\xef\xbb\xbf'
p232
aS'ANDREW!!!!!!!!!!!!!!!!!!!!!!!!!!!!!!!!!!!!!!!!ANDREW!!!!!!!!!!!!!!!!!!!!!!!!!!!!!ANDREW!!!!!!!!!!!!!!!!!!!!!!!!\xef\xbb\xbf'
p233
aS'make more movies in minutes'
p234
aS'AGREEAGREEAGREEAGREEAGREEAGREE'
p235
aS'The only thing they sent you was disappointment and the only thing you \nfound at that website was a virus now fuck off.'
p236
aS'happens to me a lot of times'
p237
aS'Dear Ryan, can you be Spiderman?'
p238
aS'Andrew sounds weird now'
p239
aS"Wait. If ryan was the dude who moved the car then wouldn't he die, by \nANDREW!!!!!!"
p240
aS'oh my gosh. i know the movie their covering...looked so stupid, but this is \nhilarious.'
p241
aS'cha chang cha chang l0l!'
p242
aS'Lmfao'
p243
aS'aww baby ryan'
p244
aS'That was soo funny lol'
p245
aS'I had a nightmare last night...WAIT...ANDREW!!!!!'
p246
aS'Why the dislikes'
p247
aS'2:17 he picks his butt as a baby'
p248
aS"It's funny cuz the actual character's name in the movie is Andrew "
p249
aS'Omg cute baby ryan!!'
p250
aS'I wonder what the people thought of Andrew stopping them on the road....'
p251
aS'HAND DRILL! HAND DRILL! HAND DRILL!'
p252
aS'At the end was that Ryan as a child ??.'
p253
aS'1:30 - "Teehee"'
p254
aS'ANDREWWW'
p255
aS'Lol..xD'
p256
aS'1:39 he actually went left LOL'
p257
aS"Hold on.. at 1:29 ... There's a 13th floor."
p258
aS'Sounds like smosh in the background'
p259
aS"Wait if they had the powers at the end, then it didn't matter if anyone was \nholding the camera..."
p260
aS'When did Andrew turn into asian Elvis?'
p261
aS'Lol'
p262
aS'do antoher movie in minuites'
p263
aS'the green stuff is obviously go-go juice'
p264
aS'ANDREW'
p265
aS'Dear Ryan, can you be a nerd?'
p266
aS'Lmao o mi word u some fools'
p267
aS'Andrew!!!'
p268
aS'What is the rave song?'
p269
aS'Critics Rave: the movie is awesome...ly okay'
p270
aS' Andrew.'
p271
aS'ANDREW!!!!!'
p272
aS'The end is so funny'
p273
aS'Baby Higa -3'
p274
aS'what......'
p275
aS'ANDREW!'
p276
aS'true nigahiga fans wouldve seen this video years ago. alteast a very \nsimilar one. a video called miind geek or somethin :P'
p277
aS'It was pretty weird watching the movie, and all the other Andrews would \nprobably agree.'
p278
aS'awww ryan at the end was soo cute'
p279
aS'2:19 CUTE xD '
p280
aS'ANDREW! '
p281
aS'Not. The greatest parody'
p282
aS'This is barely even a minuite'
p283
aS'They should have done in the beginning. MAKIN MY WAY DOWNTOWN. WALKING \nFAST, FACES PAST, AND IM HOME BOUND.'
p284
aS'The door scene was filmed at whole foods'
p285
aS"I'm peeing my pants right now OMG!!!!!!!!!!!!"
p286
aS'Oh my GOD!! What a cute freaking baby!! XD'
p287
aS'Love the add "this is us" 1D\xe2\x9d\xa4'
p288
aS'Andrew wet the bed again'
p289
aS"ANDREW!!!!!'"
p290
aS'hilarious but the actual movie fucked me up'
p291
aS'Andrew looks like d man from Man V Food!'
p292
aS'Lol ANDREW!'
p293
aS'Movie in minutes reservoir dogs fight club'
p294
aS"The movie wasn't that good"
p295
aS'Aaaaaaaaaanddreeewwww at the end LOL'
p296
aS'Was that Ryan when he was little? Awww he was so cute!'
p297
aS'Loooooool'
p298
aS'CHESTER \xe2\x9d\xa4\xe2\x9d\xa4'
p299
aS"loool andrew looks like he's in his own world the whole time haha"
p300
aS'Harry potter please do'
p301
aS'0:15 funny thing is, you can make a bottle of mountain dew glow in the dark.'
p302
aS'The carousel scene was just totally hilarious!!!!!!'
p303
aS'What'
p304
aS"WHAT IS IT???? I DON'T GET IT!!!!! MY CAPS LOck is bro- nevermind. but \nseriously i don't get it!"
p305
aS'baby nigahiga XD'
p306
aS'No wonder your on the 13th flor and bad thing (like Andrew) happen'
p307
aS"I know it's about me"
p308
aS'damn Andrew'
p309
aS'Andrew!XD'
p310
aS'Classic Andrew.'
p311
aS'pause at 2:19 and look at the creepy dude on the tv'
p312
aS'Ryan looks so cute!'
p313
aS'This isnt a game Andrew! :P'
p314
aS'I really want to see The Notebook as a superhero film now...'
p315
aS'Defuq'
p316
aS'Yet it was amazing.'
p317
aS'ANDREW!'
p318
aS'Andrew'
p319
aS'this reminds me of mind geek... ;)'
p320
aS'I finaly got this part with "he\'s changing" :D '
p321
aS'Andrew!'
p322
aS'chronicle was the all time shittiest movie that have ever been seen by man \nkind.'
p323
aS'That sprite'
p324
aS'The noise it makes sorta sounds like it\'s saying "TEEHEE :p'
p325
aS"Lol that's my name"
p326
aS"It's so cool how they time it exactly right! That must have took a lot of \ntries.."
p327
aS'andrew i will kill you'
p328
aS'I feel special in a good way now.'
p329
aS'There was someone driving the car!'
p330
aS'Dear Ryan can you be Ben 10'
p331
aS'yeah.. who is recording this? xD'
p332
aS'Andrew !'
p333
aS'What was Ryan doing at 0:49?'
p334
aS'Lol'
p335
aS'1:32 Was anyone else imaging that elevator to say "Tee Hee"'
p336
aS'ANDREW!!!!!'
p337
aS'Dear Ryan can you have a pet whale?'
p338
aS'ANDREW!'
p339
aS"I hated Chronicle so much...Why in god's creation did they think it'd be a \ngood idea that the first half of the movie be filmed on a fucking iPhone. \nLike, really?"
p340
aS'yay its about me :) '
p341
aS'Haha...I think the lady in the car was moving the car (:'
p342
aS'That basketball shot was so funny I died from heart failure :D'
p343
aS'Loved the movie'
p344
aS'Hahaaa'
p345
aS"I didn't get top comment... only one person could be responsible for \nthis... ANDREW!"
p346
aS'HAHAH! i love how chester is in this video :p'
p347
aS'sooooo.........who is the black guy?'
p348
aS'So funny'
p349
aS"can't stop laught"
p350
aS'I know people like chronicles but im sorry I dun like the movie. this is \nbetter than chronicles =x '
p351
aS"Hurr hurr, you're funny. *facepalm*"
p352
aS"This is just like one of THE FIRST VIDEOS you posted. Maybe it's even the \nvery first. 'Mind Geek' was it? It was you and Sean turning a bunch of fans \nand lights on. Hahah >.< Been watching you since that long ago. True fan \nhuh? :) Hehe. This is awesome! You're so creative Ryan, keep it up! :) \n*props* *hand claps*"
p353
aS'0:16 Chester is cross eyed'
p354
aS'andrew andrew andrew............... hahahjhahaah'
p355
aS'Andrew!'
p356
aS'this is better'
p357
aS"how come no one noticed this is just like Ryan's first video."
p358
aS'Andrew!'
p359
aS'I laughed way mroe than I think I should have'
p360
aS'ANDREW!'
p361
aS'Andrew is the new Dinkleberg..'
p362
aS'ANNNDREW!'
p363
aS'1:30 TEEEEEHHHHEEEE'
p364
aS'Dear Ryan, can you make your own movie?'
p365
aS'green thing in a hole i sugges'
p366
aS'Omg, you were so cute as a kid :D'
p367
aS'0:16 chesters eyes are crossed'
p368
aS'Andrew!'
p369
aS'By far the best of the movies in minutes'
p370
aS'1:30 teeeeeheeeee'
p371
aS'love'
p372
aS'ANDREW'
p373
aS'ANDREW'
p374
aS'ANDREW! ANDREW! ANDREW! ANDREW! '
p375
aS"I want to get a top comment so I'm going to post something no one has \nposted.... ANDREW!!!! Get it? Because the guy's name was Andrew and they \nkept saying his name.... Bye *Disappears*"
p376
aS'Andrew >:('
p377
aS'damn, and I thought it was a good movie.'
p378
aS'That green thing is the "Green Lantern"!'
p379
aS'Funny cause my name is Andrew'
p380
aS'ANDREW?!'
p381
aS'Andrew!'
p382
aS'Lol chestersee'
p383
aS'Good job Captain Obvious'
p384
aS"I didn't see Chronicle until a few days ago.Beautiful movie."
p385
aS'Woh'
p386
aS':('
p387
aS'Omg I loved that movie xD'
p388
aS'Andrew?! '
p389
aS'Andrew!!! I love this video!! \xe2\x99\xa1\xe2\x99\xa5\xe2\x99\xa1ANDREW'
p390
aS'1:53 lol am i the only one who got the "he\'s changing" joke?'
p391
aS'shutup go get stabbed with a harpoon through the chest F.Y.I your dad sucks'
p392
aS'1:30 The elevator said "Teehee" hahahaha'
p393
aS'But always remember, you\'re not just "Andrew"... You sir, are Andy The \nDrew. *Clap*!'
p394
aS'THEY COPIED STAR WARS! the force is in you '
p395
aS"LOL it's true"
p396
aS"We're fucked!"
p397
aS'When it ended I was like ANDREW!!! Lol'
p398
aS'Awesome already watched the movie. :P'
p399
aS'even the elevator is teeheeing haha!!'
p400
aS'omg lol they think that they have powers'
p401
aS'andrews ganj !'
p402
aS'Andrew'
p403
aS'andrew!'
p404
aS"It's all about Andrew lol"
p405
aS'Haha I get this now! They said Andrew like 1000 times in the movie'
p406
aS'HAHAHAHAHAH'
p407
aS'Andrew!'
p408
aS"Andrew's changing"
p409
aS'Andrew!'
p410
aS'Omg such a cute baby'
p411
aS'but failed so whatever'
p412
aS'Lmao that was funny'
p413
aS'is i is a e is is'
p414
aS'AWW little NigaHiga is cute'
p415
aS'Doing it right now. '
p416
aS'dear ryan can you go out in a ninja suit to like every where'
p417
aS'ANDREEEWWW!!'
p418
aS'AAAAAAAAAAAAAAAAAAAAANNNNNNNNNDDDDDDDRRRRREEEEEEEEEEEEEEEWWWWW'
p419
aS'FAKE!!! (jk jk)'
p420
aS'Ain\'t about the "Che kik" Cha cheng cheng cheng haha :) '
p421
aS'funny funny stuff .love it.'
p422
aS'ANDREW!'
p423
aS'Lol my last names Chang'
p424
aS'Dear Ryan can you twerk?'
p425
aS'NigaHiga - MindGeek !'
p426
aS'Andrew!!!'
p427
aS'My name is Andrew... Oh, look a glowing blue rock.'
p428
aS'Do Men in White xD'
p429
aS'I seen it'
p430
aS'dear Ryan, can u do a pepsi and mint experiment'
p431
aS'Aww you were the cutest littlest baby boy ever! Aww seriously adorable :3'
p432
aS'this is way better than the original '
p433
aS'Ryan and Chester were always a good duo'
p434
aS"How do u know Chester Lee? I'm guessing u guys are just friends or something"
p435
aS'SHUT UP!'
p436
aS"I really found Ryan attractive... Not because he's famous and the fact that \nhe's worth 2 million dollars... It's just not because of the Money really..."
p437
aS'Better than the original.'
p438
aS'ANDREW!!!!!'
p439
aS'Aanddreww!'
p440
aS'Lol'
p441
aS'What happened to those guys?'
p442
aS'So cute baby'
p443
aS'H@-@'
p444
aS'Baby Ryan looks a lot like Nathan on Whatsupelle/Whatsupmoms'
p445
aS"Nothing more annoying than hearing your name repeated over and over again. \nWell at least I'm not getting yelled at... Andrew!"
p446
aS'Spanish'
p447
aS"I KNOW!! It could've been an AMAZING movie!"
p448
aS'little Ryan3333'
p449
aS'Annnnnnnndrrew! Teehee'
p450
aS'You should the video of u as a kid'
p451
aS"Don't stop, let's bring it back to 2:16. There's Ryan's Ryan's brother that \nwe have never known"
p452
aS'This was great. '
p453
aS'Whoaps! there it is andrew holding the camera '
p454
aS'just sprite'
p455
aS'Andrew!'
p456
aS'My names andrew LOL'
p457
aS'Oh god why sides.'
p458
aS"What the fuck you retard. Just because Ryan isn't there you won't watch a \nmovie? Retard alert! Mate, Chronicle is the best movie you'll ever watch. "
p459
aS'Is that Andrew Garcia from American idol?? '
p460
aS'ANDREW!!!!!!!!!!!!!!!!!'
p461
aS'Fail versionof chronicle'
p462
aS'I laughed my ass off'
p463
aS'Andrew... Andrew... ANDREW!!!!!'
p464
aS'yo'
p465
aS'Andrew0085'
p466
aS'OMG 2:15'
p467
aS'The real movie was fucking lame.'
p468
aS'Andrew!!!!!!'
p469
aS'Cha Ching cha Ching'
p470
aS'EPIC!'
p471
aS"Funny!! :'D i was Cracking UP"
p472
aS'Andrew peed on the bed? dafaq! '
p473
aS'dude really it was awesome. '
p474
aS'hi ANDREEEEWWW !!'
p475
aS'The funniest movies in minutes series ever!'
p476
aS'"This isnt a game Andrew!"'
p477
aS'Hahhahahah'
p478
aS'i saw this movie the other day... its prety much the same thing'
p479
aS'Andrew!!!'
p480
aS"Wow LOL I just got it That's funny "
p481
aS'at 2:40, the guy in the black jacket is kinda attractive. HE REMINDS ME OF \nA CUTE LOOKING COW. THOSE BROWN EYES! '
p482
aS'Lol'
p483
aS'He was levitating it'
p484
aS'Andrew!'
p485
aS'God dawm this niggu is funny ass hell im still laughing'
p486
aS'Andrew!!'
p487
aS'AANDREEW! :D :D'
p488
aS"Chronicle was probably the best movie I've seen yet"
p489
aS'Andrew!'
p490
aS"Ryan: wait if I'm here and you and Andrews here then how's filming \nBoth:ANDREW"
p491
aS'You guys should make a movie like foreal and put it on YouTube'
p492
aS'ANDREW'
p493
aS'thats magnolia park at north hollywood i live 4 blocks away '
p494
aS'dear ryan can you do movies in minutes for the hobbit and Now you see me? '
p495
aS"My name's Andrew... Watching this feels really weird to me..."
p496
aS'Omg i saw this 5 days ago and i loled but it didnt make sense then \nyesterday i saw the movie and now i find this hilarious just thought id \nshare that =D'
p497
aS"hey I've seen this movie it was awesome"
p498
aS'If andrew was holding the camera then who was holding the camera at andrew \nholding the camera?'
p499
aS'Who is that kid at the end of the video? Is it Ryan?'
p500
aS'"You made him go left andrew" Goddamit.'
p501
aS'Fucking Andrew!!!!!!!!! Lmfao fucking awesome :)'
p502
aS'Teehe'
p503
aS'It sounded like the elevator said teehee...'
p504
aS'How was singing price tag racist'
p505
aS'Haha, feels weird hearing them say my name'
p506
aS'Wait... Who was filming Andrew filming the cameraman and the others?'
p507
aS'Do one of pitch perfect'
p508
aS'actually its 33 '
p509
aS"You guys are trying to play the comedy game without the token, where's your \n1 black guy in the group? Hmu"
p510
aS"I'm talking to a guy name Andrew opps"
p511
aS'I know this vid was last year but um, Can u please do Movies In Minutes- \nThe walking dead?'
p512
aS'AAANDREW!'
p513
aS'Is this the new Mind Geek after the old one got deleted by Youtube?'
p514
aS'ANDREWWWWW!'
p515
aS'Andrew Garcia! haha He is such an amazing singer!!!'
p516
aS'Mind geek'
p517
aS'Oops i rewinded too much lol'
p518
aS'Andrew!'
p519
aS'28 if we touch it will we get powers how did you get it inside'
p520
aS'its so stupid!!:D:D:D:D:D:D:D:D '
p521
aS'Omg he was so cute as a baby with his little rabbitlike teeth :B'
p522
aS'xDD " ANDREW ! " .. this seriously made my day . c;'
p523
aS'Somebody tell me what did he do that was racist at the start'
p524
aS'ANDREW!!!'
p525
aS"I've never seen this movie but must watch now"
p526
aS"the walking dead isn't a movie"
p527
aS'1266 people were ANDREW'
p528
aS"This actually made me shit myself, it's hilarious :')"
p529
aS'It was about Andrew'
p530
aS'Andrew!'
p531
aS'Good job Natalia Hans-Lee. (ANDREW!)'
p532
aS'Fack'
p533
aS'Awwww! Ryan was so cute as a little kid!!!'
p534
aS'Ryan, do more movies in minutes'
p535
aS'Continuety '
p536
aS'whatchu talkin bout willis?'
p537
aS'What'
p538
aS'ANDREWWWW!!!!!!'
p539
aS'omygosh i am dying hahahahahahhahahaha'
p540
aS'tis is such a concidence because rite now there a guy in my class named \nAndrew that I hate '
p541
aS'Andrew!'
p542
aS'My name is andrew'
p543
aS'No TeeHee D: '
p544
aS"i used to do the 'magic' thing with my best friend.. "
p545
aS'I believe it was actually 35 times '
p546
aS'I wonder if that was really him as a baby'
p547
aS'Glad you noticed. '
p548
aS'What critics say about this movie: Still better than the original'
p549
aS'This video reminded me of the magic video that Ryan did in his earlier \nvideos'
p550
aS'ANDREW!!!'
p551
aS'well thats wierd'
p552
aS'they meant that his personality is changing but he is also changing his \nclothes :DD '
p553
aS'Have you studied the Weekly Cash Crawl strategy? Google the phrase Weekly \nCash Crawl to discover how my mom earns $15,500 a week.'
p554
aS"Hahahahahahahahaha!!!! I can't believe that i just missed this video and \njust noticed that it's here since a long time! Hahahahaha ANDREWWW"
p555
aS'hahaha well, you tried'
p556
aS'Lmao andrew? Was it an accident? Andrew? *big pee stain on the bed* lmao'
p557
aS'Chronicle sucked so bad.'
p558
aS'what the hell with aaaaandddrew!'
p559
aS' ANDREW! ANDREW! ANDREW! ANDREW! ANDREW! ANDREW! ANDREW! ANDREW! ANDREW! \nANDREW! ANDREW! ANDREW! ANDREW! ANDREW! ANDREW! ANDREW! ANDREW! ANDREW! \nANDREW! ANDREW! ANDREW! ANDREW! ANDREW! ANDREW! ANDREW! ANDREW! ANDREW! \nANDREW! ANDREW! 29 ANDREWS! '
p560
aS'Omg sooo funy'
p561
aS'The basketball part was legit'
p562
aS'if you notice he is on the 13th floor'
p563
aS"I like how they did the 'magic' stuff. It was just like in one of his first \nvideos!"
p564
aS'u dont fucking say?'
p565
aS'Still better than the movie lol'
p566
aS'Chronicle. Such a good movie.'
p567
aS"I love Ryan's home videos"
p568
aS'Andrew!!! You a peepeee on the bed?DAMN U'
p569
aS'2013 still watching =D'
p570
aS'AAAAAANDREEWWWWWW!!'
p571
aS'One of my favs! So funny. I revisit this often, as well as the Best Crew \nvids.'
p572
aS'Aaaaannnnddddrrrrrrreeeeeeeewwwwww'
p573
aS'thumbs up for baby ryan:)) i would literally eat him up>:)'
p574
aS'Its not the same without Tim, Sean and that one girl you always did these \nwith'
p575
aS'Somebody please tell me the song between 0:55 and 1:32'
p576
aS'Fake'
p577
aS"when i watched the chronicles movie i hated it coz the camera kept on \nmoving it made me motion sick -_-'"
p578
aS'ohhh the flashback shit'
p579
aS'The Elevator said "TeeHee" xD'
p580
aS'Just saw the movie tonight. Hilariously accurate!'
p581
aS'LMFAO!!! -Trauma Tize'
p582
aS'anyone knows which camera does ryan use?'
p583
aS"watch chester say it in the bloopers it's hilarious!"
p584
aS'chester.'
p585
aS'AAAAANDREEEWW!!!'
p586
aS'\xd0\xb0\xd1\x85\xd1\x85\xd0\xb0\xd1\x85 \xd1\x80\xd0\xb5\xd1\x81\xd0\xbf\xd0\xb5\xd0\xba\xd1\x82 \xd1\x80\xd0\xb5\xd0\xb1\xd1\x8f\xd1\x82\xd0\xb0\xd0\xbc!:\xd0\xb7'
p587
aS'dude you join this jun 14 2013 and you dont have much vids thats why you \nhave only 1 sub but this guy joind long time ago ._.'
p588
aS'I used to have a friend called andrew, because after watching this, I USED \nto have a friend called andrew'
p589
aS'ANNNDREWWWW'
p590
aS"I can't believe that I didn't know who Andrew or Chester was when I first \nwatched this!"
p591
aS'dude this was the most amazing move EVER'
p592
aS'Awwww I almost forgot how sad that movie was :)'
p593
aS'Ryan havent you done this before?:P '
p594
aS'I choked'
p595
aS'LMAO'
p596
aS'I actually liked Chronicle.'
p597
aS'Andrew Andrew ANDREW!'
p598
aS'1:16 Little Ryan FTW :3'
p599
aS"Yep, But I think they could've done the movie without the part with his \nmom............"
p600
aS'I feel so stupid laughing about this'
p601
aS'MY NAME IS ANDREW'
p602
aS'Hahahahaha'
p603
aS'Andrew !!!!!!'
p604
aS'1277 dislikes ANDREW!!!'
p605
aS'ANDREW!!!!!!!!!!!'
p606
aS'ANDREW!!!!!!!'
p607
aS'This is so accurate of the film.'
p608
aS'ryan has a brother'
p609
aS'I love how chester says andrew!!'
p610
aS'ive seen this video sooo many times and I laugh my head off every time \nTHANKYOU RYAN!!!'
p611
aS'Oh my gosh YES!'
p612
aS'Better than the real thing'
p613
aS'poor Andrew...'
p614
aS'Chronicale was boss'
p615
aS'"Was it an accident Andrew, was it?" I lost it at the bed stain XD '
p616
aS"The movie is amazing but this is just so funny:')"
p617
aS'Aaaaandrew!'
p618
aS'D-Trix??'
p619
aS'Hilarious'
p620
aS'baby Ryan'
p621
aS'LOL'
p622
aS'andrew andrew andrew andrew aandreww .........SHUT UP'
p623
aS'ANDREW c;'
p624
aS'1262 people are haters '
p625
aS'No puedo dejar de reir xDDDD'
p626
aS'I love when they yell at Andrew. ANDREW'
p627
aS'My name is Andrew...'
p628
aS'Oh my gosh, you look so cute near the end,!!!!!!!'
p629
aS'Andrew peed for real?'
p630
aS'they said Andrew 29 times '
p631
aS'Still great'
p632
aS'Dear ryan, can you drop a pencil on the ground'
p633
aS'Obviously Andrew... GOD!'
p634
aS'I forgot the name of this movie thanks guys this is the best movie ever \n-CYANPANDAA'
p635
aS'he uses his telekinesis power'
p636
aS'Stupid one directionad'
p637
aS'all those puns'
p638
aS'i love this movie but this is really funny!!!'
p639
aS'ANDREW'
p640
aS'yes'
p641
aS'baby videos of ryan omg so cute'
p642
aS'ANDREEWW!'
p643
aS'thumbs up if your name is andrew '
p644
aS'Fav part 1:48 ;D '
p645
aS'anyone notice the elevator floor was 13?'
p646
aS'CRITICS RAVE'
p647
aS"Go to 15 seconds and look at Chester's face! XD"
p648
aS'I love the whole thing, but "critics rave" was definitely my favorite part \nXD'
p649
aS"0:45 chester's face LOL "
p650
aS"Andrew doesn't even sound like a name anymore"
p651
aS'XD'
p652
aS'Ooops I Rewind To Much Hehehe Lol'
p653
aS'ANDREWWWWWW'
p654
aS'It was a good movie though i liked it'
p655
aS'Your baby videos------TOO CUTE :)'
p656
aS'Poor Andrew lol'
p657
aS'2:21 xD'
p658
aS"Andrew gets killed by his second friend for going crazy and then that guy \nflies to Greenland or someplace like that and that's the end very horrible"
p659
aS'Awesome :P'
p660
aS'This is great! Lol'
p661
aS'it might have been cooler if they did the invisible driver thing '
p662
aS'2:21 Stop blaming me!'
p663
aS'2:14 jay i love you *.'
p664
aS'ANDREW!'
p665
aS'Andrew !'
p666
aS'just like ryans first vid'
p667
aS'at 1:29 the elivator said teehee (the sound)'
p668
aS'and...drew'
p669
aS'nigahiga marathon!'
p670
aS'ryan is soo funny when he was a baby.'
p671
aS'He too scary Andrew and it was fake powers'
p672
aS'Is that u kid u Ryan if so aaawwwwwwwwwwwwwwwwwwww'
p673
aS' critics rave:non-scary version of paranormal activity but still \nscarier!!!!!! critics: rave!!!!!!'
p674
aS'I thought it was a good movie...'
p675
aS'LOLOLOLOLOL!!!!!'
p676
aS"Omg I'm dying"
p677
aS'Chronicle is the best movie ever :D'
p678
aS'00:03 worst Chester song cover.'
p679
aS'ANDREW'
p680
aS'What? I liked it!'
p681
aS"I said that about a month back and got 100 likes. you said it now and got \n166. i guess your more popular than me and I'm a loser. congrats,i don't \nknow why i live sometimes"
p682
aS'Lol I just watched chronicle for the first time and now I can actually \nunderstand your video on it XD But I wonder why it received positive \nreviews -_- It ended pretty abruptly and it just seemed kinda blah'
p683
aS"IT'S ALWAYS ANDREW"
p684
aS'The Elevator went like TEE HEE O_O O_O O_O O_O O_O O_O HOW DID HE KNOW ?'
p685
aS'1 48 ............... LLLLLLOOOOOOOLLLLLL '
p686
aS'"It\'s a glowing green thing, and if we touch it we\'ll get powers!" Sound \nlike a five year old xD'
p687
aS'ANDREW!'
p688
aS"After being on youtube for a while now, I know how much hate people can \ngive to me when reading these kinds of comments but I think nigahiga fans \nmight be nicer. My dream is to be a film maker but i cant get into film \nschool, and I just got a 4000 subs, which is pretty impressive to me, but \nI'll never get noticed with these numbers. If someone would have the heart \njust to give this a thumbs up and spend all of 30 seconds watching a vid, \nit would mean the world. Thank you all "
p689
aS'Andrew!!'
p690
aS'Thumbs up if you try to move things with your mind after you watched this. \nI did.'
p691
aS"I understand where ANDREW!!!! is coming from, I've had friends like those \ntwo. It would turn anybody evil. Including ANDREW!!!!"
p692
aS'but 96,029 are not, lol. '
p693
aS'I liked chronicles too'
p694
aS'My hater Meter want off!!!! og wait... its not my Video... O_O" p '
p695
aS'It is! XD'
p696
aS'Iii watched this movie earlier today! XD'
p697
aS"That movie was really weird.. I didn't like it that much:P"
p698
aS'Chester at 0:16'
p699
aS"Hey everyone! I found a guy on YouTube whos pretty funny but doesn't have \nattention! His names Danomitism!"
p700
aS'High expectations for this movie. But it sucked so bad'
p701
aS'There wasn\'t a "TEEHEE"'
p702
aS'Wait if im here and Andrews there then who holding the camera \nANDREW!!!!!!!!!!'
p703
aS'I feel special ._.'
p704
aS'STATIC!'
p705
aS'0:33 can someone tell me who the raving critics are?'
p706
aS"he's around but i think his busy with something idk..."
p707
aS'ANDREW WAS IT AN ACCIDENT !!!!'
p708
aS'i was waiting for him to turn around and say "my name is steve!"'
p709
aS'Is this real because I think there was a camo guy who was doing it.'
p710
aS'@Horrorgirl8 69 likes? ANDREW'
p711
aS'Lol my name is Andrew'
p712
aS"They only didn't explain stuff so they have unanswered questions to deal \nwith in the second one lol! :)"
p713
aS' ANDREW '
p714
aS'ANDREW'
p715
aS'best part 2:04 hahahah!!'
p716
aS'ANDREW!??!'
p717
aS'That was the best teehee ever! '
p718
aS'The elevator said TEEHEE! '
p719
aS'Lol my brothers name is andrew and when hes annoying i just play the last \nbit XD'
p720
aS'i like chronicle'
p721
aS'slow buffering... ...oh yea . ANDREW!!!!'
p722
aS'This was actually really damn accurate LOL! '
p723
aS'Dear Ryan,Can you make more movies in minutes ?'
p724
aS'So weird watching this when you first watch the bloopers..'
p725
aS'Andrew'
p726
aS'In the beginning is that anthony from smosh?'
p727
aS'2:17 Oh my...'
p728
aS'Andrew xD'
p729
aS'ANDR-OOOOOOOOOOO'
p730
aS'teehee ! you were adorable ! (: " ANDREW ! "'
p731
aS'OMG U GUYS R SO FUNNY!!!!!!'
p732
aS'This is really just Mind Geek PT 2'
p733
aS'He should do a movies in minutes hunger games'
p734
aS'This i halarious'
p735
aS'Dat ending'
p736
aS'use duh force, ANDREW!!!!!!!!!!!!!!!!!!!'
p737
aS'Ryan, You look so cute when you were young. ^-^'
p738
aS'ANDREW!!!!'
p739
aS'Andrewwwwwwwwwwwwwwwwwwwwwwwwwwwwwwwwwww'
p740
aS'Andrewwwwwww'
p741
aS'ANDREW'
p742
aS'Andrew!!!!!'
p743
aS"i just realized notebook wasn't a superhero movie it was a tearjerker. i \nfeel extra stupid now"
p744
aS'ANDREW!!!!'
p745
aS'NO TEEHEE??!!?? :('
p746
aS"Don't like 1mrskittle's comment. If u watch his videos the a waste of time. \nTrust me."
p747
aS'it a like a commercial for mountain dew'
p748
aS'Was it an accident, Andrew? XDDDDD I laughed so hard. xDDDD'
p749
aS'aww he was an adorable little baby!'
p750
aS'Dude come on Andrew stupid'
p751
aS'LOL!'
p752
aS"Really funny. Don't we all want powers"
p753
aS'ANDREW!!'
p754
aS'Do the new Star Trek.'
p755
aS'LLLMMMMFFFAAAAOOOOOOO!!!!!!!!!!!!!'
p756
aS"oh yeah. sorryabout that. I didn't see it at first. Thanks man:)"
p757
aS'lol i saw this movie it rocks love it probly best movie ive ever seen'
p758
aS'yes, yes I should But then I would be no better than him.'
p759
aS'Very funny.!!! keep you up good work!!All my friend like your video..!!'
p760
aS'Andrew!'
p761
aS'ANDREW!!! Hold the iPhone camera sideways!!!'
p762
aS'the non scary version of paranormal activity... WHERE CAN I GET A TICKET?!'
p763
aS'"Did you do that?" Big wet spot on the bed xD'
p764
aS'Damn it andrew'
p765
aS'he forgot the teehee'
p766
aS"2:17 you're welcome. :)"
p767
aS'Hahaha!!! This cracks me up!(:'
p768
aS'This is so one the dot. Lol'
p769
aS'I laughed when the guy was singing in the beginning'
p770
aS'lol NIGAHIGA powerz'
p771
aS'1,250 dislikes? Andrew!!!!'
p772
aS'Ha when i saw this movie at the cinema the first thing i thought after it \nwas- "they say andrew too much"'
p773
aS'"static" kmsl'
p774
aS'Ryan was so cute when he was a baby!!!'
p775
aS'Andrew is hot'
p776
aS'Hahahaha so funny:-)'
p777
aS'Aw.... So cute.'
p778
aS'OBVIOUSLY a tripods holding the camera...'
p779
aS'lol'
p780
aS'See the real movie'
p781
aS'i really liked chronicle but i found the filming idea a bit stupid. like \nfor one scene the girl is randomly filming herself answer her door'
p782
aS'Andreeewww!!!'
p783
aS'Step up your game Ryan, you got beat by Smosh'
p784
aS'Yea but the black guy dying sucked, i liked him.'
p785
aS"My name's Andrew..."
p786
aS"Notice how he's on floor 13 D: lol 1:28"
p787
aS'do more skitzoooo '
p788
aS'ANDROOOOOOOOOOOOOOOOOO!!!!!'
p789
aS'Teehee'
p790
aS'Andrew!!!!!!!!!!!!!!'
p791
aS'Movies In minutes:Evil dead'
p792
aS'Aww baby Ryan'
p793
aS'It hurts me to watch this because Chronicle is my favorite movie of all \ntime.'
p794
aS'Freaking funny man!! Especially who has actually seen chronicle'
p795
aS'You have to look at Chester on 0:16'
p796
aS"That's how you're supposed to say it."
p797
aS'ANDREW!!!'
p798
aS'FUCK'
p799
aS'Dear Ryan, DO MORE MOVIES IN MINUTES'
p800
aS"It's all about Andrew... "
p801
aS'Dan it Andrew!'
p802
aS'That racist dude'
p803
aS'2:18 made me lmao! ; its funny & cute!'
p804
aS'ANDREWW!'
p805
aS'my name is Andrew :D'
p806
aS"What? I don't see it."
p807
aS'This is not chronicle there is no black guy in this '
p808
aS"Awwww Ryan's do cute"
p809
aS' 1:29 the elevator said "TEEHEE"'
p810
aS'1:46 ... EPIC'
p811
aS'RYAN DO SILENT HILL '
p812
aS'ANDREW '
p813
aS'Chink'
p814
aS'Higa, can you make a video about Vietnam??'
p815
aS'lol ANDREW!'
p816
aS'ryan you are too funny'
p817
aS'omg i love these guys!'
p818
aS'Andrew!!'
p819
aS'Andrew is really cute'
p820
aS'AND DROOL! (Trollollollol)'
p821
aS'2:18 :D LOOL'
p822
aS'I LOVE WEN CHESTER WENT CROSS EYED WHEN HE LOOKED AT THE GLOWING GREEN \nTHINGY'
p823
aS"it's 1 in the morning.i was the only one awake. 2:02 and i wake my mum up \nfrom laughing too loud."
p824
aS'Ryam higa at the end "teeheehee'
p825
aS'Baby Higa is adorable.'
p826
aS':)'
p827
aS'ANDREW!'
p828
aS'Omg I just noticed this was a parody from a movie'
p829
aS'Awwww you were a cute baby!'
p830
aS'Andrew is using telekinesis to hold the camera. :/'
p831
aS'hey guess wat i did............... ANDrew a car'
p832
aS'2:17 DAAAAAAAAAAAAAAWWWW'
p833
aS'at 2:27 he just like sneezing '
p834
aS'andrew :))) hahaha'
p835
aS'This was really funny!'
p836
aS'LOL stop Andrew'
p837
aS'AAAANNDDDDREEEWWWWWW!!!!!!!"!"!!!!!!!!!!!!!!'
p838
aS'How many of you\'s went back to 1:29 to check if the elevator said "Teehee"?'
p839
aS'The car scene and the sliding scene cracks me'
p840
aS'2:00 AWWW RYAN\'S "stop" IS SO ADORABLE!!!'
p841
aS'i cant replay the video , ANDREWWWW'
p842
aS'geeezzz...i really thought the bottle was glowing'
p843
aS'No flying scenes ... hmm'
p844
aS'its ok all the people need subs but me idc i got 7 subs or 4 :)'
p845
aS'Chronicle is literally just "ANDREW!!!"'
p846
aS'My names andrew. It was awkward when my dad came in to the last part.'
p847
aS'This movie sucks.'
p848
aS'What does it mean....." Dixie candleholders resisted" ? with captions at \n0:06?'
p849
aS'This movie was actually good. '
p850
aS'Ryan was even cute as a baby. >///<'
p851
aS"dear Ryan's can you be a teapot?"
p852
aS'lol '
p853
aS'I think your trailer was better than the original'
p854
aS'Chester!!!!'
p855
aS'Andrewwwwww!'
p856
aS'what made you want to do a parody of chronicle '
p857
aS'No teehee?'
p858
aS'I just drank coke and then I saw when they flushed rear poured in at puke \nit up on my computer'
p859
aS'Donkey!'
p860
aS'where is the black guy man '
p861
aS'thats mess up'
p862
aS'This SO FUCKING COOL!!~'
p863
aS'The elevator: Teehee.. Me: WTF?'
p864
aS'Filipino, to be exact.'
p865
aS'ANDREWW'
p866
aS'ANNNDREWWW'
p867
aS'Its actually an asian a mexican and a half asian half white lol'
p868
aS'Andrew dies. MUAHAHAHA'
p869
aS'2:19'
p870
aS'WTF? '
p871
aS'gajelas poll. mangkanya lucu wakakak'
p872
aS'aha'
p873
aS'Iy ok'
p874
aS'Feel bad for all the Andrews being called ....andrew....now :D'
p875
aS'Andrew!!!!!'
p876
aS'It is just lite with some 7 up with it.'
p877
aS'Andrew Andrew!! Andreww!!'
p878
aS'ANDREW!?'
p879
aS'13rh floor '
p880
aS':O I had no idea...'
p881
aS'Dear Ryan, can u have a pepper sniffing contest?'
p882
aS'Andrew'
p883
aS'song at 0:33 please!'
p884
aS'You were metal bending!!!!!!!! :D'
p885
aS'HAHA!'
p886
aS'Heres another hillarious parody of the Chronicles /watch?v=PXSQK7zW2AA'
p887
aS'Funny funny \xc3\x97D'
p888
aS"Who's filming andrew holding the camera ?....."
p889
aS'Was it an accident andrew "wuz it!" Ha lol'
p890
aS'ANDREW!! '
p891
aS'ANDREW'
p892
aS'your baby self was sooooooo cute!'
p893
aS'what was the song?! XD'
p894
aS"This is like an epic version of ryan's first video.."
p895
aS'Dear Ryan Wiki Wiki FRESH! Wiki Wiki PEDIA!'
p896
aS"lol this is ryan's 48th videos I watch in a day, shouldve subscribe to him \nsooner :("
p897
aS'Andrew Andrew Andrew Andrew Andrew ANDREW ANDREW ANDREW ANDREW!!!!!!'
p898
aS'What was the name of the rave song? Help an Andrew out :( '
p899
aS'rofl!! i loved the merry go round scene XD'
p900
aS"andrew isn't asian."
p901
aS'i like the ching ching part. he changed it to chink chink . '
p902
aS'ANDREW!!!!!!!!!!!!!!!!!!!!!!!!!! '
p903
aS'Why Dont They Just Call The Movie Andrew '
p904
aS'please andrew dont make me do that!!!!!! andrew!!!!!!!! stop andrew \nstop!!!!!!'
p905
aS"lol it's like a return to Mind Geek watch?v=ss3062YCzAc love your vids!"
p906
aS"0:33 what's the song D: ?!???!?"
p907
aS'awwwww is that you as a little kid?'
p908
aS'Whats his name again'
p909
aS'I think the green thing was some Go-Go Juice :S'
p910
aS'0:33 sorry'
p911
aS"Andrew's a star, baby."
p912
aS'Andrewwww...... Is my name'
p913
aS'god dammit andrew'
p914
aS'haha lmfao* 1.50'
p915
aS'Fail spam is fail'
p916
aS'Andrew'
p917
aS'Chester See is Asian? :o'
p918
aS'When they kept screaming at andrew for stuff LOL'
p919
aS'My name is Andrew...'
p920
aS'Woah woah thats racist dude.. Awkwardly turns '
p921
aS"I love how it's two Asians and a white guy"
p922
aS'LOLOLol'
p923
aS'This video has 6 times more views than the actual trailer xP'
p924
aS'2:42 but if andrew is holding the phone upright...the video(camera) should \nlook crappy'
p925
aS'My brother is Andrew. He has legitimate anger issues, I swear.'
p926
aS'2:17'
p927
aS'his mom is filipino'
p928
aS'AAAAW! :D 2:16'
p929
aS'green thing in a hole, oh my god'
p930
aS'ANDREW!!!!!!'
p931
aS'2:18 Baby Ryan is adorable!!'
p932
aS'ANDREW! Hlow did he recorde himself? timer.'
p933
aS'this is like his first ever video! '
p934
aS'What the f bro 0:49'
p935
aS'Was is an accident Andrew *piss stain on bed* I was creasing'
p936
aS"2:16 - lol'd so much, I got cancer"
p937
aS'Llooolll'
p938
aS'1:45 sad face :('
p939
aS'haha lymf'
p940
aS'no this is like his 50th video'
p941
aS'Why andrew :('
p942
aS'You look so cute when you where a kid'
p943
aS"Ryan is a little cutie when he's little"
p944
aS'MY NAME IS ANDREW'
p945
aS'funny stuff '
p946
aS"Oh my God. It's not even actually them doing the stuff. Those are just \nthings that happen by themselves and they are pretending that they are \ndoing it. I'm unsubbing..."
p947
aS'2:21 lol'
p948
aS"Well if you've actually seen the movie, which I would recommend if you \nhaven't, he uses his powers."
p949
aS'Critics Rave: LOL'
p950
aS'ANNDREEWWWWW!'
p951
aS"Hahaa Andrew! I don't know y I was xpecting him to say shut up! My names \nnot even Andrew... It's Ted."
p952
aS"I've kept saying ANDDDRRRREAAA to my friend"
p953
aS"I love how you guys at the end point out a major plot hole that didn't \nexist."
p954
aS'ANDREEEEEEEEEEEEEEEEEEEEEEEEEEEEEEEEEWWWWWWWWWWWWWWWWWWWWWWWWWWWWWWWWWWWWWWWWWWWWWWWWWWWWWWWWWWWWWWWWWWWWW!!!!!!!!!!!!!!!!!!!!!!!!!!'
p955
aS'Why was I not subscribed to this channel earlier? ANDREW.'
p956
aS'Ive never laughed so hard in my life....'
p957
aS'poor andrew :('
p958
aS'I about died sofunny!!!!!!!'
p959
aS'Andrew...'
p960
aS'yup :p'
p961
aS'Was it an accident Andrew?!? Was it?!? (shows wet bed) lool xD'
p962
aS"After being on youtube for a year now, I know how much hate people can give \nto me when reading these kinds of comments but mabye someone may be nicer. \nMy dream is to be a actor and i like to perform ,and i cant get in \nperforming school, and i just got 566 subs, which is pretty impressive to \nme, but I'll never get noticed with these numbers. If someone would have \nthe heart just to give this a thumbs up and spend all of 30 seconds \nwatching a vid, it would mean the world. Thank you all"
p963
aS'i think this chronicle movie was better than tha real one .-.'
p964
aS'Jason...'
p965
aS'"He\'s changing." XD'
p966
aS" you added an 'a' and took off a 's'.. you are officially retarded"
p967
aS'Ryan :*'
p968
aS'Dear Ryan, can you speak french ? '
p969
aS'omg, this was actually soooooo much funnier after i just watched the movie.'
p970
aS'i..cant...breath xD'
p971
aS'Ahh. Ridicule is still ridicule, regardless of any sugar coating... Its all \ngood though. Everyone is entitled to theyre opinions (i just felt like I \nhad to express mine). As long as folks have free time, cameras, & the \nability to post shit on youtube; the possibilities for such things will be \nendless.'
p972
aS'Nope, 1,185 are Andrews....'
p973
aS'haha chronicle then lorax, good balance'
p974
aS'haha this made me laugh way too hard!'
p975
aS'I hate Chester see'
p976
aS'lol '
p977
aS'Andrew!!!!!!!'
p978
aS'ANDREW!!! XD'
p979
aS'2:18 so funny'
p980
aS'ikr lol...i got so depressed after the movie and for the rest of the night. \none of those movies that are good but u only wanna watch it once.'
p981
aS'Am I the only one who thinks "Chronicle" was based of of Ryan\'s "Mind Geek"?'
p982
aS'i love the movies in minutes'
p983
aS'Do the shining'
p984
aS'ya its hecka sad. i had to watch like 5 episodes of spongebob to get it off \nmy mind :P '
p985
aS'ANDREW!!'
p986
aS'"ANDREWWW !!!! " lmfaoo :\')'
p987
aS'Those people in the cars must be like, "Freaks...".'
p988
aS'ANDREW!'
p989
aS'lol poor andrew'
p990
aS"They're not mocking it. They're parodying it."
p991
aS'Aww the end before the teehee was so cute'
p992
aS"Ryan's so adorable!"
p993
aS'What do you mean it fucked you up? :o'
p994
aS'1,211 dislikes? ANDREW'
p995
aS'trop bien les gars !!!'
p996
aS"I can't click the like button twice.......ANDREWWWW!"
p997
aS'You wher such a cute baby'
p998
aS'Andrew!!!!!!'
p999
aS'whenmy friend andrew does something wrong i go andrew andrew andrew andrew \nandrew lol'
p1000
aS'Fuck ya its about me my name is andrew lol'
p1001
aS'ANDREW??!!'
p1002
aS'2:16 lmao!!!! i had to watch this part like 10 times'
p1003
aS'Andrew'
p1004
aS'ANDREWWW <3 !'
p1005
aS'Aww you were such a cute kid!!'
p1006
aS'lol andrew XP'
p1007
aS'my name is andrew '
p1008
aS'Ryan your so cute when your a baby. Today your still cute and handsome.XD'
p1009
aS'lol i now realise that '
p1010
aS'wow andrew garcia. Havnt seen him for a while. Teehee :)'
p1011
aS'2:02-2:07 LMFAO XD'
p1012
aS'Best vid yet'
p1013
aS'ANDREW!!!!'
p1014
aS'I loled so hard good work NigaHiga'
p1015
aS'lol its funny cause cronicle was the WORST movie i ever saw. '
p1016
aS'Ryan: Wait.. If Im Here. And Your Here... Whos Holding The Camera o .o ? \nAndrew: -Ish Holding the camera And Waving- Ryan And Chester: ANDREWW >:O \n<3 x3 c:'
p1017
aS'hahaah critics rave ahhah'
p1018
aS'ANDREW!!!'
p1019
aS'@1:29 the elevator said "TEE HEE" '
p1020
aS'i actuallg liked thge chronicles movie ggough lol'
p1021
aS'2:20 AWWW!!!!!! Baby Ryan!! So cute!!'
p1022
aS'*fart* Andrew! *cake missing from table* Andrew!'
p1023
aS'wasnt this just like nigahigas first vid?'
p1024
aS'Just watched chronical today. Best movie ever!'
p1025
aS'Andrew!!'
p1026
aS"The real movie was type...'stupid'. xD"
p1027
aS'TETSUO...ah...I mean...ANDREW!'
p1028
aS'Andrew!'
p1029
aS'The bogging of the scene... chester acted so well.'
p1030
aS'I"M CRACKING UP HAHAHA'
p1031
aS'ANDREW'
p1032
aS'ANDREW!!!'
p1033
aS'Dear Ryan, are you a good driver?'
p1034
aS'This is so hilarious. Idk how u come up with the ideas, but its amazing.'
p1035
aS'Y is all about Andrew'
p1036
aS'fucker copier...and not funny'
p1037
aS'Chronicle is incredible...ly ok.'
p1038
aS'ohh andrew...'
p1039
aS'1,172 dislikes? ANDREW!!!!!!!!!!!!!!!!!!!'
p1040
aS'i feel bad for the person who went left'
p1041
aS'i i want to watch this movie now all of a sudden'
p1042
aS'2:18 Was that really you Ryan? DAMN your so CUUUUTE XDDDD'
p1043
aS'Aaawwwww Ryan was sooo cute!'
p1044
aS'Thought it was the real movie for a sec'
p1045
aS'ANDREW!! \\(T_T)/'
p1046
aS'The Elevator said " Tee Hee"'
p1047
aS'ANDREW ANDREW ANDREW ANDREW ANDREW ANDREW ANDREW'
p1048
aS'LOL Critics "Rave" XDDDDDD'
p1049
aS'AANDREEWW!D:'
p1050
aS'LOL'
p1051
aS'How many takes did it take for you to get the white guy to make a basket'
p1052
aS'World war z'
p1053
aS'i like how part of this is like a remake of your the old video "things i \nlike" or something like that! lmbo'
p1054
aS'Oh....Ok. Thanks! I feel so stupid now!'
p1055
aS' BABY RYAN SO CUTE '
p1056
aS'it says movies in minutes you forgot the s : ('
p1057
aS'1:37 He went left :3'
p1058
aS'Power of the hand'
p1059
aS'0:32 Critics "Rave" ...dun dun dun dun dun dun dun!! RolfCOPPTER!!! XDDD \nhahaha'
p1060
aS'Critics race'
p1061
aS'"The best superhero movie since The Notebook". I die laughing every time I \nwatch one of your videos, Ryan XD'
p1062
aS'andrew !'
p1063
aS'ANDREW!'
p1064
aS'Hi guys its me can you guys check out my videos and subscribe and coment'
p1065
aS"that's the point of the joke.."
p1066
aS'i do agree '
p1067
aS'ANDREW! *5 seconds later* andrew! ANDREW! *minute later* andrew NO!!!!'
p1068
aS'This reminds me of one of his first vids hahaha'
p1069
aS'I always do the elevator thing :P'
p1070
aS'actually watching this makes me want to watch the movie.'
p1071
aS'breathe*'
p1072
aS'so cool annd funny'
p1073
aS'what about 5'
p1074
aS'They did one of paranormal activity 4 already...'
p1075
aS"Imagine people's faces when they saw them outside XD"
p1076
aS"It is chester don't you see the hotness"
p1077
aS'The force is with you 1:02'
p1078
aS'U did something like this before'
p1079
aS"I don't know the names of anyone else in that film... Apart from Steve, \nSteve was awesome."
p1080
aS'I thought at the end he was gonna be like "GUYS MY NAME ISNT \nANDREW!.....Its josh GAWD"'
p1081
aS"I haven't watched the video yet, but it's really good to see you uploading \nas much as you do ! :)"
p1082
aS'ANDREW!!! lol'
p1083
aS'what did Andrew do to the car?'
p1084
aS'this reminds of of mega 64 the force unleashed'
p1085
aS'How do u act in a awkward time in the elevator'
p1086
aS"Its 02:50 here in Singapore and i need to sleep soon..I keep telling \nmyself, just one more of Ryan's video and THEN i'll go to sleep...And i end \nup watching 10 more! =D"
p1087
aS'pause on 2:16 is tht sean and ryan'
p1088
aS"Chronicle...it's about Andrew"
p1089
aS'@cesar11duran chester goes "chachingchaching" and points towards \nryan...whos asian...\'ching\'...yeah thats what it meant haha'
p1090
aS'This was uploaded on my birthday <3'
p1091
aS"Wait if I'm here , and you're here and Andrew's here , then who's holding \nthe camera ? - Turns - ANDREW! "
p1092
aS'Yeah andrew!'
p1093
aS'andrew did screw up the whole movie'
p1094
aS'1:12 , I know its fake but its still look real xD '
p1095
aS'0:57...My nose!!...Is not bleeding...xD '
p1096
aS'What it an accident Andrew!? *he wet the bed* haha'
p1097
aS'You gay'
p1098
aS"Whee's the Tee Hee?? ANDREW!!!!"
p1099
aS'Loollll the beginning!!'
p1100
aS'Thats what i told my brother when he asked me about the movie'
p1101
aS'Poor Andrew'
p1102
aS'Andrew!'
p1103
aS'Oops I a rewound too much...'
p1104
aS"I can't tell if you're joking or you really can't see that you're calling \nyourself a retard."
p1105
aS'no one is called that on youtube'
p1106
aS"They said um... Andew! Come on, at least you're not named vicky and people \nsing Icky Vicky!"
p1107
aS"I've watched this about ten times and only now I realize Chester is in \nthis. DERP!"
p1108
aS'Paranormal Writers??'
p1109
aS'ANDREW!'
p1110
aS'haha nigahiga is the best if seen the real movie its great go watch'
p1111
aS"If I'm here and you're there and Andrew's here, then who's holding the \ncamera? ANDREW!"
p1112
aS'2:03 HAHAHAHAHAHAH!!!!!!!!!!! i just burst out laughing, in coffee shop \nwith my headphones on. yeah. but it was worth it '
p1113
aS'He was pointing at ryan saying "Chang" meaning asian.'
p1114
aS'It took me months to figure out Chester said a racist joke.'
p1115
aS'lol'
p1116
aS'was it an accident,andrew? Was it? Andrew!'
p1117
aS'Andrew'
p1118
aS'You Should do a parody of Hunger Games OR Paranormal Activity 1,2,3,or4'
p1119
aS'wait i dont get how "Pricetag" is racist??'
p1120
aS'project x!!!'
p1121
aS"How Is That Racist ?!!?! I Just Don't Get IT !!"
p1122
aS'name of the song??'
p1123
aS"My real name is Andrew and I obviously don't have a mother fucking hickey \nyou dumb ass mother fuckers"
p1124
aS'you could always keep wacthing the beggining xD'
p1125
aS'hahah baby ryan\\'
p1126
aS'andrew haz a hickey'
p1127
aS'this isnt a game \xef\xbc\x88\xe2\x95\xaf\xc2\xb0\xe2\x96\xa1\xc2\xb0\xef\xbc\x89\xe2\x95\xaf\xef\xb8\xb5 \xe2\x94\xbb\xe2\x94\x81\xe2\x94\xbb '
p1128
aS'Funniest part was when Andrew "made" the car go left till the end. '
p1129
aS'Why Andrew Why!'
p1130
aS'I think it was andrews fault that there was no TEEHEE at the end'
p1131
aS'he said cha-ching cha-ching... '
p1132
aS"it's about aanndrew"
p1133
aS'What is the racist part about it? '
p1134
aS"WHAT THE FUCK ANDREW U MADE ME WET THE BED!!! no I didn't........"
p1135
aS'everywhere i go people are like "hey! are you that evil dude from \nchronicles?!?" im just like *Face palm* someone who was advertising direct \ntv said that to me instead of trying to sell me shit'
p1136
aS'my brothers name is Andrew XD I does this all the time! lol'
p1137
aS'So cool'
p1138
aS"I'm worried about Andrew - he's changing *Andrew changing shirt*"
p1139
aS'Andrew!'
p1140
aS'Was it an accident Andrew was it lol'
p1141
aS'They already made a Paranormal Activity parody :)'
p1142
aS'1:45 David Blaine.'
p1143
aS'awwwww he was so cute!!!!'
p1144
aS'1:47 .... On the floor laughing'
p1145
aS'They hold it with their minds haha '
p1146
aS'AndreeeeeeeEW!!! >.<'
p1147
aS'XD'
p1148
aS'now i cant stop saying andrew'
p1149
aS'ANDREW!'
p1150
aS'Awww Ryan when he was a kid'
p1151
aS'Thats a fukin neck that danitomis has fukn retarded ass videos, all about \nVITALYZDTV, ROMANATWOOD,'
p1152
aS'I feel honored to be named Andrew'
p1153
aS'do hunger games! please '
p1154
aS'Andrew Andrew Andrew'
p1155
aS'Awww is that Ryan as a kid?'
p1156
aS'my brother name is andrew'
p1157
aS'ANDREW'
p1158
aS'It actually was him you idiot. '
p1159
aS'@Andrew Sanchez XD ANDREW!!!????!!!'
p1160
aS'ikr dude for ANDEREW'
p1161
aS'ANDREW DID U DO THIS?!?? Hahaha who noticed the baby pic ad someone said \nteehee hahahaha'
p1162
aS"I want Ryan's jacket. Anyone know where I can get it? "
p1163
aS'2:02 is my favorite part'
p1164
aS'I got 1,447'
p1165
aS'That awkward moment where you actually liked that movie. ._.'
p1166
aS'Epic'
p1167
aS'I see you guy like it too'
p1168
aS'lol'
p1169
aS'andrew! andrew:wat? me:nothing i just like screamin at u'
p1170
aS'ANDREW!!!!!!!!!!!!!!!!!!!!!'
p1171
aS'1,146 dislikes ANDREW'
p1172
aS'BABY RYAN!!! x3'
p1173
aS'i saw you at game stop the other day in virginia '
p1174
aS'XD'
p1175
aS'2:44'
p1176
aS'lol my cousins name is andrew and i do this all the time to him :P'
p1177
aS'Hey peeps! This id Fischer from FISCHMAN productions, and i make vids \ngreatly inspired by YTF, so of you like there vids, go czech out mine!'
p1178
aS'1000 dislikes? Andrew!!!'
p1179
aS'This reminds me of a funnier Mega64 video'
p1180
aS'ANDREW! Lol'
p1181
aS'best superhero movie since the notebook lol '
p1182
aS'1,148 dislikes !!! ANDREW !!!!! '
p1183
aS'@Andrew Sanchez ANDREW!!!'
p1184
aS'That was so funny'
p1185
aS'wtf'
p1186
aS'hahaha its like Mind Geek'
p1187
aS'what was that music called at 1:07 '
p1188
aS'I actually liked this movie a bit. I kind of want to see it again.'
p1189
aS'1:30 They have 13th floor now ?????'
p1190
aS'"So we found this green thing...in a hole..." LMAOO'
p1191
aS'Love the bloopers, but the movie was the most pointless movie I have ever \nseen. '
p1192
aS'1:30 looks so realistic!!'
p1193
aS'Haha that was cute'
p1194
aS'so i guess Ryan is the black guy.. lol'
p1195
aS'hey i fred'
p1196
aS'ANDREW!!!!!!!!! :D'
p1197
aS'lolz good vid '
p1198
aS'my name is Andrew....'
p1199
aS'Andrew!'
p1200
aS'Aww you are so cut as a little id. :)'
p1201
aS'ITS MIND GEEK ALL OVER AGAIN'
p1202
aS'Gee. I wonder who those guys are yelling at.'
p1203
aS'Top comments are the same? ANDREW!!!!!!!!!'
p1204
aS'S o f u n n y'
p1205
aS'ANDREW?!'
p1206
aS'ANDREW...'
p1207
aS"dude, calm down. what makes you think that that wasn't him? it could have \nbeen. there's no need to be hostile."
p1208
aS'I keep on watching this to watch when he was little part'
p1209
aS'2:15 AAAAAAAAAAAAAAAW!'
p1210
aS'Funny video, NigaHiga is always funny.'
p1211
aS'exact opposites actually...'
p1212
aS'Oh ok thanks'
p1213
aS'i was reading this when in the video they said "that\'s racist man" \ncoincidence? absolutely! '
p1214
aS'no comment'
p1215
aS'Ahahaha! Loved it! XD'
p1216
aS'AND LAUGH SO HARD XD'
p1217
aS'AINDRUU'
p1218
aS'Andrew ANDREW STOP! *Epic spear throw*'
p1219
aS'I laughed too hard after the bed "accident" and had to watch the second \nhalf again...'
p1220
aS"I just watch the real trailer then came back here. I'm actually dying of \nlaughter it all makes sense. ANDREW? ADREW! ANDREEEEEEEEEEEEEEEEEEEEEEEW!"
p1221
aS'Mini Ryan Higa XD'
p1222
aS'Love your videos man'
p1223
aS'pause at 1:09 :D :D:DD:D:'
p1224
aS'mind geek 2'
p1225
aS'wow you are humorless! '
p1226
aS'"cha ching cha ching" hahaha racist!'
p1227
aS'Heavy Rain 2. Andrew! Andrew!'
p1228
aS'He is a Japanese American born in Hilo, Hawaii. '
p1229
aS'Lol why do you even reply to this guy XD'
p1230
aS'Reminds me of an old classic nigahiga video...'
p1231
aS'I have no idea haha =)'
p1232
aS'2:18 PRICELESS xD'
p1233
aS'Andrew! Andrew!Andrew! Andrew!Andrew! Andrew!Andrew! Andrew!Andrew! \nAndrew!Andrew! Andrew!Andrew! Andrew!Andrew! Andrew!Andrew! Andrew!Andrew! \nAndrew!Andrew! Andrew!Andrew! Andrew!Andrew! Andrew!Andrew! Andrew!Andrew! \nAndrew!Andrew! Andrew!Andrew! Andrew!Andrew! Andrew!Andrew! Andrew!Andrew! \nAndrew!Andrew! Andrew!Andrew! Andrew!Andrew! Andrew!Andrew! Andrew!Andrew! \nAndrew!Andrew! Andrew!Andrew! Andrew!Andrew! Andrew!Andrew! Andrew!Andrew! \nAndrew!Andr- JUST SHUT UP!'
p1234
aS'Loved it <3 haha'
p1235
aS'could someone please tell me why someone is attacking me because i said \nthat ryan is cute?'
p1236
aS'1:48 llllllllllllllllllloooooooooooooooooooooolllllllllllllzzzzzzzzzzzzzzz'
p1237
aS"it's a JOKE... if it's not funny, you could have stopped watching it at any \ntime. "
p1238
aS'This Made Me Fall on the floor'
p1239
aS'No dislikes :D'
p1240
aS"who's that guy in the middle ? i know his face but i can't remember where i \nsaw him..."
p1241
aS'My favourite movie of 2012'
p1242
aS'Good luck mate.'
p1243
aS'Hahhaa i sucked u idiot'
p1244
aS'ANDREW!ANDREW!ANDREW!ANDREW!ANDREW!ANDREW!ANDREW!ANDREW!ANDREW!ANDREW!ANDREW!ANDREW!ANDREW!ANDREW!ANDREW!ANDREW!ANDREW!ANDREW!ANDREW!ANDREW!ANDREW!ANDREW!ANDREW!ANDREW!ANDREW!ANDREW!ANDREW!ANDREW!ANDREW!ANDREW!ANDREW!ANDREW!ANDREW!ANDREW!ANDREW!ANDREW!ANDREW!ANDREW!ANDREW!ANDREW!ANDREW!ANDREW!ANDREW!ANDREW!ANDREW!ANDREW!ANDREW!ANDREW!ANDREW!ANDREW!ANDREW!ANDREW!ANDREW! \nthat enough? '
p1245
aS'Andrews annoyed face is hilarious. Your poor buddy'
p1246
aS"I still don't know how that was racist in the beginning"
p1247
aS'soooo true. ya. i watched it at my bday and we watched the Lorax after ^_^'
p1248
aS'it mind geek all over again!!'
p1249
aS'Chester'
p1250
aS'I just like the way he was running as a little kid'
p1251
aS"andrew's face @ 1:45 LOL."
p1252
aS'Andreeeew'
p1253
aS'I just saw chronicle and the whole time I was referring back to this video. \nThis is basically what the movie is. Well done'
p1254
aS'THAT WAS INSANELY HILARIOUS!!!! I AM IN TEARS!! My favorite part was with \nthe carousel Hahahahaha'
p1255
aS'i hate when i accidently click on full screen while click on play from the \nvideo screen '
p1256
aS'0:16 MARCUS PEABODY =))))'
p1257
aS'Lol'
p1258
aS'andrew !!!!'
p1259
aS'lmao'
p1260
aS'Haha and in the movie it has a character named Andrew and in this same name \nLOL'
p1261
aS'My name is Andrew and I love this! :D'
p1262
aS'Hahahahahahahahahhahahahaha Danng that was soooooooooooo funny..:D'
p1263
aS'Andrew!!!'
p1264
aS'was it an accident lolllllllz '
p1265
aS'Omg, I love this ;D When there on that spinny thing, haha'
p1266
aS'Andrew such a cute badass 2:01 '
p1267
aS'ANDREW!!'
p1268
aS'lol the flashing lights'
p1269
aS'ANDREW!!!!!!!! '
p1270
aS'ANDREW!!!!'
p1271
aS'Ca-ching'
p1272
aS'wat the hell!!! This is so hilarious!!!!'
p1273
aS'Is that chester-see? he looks a lot like him.'
p1274
aS"There's no black guy"
p1275
aS'reminds me on the 1st vid they made wen they did magic trixs'
p1276
aS'The camera stand'
p1277
aS'what about ryan?'
p1278
aS'i always laugh at baby ryan'
p1279
aS'most of Nigahigas video only have asians i guess....'
p1280
aS'ANDREW! :)'
p1281
aS'YOU MADE HIM GO LEFT ANDREW!'
p1282
aS'1:30 teehee'
p1283
aS'BABY RYAN. SO CUTE.'
p1284
aS"wait if you're here and i'm here and andrew's here then who's holding the \ncamera ANDREW!!!!"
p1285
aS'oops i rewund too much!! baby niagahiga'
p1286
aS'But there IS an asian guy! Close enough..'
p1287
aS"if you look closely, you'll see it's fake..."
p1288
aS'Like if you saw BROMANCE @ 2.13'
p1289
aS'1:28 the 13th Floor'
p1290
aS'LOLCATS'
p1291
aS'Wait....if andrew was recording them screaming at him then.....who was \nrecording andrew recording? ANDREW!!!!'
p1292
aS'ANDREW!!'
p1293
aS'i love your videos!'
p1294
aS'2:18 HAHA '
p1295
aS'LEAVE ANDREW ALONE!!'
p1296
aS"It's about me?!?!?! "
p1297
aS'Andrew!!!!'
p1298
aS'What\'s that? A modern version of "Mind Geek"? Hey, Ryan! You got into the \n13th floor!'
p1299
aS'haha holy crap how did you notice that? lol '
p1300
aS"*drives car* everyone's all :/ *car screech while andrew holds out his had* \nANDREW YOU MADE IT GO ALL MATH!"
p1301
aS'Aww Ryan as a little boy he looks like a... Uh unicorn'
p1302
aS"okay, that's your opinion :)"
p1303
aS"Why am I just now finding out about these? I'm dying!"
p1304
aS'OMG THE FEELS WHEN HE REWOUND BACK TO RYAN+SEAN DAYS'
p1305
aS'1:30 now I realize that every elevator always says "TEEHEE" :D'
p1306
aS'JAAAASSON!'
p1307
aS'ANDREW!?!?!?! '
p1308
aS'Cute!'
p1309
aS'This was better than the movie ^-^ '
p1310
aS'He was such a cutee baby!'
p1311
aS'watch '
p1312
aS'omg thats fucking creepy LOL'
p1313
aS'the black guy always dies first'
p1314
aS'at 1:17 it loocked like he was realy pushing the thing but i know he wasnt'
p1315
aS'not trying to be mean, but i dont think any groups of people will be nice \nthe way that you are hoping thats one of the few flaws about the internet'
p1316
aS'just like his first video "Mind Geeks"'
p1317
aS'anyone know the name or location of that heroic music ryan always uses?'
p1318
aS'1:23 lol hes changing'
p1319
aS'nice ass videos'
p1320
aS'Just like movie XD jk awesome'
p1321
aS'whos Chester? y gotta be specific :3'
p1322
aS'Funny'
p1323
aS'hahahaha u needa stop andrew'
p1324
aS'mind geek '
p1325
aS'ANDREW!!!'
p1326
aS'Its has always been about Andrew........TEEHEE.........'
p1327
aS'Sort of like "Mind Geek," a video he made a long time ago!'
p1328
aS'Chronicle is such a great movie.'
p1329
aS'1:27 it loocked like he was pushing it also'
p1330
aS'Andrew!'
p1331
aS'cutest teehee ever'
p1332
aS'it would have been funny if tim or d-trix was holding the camera lol'
p1333
aS'AWWW BABY RYANN :D <3 '
p1334
aS'Do a movies in minutes of paranormal activity 4 :D'
p1335
aS'Aaron geers awesome'
p1336
aS'Transformers????? guy below mes a lie'
p1337
aS'I like niga higa but I like makin fun of him :('
p1338
aS'2:18 CUTEST THING I EVER SAW!!!AWWWWWWWWW!!'
p1339
aS'5999666 viewer'
p1340
aS'Andrew has great acting skills in not laughing. :))'
p1341
aS'awwwwwwwwwwww baby ryan!'
p1342
aS'hahahahahha!'
p1343
aS'2:19-2:21 I saw slender man on tv'
p1344
aS'The actual rave was hilarious. That movie was ridiculous. Tekekinesis'
p1345
aS'Andrew!'
p1346
aS'AND-REWW!!!!'
p1347
aS'Glad to see you watched the video too :)'
p1348
aS'Critics rave'
p1349
aS'0:45 DOMINIC'
p1350
aS'Pause at 15 secs'
p1351
aS'Lmfao i cant stop laughing'
p1352
aS'more than 100 dislikes?????...... ANNNDDREEEEWWW'
p1353
aS'icredible.....ly OK XD'
p1354
aS'real*'
p1355
aS'ANDREW'
p1356
aS'Just changed my Ringtone into: ANDREW!! :D'
p1357
aS"What's the epic music that starts playing?"
p1358
aS'How was that racist? When chester was singing'
p1359
aS'fuuuuuuuuuuuuuuuuuuuuuuuuuuuuuuuuuuuuuuuuuuuuuuuunnnnnnnnnnnnnnnnnnnnnnnnnyyyyyyyyyyyyyyyyyyyyyyyyyyyyyyyy!!!!!!!!!!!!!!!!!!!!!!!!!!!!!!!!!!!!!!!!!!!!!!!!!!!!!!!!!!!!'
p1360
aS'Probley ryan or chester was filiming andrew. It didnt show us andrew ryan \nand chester all in the same scene while andrew was filiming. Sooo. It had \nto be ryan or chester fimiling andrew... lol hope you get it. '
p1361
aS'1,105 dislikes... ANDREW'
p1362
aS"He didn't he was asking a question. "
p1363
aS"What's the name of that epic song that start playing?"
p1364
aS'it was late, but thats no excuse. shouldnt start yelling at people period, \nespecially if they arent at fault. again, sorry.'
p1365
aS'Teehee'
p1366
aS'DO NOT CLICK ON MY CHANNEL'
p1367
aS'critics rave, critics rave that u make the best vids ever! '
p1368
aS'parents..... are parents............'
p1369
aS'funnest part is @ 1:37'
p1370
aS'2:20 LOL'
p1371
aS'Little Ryan is so cute. ^_^'
p1372
aS'ANDREW!!!'
p1373
aS'Andrewww!'
p1374
aS'More plot holes than anything else, terrible ending.'
p1375
aS'the camera was staying pretty still at 2:36, then was kinda shaky when \nfilming Andrew at 2:42 , so im guessing that it was on top of something, \nlike the random metal poles that are sometimes on roof tops'
p1376
aS'youre late. its been settled.'
p1377
aS'omg he soo cute XD'
p1378
aS'Cause hes asian and he was saying Chang XD......I Think'
p1379
aS'omg... it took me a second to get the beginning... I LMFAO... so hard. by \nmyself. '
p1380
aS'sub me'
p1381
aS'CAAAAAAAARRLLLLL!'
p1382
aS"2:13 Did anyone else see the word 'Bromance?'"
p1383
aS'how the hell did u catch that. it took like 5 tries for me to see it after \ni saw your comment. sillyryan and his subliminal messages'
p1384
aS'Andrew Andrew Andrew Andrew!!!!!!!!!!! what if your here and andrew is \nthere than whos holding the camra ANDREW!!!!!!!!!!!!!!!!!!!!!!!!!!!!!!!! \nTEEHEE LOVINIT'
p1385
aS'Dear Ryan, WHAT THE HELL IS THE BLOOPER SONG!!!!!!1'
p1386
aS'and drew'
p1387
aS'WTH YOU MADE HIM GO LEFT ANDREW !'
p1388
aS'ANDREW!'
p1389
aS'Andrew!!!!'
p1390
aS'ANDREW!'
p1391
aS'Where was the teehee?'
p1392
aS'2:16 ! cutest !'
p1393
aS'ANDREW!!\xf0\x9f\x98\xa1'
p1394
aS'Wait, hows it racist? XD'
p1395
aS"Pause it at 2:28 ryan looks like he's making out with an imaginary \nperson!!! I LOVE RYAN!!! =P (but i mean who deosn't)"
p1396
aS'Oh! I get it XD'
p1397
aS"0:04 to 0:005 X'D I lost it "
p1398
aS'HOW MANY TIMES DO I HAVE TO WATCH THIS FOR IT TO STOP BEING FUNNY!!!'
p1399
aS'Holy shit never seen so much comedy from making fun of a trailer. '
p1400
aS'HahaahahXD teehee cute!'
p1401
aS'Andrew!!!'
p1402
aS'My names andrew'
p1403
aS'Ryan looks so cute as a little kid'
p1404
aS'I seen the movie'
p1405
aS'ANDREW!!!!!!!!!! '
p1406
aS'Andrew in this looks more like Zeke in the real movie, the guy Andrew \npulled teeth out of.'
p1407
aS"Andrew! Andrew! Andrew! Andrew! SHUT UP!! Wait if I'm here and your there \nand Andrews here. Then...then who's holding the camera? ANDREW!!!!"
p1408
aS'ANDREWW!'
p1409
aS'i just keep replaying the first 10 seconds.. so cute chester.. *-* so DARN \ncute...*dies* '
p1410
aS'thats odd.. my mum started laughing hysterically the moment she saw chester \nsinging at the start'
p1411
aS'Whats the music starting at 0:58?'
p1412
aS'ANDREW! :['
p1413
aS'dear ryan....do your milk shakes bring all the boys to the yard'
p1414
aS'ANDREW!!!'
p1415
aS'Lol!!!!!'
p1416
aS'Lmfao. I never repeated a line because they never said this line. Go back \nand watch the video again. (: '
p1417
aS'LOOOOL this was spot on!'
p1418
aS'ANDREW!!!!!!!!!!!!!!'
p1419
aS'ANDREW!'
p1420
aS'2.19... Look at the friggin creepy tv'
p1421
aS'do u remember the big green ball when u started making vids....'
p1422
aS'Tahrs what I call my friend now ANDREW!'
p1423
aS'DO THE HUNGER GAMES!! '
p1424
aS'do the hunger games'
p1425
aS'ANDREW!'
p1426
aS'AnDroid :D'
p1427
aS'Chichang chichang. Made me laugh xD'
p1428
aS'ANDREW ! :D hahahaha'
p1429
aS'TEEHEE '
p1430
aS'ANDREWCEPTION'
p1431
aS'hungry. games'
p1432
aS'This was great! Lol ... Andrew!!!'
p1433
aS'i like how chester nd andrew were touching the green light thingy before. \nlmaoo'
p1434
aS"Chester's face at 0:15 ! Bahahaha!"
p1435
aS'1:30 teehee'
p1436
aS'1:30 teehee'
p1437
aS'That video must have been so embarrassing to do since it is in public lol '
p1438
aS'2:01 I dont know what to do... Just simply laugh, or roll on the floor in \nhysterical laughter and tears streaming down my face. First world problems'
p1439
aS'The basketball part just killed me!!!'
p1440
aS'WHY IS THIS HAPPENING TO ME?!'
p1441
aS'Saw them yesterday!!!!! Go YTF!!! (definitively worth the 2h drive! (plus \nan extra 1h being lost in Montreal) GO RYAN <- he signed y shirt!!!! W00T'
p1442
aS'i love chronicle..'
p1443
aS'Lolol me and my friends say this to our friend Andrew all the time'
p1444
aS'awwww baby higa is so cute! :D'
p1445
aS'Tripod? lol '
p1446
aS'haha its about me exept im not white'
p1447
aS'1:09 HIS FACE!!!!! LOL ;)'
p1448
aS'Awh Andrew..'
p1449
aS'ANDREW!!!!!!!!!!!!'
p1450
aS'This video is funny every time! Thank you Ryan higa, Chester see & \nANDREW!!!!'
p1451
aS'ANDREW!'
p1452
aS"What's the song at 0:33 , please reply thanks!"
p1453
aS'1:30 The elevator says TEEHEE.'
p1454
aS'DO HUNGER GAMES! Or the Woman In Black.'
p1455
aS'1,084 dislikes? ANDREW!'
p1456
aS'I just watched the Chronicle for the first time today and it sucked soooo \nbad. This version is a million times better.'
p1457
aS'U r to funny u just made me a official subscriber of yours'
p1458
aS'my name is Andrew lol '
p1459
aS'Hahaha! "I\'m worried about Andrew he\'s changing, Andrew you need to stop." \n- basically lost it xD'
p1460
aS'i dont mean to sound stupid but i dont get the first part where he calls \nmat racist is it cause he said ching to chang like chinese sorta idk'
p1461
aS'P.S. Slender helped Ryan to make the static screen effect'
p1462
aS'we found this glowing green thing in a hole ?? ... critics rave !!! 0:33 \nANDREW 0:44'
p1463
aS'CRITICS RAVE '
p1464
aS'so my sister and i looooovvveeee your videos and think all of them from the \nvery first one should be on netflixs!!!!!!!!!!!!!!! '
p1465
aS'WOW 1:30 TEEHEE XD'
p1466
aS'1:48 Was it an accident andrew...? was it .....? lol XD'
p1467
aS'check out my channel please :D'
p1468
aS'hahahahahahahaha'
p1469
aS'aww chester looked so happy when he lifted the gate <3 '
p1470
aS'you copied this comment. ANDREW!'
p1471
aS'BATMAN!!!!!!!!! SKIFF OH'
p1472
aS'00:08 fart??'
p1473
aS"Hey i am new to making videos on YouTube and added 6 videos to my channel \nin quick succession i would really appreciate it if you just watched my \nfirst one. But don't feel you have to. Constructive criticism is welcome. \nThanks in advance! :) i loved the movie but it was so more interesting like \nthis"
p1474
aS'Can anyone identify the song at 0:56?'
p1475
aS'i was wearing earphones and my name is andrew and aprox all the vid was: \nAndrew!! its pretty annoying lol'
p1476
aS'Andrew!!! Andrew!! Andrew!! Andrew!! SHUT UP!!!! Hahahaha lmfao'
p1477
aS'Dear ryan, Can you do Movies in Minutes Paranormal Activity?'
p1478
aS'f*ckin funny'
p1479
aS'This was so much more entertaining than the actual movie! <3'
p1480
aS'I know what you mean...'
p1481
aS'reminds me of me and my brother, andrew'
p1482
aS'i love Chester, lol. i gotta go sub to him, omg. Ryan is so funny xD'
p1483
aS'Hello Everyone! Today me and my friend made a video, which is an intro for \nour channel. If u would check it out that would be something amazing from u \n! Thank You So Much! '
p1484
aS'ANDREW! '
p1485
aS'Agreed^'
p1486
aS'OMG! You were so cute when you were a baby!!'
p1487
aS'JASON'
p1488
aS'ANDREW!!!!! '
p1489
aS'funny because my name is andrew and all my freinds say \naaaannnnnddddrrreeeeww when ever i mess any thing up '
p1490
aS'nice'
p1491
aS'Bahahahahahhahahhahahahaha S O. F U N N Y. B A H A H A H'
p1492
aS'1084 dislikes? ANDREW!'
p1493
aS'this is like one of my fav videos and watch megamonkeyape230 and also watch \nmy other channel liamsmits '
p1494
aS'Trololol!!'
p1495
aS'ANDREEWWWW'
p1496
aS'ANDDRRREEEWW! LOL'
p1497
aS'ANDREWW! haha lol jk'
p1498
aS"hahahaaha omw i love nigahiga 'obssesed' "
p1499
aS'Andrew!!!!!!!'
p1500
aS'The movie really was good and I cried'
p1501
aS'1158 dislikes? ANDREWWWWW'
p1502
aS"Didn't have to, the elevator at 1:27 already said it"
p1503
aS'Hahahaha amazing'
p1504
aS'this is really weird when your name is actually Andrew lol '
p1505
aS'andrew!!!!!!!!!!!!!!!!!!!!!!!!!!!!!!!'
p1506
aS'2:15'
p1507
aS'I agree.'
p1508
aS'My name is Andrew'
p1509
aS"Got some friends through skype. Told them my name is andrew. They had seen \nthis vid. It wasn't pretty. "
p1510
aS'My name is Andrew :)'
p1511
aS'god dangit Andrew'
p1512
aS'1:30 Teeeeheeee'
p1513
aS'Lol'
p1514
aS'ANDREW!!! *peed on bed* XD'
p1515
aS'1:33 Teehee.'
p1516
aS'Can you please do movies in minutes hunger games!!!!!!!!!!!'
p1517
aS'XD Thanks! Now I get it! That is racist. XD'
p1518
aS'hey Ryan you probably wont read this but... you ripped off a lot of ideas \nfor this from your first video "mind geek"'
p1519
aS'Such a cute baby Ryan <3'
p1520
aS"Sorry. i don't wanna piss you off, I still don't fet it. :("
p1521
aS'Dude wen tht guy andrew moved tht grey car it was us lol we meant to turn \nleft lol'
p1522
aS'Shut up! Ppl telling ppl to look at somebodys channel in a video! why not \ndo it on yours!'
p1523
aS'LOL Ryan, yoour muscles flexed whenever you used your powers!'
p1524
aS'"What is this?" "It\'s a glowing green thing and if we touch it we will get \npowers" "how will it get us powers" "...well idk it wasnt explained" \n.....CRITICS RAVE: DON DON DON DON! '
p1525
aS'its racist because of the original trailer.........they have a black man \nwith them '
p1526
aS'hey are you legit Andrew. cooool'
p1527
aS'2:46 It sounds like the noise when slender is after you. :)'
p1528
aS'i LOVE that movie!'
p1529
aS'AAANDREWWW!!!!'
p1530
aS'Andrew an do much better'
p1531
aS'2:17 is that Nigahiga???? LOLLOLOLLLL'
p1532
aS"First nigahiga video I've seen halarious"
p1533
aS'2:20 SO CUTE! :))'
p1534
aS'o_o creepy'
p1535
aS'iwatched this movie the other day. It was awesome.'
p1536
aS'haha dumb ass'
p1537
aS'ANNDROOOOUUUU.....'
p1538
aS'critics "rave" lmao!!'
p1539
aS'BANE, tell me when ur on. watchin supernatural'
p1540
aS'Yes...Yes it is... '
p1541
aS"OMG , you're so cute chester singing price taaaag , i can't stand it ! i'm \nreplaying that moment over and over and over agaain god i'm not going to \nsleep le'ts watch cuteness till tomorrow *q*"
p1542
aS"woa woa woa,that,that's racist dude."
p1543
aS"LOL Chester's eyes at 0:16"
p1544
aS'ah chester'
p1545
aS'ROFLMFAO Andrew!Andrew!Andrew! Andrew!Andrew! Andrew!Andrew! Andrew!Andrew! \nAndrew!Andrew! Andrew!Andrew! Andrew!Andrew! Andrew!Andrew! Andrew!Andrew! \nAndrew!Andrew! Andrew!Andrew! Andrew!Andrew! Andrew!Andrew! Andrew!Andrew! \nAndrew!Andrew! Andrew!Andrew! Andrew!Andrew! Andrew!Andrew! Andrew!Andrew! \nAndrew!Andrew! Andrew!Andrew! Andrew!Andrew! '
p1546
aS'Leave me alone'
p1547
aS"Chester's face in 0:16 xD LOOOLLL"
p1548
aS'2:34 Continuity? Continuity.'
p1549
aS'Way better then the movie'
p1550
aS'2:19'
p1551
aS'Lmaooo I read the credits too ;)'
p1552
aS'lmao his name is Chester'
p1553
aS'hahahhahahahaha'
p1554
aS'At the end: "It\'s about Andrew" NO! *gasps and holds face, totally unable \nto process this* I swear I had no idea!!!!!!'
p1555
aS'uses mind to make a comment '
p1556
aS'ANDREW!!!'
p1557
aS'\xee\x88\x9a\xee\x88\x99\xee\x88\x9bIM SO AWESOME\xee\x88\x9b\xee\x88\x99\xee\x88\x9a \xc2\xa9firefox\xee\x88\x9e\xee\x88\x9e\xee\x88\xa5\xee\x88\xa1'
p1558
aS'NO WAY!!! REALLY!?! '
p1559
aS'Funny'
p1560
aS'Pause at around 0:16 and look at the dude in the middles eyes'
p1561
aS'ANDREW!!!!'
p1562
aS'Mind geek anyone?'
p1563
aS'OMG Ryan has magically magical powers!! Actually, I knew that all along =3'
p1564
aS'wowwwwwwwww.... '
p1565
aS'why did this show up in my sub box today?'
p1566
aS'ANDREW!!!!'
p1567
aS'hahahahahah dying here so funny '
p1568
aS'7up green thingi '
p1569
aS'no shit'
p1570
aS'this was a really good movie'
p1571
aS'Moutain Dew with something glowy inside? :O'
p1572
aS'Copied Comment? ANDREWWWWWWWW'
p1573
aS'Did anyon notice he was on the 13th floor??'
p1574
aS'1,060 dislikes? ANDREWWW!!'
p1575
aS'HAHAHAHHAHAHA OMFG IM DYING WITH LAUGHTER ! PURE GENIUS ! '
p1576
aS'this movie was awesome, watched it last night. epicness '
p1577
aS'good video'
p1578
aS'at the end with little ryan he was watching mr vampire xD'
p1579
aS'Reminds me of his old video mindgeek'
p1580
aS'Static'
p1581
aS'ANDREW!!!!!!!!!!!!!!!! '
p1582
aS'Naaaaah. '
p1583
aS'how the F did he do tehs??????????!!!!!!!!!!!!!!'
p1584
aS"I've done some of those stupid things, that's why I love these guys! LOL"
p1585
aS'2:02 had me rolling'
p1586
aS"if you say nigahiga many times it'll sound like nig.ger hater lol "
p1587
aS'WAS IS AN ACCIDENT?'
p1588
aS'oh my god the auto captions of this are amazing'
p1589
aS'Awww'
p1590
aS'ANDREW!!!!! lol'
p1591
aS'Hahahaha you guys are all wankers ^__^'
p1592
aS'ive watched the real chronicles and this one if this was actualy the \ntrailer it would get like 1 billion plus views'
p1593
aS'Oh god :D'
p1594
aS'Baby Higa'
p1595
aS'Critics rave at 0:35'
p1596
aS'why me ?'
p1597
aS'Teehee'
p1598
aS'the tripod!'
p1599
aS'Am I the only one who noticed that they were on the 13th floor?'
p1600
aS'funny'
p1601
aS'Andrew'
p1602
aS'Niga higa can you be tony hawk'
p1603
aS'This is Soda'
p1604
aS'the thing they touched, is just sunlight shining on a sprite '
p1605
aS"how did they get it on the table if they hadn't touched it yet..."
p1606
aS'I LOLED TO MUCH '
p1607
aS'aww does somebody have no life'
p1608
aS'ANDREW! '
p1609
aS'what was that song druing the rave? '
p1610
aS'ryan i luv all ur videos and ytf roxs do hunger games haha lol'
p1611
aS"he's trolling"
p1612
aS'ANDREW GARCIA FROM AMERICAN IDOL!!!! OMG I JUST REALIZED!!!!!'
p1613
aS'ANDREW!!!'
p1614
aS'hey nigahiga can you make a movie on gangnam style '
p1615
aS'Your Saying You Hate nigahiga But Yet Again On Your Profile It Says You \nLiked Clenching My Booty By nigahiga? :S'
p1616
aS'Did I see Bromance while it was being rewound?'
p1617
aS'OH MY GOD REALLY?'
p1618
aS'This is sorta freaky'
p1619
aS'ANDREW!!!!!'
p1620
aS'dear ryan, can you go on a walk with dora?'
p1621
aS'u suck.'
p1622
aS'Remind me of his very first video . Hahahaa'
p1623
aS'Dear Ryan, Can you do the Hunger Games?'
p1624
aS'ya'
p1625
aS'ur just a little fucking attention whore arent ya?.'
p1626
aS'[\xc2\xa8\xc2\xa1?=)(/&%$#"!\xc2\xa8*{-.,\'\xc2\xbf\xc2\xb4+{.,'
p1627
aS'I voted for him like 60 times! <3 u Andrew :)'
p1628
aS'subbed'
p1629
aS'Chronicle was so epic. i love that movie LOLL'
p1630
aS'1:06 is SICK!!'
p1631
aS'I watch the real movie. Then I kept asking my brother, Andrew if I could \nspear him'
p1632
aS'Dear Ryan: can u do my mum'
p1633
aS"what's the hero song at 0:56?"
p1634
aS'Andrew. ANDREW STAHP.'
p1635
aS'lol!!! XD '
p1636
aS"she's welcome"
p1637
aS"The rewind shit made this video about x10 awesomer than if it didn't have \nit. LOL"
p1638
aS'Haha loved it !'
p1639
aS"Who is the guy in the tie? and black jacket :) he's cute"
p1640
aS'CHIBI AMERICA!'
p1641
aS"00:24 that's what she said"
p1642
aS'Chronicle was actually an amazing movie'
p1643
aS'\xe2\x9d\xa4\xe2\x9d\xa4\xe2\x9d\xa4\xe2\x9d\xa4\xe2\x9d\xa4\xe2\x9d\xa4\xe2\x9d\xa4\xe2\x9d\xa4\xe2\x9d\xa4\xe2\x9d\xa4\xe2\x9d\xa4\xe2\x9d\xa4\xe2\x9d\xa4\xe2\x9d\xa4\xe2\x9d\xa4\xe2\x9d\xa4\xe2\x9d\xa4\xe2\x9d\xa4\xe2\x9d\xa4\xe2\x9d\xa4\xe2\x9d\xa4\xe2\x9d\xa4\xe2\x9d\xa4\xe2\x9d\xa4\xe2\x9d\xa4\xe2\x9d\xa4\xe2\x9d\xa4\xe2\x9d\xa4\xe2\x9d\xa4\xe2\x9d\xa4\xe2\x9d\xa4\xe2\x9d\xa4\xe2\x9d\xa4\xe2\x9d\xa4\xe2\x9d\xa4\xe2\x9d\xa4\xe2\x9d\xa4\xe2\x9d\xa4\xe2\x9d\xa4\xe2\x9d\xa4\xe2\x9d\xa4\xe2\x9d\xa4\xe2\x9d\xa4\xe2\x9d\xa4\xe2\x9d\xa4\xe2\x9d\xa4\xe2\x9d\xa4\xe2\x9d\xa4\xe2\x9d\xa4\xe2\x9d\xa4\xe2\x9d\xa4\xe2\x9d\xa4\xe2\x9d\xa4\xe2\x9d\xa4\xe2\x9d\xa4\xe2\x9d\xa4\xe2\x9d\xa4\xe2\x9d\xa4\xe2\x9d\xa4\xe2\x9d\xa4\xe2\x9d\xa4\xe2\x9d\xa4\xe2\x9d\xa4\xe2\x9d\xa4\xe2\x9d\xa4\xe2\x9d\xa4\xe2\x9d\xa4\xe2\x9d\xa4\xe2\x9d\xa4\xe2\x9d\xa4\xe2\x9d\xa4\xe2\x9d\xa4\xe2\x9d\xa4\xe2\x9d\xa4\xe2\x9d\xa4\xe2\x9d\xa4\xe2\x9d\xa4\xe2\x9d\xa4\xe2\x9d\xa4\xe2\x9d\xa4\xe2\x9d\xa4\xe2\x9d\xa4\xe2\x9d\xa4\xe2\x9d\xa4\xe2\x9d\xa4\xe2\x9d\xa4\xe2\x9d\xa4\xe2\x9d\xa4\xe2\x9d\xa4\xe2\x9d\xa4\xe2\x9d\xa4\xe2\x9d\xa4\xe2\x9d\xa4\xe2\x9d\xa4\xe2\x9d\xa4\xe2\x9d\xa4\xe2\x9d\xa4\xe2\x9d\xa4\xe2\x9d\xa4\xe2\x9d\xa4\xe2\x9d\xa4\xe2\x9d\xa4\xe2\x9d\xa4\xe2\x9d\xa4\xe2\x9d\xa4\xe2\x9d\xa4\xe2\x9d\xa4\xe2\x9d\xa4\xe2\x9d\xa4\xe2\x9d\xa4\xe2\x9d\xa4\xe2\x9d\xa4\xe2\x9d\xa4\xe2\x9d\xa4\xe2\x9d\xa4\xe2\x9d\xa4\xe2\x9d\xa4\xe2\x9d\xa4\xe2\x9d\xa4\xe2\x9d\xa4\xe2\x9d\xa4\xe2\x9d\xa4\xe2\x9d\xa4\xe2\x9d\xa4\xe2\x9d\xa4\xe2\x9d\xa4\xe2\x9d\xa4\xe2\x9d\xa4\xe2\x9d\xa4\xe2\x9d\xa4\xe2\x9d\xa4\xe2\x9d\xa4\xe2\x9d\xa4\xe2\x9d\xa4\xe2\x9d\xa4\xe2\x9d\xa4\xe2\x9d\xa4\xe2\x9d\xa4\xe2\x9d\xa4\xe2\x9d\xa4\xe2\x9d\xa4\xe2\x9d\xa4\xe2\x9d\xa4\xe2\x9d\xa4\xe2\x9d\xa4\xe2\x9d\xa4\xe2\x9d\xa4\xe2\x9d\xa4\xe2\x9d\xa4\xe2\x9d\xa4\xe2\x9d\xa4\xe2\x9d\xa4\xe2\x9d\xa4\xe2\x9d\xa4\xe2\x9d\xa4\xe2\x9d\xa4\xe2\x9d\xa4\xe2\x9d\xa4\xe2\x9d\xa4\xe2\x9d\xa4\xe2\x9d\xa4\xe2\x9d\xa4\xe2\x9d\xa4\xe2\x9d\xa4\xe2\x9d\xa4\xe2\x9d\xa4\xe2\x9d\xa4\xe2\x9d\xa4\xe2\x9d\xa4\xe2\x9d\xa4\xe2\x9d\xa4\xe2\x9d\xa4\xe2\x9d\xa4\xe2\x9d\xa4\xe2\x9d\xa4\xe2\x9d\xa4\xe2\x9d\xa4\xe2\x9d\xa4\xe2\x9d\xa4\xe2\x9d\xa4\xe2\x9d\xa4\xe2\x9d\xa4\xe2\x9d\xa4\xe2\x9d\xa4\xe2\x9d\xa4\xe2\x9d\xa4\xe2\x9d\xa4\xe2\x9d\xa4\xe2\x9d\xa4\xe2\x9d\xa4\xe2\x9d\xa4\xe2\x9d\xa4\xe2\x9d\xa4\xe2\x9d\xa4\xe2\x9d\xa4\xe2\x9d\xa4\xe2\x9d\xa4\xe2\x9d\xa4\xe2\x9d\xa4\xe2\x9d\xa4\xe2\x9d\xa4\xe2\x9d\xa4\xe2\x9d\xa4\xe2\x9d\xa4\xe2\x9d\xa4\xe2\x9d\xa4\xe2\x9d\xa4\xe2\x9d\xa4\xe2\x9d\xa4\xe2\x9d\xa4\xe2\x9d\xa4\xe2\x9d\xa4\xe2\x9d\xa4\xe2\x9d\xa4\xe2\x9d\xa4\xe2\x9d\xa4\xe2\x9d\xa4\xe2\x9d\xa4\xe2\x9d\xa4\xe2\x9d\xa4\xe2\x9d\xa4\xe2\x9d\xa4\xe2\x9d\xa4\xe2\x9d\xa4\xe2\x9d\xa4\xe2\x9d\xa4\xe2\x9d\xa4\xe2\x9d\xa4\xe2\x9d\xa4\xe2\x9d\xa4\xe2\x9d\xa4\xe2\x9d\xa4\xe2\x9d\xa4\xe2\x9d\xa4\xe2\x9d\xa4\xe2\x9d\xa4\xe2\x9d\xa4\xe2\x9d\xa4\xe2\x9d\xa4\xe2\x9d\xa4\xe2\x9d\xa4\xe2\x9d\xa4\xe2\x9d\xa4\xe2\x9d\xa4\xe2\x9d\xa4\xe2\x9d\xa4\xe2\x9d\xa4\xe2\x9d\xa4\xe2\x9d\xa4\xe2\x9d\xa4\xe2\x9d\xa4\xe2\x9d\xa4\xe2\x9d\xa4\xe2\x9d\xa4\xe2\x9d\xa4\xe2\x9d\xa4\xe2\x9d\xa4\xe2\x9d\xa4\xe2\x9d\xa4\xe2\x9d\xa4\xe2\x9d\xa4\xe2\x9d\xa4\xe2\x9d\xa4\xe2\x9d\xa4\xe2\x9d\xa4\xe2\x9d\xa4\xe2\x9d\xa4\xe2\x9d\xa4\xe2\x9d\xa4\xe2\x9d\xa4\xe2\x9d\xa4\xe2\x9d\xa4\xe2\x9d\xa4\xe2\x9d\xa4\xe2\x9d\xa4\xe2\x9d\xa4\xe2\x9d\xa4\xe2\x9d\xa4\xe2\x9d\xa4\xe2\x9d\xa4\xe2\x9d\xa4\xe2\x9d\xa4\xe2\x9d\xa4\xe2\x9d\xa4\xe2\x9d\xa4\xe2\x9d\xa4\xe2\x9d\xa4\xe2\x9d\xa4\xe2\x9d\xa4\xe2\x9d\xa4\xe2\x9d\xa4\xe2\x9d\xa4\xe2\x9d\xa4\xe2\x9d\xa4\xe2\x9d\xa4\xe2\x9d\xa4\xe2\x9d\xa4\xe2\x9d\xa4\xe2\x9d\xa4\xe2\x9d\xa4\xe2\x9d\xa4\xe2\x9d\xa4\xe2\x9d\xa4\xe2\x9d\xa4\xe2\x9d\xa4\xe2\x9d\xa4\xe2\x9d\xa4\xe2\x9d\xa4\xe2\x9d\xa4\xe2\x9d\xa4\xe2\x9d\xa4\xe2\x9d\xa4\xe2\x9d\xa4\xe2\x9d\xa4\xe2\x9d\xa4\xe2\x9d\xa4\xe2\x9d\xa4\xe2\x9d\xa4\xe2\x9d\xa4\xe2\x9d\xa4\xe2\x9d\xa4\xe2\x9d\xa4\xe2\x9d\xa4\xe2\x9d\xa4\xe2\x9d\xa4\xe2\x9d\xa4\xe2\x9d\xa4\xe2\x9d\xa4\xe2\x9d\xa4\xe2\x9d\xa4\xe2\x9d\xa4\xe2\x9d\xa4\xe2\x9d\xa4\xe2\x9d\xa4\xe2\x9d\xa4\xe2\x9d\xa4\xe2\x9d\xa4\xe2\x9d\xa4\xe2\x9d\xa4\xe2\x9d\xa4\xe2\x9d\xa4\xe2\x9d\xa4\xe2\x9d\xa4\xe2\x9d\xa4\xe2\x9d\xa4\xe2\x9d\xa4\xe2\x9d\xa4\xe2\x9d\xa4\xe2\x9d\xa4\xe2\x9d\xa4\xe2\x9d\xa4\xe2\x9d\xa4\xe2\x9d\xa4\xe2\x9d\xa4\xe2\x9d\xa4\xe2\x9d\xa4\xe2\x9d\xa4\xe2\x9d\xa4\xe2\x9d\xa4\xe2\x9d\xa4\xe2\x9d\xa4\xe2\x9d\xa4\xe2\x9d\xa4\xe2\x9d\xa4\xe2\x9d\xa4\xe2\x9d\xa4\xe2\x9d\xa4\xe2\x9d\xa4\xe2\x9d\xa4\xe2\x9d\xa4\xe2\x9d\xa4\xe2\x9d\xa4\xe2\x9d\xa4\xe2\x9d\xa4\xe2\x9d\xa4\xe2\x9d\xa4\xe2\x9d\xa4\xe2\x9d\xa4\xe2\x9d\xa4\xe2\x9d\xa4\xe2\x9d\xa4\xe2\x9d\xa4\xe2\x9d\xa4\xe2\x9d\xa4\xe2\x9d\xa4\xe2\x9d\xa4\xe2\x9d\xa4\xe2\x9d\xa4\xe2\x9d\xa4\xe2\x9d\xa4\xe2\x9d\xa4\xe2\x9d\xa4\xe2\x9d\xa4\xe2\x9d\xa4\xe2\x9d\xa4\xe2\x9d\xa4\xe2\x9d\xa4\xe2\x9d\xa4\xe2\x9d\xa4\xe2\x9d\xa4\xe2\x9d\xa4\xe2\x9d\xa4\xe2\x9d\xa4\xe2\x9d\xa4\xe2\x9d\xa4\xe2\x9d\xa4\xe2\x9d\xa4\xe2\x9d\xa4\xe2\x9d\xa4\xe2\x9d\xa4\xe2\x9d\xa4\xe2\x9d\xa4\xe2\x9d\xa4\xe2\x9d\xa4\xe2\x9d\xa4\xe2\x9d\xa4\xe2\x9d\xa4\xe2\x9d\xa4\xe2\x9d\xa4\xe2\x9d\xa4\xe2\x9d\xa4\xe2\x9d\xa4\xe2\x9d\xa4\xe2\x9d\xa4\xe2\x9d\xa4\xe2\x9d\xa4\xe2\x9d\xa4\xe2\x9d\xa4\xe2\x9d\xa4\xe2\x9d\xa4\xe2\x9d\xa4\xe2\x9d\xa4\xe2\x9d\xa4\xe2\x9d\xa4\xe2\x9d\xa4\xe2\x9d\xa4\xe2\x9d\xa4\xe2\x9d\xa4\xe2\x9d\xa4\xe2\x9d\xa4\xe2\x9d\xa4\xe2\x9d\xa4\xe2\x9d\xa4\xe2\x9d\xa4\xe2\x9d\xa4\xe2\x9d\xa4\xe2\x9d\xa4\xe2\x9d\xa4\xe2\x9d\xa4\xe2\x9d\xa4\xe2\x9d\xa4\xe2\x9d\xa4\xe2\x9d\xa4\xe2\x9d\xa4\xe2\x9d\xa4\xe2\x9d\xa4\xe2\x9d\xa4\xe2\x9d\xa4\xe2\x9d\xa4\xe2\x9d\xa4\xe2\x9d\xa4\xe2\x9d\xa4\xe2\x9d\xa4\xe2\x9d\xa4\xe2\x9d\xa4\xe2\x9d\xa4\xe2\x9d\xa4\xe2\x9d\xa4\xe2\x9d\xa4\xe2\x9d\xa4\xe2\x9d\xa4\xe2\x9d\xa4\xe2\x9d\xa4\xe2\x9d\xa4\xe2\x9d\xa4\xe2\x9d\xa4\xe2\x9d\xa4\xe2\x9d\xa4\xe2\x9d\xa4\xe2\x9d\xa4\xe2\x9d\xa4\xe2\x9d\xa4\xe2\x9d\xa4\xe2\x9d\xa4\xe2\x9d\xa4\xe2\x9d\xa4\xe2\x9d\xa4\xe2\x9d\xa4\xe2\x9d\xa4\xe2\x9d\xa4\xe2\x9d\xa4\xe2\x9d\xa4\xe2\x9d\xa4\xe2\x9d\xa4\xe2\x9d\xa4\xe2\x9d\xa4\xe2\x9d\xa4\xe2\x9d\xa4\xe2\x9d\xa4\xe2\x9d\xa4'
p1644
aS'Andrew!!!!!!!'
p1645
aS'Actually she didnt say that, If she said it to you, Well,.....you should be \nchecked out.'
p1646
aS'coming from Mr. Yummy Pancakes '
p1647
aS'aaaa my arm !! '
p1648
aS'Andrew looks like Andrew Garcia..is it him?'
p1649
aS'ANDREW!!!'
p1650
aS'yup thats him :)'
p1651
aS'do a movie in minutes super 8 '
p1652
aS'slender at 2:17 '
p1653
aS'sooooooooooooooooooooo funny! always makes me smile and have a laugh after \na stressful day of school <3'
p1654
aS'Dear ryan can you win the hunger games against ytf?'
p1655
aS'OMG THIS IS SOOO FREAKING FUNNY'
p1656
aS'flying would entertain me.'
p1657
aS'Dear Ryan: Can u do the Hunger Games?'
p1658
aS'Andrew Wuz it an accident? Andrew STAHP'
p1659
aS'My name is Also Andrew and my friends tease me about it'
p1660
aS'\xe2\x94\x8f\xe2\x94\x81\xe2\x94\x81\xe2\x94\x81\xe2\x94\x81\xe2\x94\xb3\xe2\x94\x81\xe2\x94\x81\xe2\x94\x81\xe2\x94\xb3\xe2\x94\x81\xe2\x94\x81\xe2\x94\x81\xe2\x94\xb3\xe2\x94\x93\xe2\x95\x8b\xe2\x94\x8f\xe2\x94\xb3\xe2\x94\x81\xe2\x94\x81\xe2\x94\x81\xe2\x94\xb3\xe2\x94\x81\xe2\x94\x81\xe2\x94\x81\xe2\x94\x93 \xe2\x94\x83\xe2\x94\x8f\xe2\x94\x93\xe2\x94\x8f\xe2\x94\x93\xe2\x94\x83\xe2\x94\x8f\xe2\x94\x81\xe2\x94\x81\xe2\x94\xab\xe2\x94\x8f\xe2\x94\x81\xe2\x94\x81\xe2\x94\xab\xe2\x94\x83\xe2\x95\x8b\xe2\x94\x83\xe2\x94\x83\xe2\x94\x8f\xe2\x94\x81\xe2\x94\x81\xe2\x94\xab\xe2\x94\x8f\xe2\x94\x81\xe2\x94\x81\xe2\x94\x9b \n\xe2\x94\x97\xe2\x94\x9b\xe2\x94\x83\xe2\x94\x83\xe2\x94\x97\xe2\x94\xab\xe2\x94\x97\xe2\x94\x81\xe2\x94\x81\xe2\x94\xab\xe2\x94\x97\xe2\x94\x81\xe2\x94\x81\xe2\x94\xab\xe2\x94\x97\xe2\x94\x81\xe2\x94\x9b\xe2\x94\x83\xe2\x94\x97\xe2\x94\x81\xe2\x94\x81\xe2\x94\xab\xe2\x94\x97\xe2\x94\x81\xe2\x94\x81\xe2\x94\x93 \xe2\x95\x8b\xe2\x95\x8b\xe2\x94\x83\xe2\x94\x83\xe2\x95\x8b\xe2\x94\x83\xe2\x94\x8f\xe2\x94\x81\xe2\x94\x81\xe2\x94\xab\xe2\x94\x8f\xe2\x94\x81\xe2\x94\x81\xe2\x94\xab\xe2\x94\x8f\xe2\x94\x81\xe2\x94\x93\xe2\x94\x83\xe2\x94\x8f\xe2\x94\x81\xe2\x94\x81\xe2\x94\xab\xe2\x94\x8f\xe2\x94\x81\xe2\x94\x81\xe2\x94\x9b \n\xe2\x95\x8b\xe2\x95\x8b\xe2\x94\x83\xe2\x94\x83\xe2\x95\x8b\xe2\x94\x83\xe2\x94\x97\xe2\x94\x81\xe2\x94\x81\xe2\x94\xab\xe2\x94\x97\xe2\x94\x81\xe2\x94\x81\xe2\x94\xab\xe2\x94\x83\xe2\x95\x8b\xe2\x94\x83\xe2\x94\x83\xe2\x94\x97\xe2\x94\x81\xe2\x94\x81\xe2\x94\xab\xe2\x94\x97\xe2\x94\x81\xe2\x94\x81\xe2\x94\x93 \xe2\x95\x8b\xe2\x95\x8b\xe2\x94\x97\xe2\x94\x9b\xe2\x95\x8b\xe2\x94\x97\xe2\x94\x81\xe2\x94\x81\xe2\x94\x81\xe2\x94\xbb\xe2\x94\x81\xe2\x94\x81\xe2\x94\x81\xe2\x94\xbb\xe2\x94\x9b\xe2\x95\x8b\xe2\x94\x97\xe2\x94\xbb\xe2\x94\x81\xe2\x94\x81\xe2\x94\x81\xe2\x94\xbb\xe2\x94\x81 '
p1661
aS'This was a good movie'
p1662
aS"She's Welcome."
p1663
aS'hahaha'
p1664
aS'hey hater keep ur thoughts to ur self ur an asshole, he didnt do anything \nto u so either stop or get blocked'
p1665
aS'how does this have dislikes!? its hilarious!'
p1666
aS'its about andrew'
p1667
aS'Andrew!!!!'
p1668
aS'CHESTER!!! I LOVE YOU GUYS!!'
p1669
aS'0:16 to 0:19 So what your saying is you found a Sprite bottle in a hole. lol'
p1670
aS'"...And if we touch it we\'ll get powers." "Well, how do we get the powers?" \n"Uh actually that... That wasn\'t explained..." XD'
p1671
aS'Andrewwww'
p1672
aS'The real Chronicle movie has a really depressing ending -_-'
p1673
aS"thumbs up for jay park in the vid ^^'"
p1674
aS'Wait...if Andrew was holding the camera, then who filmed Andrew with the \ncamera at 2:40? Wait..who just turned of the light in my room?? And who is \nthis scary women standing next to me and screaming...GO TO BEEEED!'
p1675
aS"If you look closely...you'll see the woman driving the car...enough said xD"
p1676
aS"Hey, I know comments like this are hated and I don't like doing it, but \notherwise I don't get watched and SOME of the big Youtubers take all the \nviews. I just ask you to come and watch some of my Sketches, Short Films \nand Spoofs, you will not be disappointed. Please leave a like if you like \nthem. MY NEWEST VIDEO IS CALLED THE COMPETITIVE EDGE, CAN YOU BE TOO \nCOMPETITIVE??\xc2\xbf"
p1677
aS'Do "Project X" in a minutes'
p1678
aS'its all about andrew'
p1679
aS'Aww, Look at baby Ryan 8D so kawaiiii'
p1680
aS'lloll virsion of mind geek'
p1681
aS'Hillarious!'
p1682
aS'ANDREWWW'
p1683
aS"hahah..it's funny :D"
p1684
aS'ANDREW!!'
p1685
aS'the rave thing just xDDDDDDDD sick'
p1686
aS'ANDREW!!!!!!!!!!!!!!!! '
p1687
aS'2:15. Freakin. Made. My. Day. :3'
p1688
aS"hahaha. i'd like to see you try."
p1689
aS'Andrew!!'
p1690
aS'Watching this makes me feel weird because my name is Andrew.'
p1691
aS'Hey what happened to the guy u used to do the how to be a ___________ with? '
p1692
aS'who here remembers that old video of nigahiga doing the whole moving shit \nwith your eyes thing?? way ago (:'
p1693
aS'Lol!'
p1694
aS'Who saw bromance while it was rewinding :P'
p1695
aS'dear ryan are u right handed or left handed???'
p1696
aS'LOL'
p1697
aS'Critics rave'
p1698
aS'ANDREW!!!!'
p1699
aS'Dear ryan can you make a movie in minutes about the hunger games'
p1700
aS'Shutup'
p1701
aS'FUUUUUUNNNNNNYYYY!!!!!!'
p1702
aS'waaaaaaaaaaaaaah baby ryan was sooooooooooooo cute 0.0'
p1703
aS"Please you guys I'm just starting my YouTube and have a few videos and if \nyou check out my account it would make me very happy thank you and god bless"
p1704
aS'I bet Andrew made 1,026 accounts to dislike this just because andrew Just \nhate Ryan and Chester now xD'
p1705
aS'ANDREW! '
p1706
aS'Love it! Great job! Hilarious!'
p1707
aS'ANDREW!!!'
p1708
aS'/watch?v=ksC4Y0oQcqo try this one'
p1709
aS'1:30 teehee...'
p1710
aS"why not? it would be funny. besides, if he doesn't like the idea, he \ndoesn't have to do it. it was a suggestion, jeez."
p1711
aS'THEY ON THE 13 FLOOR BAD LUCK THATS WHY THEY HAVE NO POWER'
p1712
aS'Enjoyable'
p1713
aS'I wanna make a Chronicle video'
p1714
aS'try another movie in miots'
p1715
aS"DEAR RYAN!! Can you do your take on the Facebook Memes?? And the 'Hey guys' \nor 'hey girls' pictures that are so 'popular' these days on facebook?? \nPRETTY PLEASE!"
p1716
aS'make another movies in minutes i said it before but it was bad spelling'
p1717
aS'Dear ryan,does andrew now hate u and chester'
p1718
aS'CHeck out my channel for the dandiest hopalong tunes yall have ever seen! \ngfhhkgh'
p1719
aS'make another movies in minutes and i did this before but it was bad spelling'
p1720
aS'Andrew!'
p1721
aS'dear ryan can you make a movies in minutes about the hunger games'
p1722
aS'who desliked this video?.... ANDREW'
p1723
aS'lmaoo this was really funny '
p1724
aS'Andrew'
p1725
aS"I couldn't stop laughing!! especially when ANDREW! looked into the camera!! "
p1726
aS'Funny, lmfao'
p1727
aS'awwwe baby ryan!!'
p1728
aS'Ok come on i love nigahiga we need to subscribe so ryan can be number one \ninsted of ray'
p1729
aS'IF anything goes wrong, IS ANDREW! fault...ANDREW!'
p1730
aS'who is holding holding the camera '
p1731
aS'funnyest video ever'
p1732
aS'The way Ryan says Andrew sounds like Ann drew'
p1733
aS'LMFAO hahah made my day. '
p1734
aS'i keep comeing up with things to say so... Dear Ryan, what would your life \nbe like if u were married to a lamp?'
p1735
aS'O.O ANDREW!!'
p1736
aS'Wait...ANDREW!'
p1737
aS'Dear Ryan, can u be all 5 members of One Direction? haha'
p1738
aS'Dear Ryan: can you be a model?'
p1739
aS'ER MER GERD BRUH >:O'
p1740
aS'LMFAO it literally is about Andrew.'
p1741
aS'1,017 dislikes? ANDREW!!! '
p1742
aS'2:18 is the best part ever xD'
p1743
aS'And drool'
p1744
aS'aaaaaaaaaaaaaw baby ryan at 2:16'
p1745
aS'my channel is kaibush. '
p1746
aS'WHAT THE FUCK! U R A MORON'
p1747
aS"CentsToRiches.blogspot.ca-This site changed my life, I used to be in a \nfinancial situation since I'm a model and only get paid every now and then \nwhen there's work. This site started teaching me how to earn a stable \nincome so I wouldn't be in such a mess. "
p1748
aS'andrewww!!!!'
p1749
aS'Andrew!(static) lol i luuuv that part lol i luv all of you ^^'
p1750
aS'1:30 -- teehee'
p1751
aS'Hahaha I loved this movie, and this was funny as hell..'
p1752
aS'hes changing'
p1753
aS'Andrew! Andrew! Andrew! SHUT UP!!!!!!! Ahahah best part of the video!!!'
p1754
aS'1,015 understand why price tag is rascist '
p1755
aS'Please do a hunger games parody!!!!!!!!'
p1756
aS'love movies in minuites'
p1757
aS'Ryan! you were so cute as a toddler!!!!!!!'
p1758
aS'Lol ANDREW!!'
p1759
aS'jbs be day!!!!!!!!!!'
p1760
aS'That was much better than the actual movie.'
p1761
aS'ANDREWWWW'
p1762
aS'ANDREW!'
p1763
aS'Over 1,000 dislikes? ANDREW!'
p1764
aS'check out my channel and read the comment'
p1765
aS'ANDREW!'
p1766
aS'Omg u are so amazing at special effects! and u i must say are one of the \nfunniest youtubers on here!'
p1767
aS'Never laughed so much'
p1768
aS'y would he waste his time with that'
p1769
aS"sorry what's that? 35 other people agree? yeah okay bye"
p1770
aS"I'm worried about andrew, he's changing lollllll"
p1771
aS"I don't have a top comment?...ANDREWW!!"
p1772
aS'Lool, hahaha, I love Ryan, he sure knows how to make awsome vids!! xD'
p1773
aS'at 0:07 the guy farts lol'
p1774
aS'The comment on the bloopers of this video....'
p1775
aS'Now I have Aanndrew stuck in my head over and over...'
p1776
aS'WHAT DID I DO DAMMIT'
p1777
aS'Only Andrew can keep a straight face thru all that. Awesome acting dude!'
p1778
aS'1:59 was it an accident, andrew?!? was it??? Hilariuos! '
p1779
aS'Lol too funny'
p1780
aS'omg this is like the nigahiga video he made a few years ago mind geek xD \nEPIC'
p1781
aS'omg i love the end '
p1782
aS'Dear Ryan can you pretend to be a cheerleader'
p1783
aS'Critics raveee :D Couldnt stop laughing ! i was in tears '
p1784
aS'Andrew!!!'
p1785
aS'ANDREW! haha lol'
p1786
aS'Abdrew!'
p1787
aS'this reminds me of his first video mind geek '
p1788
aS'these guys r idiots thats y they r cool '
p1789
aS'2:20 lol'
p1790
aS'wtf playlist'
p1791
aS'what comment? O.O'
p1792
aS'How come Chester always wear "nice" clothing.'
p1793
aS'that is basicly your first video '
p1794
aS'1:36 You made him go LEFT Andrew! lol '
p1795
aS'xD'
p1796
aS'stupiiiiiiiiiiiiid TEEHEE!'
p1797
aS"that's racist, dude. lol"
p1798
aS'DA BEST!'
p1799
aS'Andrew is AWESOME!!!!!!'
p1800
aS'LMFAAAOOOO'
p1801
aS'nice vedio men ps i can dance '
p1802
aS'0:05 wats racist plz tell me '
p1803
aS'Andreeeeeeeeew!!'
p1804
aS"What was his name again? I mean they said it a ton but I can't remember"
p1805
aS'everytime i still watch this video i still crack up laughing its so funny!!!'
p1806
aS'didnt you get that off the bloopers? '
p1807
aS"correction, steve said: yes, it's the black guy this time'"
p1808
aS'andddddrreeeeeeewwwwwwwwwww THIS IS AWESOME and funny it made me lmao'
p1809
aS'Andrewwwwwwwwwwww sums up the entire movie..'
p1810
aS'Chronicle was the best movie ever!'
p1811
aS'Yeah!'
p1812
aS'wait a second! <.< did you just steal the other guys comment.....DID YOU!?'
p1813
aS'1,004 dislikes?? andrew!!!!!!'
p1814
aS'LOL ANDREW '
p1815
aS'baaa den nomizw ahaha'
p1816
aS'2:21 funny !'
p1817
aS'You are the best Guys <3 '
p1818
aS'This was fucking amazing. xD'
p1819
aS'I think I saw nigahiga at the great mall :|'
p1820
aS'Best line from chronicle: "this time, the black guy did do it." best line \nfrom MIM chronicle: "this time, the Asian guy did do it."'
p1821
aS'youre such a cute kid as a baby!!!'
p1822
aS'Andrew!'
p1823
aS"you're videos are so much better now that the old ones(i just studied my \nEnglish lessons) jk"
p1824
aS'i bet people watching u record this was like "wtf.."'
p1825
aS'Cool!'
p1826
aS'anyone else noticed how the elevator went "TEE HEE!!"?'
p1827
aS'funny at 2:38 i was thinking the same excat thing...'
p1828
aS'Haha it is about andreww'
p1829
aS'OH. MY. LOL. Funniest thing evar! :D'
p1830
aS'STEEEVEEEN!'
p1831
aS'Anybody else notice that Andrew is Andrew Garcia from American Idol season \n9?'
p1832
aS'OMG little ryan is soo cute :) '
p1833
aS'Alright, who else does that kind of stuff all the time? =3'
p1834
aS'anrew ANDREW ANDREW ANDREW wait if ur there and hes there and andrewws here \nthen whos holdfing the camera ANDREW'
p1835
aS'Jay Park! ^__^'
p1836
aS'994 dislikes?! ANDREEEEW!!'
p1837
aS'Minefreak exept with static'
p1838
aS'Sooooo funny!!!! There are also these guys who made this video \nUnderstanding is Hard. Type it in and prepare to laugh!!'
p1839
aS'haha critics rave '
p1840
aS'critics rave that nigahiga is the best'
p1841
aS'I guess Andrew disliked this 994 times XD'
p1842
aS'chesters eyes 0:18'
p1843
aS'dear ryan can u be a football player? '
p1844
aS'Lol'
p1845
aS'Better Than watching Shane Dawson fail at singing.'
p1846
aS'awwwwwww! baby ryan!'
p1847
aS'Funny but weird ha ha'
p1848
aS'Do a Hunger Games MIM!'
p1849
aS'haw'
p1850
aS'This was like 100 times funnier after I saw the actual movie.'
p1851
aS'only if you check out mine! xD'
p1852
aS'This was the best movie I ever seen'
p1853
aS'ok i get sorry'
p1854
aS"There was 999 dislikes... I can't help my ocd D:"
p1855
aS'face it, nigahiga affects EVERYTHING!'
p1856
aS'BEST PART 1:47 EASY. LOL I CANT STOP LAUGHING.'
p1857
aS'makes the real movie look like sh!@% '
p1858
aS'andrew andrew andrew haha LOL'
p1859
aS'Good movie'
p1860
aS'ANDREEEEW!!'
p1861
aS"it's knida funny when ryan controls the car with people in it"
p1862
aS'Faaaaaggggggg'
p1863
aS'I watched tis video when it first came out but just realized today that \nAndrew is Andrew Garcia. '
p1864
aS'CUTE RYAN FTW!!!'
p1865
aS'Andrewwwww :-)'
p1866
aS'My favorite video. Cause Ryan said Andrew like a million times!'
p1867
aS'ANDREW '
p1868
aS'my name is andrew to'
p1869
aS'BABY NIGAHIGA!'
p1870
aS"noooooooooooooooooo really i didn't know "
p1871
aS'ANDREW!!!!'
p1872
aS'Haha vb ester is funny at the behgining'
p1873
aS'Dear Ryan: Do you like banannas? :D'
p1874
aS'i counted 32 '
p1875
aS'whoah! thats racist dude!'
p1876
aS'42 ANDREW!'
p1877
aS'hey guys sorry for the spam but i need views can you please check out my \nvideos and subscribe '
p1878
aS'AHAHAHHAHAHAHAHA'
p1879
aS'dayum that was so funny because i just saw the exact same trailer as an ad \nbefore the video started:DDDD'
p1880
aS'1:36 .....A-A-Andrew. Timing, Get it right.'
p1881
aS"i didn't even watch the movie, but i'm pretty sure this was better anyway"
p1882
aS'0:15 chester crosses his eyes'
p1883
aS'andrew!!'
p1884
aS'could u imigian what people thunk when they see him fillming his videos'
p1885
aS'People do have powers.... Like the power to learn nothing from this but \nstill being entertained. Loved it guys! Great work :)'
p1886
aS'Does Andrew sound like a weird name now? Andrew...'
p1887
aS'about 33 :)'
p1888
aS'SUP PEOPLE!! :) me and my friends have started a new channel making comedy \nvideos. If anyone who reads this please come check out our content. Thumbs \nup if you think others should see it too!'
p1889
aS'check out my videos'
p1890
aS'Welcome to Mind Geek '
p1891
aS'I cracked up. Funny as hell xD'
p1892
aS"It's like Ryan's first vid!!"
p1893
aS'stop being so funny! i cant do anything im laughing too much!'
p1894
aS'was it an accident andrew? ANDREW '
p1895
aS'"IT AIN\'T ABOUT THE CHA CHANG CHA CHANG" "WOAH DUDE THAT\'S RACIST" haha'
p1896
aS'yea i mean i LOVE a good action scene, i just didnt- ugh, ok me and my 2 \nbest friends were watching the movie together aaaand we all said the same \nthings at the end... "well THAT was a disapointment" and "that kinda \nsuck\'d" and "NNNOOOOO SSSSTEEEVE" and i bet u can guess who the third one \nwas XD anywayss im done with this conversation.. nice talkin to ya :D '
p1897
aS'about 28 to 30 times ;D '
p1898
aS'31'
p1899
aS'He said Andrew 30 Times ! ;o'
p1900
aS'ANDREW!!'
p1901
aS'ANDREW!!!!'
p1902
aS'Chester I mean'
p1903
aS'hey i was wondering if anyone would check out my channel and subscribe'
p1904
aS'Uh...drink every time they say "Andrew"?'
p1905
aS'lol! I <3 ur videos!!'
p1906
aS'2:20 !!! <3'
p1907
aS'28 hehe'
p1908
aS"He's SOOOOO cute when he was little!!!!"
p1909
aS'not 30 34 times'
p1910
aS'lol XD'
p1911
aS"I can't stop laughing XD"
p1912
aS'this video is hilarious.'
p1913
aS'What would you if you had a stalker ?'
p1914
aS'Andrew!!'
p1915
aS"Sure it was a little racist with only the white guys surviving, but that \ndoesn't mean it's a bad movie. And Sorry, I just got a little overexcited \nbecause Chronicle was amazing in my opinion. "
p1916
aS'racist??? i wasnt talking about that at all O_O ... and its ok XD i thought \nits was cool too but the closer it got towards the ending the more i \ndisliked it :/ i mean i was just disapointed thats all...like REALLY \ndisapointed...'
p1917
aS'so funny '
p1918
aS'HI RYAN HIGA FANS!!!! Want to see something funny/stupid?? Check out our \nchannel! We just made a new video called Morphsuit Biking. Also, please \nsubscribe. WE SUBSCRIBE BACK!!! Thanks so much:)'
p1919
aS'ANDREW!'
p1920
aS'oh sorry gosh i am sorry i ruined it. its just this vid is soo funny ok and \ni just randomly posted that comment to let ryan and chester and the other \nguy that they are funny.'
p1921
aS'your the hottest man in the world.'
p1922
aS"Because,then people expect and it's not funny! It wasn't for me."
p1923
aS"Ryan You're a funny little toddler"
p1924
aS'andrew andrew andrew andrew andrew wait if im here and andrews here and \nyour there then whos holding the camera then ANDREW HAHAHAH LIKE IT '
p1925
aS'ok TEEHEE killed me'
p1926
aS'LLLOOOOLL..Almost choked on my sunflower seeds when Chester was singing \nalong to Pricke Tag... "It \'aint about the Uh pff \nChuChangchuChang".."That\'s racist dude" x33'
p1927
aS'i have seen it, it is great'
p1928
aS'Andrew, andrew, andrew SHUT UP!!!!! '
p1929
aS'is it just me or did the elavator say teeeheee'
p1930
aS'That is pretty much the whole damn stupid ass movie... '
p1931
aS'it aint about the CHA CHA CHANG CHANG woah woah dude thats rasicst LOL '
p1932
aS'what the hell? this is soooooooooooooooo funny i dont even know what im \nwatching.'
p1933
aS'LOL'
p1934
aS'Critics "RAVE"'
p1935
aS'THE OLYMPICS ARE OVER QUIT SHOWING ME YOUR DAMN COMMERCIALS!'
p1936
aS'is that Ryan at 2:17 ?'
p1937
aS'Andrew!'
p1938
aS'hilarious...'
p1939
aS'i saw the real movie... it fuckin sucked.... no seriously it was the worst \nmovie i have ever seen in my life T_T your welcome'
p1940
aS'ANDREW!!!'
p1941
aS'what really??? '
p1942
aS'no'
p1943
aS'"If I\'m here and youre here and we\'re all here, whos holding the camera?" \n"ANDREW!" OMG laughed so hard at this xD'
p1944
aS'rock and roll ryan , rock and roll '
p1945
aS'-doesnt do it-'
p1946
aS'were such a cute baby ryan'
p1947
aS'ANDREWWW LOL'
p1948
aS'i actually liked chronicle....thats kinda what makes this funny to me...and \nthe fact that nigahiga is hilarious '
p1949
aS'Fuck you, Chronicle was fucking amazing.'
p1950
aS'lol 2:03'
p1951
aS'Da faq'
p1952
aS'Like if you see the real movie :D '
p1953
aS'b-but-but.. steve died :( i liked steve.... and hold up there is no need to \ncurse at me! i wasnt cursing at you, i was just givin my oppinion... BUT \nTHIS VIDEO WAS HILARIOUS XD'
p1954
aS'hahahahahah dude i grew up watching u and u alwaays make me happy '
p1955
aS'That movie was amazing'
p1956
aS'This movie is gay.'
p1957
aS'Baby Ryan is sooo cute!! =)'
p1958
aS"ahahahahaahahah i'm laughing ahahahah"
p1959
asS'time'
p1960
ctime
struct_time
p1961
((I2012
I3
I1
I20
I27
I29
I3
I61
I-1
t(dtRp1962
sS'id'
p1963
Vw7i80TwYVGo
p1964
s.