(dp1
S'title'
p2
VGTFO My Room! (Official Music Video)
p3
sS'url'
p4
Vhttp://www.youtube.com/watch?v=wAm-JD-EXL4&feature=youtube_gdata_player
p5
sS'image'
p6
Vhttp://i.ytimg.com/vi/wAm-JD-EXL4/0.jpg
p7
sS'comments'
p8
(lp9
S'The other music videos are better than this...\xef\xbb\xbf'
p10
aS'three days grace on the wall at 2:11! like if u love three days grace!\xef\xbb\xbf'
p11
aS'why is his head so big .-.\xef\xbb\xbf'
p12
aS'I guess im not the only guy that hates his family\xef\xbb\xbf'
p13
aS'haha get the fuck out of my room!\xef\xbb\xbf'
p14
aS'Ive gotta be honest ryan...... YOURE THE BEST SINGER ON YOUTUBE AND YOULL \nALWAYS WILL BE!!!!! to me \xf0\x9f\x98\x8a\xef\xbb\xbf'
p15
aS'How does one hate a dog? \xef\xbb\xbf'
p16
aS'What genre of music is this?\xef\xbb\xbf'
p17
aS"Guys start a lyric chain\n\nMom, why'd you my room\xef\xbb\xbf"
p18
aS'Is that really your mom and dad? I know I can watch the turkey challenge \nthing but I just want to know from here... D\xef\xbb\xbf'
p19
aS'wait r u guys sure those rnt his real parents because they sure do look \nlike him(he looks like them)\xef\xbb\xbf'
p20
aS'Ya they r his real parents\xef\xbb\xbf'
p21
aS'who else thought of George Lopez when they saw young Ryan?\xef\xbb\xbf'
p22
aS'is that actually his dad?\xef\xbb\xbf'
p23
aS'He looked like something Japan would have made in their cartoons\xef\xbb\xbf'
p24
aS'If this was an actual song without the funny lyrics it would sound AWESOME \nbut I freaking love this song!!\xef\xbb\xbf'
p25
aS"Ryan with that eye make up looks totally like how I imagine Magnus Bane. \nNow I'm fangirling out loud\xef\xbb\xbf"
p26
aS"This song is actually not bad :D it's funny but why making fun of pop punk?\xef\xbb\xbf"
p27
aS'3:28 Oh my god XD I totally cracked up at this\xef\xbb\xbf'
p28
aS'*LOL!*\xef\xbb\xbf'
p29
aS'Wtf? Great way to thank those who brought u in this world.. woahh. This is \nthe shitiest song..dude u can never pay the loan of their love even in your \n7 lives \xef\xbb\xbf'
p30
aS'I cant get over how accurate this is, if you dont listen to the lyrics it \nsounds just like a generic my chemical romance song\xef\xbb\xbf'
p31
aS'Lol\xef\xbb\xbf'
p32
aS'#firstworldproblems\xef\xbb\xbf'
p33
aS"I can't remember seeing anything so funny- XDD\xef\xbb\xbf"
p34
aS'I think I got to the weird side of YouTube again\xef\xbb\xbf'
p35
aS'Sharky inferno ur not the only one that hates ur family\xef\xbb\xbf'
p36
aS'His dad looks like Hannibal Lecter.\xef\xbb\xbf'
p37
aS'This deserves more views than 4m.. prolly deserves more than gangnam style \nshit, but oh well, ppl are dumb xD\xef\xbb\xbf'
p38
aS'3.26 suprise bitch\xef\xbb\xbf'
p39
aS"Why there isn't Chester in his videos anymore?\xef\xbb\xbf"
p40
aS'Did anyone notice at the beginning, beside his picture it said something \nabout a boyfriend? "My favorite memories were all the time I spent with my \nboyfriend Trung. This one time we were at lunch and I threw a carrot at \nhim; he chased me around school for 15 minutes. It was like elementary \nschool all over again." I\'m seriously dying. \xef\xbb\xbf'
p41
aS'Lol\xef\xbb\xbf'
p42
aS'I wish my dad was proud of me...\xef\xbb\xbf'
p43
aS'He looks something like Gaara*....?\n\n*NARUTO\xef\xbb\xbf'
p44
aS"every time when I'm sad I'm watchin this hahaha ryan you're the best thanks\xef\xbb\xbf"
p45
aS'Wtf xD\xef\xbb\xbf'
p46
aS'never been like that\xef\xbb\xbf'
p47
aS"LOL whenever my friends ask me why I don't like Black Veils Brides or \nPierce the Veil I think of this video .-.\xef\xbb\xbf"
p48
aS'ryan you look handsome with the emo style thingy\xef\xbb\xbf'
p49
aS'And worse still your dog...\xef\xbb\xbf'
p50
aS"CAN YOU PLEASE MAKE MORE MUSIC VIDEOS i absolutely loved \nbromance,niceguys,goodboy,hardcore and GTFO they're really AWESOME !!! .. \nplease please please !!\xef\xbb\xbf"
p51
aS'I dont think i would be that mad if my mom cleaned my room\xef\xbb\xbf'
p52
aS'perfect example of all emos\xef\xbb\xbf'
p53
aS'Omg mcr on the wall at 2:11\xef\xbb\xbf'
p54
aS'hope he makes more in the future the production here was excellent and cant \nwait to see what Ryan does next\xef\xbb\xbf'
p55
aS'Andy looks like The Rev\xef\xbb\xbf'
p56
aS'For me this is the EMO SONG \xef\xbb\xbf'
p57
aS'The mom fcking looks like MyChonny XD\xef\xbb\xbf'
p58
aS'MCR ON THE WALL AT 2:11\xef\xbb\xbf'
p59
aS'andrew omfg O_O\xef\xbb\xbf'
p60
aS'Dear Ryan can you do a video where you act like Emporio Ivankov from One \npiece \xef\xbb\xbf'
p61
aS"It's a pretty good song\xef\xbb\xbf"
p62
aS'his mom looks like jackie chan with a wig....\xef\xbb\xbf'
p63
aS'Ryan is a good singer\xef\xbb\xbf'
p64
aS"I play this music whenever i'm mad at my parents and it makes me feel \nbetter :3\xef\xbb\xbf"
p65
aS'3:25\xef\xbb\xbf'
p66
aS'Haha!\xef\xbb\xbf'
p67
aS'Nice song\xef\xbb\xbf'
p68
aS'this seriously is an awesome song! the tune is something that would be in \nAMERICAN PIE\xef\xbb\xbf'
p69
aS'Awsome song love it so much\xef\xbb\xbf'
p70
aS"What a cruel toaster ! Even i wouldn't burn someones toast :(\xef\xbb\xbf"
p71
aS'Wow this is so punk\xef\xbb\xbf'
p72
aS'pop punk as shit\xef\xbb\xbf'
p73
aS'I keep replaying this song!!!! Its my #1 fave!!!!\xef\xbb\xbf'
p74
aS'Reminds me of... Dirtgirl World...\xef\xbb\xbf'
p75
aS'This is better than so many music videos nowadays OMG \xef\xbb\xbf'
p76
aS'Ryan is hot as an emo rockstar XD\xef\xbb\xbf'
p77
aS'How did you get the dog to poop in the shoe? \xef\xbb\xbf'
p78
aS'At 3:27 is funny\n\xef\xbb\xbf'
p79
aS"wtf I'l gtfo right now\xef\xbb\xbf"
p80
aS"This song is my life if u take away the part when it says he loves his \nfamily and instead of poetry I write parodies and I'm also not emo\xef\xbb\xbf"
p81
aS'The song is actually really good :)\xef\xbb\xbf'
p82
aS'What are the four chords played on the guitar?\xef\xbb\xbf'
p83
aS'LAST COMMENT! YES!\xef\xbb\xbf'
p84
aS'What did your parents say when they saw this???\xef\xbb\xbf'
p85
aS'I love this so much\xef\xbb\xbf'
p86
aS'I actually love this song...\xf0\x9f\x98\x8b\xef\xbb\xbf'
p87
aS"There needs to be more of this. You're music videos are the greatest. \nAlways so creative <3\xef\xbb\xbf"
p88
aS'Dem editing skills do\xef\xbb\xbf'
p89
aS'is this a parody?\xef\xbb\xbf'
p90
aS'I love you\xef\xbb\xbf'
p91
aS'ur the best u r soo funny !u make my day!thanks!\xef\xbb\xbf'
p92
aS'Little Ryan has a big ass head LOL:-) \xef\xbb\xbf'
p93
aS"But Ryan u wouldn't even have a life if it wasn't for them\xef\xbb\xbf"
p94
aS'I love your big head ryan\xef\xbb\xbf'
p95
aS'2:37 green day poster\xef\xbb\xbf'
p96
aS'nice CGI\xef\xbb\xbf'
p97
aS'Hi\xef\xbb\xbf'
p98
aS'Omg I love! all your music videos crack me up. \xef\xbb\xbf'
p99
aS'Favorite part 3;25\xef\xbb\xbf'
p100
aS'looks like a good Charlotte video lol\xef\xbb\xbf'
p101
aS'Was this song completely made up or was there a sort of tune from another \nsong?\xef\xbb\xbf'
p102
aS'dude i just noticed that they didnt have any instruments\xef\xbb\xbf'
p103
aS'"im so emo i wanna cry" ryan higa 2014\xef\xbb\xbf'
p104
aS'Aweesomeee\xef\xbb\xbf'
p105
aS'He does not want black toast? OMFG RACIST!!!!\xef\xbb\xbf'
p106
aS'I wish my mom cleand my room\xef\xbb\xbf'
p107
aS'I thought of George Lopez when I saw Ryan\n\xef\xbb\xbf'
p108
aS'truth is, ryan looks very handsome \xef\xbb\xbf'
p109
aS'play this song w/ speed @ 1.5\xef\xbb\xbf'
p110
aS"What if i told you those instruments aren't real?........WHAT THE FU** 0_o\xef\xbb\xbf"
p111
aS'Am I allowed to hate my dad if he stoled over 3500\xe2\x82\xac from my bank account \nwhen I started saving money as a 6 year od?\xef\xbb\xbf'
p112
aS'transexual mom? just asking.\xef\xbb\xbf'
p113
aS'How did u right this without laughing like really u never showed ur self \nlike this.\xef\xbb\xbf'
p114
aNaS'Lik if u cry evry Tim\xef\xbb\xbf'
p115
aS'deep shit\xef\xbb\xbf'
p116
aS'10/10 would relate \xef\xbb\xbf'
p117
aS'i love you but.. GET THE F*CK OUT IN MY ROOM XD\xef\xbb\xbf'
p118
aS'really deep lyrics :(\xef\xbb\xbf'
p119
aS'Lol that was pretty good\xef\xbb\xbf'
p120
aS'this is offensive to emos\xef\xbb\xbf'
p121
aS'2:38 nice!!\xef\xbb\xbf'
p122
aS'In the voiceover at the end he sounds like Chris from Family Guy. \xef\xbb\xbf'
p123
aS'Reminds me of his "How to be Emo" Vid :)\n\nROCK AND ROLL!!\xef\xbb\xbf'
p124
aS'Everytime i listen to this music I feel something different its like my \nheart beats so fast and I remember my crush...\xef\xbb\xbf'
p125
aS'i used to try to sing but then my voice went all crokey and i just gave up \nlik if u cri evr tim\xef\xbb\xbf'
p126
aS'3:30 XD\xef\xbb\xbf'
p127
aS'Love the song hahaha XD \xef\xbb\xbf'
p128
aS'why does this song seem so cool\xef\xbb\xbf'
p129
aS'GREENDAY I SAW IT :D\xef\xbb\xbf'
p130
aS"Mom\nWhy did you clean my room\nIt was fine the way it was\nI\xe2\x80\x99m really mad at you\n\nDad\nI don\xe2\x80\x99t want to play ball\nEven if you are the coach\nI just don't care at all\n\nMom\nWhy did you clean my room\nI\xe2\x80\x99m so mad at you\nSo mad at you\n\nDad\nYou ruined my life\nEverything I do is never right\n\nDog\nWhy did you poo in my shoe\nI\xe2\x80\x99m really really really really mad at you\n\nToaster\nWhy did you burn my toast\nI didn\xe2\x80\x99t want black toast\nI didn\xe2\x80\x99t want black toast\nDidn\xe2\x80\x99t want black toast\n\nMom\nGet out of my room\nGet out of my room\nI hate it when you tell me what to do\nYou're not the boss of me\n\nDad\nCan\xe2\x80\x99t you be proud of me\nEven though you caught me wearing mom\xe2\x80\x99s eyeliner\nIt brings out my eyes\n\nI\nFeel the darkness deep inside\nMy soul speaks to my mind\nMy heart cries with my eyes\n\nI\nLove to write my poetry\nYou wont know what it means\nBut that\xe2\x80\x99s what makes it deep\n\nI hate my mom\nI hate my dad\nI hate my dog\nI hate my cat\nI hate everything and they hate me\n\nMom\nI know you want the best for me\nI\xe2\x80\x99m sorry girl I was being so mean\nAnd dad I\xe2\x80\x99m sorry too\nBut there is one last thing I have to say to both of you\nI love but\nGet the fuck out of my room\nGet me out of my room\nI\xe2\x80\x99m still freaking mad at you\nYou ruined my life\nAnd nothing seems right to you\n\nI hate my mom\nI hate my dad\nI hate my dog\nI hate my cat\nI hate everything and they hate me\n\nI hate the spoon that falls into my cereal\nAnd the toilet seat when I poo and its too cold\nI hate everything and they hate me\xef\xbb\xbf"
p131
aS';D when hes young hes got a big head in this animation!\xef\xbb\xbf'
p132
aS'NO, THEY ARE NOT HIS REAL PARENTS! (for those who are wondering)\xef\xbb\xbf'
p133
aS'I was watching this when my mom and dad came into my room and I love them \nbut.......\nGET OUT OF ROOM !!!!!!!! (Que parents getting blasted in the living room\xef\xbb\xbf'
p134
aS'why does the the tune when he sings "spoon falls into my cereal" sound so \nfamiliar? is it from another song?\xef\xbb\xbf'
p135
aS'I want to see more videos like this!\xef\xbb\xbf'
p136
aS'What type of music id this i looooove it but dont know whst genre it is\xef\xbb\xbf'
p137
aS' U ripped up a green day poster\xf0\x9f\x98\xad\xf0\x9f\x98\xad\xf0\x9f\x98\x82\xef\xbb\xbf'
p138
aS'I just found your video today. I think you are so talented! Thank you for \nmaking me laugh\xef\xbb\xbf'
p139
aS'But.....i actually really like this song. I wish they would make a serious \nversion\xef\xbb\xbf'
p140
aS'Is that your real mom and dad?\xef\xbb\xbf'
p141
aS'I love you......but......GET THE F*** OUT OF MY ROOM! LOL!\xef\xbb\xbf'
p142
aS'By the way Pretty Dang Cool song Ryan x3\xef\xbb\xbf'
p143
aS'I didn\'t want "black" toast ...\xef\xbb\xbf'
p144
aS"wow now that song's stuck in my head\xef\xbb\xbf"
p145
aS'I wish my mom would clean my room\xef\xbb\xbf'
p146
aS'I love how when he says GTFO of my room and it goes to the window view it \nshows him in his makeup when it wasnt on before\xef\xbb\xbf'
p147
aS'oh my goddddddddd ryan is so hot with makeup O-O\xef\xbb\xbf'
p148
aS'what a jpop song :D omg! lol!\xef\xbb\xbf'
p149
aS'it kinda relates to me.hehe.I hate it when my dog poops on my shoe and the \ntoilet seat when its too cold hehe\xef\xbb\xbf'
p150
aS"i didnt really like this song compared to he's other ones..\xef\xbb\xbf"
p151
aS"Dear Ryan:Can you make a cover of 'Fix You' by COLDPLAY\xef\xbb\xbf"
p152
aS'this is my least favourite nigahiga song (NOT HATING IT YO)... lo\xef\xbb\xbf'
p153
aS'GET THE FUCK OUT My Room LML\xef\xbb\xbf'
p154
aS'what does GTFO stand for?\xef\xbb\xbf'
p155
aS'"It brings out my eyes" lol\xef\xbb\xbf'
p156
aS'What a twist @ 3:01 but it was kinda expected\xef\xbb\xbf'
p157
aS'dear ryan can you show a video including your parents?\xef\xbb\xbf'
p158
aS'this is cool !\xef\xbb\xbf'
p159
aS'Typical life of an Asian huh\xef\xbb\xbf'
p160
aS'Lol, Ryan\'s so racist. "I didn\'t want black toast"\xef\xbb\xbf'
p161
aS'" I didn\'t want black toast" RACIST \xef\xbb\xbf'
p162
aS'this is actually really good and the band posters made my life, man.\xef\xbb\xbf'
p163
aS'"I didn\'t want black toast "\nWe\'ll that was racist XD\xef\xbb\xbf'
p164
aS'Actually emo music use to exist until the renamed it post-hardcore.\xef\xbb\xbf'
p165
aS'Littereally BEST SONG EVER. IMPORTANT PART IN THE HISTORY OF MUSIC, \nCHILDREN. \xef\xbb\xbf'
p166
aS'Hahaha this is my theme song XD\xef\xbb\xbf'
p167
aS'Ironically, this song makes me ridiculously happy. xD\xef\xbb\xbf'
p168
aS'1st world problems in a nutshell\xef\xbb\xbf'
p169
aS"How'd you get the dog to poop in the shoe?\xef\xbb\xbf"
p170
aS'That was actually really catchy\xef\xbb\xbf'
p171
aS'my chemical romance in the background at 2:11 <3\xef\xbb\xbf'
p172
aS'You are so cute hot stuff\xef\xbb\xbf'
p173
aS'Bobble head Ryan is so cute\xef\xbb\xbf'
p174
aS'this song sucks big hairy black long wrinkly dick!!\xef\xbb\xbf'
p175
aS"Haha Ryan love this song actually. You're really good at singing or auto \ntune XD \xef\xbb\xbf"
p176
aS"Looks like I've found the deep web\n\xef\xbb\xbf"
p177
aS'that sound pretty emo\xef\xbb\xbf'
p178
aS'Andrew Garcia is really good at singing!\xef\xbb\xbf'
p179
aS'this is Green Day, Red Jump Suit Apparatus and all my fav type of rock \ngenre right here, with my fav youtuber. *slow claps*\xef\xbb\xbf'
p180
aS'i just noticed their playing guitar and drum drawings\xef\xbb\xbf'
p181
aS'Apparently toasters are the new cats. \xef\xbb\xbf'
p182
aS'AJAJJAJA....WTF!!!....That was cool XD\xef\xbb\xbf'
p183
aS'nice song ^_^\xef\xbb\xbf'
p184
aS'"I hate my cat!"\n*shows toaster\xef\xbb\xbf'
p185
aS'lool It`s actually quite a good song \xef\xbb\xbf'
p186
aS"If you guys are wondering about the people who played Ryan's parents IS NOT \nREAL. Ryan's parent is in Hawaii.\xef\xbb\xbf"
p187
aS'Omg how to be emo.\xef\xbb\xbf'
p188
aS'Speechless and in love.\xef\xbb\xbf'
p189
aS'damn the dads hot.\xef\xbb\xbf'
p190
aS'Emo Ryan is Hawt xD\xef\xbb\xbf'
p191
aS'emo fuck-trash...\xef\xbb\xbf'
p192
aS"I don't want black toast seems slightly racist......\xef\xbb\xbf"
p193
aS'emo song \xef\xbb\xbf'
p194
aS"Lol story of every teen's life.\xef\xbb\xbf"
p195
aS'Andrew and Andy are rocking the invisible instruments haha. Andrews voice \nis rock and roll gosh and Andy looks so good in emo... \xef\xbb\xbf'
p196
aS'ICANT stop laughing at his head on the little body\xef\xbb\xbf'
p197
aS'Haha creative\xef\xbb\xbf'
p198
aS'its so accurate. why thow?\xef\xbb\xbf'
p199
aS'love the song xD\xef\xbb\xbf'
p200
aS'You look like Monte Money with his short hair! :D\xef\xbb\xbf'
p201
aS'Oh my gosh. This sooo how I felt back when I was 13 xD\xef\xbb\xbf'
p202
aS'The toilet seat part!!!!!\n\xef\xbb\xbf'
p203
aS'This is an Awesome deep Sh\xe2\x80\xa2t Right here (Y)\xef\xbb\xbf'
p204
aS"I love u.. But GET THE FUCK OUT OF MY ROOM!!!!! God damn that's funny\xef\xbb\xbf"
p205
aS' #ThanksAutotune  \xef\xbb\xbf'
p206
aS'Loved it \xef\xbb\xbf'
p207
aS"And that's what happened if boys got periods\xef\xbb\xbf"
p208
aS'I know the lyrics are funny and all, but this is a really good song *_* \xef\xbb\xbf'
p209
aS'I like where it says in the yearbook, "my favorite memories were all the \ntimes i spent with my boyfriend Trung. THis one time we were at lunch amd i \nthrew a carrot at him and he chased me for like 15 minutes"\xef\xbb\xbf'
p210
aS'it is get the people out my room?\xef\xbb\xbf'
p211
aS'the story of my teenage life\xef\xbb\xbf'
p212
aS'This good !\xef\xbb\xbf'
p213
aS'So I actually shazamed this and it said rayan hiha gtfo my room lol\xef\xbb\xbf'
p214
aS'In the yearbook his favorite memoryxD \xef\xbb\xbf'
p215
aS"Is this like a remake of Simple Plan's Perfect\xef\xbb\xbf"
p216
aS'THIS SONG IS AWESOME!!!!!\xef\xbb\xbf'
p217
aS"I can't be the only one who thought he sounded like Chris when he did the \noutro right?\xef\xbb\xbf"
p218
aS'Why does this only have 3 mil views? This is easily his best song.\xef\xbb\xbf'
p219
aS'IS IT STRANGE THAT I WANT TO BUY THIS SONG AND LISTEN TO IT FOREVER...?\xef\xbb\xbf'
p220
aS'u sux\xef\xbb\xbf'
p221
aS'Their not his real parents, read the credits!\xef\xbb\xbf'
p222
aS'hi\xef\xbb\xbf'
p223
aS'Lol\xef\xbb\xbf'
p224
aS'Omfg I love this song and Ryan looks hot even emo\xef\xbb\xbf'
p225
aS'How did he get his dog to actually poop in his shoe,like aim and fire?\xef\xbb\xbf'
p226
aS"Who else noticed that he really isn't playing a drum kit? \xef\xbb\xbf"
p227
aS'The big head effect reminds me of the flashbacks of George Lopez as a kid \nfrom the show.\xef\xbb\xbf'
p228
aS'Hahaha\xef\xbb\xbf'
p229
aS'Look at the description on the right of his picture. lol\xef\xbb\xbf'
p230
aNaS'Woaaahhh so deep\xef\xbb\xbf'
p231
aS'i listen to it sooooooooooooooooooooo many times\xef\xbb\xbf'
p232
aS'Not cool\xef\xbb\xbf'
p233
aS'I GOT A CAT YO\xef\xbb\xbf'
p234
aS"i don't think so\xef\xbb\xbf"
p235
aS'This is so wonderful\xef\xbb\xbf'
p236
aS'Still better than anaconda\xef\xbb\xbf'
p237
aS'No offence but you look terrible with eyeliner\xef\xbb\xbf'
p238
aS"Ryan's actually a good singer...\xef\xbb\xbf"
p239
aS'Ha funny but...actually a good song\xf0\x9f\x98\x82\xe2\x98\xba\xef\xb8\x8f\xef\xbb\xbf'
p240
aS"Best music video i've ever seen LOL\xef\xbb\xbf"
p241
aS'Lol this is for emos cx \n\xef\xbb\xbf'
p242
aS'That was like... the most emo thing I have like... ever seen.\xef\xbb\xbf'
p243
aS'Even though this song is a joke, it is actually pretty decent! XD\xef\xbb\xbf'
p244
aS'That sad moment when Ryan did his make up better then I can ever do....\xef\xbb\xbf'
p245
aS'reminds me of good charlotte\xef\xbb\xbf'
p246
aS"probably the best song i've ver heard XD\xef\xbb\xbf"
p247
aS'Looks and sounds like a Fall out Boy parody\xef\xbb\xbf'
p248
aS'First world problems\xef\xbb\xbf'
p249
aS'Best rock video ever\xef\xbb\xbf'
p250
aS'at 0.21 "my favorite memories were all of the times I spent with my \nboyfriend we were at lunch and I threw a carrot at him he chased me around \nthe school for 15 minutes it was like elementary school all over again."\xef\xbb\xbf'
p251
aS'Its still so good!! cant get it out of my head.\xef\xbb\xbf'
p252
aS"Can I use the tune for my music, I'm a song writer and I love the tune. I \nwon't take the lyrics\xef\xbb\xbf"
p253
aS'Grammy potential right here! XD\xef\xbb\xbf'
p254
aS'am i the only 1 who thinks that ryan looks sexy with dark eyeshadow?\xef\xbb\xbf'
p255
aS"I thought you would've yelled at your friends but ok.....\xef\xbb\xbf"
p256
aS'This would be so awesome with real lyrics. As it is though its hilarious!\xef\xbb\xbf'
p257
aS'THIS IS THE BEST SONG EVER\xef\xbb\xbf'
p258
aS"woah like i swear at least 3 mcr posters in this video..the only reason i \nrecognized them was bc of ray toros 'fro... XD\xef\xbb\xbf"
p259
aS'Who did the makeup and hair? It makes Ryan look hot!\xef\xbb\xbf'
p260
aS'DIE EMO SCUM\xef\xbb\xbf'
p261
aS"That's really his dad ???! \xef\xbb\xbf"
p262
aS'change the speed at 2\xef\xbb\xbf'
p263
aS'Are those his actual parents?\xef\xbb\xbf'
p264
aS'The other names in the year book are Vietnamese. :D Michael is my cousin"s \nname.\nXD\xef\xbb\xbf'
p265
aS"I understand, bro. My mom cleaned my room and she threw away the moldy \nsandwich that I had been growing underneath my bed :'( \xef\xbb\xbf"
p266
aS'the singing was actually really good though\xef\xbb\xbf'
p267
aS'Reminds me of Adam Lambert! The looks, the eyes!\xef\xbb\xbf'
p268
aS'Dear Ryan: hey is dat your real parents?\xef\xbb\xbf'
p269
aS'i actaully bought this song .*. i really liked it .*.\xef\xbb\xbf'
p270
aS'This song is fucking amazing\xef\xbb\xbf'
p271
aS'Vids*\xef\xbb\xbf'
p272
aS'BEST ENDING EVER\xef\xbb\xbf'
p273
aS'this band saved my life #respect  \xef\xbb\xbf'
p274
aS'Gtfo-get the f*** out\xef\xbb\xbf'
p275
aS'Damn... Ryan looks pretty good in eyeliner. Anyone else agree?\xef\xbb\xbf'
p276
aS'Amazing\n\xef\xbb\xbf'
p277
aS'this is such a good song!! xD\xef\xbb\xbf'
p278
aS"The beginning sounds exactly like 'Whats My Age Again?' by Blink-182 cx\nAm I the only one who realized this?\xef\xbb\xbf"
p279
aS"Lol. I love the rhythm and everything but the lyrics are just pretty random \nto me. LOLLLL. It's awesome though. ^^\xef\xbb\xbf"
p280
aS'o.O he looks like Lee Hong Ki of F.T. Island\xef\xbb\xbf'
p281
aS'shit this is actually good\xef\xbb\xbf'
p282
aS'dumb question: are they his real parents?\xef\xbb\xbf'
p283
aS'Lol I want to hear more of you guys in this style. :D!\xef\xbb\xbf'
p284
aS'Probably the meaningfull of every emo song out there\xef\xbb\xbf'
p285
aS'GTFO stands for get the f triple astro out\xef\xbb\xbf'
p286
aS'I think my genre of music just got the piss taken out of it in the greatest \nway ever! I love it!\xef\xbb\xbf'
p287
aS'This was actually a good song. Even tho the lyrics were out there, it was \nstill good.\xef\xbb\xbf'
p288
aS"Ryan....!!! Dear Ryan...!! Can you make a version of this song with serious \nlyrics like 2:11-2:15 and put a download link for the mp3?! \nPlease.....!!!!!!!!!!!!!! The beat is so good....!!! Can't believe 6 \nmonth's and only 3mil views....!!! Bunny eating raspberries has 13 mil. \nPlease make a real song...!!! This doesn't need humor to be a hit! !!! \n\nTy. :)!!\xef\xbb\xbf"
p289
aS'You look like a girl with the makeup\xef\xbb\xbf'
p290
aS'So... The toaster was the cat, am i right?\xef\xbb\xbf'
p291
aS'Dear Ryan, I LOOOOVE WHAT YOU DO! but just hope once your Mommy SPANK YOU! \nLOL just speaking my mind :)\xef\xbb\xbf'
p292
aS"Definitely didn't learn all the lyrics ._.\xef\xbb\xbf"
p293
aS'Now this is the 50 time i have watched this and bromance. YOU ARE THE BEST \nRYAN!!!!!!!!\xef\xbb\xbf'
p294
aS'Ryan looks nice in that smoky eye \xf0\x9f\x92\x95\xef\xbb\xbf'
p295
aS'They kind of sound like MEST haha\xef\xbb\xbf'
p296
aS'This is simply too much of a perfect teenager-song\xef\xbb\xbf'
p297
aS'wow\nmuch emo\nsuch room\nso yearbook\nwow\xef\xbb\xbf'
p298
aS'@nigahiga this is such a cool music video i love the ending so funny\xef\xbb\xbf'
p299
aS'Omg this was heart touching\xef\xbb\xbf'
p300
aS'I love the video\n\xef\xbb\xbf'
p301
aS'Wow so popular two youtubers comment\xef\xbb\xbf'
p302
aS'Get The F**k Out my room? Wut\xef\xbb\xbf'
p303
aS'hahaha\xef\xbb\xbf'
p304
aS'Loved it \xef\xbb\xbf'
p305
aS'Best music video EVARRRRRR!!!! Nuff said\xef\xbb\xbf'
p306
aS"I'm downloading this on iTunes if they have it\xef\xbb\xbf"
p307
aS'Man, tis song is actually in iTunes\xef\xbb\xbf'
p308
aS'Their acctually really good\xef\xbb\xbf'
p309
aS"GOOTAA LOVE RYAN'S CHOICE OF MAKE UP...\xef\xbb\xbf"
p310
aS"Andrew's voice! It's so pweety (pretty)\nRyan's and Andy's too\xef\xbb\xbf"
p311
aS'is it bad that i still listen to this?\xef\xbb\xbf'
p312
aS'Uhg, racist to toast.\xef\xbb\xbf'
p313
aS'change the lyrics make it a little happier and BAM! You got a hit song.\xef\xbb\xbf'
p314
aS'Lol you look hot in eyeliner :3\xef\xbb\xbf'
p315
aS'GTFO my chat\xef\xbb\xbf'
p316
aS'Thia deserves more views. \xef\xbb\xbf'
p317
aS'join a band Ryan\xef\xbb\xbf'
p318
aS'cant stop singing this song \xef\xbb\xbf'
p319
aS'The mom is her mom in real life but not the dad\xef\xbb\xbf'
p320
aS'i like when my room is tidy... am i a nerd now?\xef\xbb\xbf'
p321
aS'its stupid and funny but its also catchy at the same time amazing !!!!!\xef\xbb\xbf'
p322
aS'My Gosh Ryan is SO Emo in these Video\xef\xbb\xbf'
p323
aS'so this is like the tenth time ive came back just to watch this video!\xef\xbb\xbf'
p324
aS"You know what I'm gonna go rewatch all his how to be videos\xef\xbb\xbf"
p325
aS'DILF!\xef\xbb\xbf'
p326
aS'MAKE HIM ON AMERICAN IDOL DO IT DO IT,! Lol jk\xef\xbb\xbf'
p327
aS'waaaaiit. This time his song really is on itunes!!! wow, cool!\xef\xbb\xbf'
p328
aS'too loud\xef\xbb\xbf'
p329
aS'Sounds like simple plan\xef\xbb\xbf'
p330
aS'Im pretty sure there his parents\xef\xbb\xbf'
p331
aS"Tiny bit pessimistic isn't it!!!\xef\xbb\xbf"
p332
aS'I really LOVE this song\xef\xbb\xbf'
p333
aS'were those his real parents?\xef\xbb\xbf'
p334
aS'Best fucking song ever \xef\xbb\xbf'
p335
aS'Dude I Honestly Love Your Videos Keep On Doing What Your Doing Dude. Cx \nEspecially This Song.!(:\xef\xbb\xbf'
p336
aS'3.31 LOL BUT...GET THE F--K OUT MY ROOM!!!\xef\xbb\xbf'
p337
aS'No\xef\xbb\xbf'
p338
aS"I'm not sure whether to laugh or cry and cringe bc this was me in 8th grade \nand I feel this on a spiritual level.\xef\xbb\xbf"
p339
aS"i always sing this song when i mad at my parents ..... they don't know \nEnglish ....and it's make me laught and comfortable....  hahahaha\xef\xbb\xbf"
p340
aS'I love this video. I think like that sometimes but I clean my own \nroom....lol\xef\xbb\xbf'
p341
aS'#FWP\xef\xbb\xbf'
p342
aS'THIS CAME OUT AFTER MY BIRTHDAY!!! XD\xef\xbb\xbf'
p343
aS'Why are your parents white?\xef\xbb\xbf'
p344
aS'This is actually surprisingly catchy\xef\xbb\xbf'
p345
aS'love this song\xef\xbb\xbf'
p346
aS'somehow it just attracted me so much!\xef\xbb\xbf'
p347
aS"Technically speaking, it's a reallr great song :) love the vocals and the \nbackground music XD\nThe lyrics...are awesome tooXD\nYou rock! Hope you make more music vids haha CD\xef\xbb\xbf"
p348
aS'Just because he said "black toast" doesn\'t mean he\'s racist :/ ...I have a \nblack eyeliner does that make me racist. c:\xef\xbb\xbf'
p349
aS'Omigosh (^_^) This is my jam ,very catchy\xef\xbb\xbf'
p350
aS'It looks like George Lopez in his TV show \xef\xbb\xbf'
p351
aS'I know it is a parody but I kind of loved the tune and beat to that song. \xef\xbb\xbf'
p352
aS'ryans mom is so beautiful (:\xef\xbb\xbf'
p353
aS"They are NOT his parents. If you read the cast list in info they don't have \nthe same last name and watch the hungry games. You see his dad, brother and \nmom. And in lucy bts he says his mom is called lucy. Look at the cast list. \nAre their names the same? No. Now for the last time, they are not his \nparents! \xef\xbb\xbf"
p354
aS'Pleaseeee some one tell me how he managed to do this vid , what video \neditor did he used and plse the name of the effects! Btw Awesome Song!\xef\xbb\xbf'
p355
aS'Whats with the massive bubble head\xf0\x9f\x98\x82\xef\xbb\xbf'
p356
aS'Man Nam is ryan\xef\xbb\xbf'
p357
aS'This gonna be my new fav song.......\xef\xbb\xbf'
p358
aS'helena mcr poster in the backround at 2:12 YASSSS BETCH YASSSSS\xef\xbb\xbf'
p359
aS'The relevance!!! \xef\xbb\xbf'
p360
aS'lol\xef\xbb\xbf'
p361
aS'Is Ryan\'s "mom" that mother from the conditioning your children gif where \nshe throws the \'La Chancla"?   \nhttp://sizvideos.tumblr.com/post/87320157984/the-secret-of-la-chancla-video\xef\xbb\xbf'
p362
aS'His cat did nothing wrong haha For some reason cat replaced toaster in the \nsong xD\xef\xbb\xbf'
p363
aS"does anyone think of george lopez show when he's being the little kid? Is \nthat just me?\xef\xbb\xbf"
p364
aS'Puppeteer told me to watch this video. Ryan Higa is a good singer. \nAlthough... Anybody could be a good singer with vocal editing.\xef\xbb\xbf'
p365
aS'Omg U r so hot in eyeliner ;D\xef\xbb\xbf'
p366
aS'Dear Ryan, were you actually emo?\xef\xbb\xbf'
p367
aS'Omg how did I miss this? O.O It got published in February?!?!?!?\xef\xbb\xbf'
p368
aS'God I love this song. XD\xef\xbb\xbf'
p369
aS'Ryan! Plaese make more of that songs! I already have almost all songs on \niTunes!\xef\xbb\xbf'
p370
aS"Hey! What's wrong with black toast? Not all black toasts are thugs!!! \nThat's just a stereotype!! XD (it's a joke) \xef\xbb\xbf"
p371
aS'AMAZING SONGGG\xef\xbb\xbf'
p372
aS"He's actually really good.. He should make real songs\xef\xbb\xbf"
p373
aS'i dont know if its bad but i really like this song and had it on repeat :D\xef\xbb\xbf'
p374
aS'Bids*\xef\xbb\xbf'
p375
aS'The FULL Story\nGirl : let\'s meet up I miss you alot.\nBoy: Okay, later babe I\'m drinking with my boys. Lets meet up around 12:00.\nGirl: You started drinking again? /:\nBoy: Yeah don\'t worry about me babe, I\'ll see you later though my phone \nbattery is about to die.\n*boy turns phone off* He continues drinking and loses track of time. At 2:35 \nhe comes home to find his brother outside panicking. He says "A Hospital \njust called me your girl was shot to death. WHERE THE FUCK WERE YOU?!"\n* boys begins crying and turns phone on* last message from his girl.\n1:45: I have been out by your house for a while now I guess your phone must \nhave died. I\'m leaving all I wanted to do was see you, but I hope you\'re \nhaving fun with your friends. Text me when you get home babe.. I Love\nYou.\n1:55: babe some guys are following me I\'m scared!\n2:00: voice mail*\nBabe I\'m scared some guys are chasing me idk what to do.\n* Shots go off * Silence\nlick dis if you cry evrytiem\xef\xbb\xbf'
p376
aS'Well then..\xef\xbb\xbf'
p377
aS'I like how his cat is the toaster\xef\xbb\xbf'
p378
aS'I luv this song!!!\xef\xbb\xbf'
p379
aS"Wait. This was released this year? Wow, it feels like it's been out for at \nleast a year now.\xef\xbb\xbf"
p380
aS'Lolz i feel the same\xef\xbb\xbf'
p381
aS'The character from "how to be emo" made a song\xef\xbb\xbf'
p382
aS"Haha I'm I the only one that saw the My Chemical Romance poster in the \nbackround XD\xef\xbb\xbf"
p383
aS'+I love you\n-:)\n+But\n-:|\n+Get the fuck out of my room! \n-:(\xef\xbb\xbf'
p384
aS'Holly @### that was awesome\n\xef\xbb\xbf'
p385
aS'This is the story of my life\n\xef\xbb\xbf'
p386
aS'You guys totally could have been emo pop stars XD\xef\xbb\xbf'
p387
aS'Better song then any of Justin Biebers songs \xef\xbb\xbf'
p388
aS'Woah!!!! AWESOME!\xef\xbb\xbf'
p389
aS'I love this song:-p\xef\xbb\xbf'
p390
aS'I love this!\xef\xbb\xbf'
p391
aS'I hate the spoon that falls into my cereal \xef\xbb\xbf'
p392
aS'this was so funny and actually kind of a good song \xef\xbb\xbf'
p393
aS'I love the My Chemical Romance poster at 2:24 :3\xef\xbb\xbf'
p394
aS"Here's an interesting idea! CLEAN YOUR ROOMS YOURSELVE'S SO YOU DON'T HAVE \nTHIS KIND OF PROBLEMS! ahahahahahahah\xef\xbb\xbf"
p395
aS'+Mia Severn  Thought you might like this song... Lol\xef\xbb\xbf'
p396
aS"Why is Ryan's head so big?? XD\xef\xbb\xbf"
p397
aS'O.O!!!!!!!!!!!!!!!!\xef\xbb\xbf'
p398
aS'THIS IS GREAT AF OMG\xef\xbb\xbf'
p399
aS"but i didn't post it on youtube\xef\xbb\xbf"
p400
aS'spoof master. shitty ass lyrics still sounds good.\xef\xbb\xbf'
p401
aS'ANYONE ELSE SPOT THE MY CHEMICAL ROMANCE AND GREEN DAY POSTERS IN THE BACK?\xef\xbb\xbf'
p402
aS'I know this is a parody of punk/emo music but do you realize how great this \nsong was? Ah. You could have such potential making music.\xef\xbb\xbf'
p403
aS'Even the ending is funny\xef\xbb\xbf'
p404
aS'da makeup and hair makes him look like an angry kpop star\xef\xbb\xbf'
p405
aS'lol this is so funny.\xef\xbb\xbf'
p406
aS'2:11 Who else thinks that the first 3 lines make you feel awesome?\xef\xbb\xbf'
p407
aS"I just noticed something. \nThis was uploaded on my birthday.\nI can't believe it took me this long to notice that. XD \xef\xbb\xbf"
p408
aS"I can't relate to this song at all, yet it speaks to me. Music has a really \nstrange affect on me. This song makes me want to cry but at the same time \nit makes me feel a way I have need felt before and I can't describe it.\xef\xbb\xbf"
p409
aS"accidentally paused the video at 0:10 - 0:11\ni didn't regret it\xef\xbb\xbf"
p410
aS'I actually really like this :) Lmao.\xef\xbb\xbf'
p411
aS'lol hey if you put legit lyrics to this, it could be a good song. \xef\xbb\xbf'
p412
aS'Lol WHY IS YOUR HEAD SO BIG \xef\xbb\xbf'
p413
aS'I LOVE THIS MUSIC\xef\xbb\xbf'
p414
aS'dam youtube and vids not showing on subscription \xef\xbb\xbf'
p415
aS'"i love you... but... GET THE F*** OUT OF MY ROOOOM!!!"\xef\xbb\xbf'
p416
aS"This isn't always what a typical emo song is like :P\xef\xbb\xbf"
p417
aS'did anyone else peep the escape the fate poster in the background of his \nold room?\xef\xbb\xbf'
p418
aS'Ever considered being a singer? :D is this song on iTunes?\xef\xbb\xbf'
p419
aS'this song describes my entire life\xef\xbb\xbf'
p420
aS"This is funny because it's very emo.\xef\xbb\xbf"
p421
aS'dear Ryan can u make a series version of gtfo my room oh and also lion \nkin......... ohhh look a butterfly \xef\xbb\xbf'
p422
aS"LOL I'm dying XD\xef\xbb\xbf"
p423
aS"Can't get enough of it!!! Your a pretty good singer. \xef\xbb\xbf"
p424
aS"Why is this such a good song? I don't understand why I like it so much.\xef\xbb\xbf"
p425
aS'Lol, stop at 4:05\xef\xbb\xbf'
p426
aS'almost like a blink 182 spoof\xef\xbb\xbf'
p427
aS'Is it weird that I kinda like this song? LMAO\nRyan Higa <3\xef\xbb\xbf'
p428
aS'No offense or anything but this is the weirdest music video you made\xef\xbb\xbf'
p429
aS'is his dad white / half white half asian\xef\xbb\xbf'
p430
aS"I feel like I'm the only one who got emotional at one point.\xef\xbb\xbf"
p431
aS'Ryan great song and dude you look so hot with make up on oh my love your \nvideos <3\xef\xbb\xbf'
p432
aS'GTFO = GET THE F*CK OUT\xef\xbb\xbf'
p433
aS"They're like old fall out boy lmao\xef\xbb\xbf"
p434
aS'GOOD JOB loved it \xe2\x9d\xa4\xef\xb8\x8f\xef\xbb\xbf'
p435
aS'BEST EMO SONG EVER!!\xef\xbb\xbf'
p436
aS'Eye liner  :P\xef\xbb\xbf'
p437
aS'If they were a real band I would buy their album\xef\xbb\xbf'
p438
aS'SOOOOOOOOOOOOOO DAM AWESOOOOOMEEEE IN ONE WORD\xef\xbb\xbf'
p439
aS'This should be on the radio..\xef\xbb\xbf'
p440
aS'I love u but ........ GET THE F*** OUT OF MY ROOM\xef\xbb\xbf'
p441
aS'This made my day. :")\xef\xbb\xbf'
p442
aS' Dear Ryan, can U fap?\xef\xbb\xbf'
p443
aS'The dad looks like an older joseph gordon-levitt\xef\xbb\xbf'
p444
aS'0:26 his name is covered up O.O\xef\xbb\xbf'
p445
aS'I can relate to this song lol\xef\xbb\xbf'
p446
aS"Mom, why'd you poo in my shoe?\xef\xbb\xbf"
p447
aS'With other lyrics,that would be a great song!!! o.o\xef\xbb\xbf'
p448
aS'Funny \nOriginal \nAnd shamazing.\nLegitimatly the best song of 2013\xef\xbb\xbf'
p449
aS'Dat toaster is an a**hole\xef\xbb\xbf'
p450
aS'you look like pete wentz\xef\xbb\xbf'
p451
aS"I didn't want black toast... Oh goodness I love how you make things \nhilarious in ways that it shouldn't\xef\xbb\xbf"
p452
aS'was that a patato in his shoe?\xef\xbb\xbf'
p453
aS'nigahigas will always be the best youtube editor and best person!\xef\xbb\xbf'
p454
aS'This is awesome.\xef\xbb\xbf'
p455
aS"GTFO My Room! It's sad how much this describes my life\xef\xbb\xbf"
p456
aS'what is his real name and why is he covering it? (0:20 and all other times \nyearbook is shown)\xef\xbb\xbf'
p457
aS'As sloppy as my room used to look when I was little, I still knew where \neverything was and always ended up losing track of something whenever my \nmom tried to "clean up" after me. It was like  "Love ya mom, but don\'t \ntouch my shit; you\'re messin\' up my system, dammit!!".\xef\xbb\xbf'
p458
aS'O_O -_- O-O -_- O_O wat! LOL XD\xef\xbb\xbf'
p459
aS'Just make your own band now xD\xef\xbb\xbf'
p460
aS'THAT BIG HEAD THO\xef\xbb\xbf'
p461
aS'My god watch this in Air conditioner and eat a candy bar and its cool make \nit ironic and throw the wrapper on the floor  \xef\xbb\xbf'
p462
aS'I wuv this wideooooooo!!!!!!!!!!! You are really good Rustin Heiber. :3\xef\xbb\xbf'
p463
aS'uhhh Ryan in eyeliner/shadow is super hot. JUST sayin\xef\xbb\xbf'
p464
aS'Haha I love this song! It sounds so good and reminds me of the 2000s when \nrock music like this was pretty popular. :) \xef\xbb\xbf'
p465
aS'I think we can all relate to this song....\xef\xbb\xbf'
p466
aS'this reminds me of a little song that my dad taught me. it goes a little \nlike this: nobody likes me, everybody hates me, i`m gonna eat some worms! \nbig ones, little ones, fat ones, skinny ones, i`m gonna eat some worms! \nfirst you bite the heads off then ya suck the guts out i`m gonna eat some \nworms! \xef\xbb\xbf'
p467
aS'lmfao\xef\xbb\xbf'
p468
aS'Lol\xef\xbb\xbf'
p469
aS"If you pause it to the part where it's his face in the yearbook, an arrow \npoint to the right and the quote is about a boyfriend XD\xef\xbb\xbf"
p470
aS"Best song ever man, i just can't get out it my head\xef\xbb\xbf"
p471
aS'Cat + Bread = Nyan Cat :3\xef\xbb\xbf'
p472
aS'0:36 was the cutest part of the song\xef\xbb\xbf'
p473
aS'I love this video. I think like that sometimes but I clean my own \nroom....lol\xef\xbb\xbf'
p474
aS"It's a great song the way it is, but if you change the lyrics it could be a \nlegit serous song.\xef\xbb\xbf"
p475
aS'\xf0\x9f\x98\x82\xf0\x9f\x98\x82\xf0\x9f\x98\x82 This Was Funny & Weird At The Same Time \xf0\x9f\x98\x82\xf0\x9f\x98\x82\xf0\x9f\x98\x82 ._. \xef\xbb\xbf'
p476
aS'do u really hate your mum and dad teehee\xef\xbb\xbf'
p477
aS"IT IS GREAT! But little Ryan kinda' freaks me out...\xef\xbb\xbf"
p478
aS"Dear Ryan, I just want to say that you look awesome with makeup on. Could \nyou do a video on makeup? (Or not and that's fine too).... ^^\xef\xbb\xbf"
p479
aS'IM ASIAN LIKE U >-<\xef\xbb\xbf'
p480
aS'Dear Ryan: are you DJ elephant head from supah ninjas on nickelodeon\xef\xbb\xbf'
p481
aS'his dad looks like john stamos\xef\xbb\xbf'
p482
aS'This would be a really really good song if the lyrics were different and \nnot so funny xD I love it though such a catchy song man\xef\xbb\xbf'
p483
aS'I LOVE IT LOVE IT LOVE IT !!!\xef\xbb\xbf'
p484
aS'Ryan, your videos always make me laugh! Thank you for making me smile \neveryday! \xef\xbb\xbf'
p485
aS'Ryan, you look like Dante Basco as Rufio in this :P\xef\xbb\xbf'
p486
aS'He would make a hot punk rock star\n\xef\xbb\xbf'
p487
aS'I just wana say awesomeeeeeeee!!!!!!!!!!!!!!!!!!!!!!!!!!!l!!!\xef\xbb\xbf'
p488
aS'Mad at you\xef\xbb\xbf'
p489
aS"GET THE F*** OUT OF MY ROOOOOOOOOOM! I'M STILL SO FREAKING MAD AT YOU- Emo \nRyan\xef\xbb\xbf"
p490
aS'I love you more after every video\nMight burst\nTeehee\xef\xbb\xbf'
p491
aS'xD GTFO OF MEH ROOM\xef\xbb\xbf'
p492
aS"Is Ryan wearing eyeliner? It's Hot on him.\xef\xbb\xbf"
p493
aS'Ryan should make another channel called higamusic cuz he has been making \nfunny and good music\xef\xbb\xbf'
p494
aS'Awesome!\xef\xbb\xbf'
p495
aS"I love to write my poetry, you won't know what it means--but that's what \nmakes it deeeee~p.... hahahaha\xef\xbb\xbf"
p496
aS'I love this song. Also anyone notice ryans how to read minds\xef\xbb\xbf'
p497
aS'what the serious fuck did I just xD\xef\xbb\xbf'
p498
aS'this song beats 1 directions songs anytime \xef\xbb\xbf'
p499
aS'When they sing deep\xf0\x9f\x91\x8c\xef\xbb\xbf'
p500
aS'gtfo\xef\xbb\xbf'
p501
aS'This is me every time my dad cleans my room, he always throw my stuff away, \nthat I need : P\xef\xbb\xbf'
p502
aS'Is the father in this video Asian or is he just constantly doing the Kevin \nBacon bad ass squinting face.\xef\xbb\xbf'
p503
aS'lol he said gtfo to his parents\xef\xbb\xbf'
p504
aS'Ryan looks like he belongs in a kpop group.\xef\xbb\xbf'
p505
aS'Wrote this with Andrew Garcia over 3 years ago while randomly freestyling \nin an old video on HigaTV. Finally decided to just make it, hope you guys \nlike it! Thank you for watching! To the puberty days.. cheers!\xef\xbb\xbf'
p506
aS"His father kind of looks like Joseph Gordon Levitt in his 40's xD\xef\xbb\xbf"
p507
aS"I fell asleep to this song last night...that's good\xef\xbb\xbf"
p508
aS"Wow that's deep......\xef\xbb\xbf"
p509
aS'It kind of grows on you.. I watched it like 5 times before liking it XD its \namazing tho\xef\xbb\xbf'
p510
aS'GTFO OF MY ROOM! IM STILL SO MAD AT YOU!!!!\xef\xbb\xbf'
p511
aS'This song is hilarious! All of that aside, is it weird that Ryan looks \nreally hot with eye makeup? Is it just me that thinks that? \xef\xbb\xbf'
p512
aS'O_o\xef\xbb\xbf'
p513
aNaS'I love Ryan and I\'m subbed but I disliked because I just didn\'t... Feel the \n"higa experience" Didn\'t exactly nail this one... Still a fan of the other \nkids tho... \xe2\x98\xba\xef\xbb\xbf'
p514
aS'SELAM YAKI\xc5\x9eIKLI EKLE BEN\xc4\xb0\xef\xbb\xbf'
p515
aS'A ho thy Mawwwww...DaYm Emo Ryannnn,,,,,\xef\xbb\xbf'
p516
aS'this is teener logics: I hate everyone and everyone hates me...\xef\xbb\xbf'
p517
aS"Lmao... I'm about to be 20 years old now. I made my youtube when i was \ntwelve and all the way up until about 16 this was exactly how I felt \neveryday. I just hated everything and wanted my parents to go away lol. \nWhy? #ThePubertyDays.\xef\xbb\xbf"
p518
aS'A little hero though \xef\xbb\xbf'
p519
aS'if the lyrics were serious , the song might be more awesome ! :DDD but \nstill, love it ^w^\xef\xbb\xbf'
p520
aS'You like a k-pop singer!=))\xef\xbb\xbf'
p521
aS"Wow... I love it. This is the type of music I've been looking more \nfor...just couldn't find it\xef\xbb\xbf"
p522
aS"would it be gtfoo my room.. get the f*** out of my room..  i mean that's \nwhat you said.\xef\xbb\xbf"
p523
aS'I actually really love the eye makeup (\xe3\x82\x9c\xe2\x96\xbd\xe3\x82\x9c;)\xef\xbb\xbf'
p524
aS'This is perfect XD I LOVED IT\xef\xbb\xbf'
p525
aS'Go on Britians got talent\xef\xbb\xbf'
p526
aS"omg I love the posters in the background those are my bands :-) but I'm a \nso called emo so this was weird top watch but I still love you ryan\xef\xbb\xbf"
p527
aS'you guys like the real rock band :))\xef\xbb\xbf'
p528
aS' #Emo  \xef\xbb\xbf'
p529
aS'i love it\xef\xbb\xbf'
p530
aS'Did anyone pause the video and read the yearbook???\xef\xbb\xbf'
p531
aS"Hey, Ryan! Where'd you get that awesome toaster?\xef\xbb\xbf"
p532
aS'OMG 3:29 LAUGHING SO HARD XD\xef\xbb\xbf'
p533
aS'Is this meant to be stereotypical? I kinda took it that way. \xef\xbb\xbf'
p534
aS'I love this song\xef\xbb\xbf'
p535
aS'What the hell that witch doing on the drums?\xef\xbb\xbf'
p536
aS'I love this so much\xef\xbb\xbf'
p537
aS"You guys should be in a band if the lyrics weren't all jokes it would be \nthe best song ever\xef\xbb\xbf"
p538
aS'This song spoke to me emotionally almost as much as your eye liner did\xef\xbb\xbf'
p539
aS'Those damn cold toilet seats.... HATE IT!!!!!!!!\xef\xbb\xbf'
p540
aS'He is good\xef\xbb\xbf'
p541
aS'oh my god he have such a big head\xef\xbb\xbf'
p542
aS'this seriously scares me\xef\xbb\xbf'
p543
aS'hey do you know i made a parody of this song\xef\xbb\xbf'
p544
aS"You guys sing really good! I've been watching since you started, Always \nmakes my day better!\xef\xbb\xbf"
p545
aS'Are you referencing George Lopez with the big head flashback? lol \n(rhetorical question)\xef\xbb\xbf'
p546
aS"Nice XD but extremely emo... But it makes more sense than the ones I heard \ngrowing up. I hated the one that had the chorus '' I'm standing outside \nyour window with my radio.'' WTF was that supposed to mean.\xef\xbb\xbf"
p547
aS"i have been those problem too;  so make me movin'! love u 4ever \npusspuss*<3<3   \xef\xbb\xbf"
p548
aS'I actually love this song\xef\xbb\xbf'
p549
aS'wtf ok his hairdo and the big head thing reminds me of AFV\xef\xbb\xbf'
p550
aS"Are they Ryan's real parents?\xef\xbb\xbf"
p551
aS'Emo problems \xef\xbb\xbf'
p552
aS'MOM, GET OUT OF MY ROOM!!!!! I HATE IT WHEN YOU TELL ME WHAT TO DO! Story \nof my life\xef\xbb\xbf'
p553
aS'plz answer back saying yes or no\xef\xbb\xbf'
p554
aS'Drummer look like a Pete Wentz\xef\xbb\xbf'
p555
aS"heyyyy there's a Three Days Grace poster in the background cx\xef\xbb\xbf"
p556
aS'LOL like that eye make up is gross. \nbut you rock :) \xef\xbb\xbf'
p557
aS'Dear Ryan, can you keep the eye makeup?! You look cute with your eyes done \nup like that! >o< \xef\xbb\xbf'
p558
aS'why is emo ryan hot why\xef\xbb\xbf'
p559
aS'RYAN LOOKS SOOOOO GOOD WITH GUY LINER OMG\xef\xbb\xbf'
p560
aS'i just realized that the lyrics on the screen when its says and the toilet \nseat when i poo and its to cold actually says anp the toilet seat when i \npoo and its too cold\xef\xbb\xbf'
p561
aS'Ahaha! I HAVE to show this one to my parents! :)\xef\xbb\xbf'
p562
aS"I never had that problem. My mom always made me clean my room which the \nmess was usually my brothers mess and he didn't do crap to help.\xef\xbb\xbf"
p563
aS'Dat toaster is an a**hole\xef\xbb\xbf'
p564
aS"Is Ryan wearing eyeliner? It's Hot on him.\xef\xbb\xbf"
p565
aS'This was released on my birthday. Awesome.\xef\xbb\xbf'
p566
aS'So u hate everything sooo u hate YouTube lol\xef\xbb\xbf'
p567
aS'This HAS to be the official sing for emos XD\xef\xbb\xbf'
p568
aS'So freaking love the song\xef\xbb\xbf'
p569
aS'I feel ya bro:/ :(\xef\xbb\xbf'
p570
aS'your getting flagged for the pooping dog xD\xef\xbb\xbf'
p571
aS'So much funny\xef\xbb\xbf'
p572
aS'i love this lol the music and the visuals and all! lol \nwell... everyone deals with shit, right? thats life. at least ur dad wanted \nto play. my dad never played with me. and at least u have a dog lol\nROCK IS AWESOME. PEACE\xef\xbb\xbf'
p573
aS"U don't actually hate ur parents do u\xef\xbb\xbf"
p574
aS"Next to Ryan's photo: My favorite memories were all the times I spent with \nmy boyfriend Trung. This one time we were at lunch and I threw a carrot at \nhim; he chased me around school for 15 minutes. It was like elementary \nschool all over again.\xef\xbb\xbf"
p575
aS"You said you hate black toast that's racist lol\xef\xbb\xbf"
p576
aS'You are actually the best YouTuber! \xf0\x9f\x91\x8c\xef\xbb\xbf'
p577
aS'" You won\'t know what it means , \nAnd that\'s what makes it deep " - Soooooooo true \xef\xbb\xbf'
p578
aS"Jeez Higa don't be so mean to your parents!\xef\xbb\xbf"
p579
aS'I feel the darkness deep inside.. haha\xef\xbb\xbf'
p580
aS'this video should teach justin bieber how to sing\xef\xbb\xbf'
p581
aS'This is so realistic tho omg\xef\xbb\xbf'
p582
aS"Story: \nRyan's mom cleaned his room because the dog poop on his shoe. Because of \nthe doggy eating the toast. Then the dad felt sorry and ask him to play \nball. So he wrote this :/ \xef\xbb\xbf"
p583
aS'you create awesome videos i love them all!! :D keep up the good job ^_^\xef\xbb\xbf'
p584
aS'i love how your toaster is your cat!\xef\xbb\xbf'
p585
aS'He sounds like kellin Quinn \xef\xbb\xbf'
p586
aS"I like the video but it sucks cause I don't have apple only android so I \ndon't have iTunes.......:'(\xef\xbb\xbf"
p587
aS'Make more music videos\n\n\xef\xbb\xbf'
p588
aS'Even though this is supposed to be comedic, it kinda strikes me emotionally \nidk why...\xef\xbb\xbf'
p589
aS"The dad's pretty fine like damn\xef\xbb\xbf"
p590
aS'Fuck you mother fucker fuck you the dog the fuckin dog\xef\xbb\xbf'
p591
aS'Fave song rn\xef\xbb\xbf'
p592
aS'more songs :)\xef\xbb\xbf'
p593
aS'This shit is too funny\xef\xbb\xbf'
p594
aS'how to be emo ^\n\xef\xbb\xbf'
p595
aS'Dear Ryan! Make more songs\xef\xbb\xbf'
p596
aS"I didn't want black toast\nI didn't want black toast\ndidn't want black toast\xef\xbb\xbf"
p597
aS'why do I genuinely like this song....\xef\xbb\xbf'
p598
aS'lol amzin song bro\xef\xbb\xbf'
p599
aS'His voice just like pierre bouvier (simple plan)\xef\xbb\xbf'
p600
aS'I hate my mom and my.dad I wish I was a billionaire and could do anything I \nwant 2 do screw parents ftw\xef\xbb\xbf'
p601
aS'Liek if u crie evrytiem \xef\xbb\xbf'
p602
aS' Ryan looks so hardcore with that dark makeup and those rings XDD \xef\xbb\xbf'
p603
aS'I guess I laughed way too hard at this....\xef\xbb\xbf'
p604
aS"Three Days Grace poster on the wall yeees! Music like this isn't even bad \nthough, i know you're only joking but idk kinda weird to watch this.. But i \nstill love you ryan (just read my youtube name haha)\xef\xbb\xbf"
p605
aS'Very relatable. *clap clap*\xef\xbb\xbf'
p606
aS"0:26 top right a girl's name is michael\xef\xbb\xbf"
p607
aS"Guys!Check this out! 4:06 Pause to see Ryan's face XD\xef\xbb\xbf"
p608
aS'This video was post on my birthday\xef\xbb\xbf'
p609
aS'Dat big head\xef\xbb\xbf'
p610
aS'this feels so 90s!!\xef\xbb\xbf'
p611
aS'lulz\xef\xbb\xbf'
p612
aS'You guys should start a band with like real songs... You guys sound better \nthan 90% of popular pop stars\xef\xbb\xbf'
p613
aS'"I didn\'t want black toast." Did he want white toast!\xef\xbb\xbf'
p614
aS'I love this video its so catchy even though its ment as a joke..."dog why \ndid you poo in my shoe?!!"\xef\xbb\xbf'
p615
aS'" I hate the that falls into my cereal" that sounds fimiler \xef\xbb\xbf'
p616
aS"I'm so confused because I don't know if this is Ryan's natural voice or \nsome kind of auto-tune-thingamajig. His voice sounds good though. \xef\xbb\xbf"
p617
aS'I feel this in my soul\xef\xbb\xbf'
p618
aS'Omg this song is boss\xef\xbb\xbf'
p619
aS'this is fucking awesome \xef\xbb\xbf'
p620
aS'This was me during my emo phase lol XD then I realized I was just being a \nspoiled little shit and snapped out of it and started enjoying life. I kept \nthe hairstyle tho :3\xef\xbb\xbf'
p621
aS'man what type of cat is that it so cute\xef\xbb\xbf'
p622
aS'the my chemical romance posters though\xef\xbb\xbf'
p623
aS'MOOOOOOM! GET OUT OF MY ROOOOOOOOOOOOOOOOOOOOUM! IM SOOOOOOO MAD AT \nYEAAAAUUUUUUU!\xef\xbb\xbf'
p624
aS"This reminds me of the early 2000's\xef\xbb\xbf"
p625
aS'i can realate to this song apart from my dog my cat my mum and being a \ngoth \xef\xbb\xbf'
p626
aS'I like this music\xef\xbb\xbf'
p627
aS"Ryan, I'm sorry to tell you this... (or maybe not) but you actually look \ngood with that makeup '-'\xef\xbb\xbf"
p628
aS'GTFO out of my Roooooom\xef\xbb\xbf'
p629
aS'A little racist...\xef\xbb\xbf'
p630
aS'LOVEEEEEEE IT XD\xef\xbb\xbf'
p631
aS'Hey its dead (because he killed it) \xe2\x95\x90 )\xef\xbb\xbf'
p632
aS'Do you guys not realize that this is practically a parody to Perfect by \nSimple Plan...Lol\xef\xbb\xbf'
p633
aS'*sings along* i hate my mom, i hate my dad, i hate my dog, i hate \nmy...toaster?\xef\xbb\xbf'
p634
aS"I can't find my stuff when my mum cleans my room.\xef\xbb\xbf"
p635
aS"I don't know why, but this song is actually not that bad haha \xf0\x9f\x98\x82\xef\xbb\xbf"
p636
aS'3:17-3:34 cracked me up\xef\xbb\xbf'
p637
aS'Ooh! A Green Day poster!\xef\xbb\xbf'
p638
aS'GTFO my ROOM\n\xef\xbb\xbf'
p639
aS'Give that man a noble prize\ndamn cool\n:D\xef\xbb\xbf'
p640
aS"Good. But No meaning. I mean you don't need to hate those who brought you \nforth !\xef\xbb\xbf"
p641
aS'Is is bad that I  think Ryan is cute with eyeliner and punk hair?\xef\xbb\xbf'
p642
aS'For a moment there, this video really make me remember the sacrifice of my \nparents\xef\xbb\xbf'
p643
aS'Read the statement next to his yearbook photo omg ahahahhah\xef\xbb\xbf'
p644
aS'That head though\xef\xbb\xbf'
p645
aS'3:30 looks so funny\xef\xbb\xbf'
p646
aS'AM I THE ONLY ONE WHO THINKS RYAN LOOKS LIKE THE GUY FROM TOKIO HOTEL WTF\xef\xbb\xbf'
p647
aS'This is really GOOD!!!!\xef\xbb\xbf'
p648
aS'U really on iTunes! Good worck\xef\xbb\xbf'
p649
aS'Damn...He looks good in makeup.....the best besides Adam Lambert\xef\xbb\xbf'
p650
aS'haven\'t read the comments yet...expecting at least one comment like this--\n"YOU SHOULDN\'T MAKE FUN OF PEOPLE WITH EMOTIONAL PROBLEMS!"\n"THIS ISNT WHAT EMOS ARE LIKE"\n"THATS PUNK NOT EMO"\n"EMO MUSIC IS F***IN AWESOME YOU F***IN D**K YOU DONT KNOW ANYTHING"\n-_- its people like you that make me want to cut more onions.\xef\xbb\xbf'
p651
aS'XDDDDD\xef\xbb\xbf'
p652
aS'this kinda sounds like blink-182 or green day\xef\xbb\xbf'
p653
aS'0:16 dat laugh doe\xef\xbb\xbf'
p654
aS'is there any song with the same beat\xef\xbb\xbf'
p655
aS'His cat is a toaster XD\xef\xbb\xbf'
p656
aS'GTFO my room aka GREENDAY PARODY xD\xef\xbb\xbf'
p657
aS'i actually like the rhythm :)\xef\xbb\xbf'
p658
aS'0:26. Stop the frame.\nThe girl in the upper right of the yearbook looks a lot like andy garcia \n(or is it just me noticing that?)\nThen, forget the girl and read ryan\'s lines:\n"My favorite memories were all the times I spent with my boyfriend Trung. \nThis one time we were at lunch and I threw a carrot at him; he chased me \naround school for 15 minutes. It was like elementary school all over \nagain". \nlol\xef\xbb\xbf'
p659
aS'This speaks to me on a spiritual level.\xef\xbb\xbf'
p660
aS'It\'s not "GTFO my room" It\'s "GTFO OF my room"\xef\xbb\xbf'
p661
aS"That's a good look for you Ryan\xef\xbb\xbf"
p662
aS'Are they yur real parents??\xef\xbb\xbf'
p663
aS'you look like  kim hyun joong <3\xef\xbb\xbf'
p664
aS'so your cat is a toaster.\xef\xbb\xbf'
p665
aS'Does the writer of this song know how to appreciate??? It sounds like the \nwriter of this song is mad of his/her mom and sad\xef\xbb\xbf'
p666
aS'lol it almost sounds like there sing "I ate my mom, I ate my dad, I ate my \ndog, I ate my cat" at the end X"D\xef\xbb\xbf'
p667
aS"I didn't want black toast!!\xef\xbb\xbf"
p668
aS"Isn't that dud e in the background from pimp my ride?\xef\xbb\xbf"
p669
aS'gtfo\xef\xbb\xbf'
p670
aS'story of my life. :(\xef\xbb\xbf'
p671
aS'Aww Cmon,Im emo :/ unsubscribe.\xef\xbb\xbf'
p672
aS"Haven't watched his videos in like 2 years... Apparently I've been missing \na lot. This is so funny.\xef\xbb\xbf"
p673
aS'LSS\xef\xbb\xbf'
p674
aS'This made my day \xef\xbb\xbf'
p675
aS"OMG. LOL xD what's bad is that this describes my scene friends\xef\xbb\xbf"
p676
aS'this is fucking a nice song, repeat it again and again\xef\xbb\xbf'
p677
aS'Wow.. This is actually really good xD catchy tune\xef\xbb\xbf'
p678
aS"god take a joke emos he's not for real dont get so buttwork\xef\xbb\xbf"
p679
aNaS'wow. that was really good! i expected the video to be purely a parody w \nmusic and vocals that were made to sound bad/weird. but that song was so \ngood that i forgot you were joking!!\n\nyou make me believe someone from Hawai\xca\xbbi can actually become successful on \na national level. proud to be from the 808! :D\xef\xbb\xbf'
p680
aS'FUCKING AWESOME raw truth of depressive hardcore punk band LOL!!\xef\xbb\xbf'
p681
aS"Prom is soon and I really want that blazer, I've been searching pretty damn \nhard for one or something like it, can anyone help? :c\xef\xbb\xbf"
p682
aS'Are they his real parents?\xef\xbb\xbf'
p683
aS'My dad is daed ):\xef\xbb\xbf'
p684
aS'I love how there are Tokio Hotel posters on the wall 333333\xef\xbb\xbf'
p685
aS'The "Get the *beep* out of my room" had me laughing so much for some \nreason! #genius \xef\xbb\xbf'
p686
aS'OMG this song decreased suicide rates by 87.9%!\xef\xbb\xbf'
p687
aNaS'Blink 182 much.\xef\xbb\xbf'
p688
aS"Lol is it weird if I say the guy who plays Ryan's dad is damn fiiiiiiineeee\xef\xbb\xbf"
p689
aS'First world problems \xef\xbb\xbf'
p690
aS'Still better than loaded diaper.\xef\xbb\xbf'
p691
aS'1:35 racist\xef\xbb\xbf'
p692
aS'this is successfully making fun of pretty much every song I listened to as \na teenager..... but I cant get it out of my head!!\xef\xbb\xbf'
p693
aS'omg i love this song\xef\xbb\xbf'
p694
aS'Dude, you gotta get a VEVO\xef\xbb\xbf'
p695
aS'Wow 14,000 comments exactly!! Cool!! This song is describing every \nteenagers life...\xef\xbb\xbf'
p696
aS'Love this!\xef\xbb\xbf'
p697
aS'Best puberty song ever!\xef\xbb\xbf'
p698
aS'Actually a good song \xef\xbb\xbf'
p699
aS'I wish my mom would clean my room...\xef\xbb\xbf'
p700
aS'not sure if about \n1)wanting people to get the fuck out of his room\n2)and emotinal emo boy that noone understands \n3)why he hates his parents \n4)just a great song describing how girls feel on there period why did the \ntoaster toast my toast i hate you toaster\xef\xbb\xbf'
p701
aS'This oddly good\xef\xbb\xbf'
p702
aS'i like this song! its amazing\xef\xbb\xbf'
p703
aS'i like this video it makes me feel better about my self\xef\xbb\xbf'
p704
aS'People say that emo people and people like that music will burn in hell \nwell I say f**k u \xef\xbb\xbf'
p705
aS'Omg I love this song with all of my heart but one thing though...why did \nthey show a picture of the toaster when they said cat???\n\xef\xbb\xbf'
p706
aS'I do not like this song\xef\xbb\xbf'
p707
aS'Have you considered starting an emo band?\xef\xbb\xbf'
p708
aS'I love your songs ryan\xef\xbb\xbf'
p709
aS'Will there ever be a updated how to be gangster and the others ???\xef\xbb\xbf'
p710
aS"Read the other girl in the year book's entry. :D\xef\xbb\xbf"
p711
aS'more songs :)\xef\xbb\xbf'
p712
aS'\xf0\x9f\x98\x82\xf0\x9f\x98\x82\xf0\x9f\x98\x82This reminds me of George Lopez for some reason hahaha\xef\xbb\xbf'
p713
aS'Green day poster 2.37 yeah!!!!!!!!!!!!\xef\xbb\xbf'
p714
aS'One of my faves lol \xef\xbb\xbf'
p715
aS'This songs reminds me of Thousand Foot Krutch for no reason\xef\xbb\xbf'
p716
aS'Ryan says: " i hate my cat" * a wild toaster appears *\xef\xbb\xbf'
p717
aS'jokes apart, the tune is really catchy\xef\xbb\xbf'
p718
aS'a teenagers anthem\xef\xbb\xbf'
p719
aNaS'ha ha emo music sucks you probably have the same feeling ryan +nigahiga \xef\xbb\xbf'
p720
aS'You have good parents but your mean too them\xef\xbb\xbf'
p721
aS'Wow this is actually good! :D\xef\xbb\xbf'
p722
aNaS'You should start a band. This was just too fucking great .\xef\xbb\xbf'
p723
aS'How to increase my video viewers & subscriber. Please tell me Mr. Nigahiga \xef\xbb\xbf'
p724
aS"Here's a full cup. Now shut the full cup. #firstworldproblems\xef\xbb\xbf"
p725
aS'this is fucking awsome\xef\xbb\xbf'
p726
aS"I actually really like the song. I couldn't stop singing it today. \xef\xbb\xbf"
p727
aS'So fetch.. U r good\xef\xbb\xbf'
p728
aS'you really should be a singer .. i mean Hollywood singer \xef\xbb\xbf'
p729
aS'Just noticed that they had fake instruments ahaha\xef\xbb\xbf'
p730
aS"when you can relate to this and realize you're a teen..\xef\xbb\xbf"
p731
aS"forget the beginning just start at 3:21\nand you'll be happy.\xef\xbb\xbf"
p732
aS'It\'s racist that he said "I didn\'t want BLACK toast\xef\xbb\xbf'
p733
aS'im streaming black ops 2\xef\xbb\xbf'
p734
aS'I can relate so much!!\xef\xbb\xbf'
p735
aS'That was surprisingly very good!\xef\xbb\xbf'
p736
aS'"Moom, why did you clean my room??? i\'m sooooo maddd at youuu" i love dat \npart o_o\xef\xbb\xbf'
p737
aS'i feel the darkness deep inside my soul speaks to my mine\xef\xbb\xbf'
p738
aS'Yeah... But that Green Day poster tho. \xef\xbb\xbf'
p739
aS'I just think of this as the emo song \xef\xbb\xbf'
p740
aS'Perfect..Just...Perfect\xef\xbb\xbf'
p741
aS'ryans mom looks like jackie chan\xef\xbb\xbf'
p742
aS'I thought he would say "i Love you.." But.. GTFO my Room !\xef\xbb\xbf'
p743
aS'GET THE FUCK OUT OF MY ROOOOOM XD\xef\xbb\xbf'
p744
aS"Khelin, stop trying to make fetch happen! It's not going to happen!\xef\xbb\xbf"
p745
aS"Where is his mom and dad? We've never seen them\xef\xbb\xbf"
p746
aS'U really put the music on iTunes\xef\xbb\xbf'
p747
aS'Not the best song for mothers day!!!\xef\xbb\xbf'
p748
aS'haha\xef\xbb\xbf'
p749
aS'.... I like this song haha\xf0\x9f\x98\x9d\xef\xbb\xbf'
p750
aS'I feel like you should make a punk version of the old songs you did cuz I \nlike this music.\xef\xbb\xbf'
p751
aS'honestly an awesome song :L\xef\xbb\xbf'
p752
aS'This song is weirdly good.\xef\xbb\xbf'
p753
aS'my new favorite song for about two weeks\xef\xbb\xbf'
p754
aS':p\xef\xbb\xbf'
p755
aS'Posted on my B day\xef\xbb\xbf'
p756
aS'+Meshach Thanesh true\xef\xbb\xbf'
p757
aS'is that ur real dad????????????????????\xef\xbb\xbf'
p758
aS'the parts about mom and dad are sooooo true\xef\xbb\xbf'
p759
aS'Anyone else think that Ryan\'s "dad" looks like Mr. Tsubaki from Blue \nExorcist?\xef\xbb\xbf'
p760
aS'I love you but GTFO \xef\xbb\xbf'
p761
aS'But you even have a cat to hate._.\xef\xbb\xbf'
p762
aS"You didn't want black toast... Did u want Asian toast\xef\xbb\xbf"
p763
aS'Is it just me but thusit sound like i dont want black toast sound kinda \nrasist\xef\xbb\xbf'
p764
aS'Totally professional!\xef\xbb\xbf'
p765
aS'I have those suspenders\xef\xbb\xbf'
p766
aS'How the hell did the dog shit on ryans shoe? O.O\xef\xbb\xbf'
p767
aS'yaass\xef\xbb\xbf'
p768
aS'i  like this!!!\xef\xbb\xbf'
p769
aS'lol this is too funny. It does bring back alot of peoples memories, \nincluding mines hahahaha. \xef\xbb\xbf'
p770
aS'Woow Ryan really stepped up his game in the video production world.\xef\xbb\xbf'
p771
aS'0:38 anyone else think of George Lopez?\xef\xbb\xbf'
p772
aS'I know all the words to this which is words wird lol but who cares B-) \xef\xbb\xbf'
p773
aS'instead of mom cleaning my room it should be mom why did you take my phone\xef\xbb\xbf'
p774
aS'oh gawd cnt believe i used to b somewhat like dis how emberassing ahahah \nu live nd u learn\nfuck emo appreciate what u got in life damm \xef\xbb\xbf'
p775
aS'2:10 sounds like the bridge part of "makedamnsure" by Taking Back Sunday!\xef\xbb\xbf'
p776
aS'WTF he calls his toaster cat.\xef\xbb\xbf'
p777
aS'Who swears in front of there parents\xef\xbb\xbf'
p778
aS"Love the song probably my fave right now\xe2\x9d\xa4\xef\xb8\x8f\xf0\x9f\x91\x8dgreat song writing,even though \nit's kinda weird lyrics I like it\xf0\x9f\x98\x8ado more song writing and music vids\xf0\x9f\x98\x8e\xef\xbb\xbf"
p779
aS'F**king toaster! You had one job.\xef\xbb\xbf'
p780
aS'GTFO HIS ROOM!\xef\xbb\xbf'
p781
aS'Lol so racist!!..Black Toast\xef\xbb\xbf'
p782
aS'Ya\n:-)\xef\xbb\xbf'
p783
aS'worst song ever\xef\xbb\xbf'
p784
aS'Dude I was about to eat food. Now i have the image of dog food in my mind. \nUhh!!!!\xef\xbb\xbf'
p785
aS"I'm not sure how many times I watched this before I realized Andy Lange is \nplaying on a cartoon drum set...he's playing the shit out of them, though. \nWay to use your imagination, Andy. hahah\xef\xbb\xbf"
p786
aS'Are those his real parents if so gotta mom looks pretty\xef\xbb\xbf'
p787
aS'Dear Ryan can you do emo skits and dress up like you did in the vidio? \xef\xbb\xbf'
p788
aS"Emo Ryan, totally digging it <3 the song cause I'm so emo I want to cry XD \xef\xbb\xbf"
p789
aS'In croatia,mom says:,,pospremi sobu ti mali pe\xc5\xa1ko". That means:,,Clean your \nroom you little faggot!!!\xef\xbb\xbf'
p790
aS'Im gettin goosebumbs while listening, is it only me? But damn his voise is \namazing!\xef\xbb\xbf'
p791
aS'So catchy\xef\xbb\xbf'
p792
aS'Good tone bad lyrics lol\xef\xbb\xbf'
p793
aS'A piece of this totally reminded me of Hawthorne Heights. \xef\xbb\xbf'
p794
aS'The song does have some truth behind it though.\xef\xbb\xbf'
p795
aS'only 3,000,00 veiws?!??!?!?! wth\xef\xbb\xbf'
p796
aS'Hi\n\xef\xbb\xbf'
p797
aS'"depressed" emo\'s most played song lmao.\xef\xbb\xbf'
p798
aS"I mean, I can appreciate this song for what it is, but if the words had a \nlittle more meaning, this could seriously be a fucking brilliant song.  Oh \nwell.  It's still pretty great in its comedic effect.\xef\xbb\xbf"
p799
aS'It must have been a riot writing/recording/filming this. Pure gold.\xef\xbb\xbf'
p800
aS'lke if u cri evrytime\xef\xbb\xbf'
p801
aS'I\'m waiting for that one line "You know what I don\'t hate? I like vests"\xef\xbb\xbf'
p802
aS'i mean congrats\xef\xbb\xbf'
p803
aS'That was so awesome xDD\xef\xbb\xbf'
p804
aS'START A BOYBAND RYAN, I LOVE YOUR LYRICS \xef\xbb\xbf'
p805
aS'First world problems.\xef\xbb\xbf'
p806
aS'this was awful but i love it \xef\xbb\xbf'
p807
aS"I don't know if this is supost to be a spoof but... it sounds good!\xef\xbb\xbf"
p808
aS"Loooool. How'd he get that huge ass head? Hahahahahahah this is so funny. \xef\xbb\xbf"
p809
aS'I play this song consteantly......plz just GTF OUTTA MY ROOM!!!!!!\xef\xbb\xbf'
p810
aS'Emo\xef\xbb\xbf'
p811
aS'Hello, My name is Nuge, I am a singer/songwriter. I just recently obtained \n600 subscribers and released a single off my upcoming EP, "Shattered \nClocks". I am recording this EP myself and want to release it for free!\nMy goal is to share my music with as much people as possible so please I \nask that you go take a listen to my single "This is the End" and subscribe. \nOnce I hit 1000 subscribers I will release the next single! Thank you\n \xef\xbb\xbf'
p812
aS'ayy green day poster at 2:37\xef\xbb\xbf'
p813
aS'I love were it says GTFO of my room LOL\xef\xbb\xbf'
p814
aS'Well...... You look like an emo\xef\xbb\xbf'
p815
aS'"Cat" is a neat name for a shitty toaster.\xef\xbb\xbf'
p816
aS'This is WAY better than 5 seconds of summer!! \n\xef\xbb\xbf'
p817
aS'Agar a great song\xef\xbb\xbf'
p818
aS'In a way.....this is funny but in another its kinda stereotypical xc sorry \nryan. But your still cool c:\xef\xbb\xbf'
p819
aS'Please stop making fun of emos. LIKE NOW!\xef\xbb\xbf'
p820
aS"Didn't want black toast, didn't want black toast, DIDN'T WANT BLACK \nTOOOOOOEEEEESSSS!!!!!\xef\xbb\xbf"
p821
aS'And Ryan looks very VERY hot in this video :o is that weird XD \xef\xbb\xbf'
p822
aS'Omg they could actually be a legit rock band\xef\xbb\xbf'
p823
aS'hahaha ryan\'s yearbook message @ 0:26\n"My favorite memories were all of the times I spent with my boyfriend \nTrung. This one time we were at lunch and I threw a carrot at him; he \nchased me around school for 15 minutes. It felt like we were in elementary \nschool all over again." \xef\xbb\xbf'
p824
aS'3:30 GTFO my room!!!!!!!!\xef\xbb\xbf'
p825
aS"I agree with the mom cleaning my room part. My mom ALWAYS scolds me cuz my \nroom is messy and I'm like I LIKE MESSY!!!!\xef\xbb\xbf"
p826
aS'Greatest song ever\xef\xbb\xbf'
p827
aS'This video is both hilarious and painfully accurate\xef\xbb\xbf'
p828
aS'Is it weird that I find Ryan particularly hot ike this?? o.o\xef\xbb\xbf'
p829
aS'This was a really good song tbh\xef\xbb\xbf'
p830
aS"He doesn't want black toast thats so rasist!\nJust kidding\n\xef\xbb\xbf"
p831
aS'"I love you, but Get the Fuck out of my room" XD\xef\xbb\xbf'
p832
aS'Best song ever! lol \xef\xbb\xbf'
p833
aS'ryan makes a weird pose at 2:42\xef\xbb\xbf'
p834
aS'Love this lads :( :)\xef\xbb\xbf'
p835
aS'the songs with cester see and kevjumba were bosssss \xef\xbb\xbf'
p836
aS'my parents would kill if i sing this song hahahhah\xef\xbb\xbf'
p837
aS"What's the original song?\xef\xbb\xbf"
p838
aNaNaS'dat emo tho\xef\xbb\xbf'
p839
aS'My mum never cleans my room because im never in my room because my parents \ndont buy me anything and this comment was pretty much useless why am i \nstill writing??\xef\xbb\xbf'
p840
aS"I don't know, this is horribly awesome, in an emotional and rebellious way.\xef\xbb\xbf"
p841
aS"rewatching and omg!!!!!!!! that's Tokio hotel poster *__* 1:50\xef\xbb\xbf"
p842
aS'I crie evertim.\xef\xbb\xbf'
p843
aS'i relly like this...... uh oh\xef\xbb\xbf'
p844
aS'The dad is quite handsome. Oh nice voices btw\xef\xbb\xbf'
p845
aS'GTFO MY ROOM!!! 3:21-3:36 lol, love that part!! watched it like 20 times \nnow! XD\xef\xbb\xbf'
p846
aS'I never thought you would be a Toascist... :D\xef\xbb\xbf'
p847
aS"It's so good I watched it so much times\xef\xbb\xbf"
p848
aS'escape the fate poster ?!?\xef\xbb\xbf'
p849
aS'So you wanted "White" toast? \n\nYou must be a Clippers fan. \xef\xbb\xbf'
p850
aS"Dear people butt-hurting and saying this is offensive, STFU no1 cares, not \neven the emo ppl care, how do i know, i'm one of em and i thought this was \nfucking awsome.\xef\xbb\xbf"
p851
aS'i enjoy this so much LOL\xef\xbb\xbf'
p852
aS'i actually really like this\xef\xbb\xbf'
p853
aS"This honestly wasn't a bad song. I liked it ^^\xef\xbb\xbf"
p854
aS"Wtf was that I'm not try to be hater just I'm sad now\xef\xbb\xbf"
p855
aS'actually a very creative music video lol\xef\xbb\xbf'
p856
aS'This actually isnt that bad...\xef\xbb\xbf'
p857
aS'Just downloaded it... Awesome \xef\xbb\xbf'
p858
aS'Those posters...I want them all\xef\xbb\xbf'
p859
aS'Was he actually crying there?\xef\xbb\xbf'
p860
aS'the picture for his song looks like the All Seeing Eye\xef\xbb\xbf'
p861
aS'This is true love\xef\xbb\xbf'
p862
aS'... Nice song...\xef\xbb\xbf'
p863
aS"Sorry but I hate this maybe cos I don't like rock music but I liked loaded \ndiapers song in the diary of a wimpy kid movie coffee shop love is awesome \nthough keep up the good work Ryan :)\xef\xbb\xbf"
p864
aS'Teehee\xef\xbb\xbf'
p865
aS"Don't even know how much times i've spent listening to this song. I love \nyou Ryan \xe2\x99\xa5 c:\xef\xbb\xbf"
p866
aS'haha this is the perf 90s emo music parody XD\xef\xbb\xbf'
p867
aS'This song is so true about everything \xef\xbb\xbf'
p868
aS'Junior High Memories Hahahaha\xef\xbb\xbf'
p869
aS'If I could like this more then once I would \xef\xbb\xbf'
p870
aS'Haha this made me laugh too much!\xef\xbb\xbf'
p871
aS"Omg I'm crying \xef\xbb\xbf"
p872
aS'Sounds like fall out boy... And did anyone else pause and read that \npathetic girls last words of high school about her boyfriend and the \ncarrot? So lame! Hope it was fake!\xef\xbb\xbf'
p873
aS'3:31 lol\xef\xbb\xbf'
p874
aS'reminds me of Simple Plan\xef\xbb\xbf'
p875
aS'+nigahiga can you teach us chords and tabs. Please tell your guitarist to \nmake a video on your channel. Please!!!! :D\xef\xbb\xbf'
p876
aS'I love this song so much xD\xef\xbb\xbf'
p877
aS'So deep \xf0\x9f\x98\x82 I love this song!\xef\xbb\xbf'
p878
aS'this song speaks to me\xef\xbb\xbf'
p879
aS'Does he really hate his mom and dad for real\n\xef\xbb\xbf'
p880
aS'+James Mickel why did you say it in the first place?\n\xef\xbb\xbf'
p881
aS'i know how you feel\xef\xbb\xbf'
p882
aS'Is that his real parents?\xef\xbb\xbf'
p883
aS'I was smiling like a creep throughout this whole video. lmaoo\xef\xbb\xbf'
p884
aS'Rewrite these lyrics then it will be perfect !\xef\xbb\xbf'
p885
aS"Ryan is the most attractive emoguy I've ever seen\xef\xbb\xbf"
p886
aS"Y'all are actually pretty good.\xef\xbb\xbf"
p887
aS'that was actually really good\xef\xbb\xbf'
p888
aS"E is for Emotional, ruins everybody's day,\nM is for Miserable people;\nO is for on the Dark Side 'cause we have some fresh cookies\nCOOKIES, WOO!\xef\xbb\xbf"
p889
aS'I wish he made like a legit song. Not like just funny things. But like a \nserious song\xef\xbb\xbf'
p890
aS'This is actually a really good song, for some reason it reminds me of All \nTime Low\xef\xbb\xbf'
p891
aS'3:29 is me literally every morning when my mom wakes me up\xef\xbb\xbf'
p892
aS'This could totally be on the radio if they wrote more serious lyrics for \nsome obvious parts in the song.\xef\xbb\xbf'
p893
aS'I wonder how these songs would end up when they would team up with Smosh \nand make a Metal song :P\xef\xbb\xbf'
p894
aS'The sad thing is that I can relate to some parts of this video haha\xef\xbb\xbf'
p895
aS'Amazing how this song is so much better than what we have now these days\xef\xbb\xbf'
p896
aS'\xf0\x9f\x98\x84soooooooo cool\xef\xbb\xbf'
p897
aS'Lmao this is great.\xef\xbb\xbf'
p898
aS'Your dad seems curiously white for an okinawan.\xef\xbb\xbf'
p899
aS'y did you clean my room\xef\xbb\xbf'
p900
aS'This music is awesome\xef\xbb\xbf'
p901
aS'Man! I think you should be on TV or in VEVO clip you know! You maybe \nPOPULAR!! and you wont be hating everything.. \xef\xbb\xbf'
p902
aS'Best song yet!\xef\xbb\xbf'
p903
aS'I love the vid\xef\xbb\xbf'
p904
aS'Dear rRyan , Kevjumba and YTF ?\xef\xbb\xbf'
p905
aS'Ryan with make up kind of gives a kpop star image xD \xef\xbb\xbf'
p906
aS"I was was listening to 'The Kill' by 30 seconds to Mars a few hours ago, \nand it occurred that I've heard that beat before...then I remembered this \nsong! The beat is so similar, but they're both amazing songs! =)\xef\xbb\xbf"
p907
aS"I just cant move on with this song...So fuckin' love it! \xe2\x99\xa5\xef\xbb\xbf"
p908
aS"that awkward moment, when Ryan has better song than most of today's singers\xef\xbb\xbf"
p909
aS'this is the worse music video...EVER !\xef\xbb\xbf'
p910
aS'This song actually depresses me a little btw Ryan you sing awesome\xef\xbb\xbf'
p911
aS'You relly hate ur mom and dad? If you do, thats just sad:(\xef\xbb\xbf'
p912
aS'teenage years\xef\xbb\xbf'
p913
aS'You brought dead back\xef\xbb\xbf'
p914
aS"I don't like how the music sounds, but the lyrics are hilarious\xef\xbb\xbf"
p915
aS'make more songs like this one, ryan!... pweeeeaaaase? :3 :)\xef\xbb\xbf'
p916
aS'Unexpected ending :) hahahahha \xef\xbb\xbf'
p917
aS'FOB voice \xef\xbb\xbf'
p918
aS'haha, this is real funny\xef\xbb\xbf'
p919
aS'You guys should make this with different lyrics (: the music is awesome !\xef\xbb\xbf'
p920
aS'ii love youuuu....\nBUT GTFO OF MY ROOM~\xef\xbb\xbf'
p921
aS'Someone can explain me why ryan hate his cat? ._.\xef\xbb\xbf'
p922
aS'Why is this song so good?!!\xef\xbb\xbf'
p923
aS'Yo Geraint Garenna just TOO far so please do as the song says and GTFO \nbecause that is actually offensive especially to me\xef\xbb\xbf'
p924
aS'Proof you can just make fart noises to a good tune and it would be a \npopular song. :)\xef\xbb\xbf'
p925
aS'"I didn\'t want black toast! I Didn\'t Want Black Toast! I DIDN\'T WANT BLACK \nTOOOOOOOOOOOASSSSSSTTTTT!!!!\' LOL\xef\xbb\xbf'
p926
aS'At 3:07 dad trying to look like an Asian\xef\xbb\xbf'
p927
aS'Ironically he actually looks good in eyeliner \xef\xbb\xbf'
p928
aS'3:28 lol epic synchronised face drop. \xef\xbb\xbf'
p929
aS'You should write some actual lyrics to the music some time... It would be \nso good... Your actually a reall good emo singer\xef\xbb\xbf'
p930
aS'I loved this so much. He should do this but, like, with serious lyrics. \nBecause I am halfway swoon with this.\xef\xbb\xbf'
p931
aS'He looks sexy being emo\xef\xbb\xbf'
p932
aS"Andrew fucking rocked this song. He's such a talented singer. \xef\xbb\xbf"
p933
aS"Lol i already think it's a good song xD but if there were legit lyrics in \nhere this song would be a hit . lol\xef\xbb\xbf"
p934
aS'ALMOST better than Nice Guys. Haha.\xef\xbb\xbf'
p935
aS'This song is actually really really good.\xef\xbb\xbf'
p936
aS'I liked how he sang "you ruined my life" part\xef\xbb\xbf'
p937
aS'This is like the ultimate song for first world problems.\xef\xbb\xbf'
p938
aS'why so little views minecraft songs get more views and they usually suck\xef\xbb\xbf'
p939
aS'lolol\xef\xbb\xbf'
p940
aS'Nice video love the song\xef\xbb\xbf'
p941
aS'are those youre actual parents\xef\xbb\xbf'
p942
aS"Emo Ryan, totally digging it <3 the song cause I'm so emo I want to cry XD \xef\xbb\xbf"
p943
aS"the sad part is that i'd actually buy this\xef\xbb\xbf"
p944
aS'u look cool in eyeliner haha\xef\xbb\xbf'
p945
aNaS'Good song & vid\xef\xbb\xbf'
p946
aS'My type of soong\xef\xbb\xbf'
p947
aS'Omg I love nigahiga he always makes my day whenever I watch his \nvideos...you are awesomr ryan higa..keep up the awesome job love yoyr \nvideos\xef\xbb\xbf'
p948
aS'Wtf\xef\xbb\xbf'
p949
aS'He is such a great singer\xef\xbb\xbf'
p950
aS'XD\xef\xbb\xbf'
p951
aS"It's a great song....... I am gonna change the lyrics \xef\xbb\xbf"
p952
aS"Ryan.man you never fail to make me laugh,you're comic sense is \nsuperb.You're legendary,this song was Frikin awesome XD\xef\xbb\xbf"
p953
aS'LMFAO 00:35\xef\xbb\xbf'
p954
aS'well, fack...that was amazing\xef\xbb\xbf'
p955
aS"Lamp, why'd you pop your bulb, why'd you pop your bulb, you where light \nfine the way you where, away to ebay with youuuuuu XD\xef\xbb\xbf"
p956
aS'This is actually really good.\xef\xbb\xbf'
p957
aNaS'Is that actually ur mom?\xef\xbb\xbf'
p958
aS'LOL I love your channel even more xD\xef\xbb\xbf'
p959
aS'This song represents my present mood recently hate u mom\xef\xbb\xbf'
p960
aS'Kpop in english\xef\xbb\xbf'
p961
aS'I saw a Green Day poster! *fangirling*\xef\xbb\xbf'
p962
aS'i love you... but.. GTFO OF MY ROOM XDD\xef\xbb\xbf'
p963
aS'Sorry for all that messing up in last comment\xef\xbb\xbf'
p964
aS'Love this song so much!!!\xef\xbb\xbf'
p965
aS'Ryan theres something wrong with your head \xe3\x84\x92_\xe3\x84\x92\xef\xbb\xbf'
p966
aS'I freaking love this song and video. Keep up the good work Ryan.\xef\xbb\xbf'
p967
aS'Good job on bid\n\xef\xbb\xbf'
p968
aS'This song is so epic. ^_^\xef\xbb\xbf'
p969
aS'I hate my mom\xef\xbb\xbf'
p970
aS'Dear Ryan, \n  Your make up is better than most if not all girls in high school. \xef\xbb\xbf'
p971
aS'lol when he said but their smile dropped so fast lol\xef\xbb\xbf'
p972
aS'when he put eyeliner was he supposed to be adam labert(sorry if spelled \nrong). \xef\xbb\xbf'
p973
aS'you need more subs for this song confrats\xef\xbb\xbf'
p974
aS'Black Toast D: Lol Good Stuff\xef\xbb\xbf'
p975
aS'That could be a nice song\n\xef\xbb\xbf'
p976
aS'Liek if u kry everitime ;-;\n\n\nXD I love this song so much ;-;\xef\xbb\xbf'
p977
aS'i know all the words iwatch it every day\xef\xbb\xbf'
p978
aS'This is why I suscribe ryan\xef\xbb\xbf'
p979
aS'Idk bout you but I think Ryan looks hella hot with eyeliner \xef\xbb\xbf'
p980
aS'Make a video about sweating and armpits. I need help in my awkward \nsituations\xef\xbb\xbf'
p981
aS'U should make fun of emo peoples, like me, its offencive\xef\xbb\xbf'
p982
aS'This was beautiful \xf0\x9f\x98\x86\xef\xbb\xbf'
p983
aS'they put this on my school radio a few weeks ago,thought it sounded \nfamiliar xD\xef\xbb\xbf'
p984
aS'amazing\xef\xbb\xbf'
p985
aS'Andrew really makes this song. \xef\xbb\xbf'
p986
aS'Its official. Andrew Garcia could sing about the most stupid thing ever and \ni would absolutely love it. You guise should really form a punk band \xef\xbb\xbf'
p987
aS'This song and video is awesome!!!\xef\xbb\xbf'
p988
aS'haha i loved it! :D\xef\xbb\xbf'
p989
aS'still a better song than of 1D or JB\xef\xbb\xbf'
p990
aS'Dear Ryan, Can you make a musical album? Or even with videos.\xef\xbb\xbf'
p991
aS"If the comedy was taken out of this it'd be a really inspirational song.\xef\xbb\xbf"
p992
aS'Haha funny song..\xef\xbb\xbf'
p993
aS'ahaha\xef\xbb\xbf'
p994
aS'Kind of sounds like my favourite band Marianas Trench\xef\xbb\xbf'
p995
aS'oh my god...this is like every single teenager on earth (laughing emoji x3)\xef\xbb\xbf'
p996
aS'What...this actually sounds really good. No this sounds amazing lol\xef\xbb\xbf'
p997
aS'I SAW THAT BULLETS-ERA MY CHEM POSTER\nI SAW IT\nIT WAS REALLY BLURRY\nBYE\xef\xbb\xbf'
p998
aS'it made me cry a little\xef\xbb\xbf'
p999
aS'Hey be nice to ur mom and dad\xef\xbb\xbf'
p1000
aS'2:42 what a weird face\xef\xbb\xbf'
p1001
aS'I hate the toilet seat when I poo and its to cold!!!!!!!!!!! LOL\xef\xbb\xbf'
p1002
aS"I'm in love with the beat! It's actually very amazing. I wish words could \nthoroughly describe it...\xef\xbb\xbf"
p1003
aS"love Andrew's voice\xef\xbb\xbf"
p1004
aS'The drummer kinda looks like Pete Wentz hahahaa\xef\xbb\xbf'
p1005
aS'this is like a song that could have been pulled straight out of diary of a \nwimpy kid\xef\xbb\xbf'
p1006
aS"while I thought this was funny, and it is, it is a little bit demeaning to \nrock music and actual real musicians, and the fans, who aren't angsty \nteenagers.\xef\xbb\xbf"
p1007
aS'3:07 repeat it\xef\xbb\xbf'
p1008
aS'Hi guy I just want to subscribe to my youtube channel called team VIRID \nthank you\xef\xbb\xbf'
p1009
aS'How to be ninja\xef\xbb\xbf'
p1010
aS"I love this lol and the tune isn't that bad\n\xef\xbb\xbf"
p1011
aS'daddy issues at 0:43\xef\xbb\xbf'
p1012
aS'Mfw people are taking this song too literally.\xef\xbb\xbf'
p1013
aS'Lmfaoo\n\n\xef\xbb\xbf'
p1014
aS'wow this song is just like (WTF)\xef\xbb\xbf'
p1015
aS'No breakdown?\n0/10 would not cut myself to.\xef\xbb\xbf'
p1016
aS'was that his real yearbook probably not i feel stupid asking\xef\xbb\xbf'
p1017
aS'I feel the darkness to. :D xD just kidding but the song was ecselent \xef\xbb\xbf'
p1018
aS'If you like Minecraft videos check my channel out!\xef\xbb\xbf'
p1019
aS'So awesome and funny :))\nLove nigahiga because of vids like this\xef\xbb\xbf'
p1020
aS'Ryan this song is just epic!!!\xef\xbb\xbf'
p1021
aS'Sounds like an old blink 182 song ! Haha\xef\xbb\xbf'
p1022
aS'HAHAHA ITS SO FUNNY BECAUSE ITS TRUE\xef\xbb\xbf'
p1023
aS'<< Skyrim Battles Daily!\xef\xbb\xbf'
p1024
aS'Best song ever \xef\xbb\xbf'
p1025
aS'Ryan, you have a great voice! Show your talent more!!!!\xef\xbb\xbf'
p1026
aS'I would download this song if the lyrics werent stupid...\xef\xbb\xbf'
p1027
aS'Ryan ? You never get serious,do yo?\nYou are going Fast forward with no end lol\xef\xbb\xbf'
p1028
aS"1:42 THAT'S RACIST\xef\xbb\xbf"
p1029
aS'This is funny but its kinda offencive \xef\xbb\xbf'
p1030
aS'please make more of these\xef\xbb\xbf'
p1031
aS'Hi\n\xef\xbb\xbf'
p1032
aS'Am I the only one that thinks Ryan looks like a K-Pop Idol with eye \nliner...?\xef\xbb\xbf'
p1033
aS"2:49 I sang to my mom and she was so mad and was confused cause we don't \nhave a dog\xef\xbb\xbf"
p1034
aS'dad looks like joseph gordon levitt\xef\xbb\xbf'
p1035
aS'Ryan you really look like adam lambert\xef\xbb\xbf'
p1036
aS'i love it. this song describes me! but the difference is, i love my mom \nsooo muchhhh!!\xef\xbb\xbf'
p1037
aS'Hey you have some cool posters like: Green Day, My Chemical Romance and AFI\xef\xbb\xbf'
p1038
aS'Why does this only have 3,000,000 views.... this deserves way more views.\xef\xbb\xbf'
p1039
aS'wow. is this a 3D video?!\xef\xbb\xbf'
p1040
aS'Lol I have to share my room \xef\xbb\xbf'
p1041
aS'I watched this 20 times and also counting this time!\xef\xbb\xbf'
p1042
aS'FIRST\xef\xbb\xbf'
p1043
aS'Omgg... This is amazing... Lmaoo\xef\xbb\xbf'
p1044
aS'Well. That was unexpected.\xef\xbb\xbf'
p1045
aS'First world problems\xef\xbb\xbf'
p1046
aS"Did Ryan actually sing this?? The singe's good!\xef\xbb\xbf"
p1047
aS'hey Good Charlotte parody how you doing? :D\xef\xbb\xbf'
p1048
aS'They are freaking amazing!\xef\xbb\xbf'
p1049
aS'The drummer kinda looks like Pete Wentz hahahaa\xef\xbb\xbf'
p1050
aS'How we feel sometimes\xef\xbb\xbf'
p1051
aS'this... is actually quite AWESOME :D\xef\xbb\xbf'
p1052
aS'Best vid in a looooong while\xef\xbb\xbf'
p1053
aS'Lol Ryan just so u know I totally bought this song on iTunes!!!! My new fav \nsong\xef\xbb\xbf'
p1054
aS"lik if u crid errtim :'(\xef\xbb\xbf"
p1055
aS'Like the smoky eyes \xf0\x9f\x91\x80\xf0\x9f\x91\x80\xf0\x9f\x91\x80\xef\xbb\xbf'
p1056
aS'I remember his vid "how to be emo\' with sean a few years back :3\xef\xbb\xbf'
p1057
aS'This needs to be on iTunes like seriously I WOULD BUY THIS THING SO \nFREAKING FAST AND LISTEN TO IT \xf0\x9f\x98\x9c\xef\xbb\xbf'
p1058
aS'To all people that hate this video he probibly made this video for our \nentertainment\xef\xbb\xbf'
p1059
aS'The song is actually not bad X)X)\xef\xbb\xbf'
p1060
aS'Actually loved it lol\xef\xbb\xbf'
p1061
aS'I am proud to say I brought this song on iTunes :D\xef\xbb\xbf'
p1062
aS'Dear ryan, How many puns can you say during a critical situation but not \ncaring about the situation instead just saying the pun.And if this was way \ntoo long just sum it up.\xef\xbb\xbf'
p1063
aS'Aweee I love this. Even though lil Ryan might hate it lmao \xef\xbb\xbf'
p1064
aS'man you look amazing and \nyou are so fucking talented \xef\xbb\xbf'
p1065
aS'I dare u to make a video about flappy bird. \xef\xbb\xbf'
p1066
aS'No more TeeHee? :(!\xef\xbb\xbf'
p1067
aS'WTF?\xef\xbb\xbf'
p1068
aS'This is another great song, but there will never be another Nice Guys...\xef\xbb\xbf'
p1069
aS'Awesome!\xef\xbb\xbf'
p1070
aS'It sounds actually pretty good\xef\xbb\xbf'
p1071
aS'#ihopeallthethingsintheworldgobyebye?\xef\xbb\xbf'
p1072
aS'I connect with this on a personal level\xef\xbb\xbf'
p1073
aS"LOLhe's got that child george lopez head going on\xef\xbb\xbf"
p1074
aS'Another great music video. Love you guys. Will always continue supporting \nyou and your youtube channel.\xef\xbb\xbf'
p1075
aS"I love u Ryan ... u're so funny !! XD\xef\xbb\xbf"
p1076
aNaS'I could have sworn the drummer was pete wentz xD lol \xef\xbb\xbf'
p1077
aS'Toaster = Cat, duh\xef\xbb\xbf'
p1078
aS'This is surprisingly catchy\xf0\x9f\x98\x82\xef\xbb\xbf'
p1079
aS"MOOOOOOOOOOM WHY'D YOU CLEAN MY ROOOM!!!!!! This song is ridiculously \ncatchy.....I LOVE IT!!!!!!!!!\xef\xbb\xbf"
p1080
aS"i am so emo\ni want to cry,,\n\ncan't resist to laugh,, \xef\xbb\xbf"
p1081
aS"As funny the song is. it's pretty good.\xef\xbb\xbf"
p1082
aS'Best song ever I did not know Ryan can sing\xef\xbb\xbf'
p1083
aS'I love your videos\nPlease visit my Fitness and Beauty Channel\nGreetings from Spain!!\xef\xbb\xbf'
p1084
aS'Goomoooo goomoooo noooo teehee\xef\xbb\xbf'
p1085
aS'FIRST\xef\xbb\xbf'
p1086
aS'Hahahaha That was fun to watch!!!\xef\xbb\xbf'
p1087
aS'Lol this could easily chart in the UK :D\xef\xbb\xbf'
p1088
aS'How to be emo reference.\xef\xbb\xbf'
p1089
aS'Genius!\xef\xbb\xbf'
p1090
aS'I love you so much! Love me back?\xef\xbb\xbf'
p1091
aS'Oh yeah. A music video!\xef\xbb\xbf'
p1092
aS'Lol r u just sitting there replying to comments (no offense)\xef\xbb\xbf'
p1093
aS'I love the video. lol nicely done\xef\xbb\xbf'
p1094
aS'But this sounds like everything I listen to \xef\xbb\xbf'
p1095
aS'i watch this while eating.... SON, THIS IS A WARNING, DONT WATCH THIS VIDEO \nWHILE EATING. SEARIOUSLY\xef\xbb\xbf'
p1096
aS'May be, just may be you should start making some serious music ? lol it was \npretty good and came close to a serious song untill the last minute lol.\nGood song :P\xef\xbb\xbf'
p1097
aS'ANYTHING WITH ANDREW GARCIA IS GOLD, ANYTHING WITH RYAN IS GOLD, TO TOP IT \nOFF, ANDY LANGE AND THE CREW MAKES IT PLATINUM\xef\xbb\xbf'
p1098
aS'Huh?\xef\xbb\xbf'
p1099
aS'I think some people are taking this music video too seriously..come on guys \nLOL\xef\xbb\xbf'
p1100
aS'*.* wow, had no idea you could sing\n\nI like\n\noh and also this vid\xef\xbb\xbf'
p1101
aS'The tune is catchy but your videos seem to get less and less funny... I \nwant the off the pill Ryan back...\xef\xbb\xbf'
p1102
aS'I didnt like this video at all, ryan, please dont do any more music videos, \nnot against you, your really talented, but its not your thing \xef\xbb\xbf'
p1103
aS"Ha ha ha..I don't even know where to start. \xef\xbb\xbf"
p1104
aS'Please go watch & share my videos on youtube & Subscribe !!! Thank you <3 \n & Please Please Please, go follow me on Instagram;; Ileen Silva\xef\xbb\xbf'
p1105
aS"MOOOOOOOM\nWHY'D YOU CLEAN MY ROOM?!\nTOASTER, WHY DID YOU BURN MY BREAD!\nI HATE THE SPOON THAT FALLS INTO MY CEREAL!!!\nGreat song dude!\nBut you shouldn't really have been making fun of emos\xef\xbb\xbf"
p1106
aS"That was amazing, I'm crying. *sobs\xef\xbb\xbf"
p1107
aS'This is actually not bad \xef\xbb\xbf'
p1108
asS'time'
p1109
ctime
struct_time
p1110
((I2014
I2
I6
I22
I34
I56
I3
I37
I-1
t(dtRp1111
sS'id'
p1112
VwAm-JD-EXL4
p1113
s.