(dp1
S'title'
p2
VSh*t ___ Say
p3
sS'url'
p4
Vhttp://www.youtube.com/watch?v=XZTWOnnZKZ4&feature=youtube_gdata_player
p5
sS'image'
p6
Vhttp://i.ytimg.com/vi/XZTWOnnZKZ4/0.jpg
p7
sS'comments'
p8
(lp9
S'Shit I say when I play World of Warcraft: \n- I\'M GOING TO DIE! :O \n- Look that\'s my old pet Jelly! He is so cute <3 \n- Omg! My Goblin is adorable. \n- I love this place!\n- I\'m lost! :\'(\n- I got food! <3\n- Wah! They are after me!\n- Fucking alliance. What the fuck is level "???".\n- I\'m jumping down! Fuck how can I still be alive? O.o\n\nGetting a lot of hate from serious people. Tsk can\'t anything be for fun \nanymore? #Kraaaaaai\xef\xbb\xbf'
p10
aS'T-Pain really does sound better without autotune.\nI know this is old, but whatever.\xef\xbb\xbf'
p11
aS'Gay Vampire part.\nWait for it\nHAHAHAHAHHAHAHA\xef\xbb\xbf'
p12
aS'u know how to make anything sound gangsterie start with *yo man* and end \nwith *an shit* example: *yo man im gonna go pet a kitten an shit*\xef\xbb\xbf'
p13
aS'shit my mom says- "get te frog out of the microwave!." don\'t ask.\xef\xbb\xbf'
p14
aS'I went to south dakota I thought it was fun\xef\xbb\xbf'
p15
aS'i have a love and hate relationship with cleaning.\xef\xbb\xbf'
p16
aS'but.... A cold toilet seat is great feeling\xef\xbb\xbf'
p17
aS'"Hey, I\'m going to wear something fancy and uncomfortable!" I never said.\xef\xbb\xbf'
p18
aS'I love cleaning!\xef\xbb\xbf'
p19
aS'I walk into my cat trip over my dog. I kiss a princess turn into a frog. \nHAHAHAHA!!!!!!!!!!!!!!!!!\xef\xbb\xbf'
p20
aS'\xc2\xa1Hilarious video, the toilet part and the vampire one had me crackin!\xef\xbb\xbf'
p21
aS'sub to me!!!\xef\xbb\xbf'
p22
aS'Hey there poopsiewoopsienoopisewoopsiejoopsiefoopsisemoopies. XD XD\xef\xbb\xbf'
p23
aS'sh*t dog say are the best!!!!made me laugh everytime hahaha\xef\xbb\xbf'
p24
aS'Sh** comments say:\nFIRST!!!\xef\xbb\xbf'
p25
aS'Some people and people who have OCD problems say that they love cleaning.\xef\xbb\xbf'
p26
aS"Am i only one who's starting to miss the hateful, disgusting filth that \nonce was the comment section?\nHmm..\nTHIS GUY FUCKING SUCKS MAN HE SUCH A FAUCHIN PIECE O SHIT KILL YSELF\xef\xbb\xbf"
p27
aS'Guy: Hey goopsie woopsie doopsie!\n\nMarley: What da fu\n\nxD\xef\xbb\xbf'
p28
aS'lol\xef\xbb\xbf'
p29
aS'*poop*\xef\xbb\xbf'
p30
aS'YES FIANLLY SOMEONE FINALLY.. FINALLY TALKED CRAP ABOUT LeBron (well in a \nway)\xef\xbb\xbf'
p31
aS'*bows*\xef\xbb\xbf'
p32
aS'I think jersey shore is educational XD\xef\xbb\xbf'
p33
aS'actually ozzy osbourne said "who the fuck is justin bieber?"\xef\xbb\xbf'
p34
aS'I LOVE SCHOOL!!!\n\n\nSAID NO ONE EVER.\xef\xbb\xbf'
p35
aS'i mean T-pain does sound good without autotune\xef\xbb\xbf'
p36
aS'I live in Sioux Falls (South Dakota)\xef\xbb\xbf'
p37
aS'Hey i actually like cleaning..\xef\xbb\xbf'
p38
aS"It's funny, because now T-pain IS way better without autotune.\xef\xbb\xbf"
p39
aS'I live in south dakota\xef\xbb\xbf'
p40
aS'Hey....South Dakota is actually nice in the summer! Winter...not so much.\xef\xbb\xbf'
p41
aS'"Don\'t worry babe I\'ll see you tonight"\n"Who\'s that."\n"It\'s my mom"\nLMAO!!! \xf0\x9f\x98\x82\xf0\x9f\x98\xad\xf0\x9f\x91\x8c\xf0\x9f\x98\x84\xef\xbb\xbf'
p42
aS'he said South Dakota and i was like OH YOU DID NOT JUST SAY THAT "flips \ntable"\xef\xbb\xbf'
p43
aS"GUYS GUESS WHAT I LEARNED IN MATH TODAY! 9+10=21...SO WHAT MY TEACHER'S AN \nALCHLOLIC \xef\xbb\xbf"
p44
aS'T-Pain actually does sound better without autotune though :P\n \xef\xbb\xbf'
p45
aS"Hey, south Dakota isn't that bad. I should know because I was born there.\xef\xbb\xbf"
p46
aS'im just going to leave this here...\nShit fangirls say: "OHHH MY GAWD ITS MAH BBY!! I LUV HIM SOOMUCH! Oh He\'S \nsO cUtE!!!!!AHHHHHHHHHHHHHGHGHGHHH!!!!!!! MARRY ME LOL!!! OMG MY OVARIES \nXPLODED LMFAO HES SO KAWAII OHMIGOSH!! NOW I GOTTA LOOK AT PICS OF HIM FOR \n3 HOURS!!! UGH HES SO HAWT IT MAKES ME ANGRY! IM SO JELLY OF HER OH MY GAWD \nIM LITERALLY DYEING\xef\xbb\xbf'
p47
aS'0:32 High five anyone who knows who said that and why it relates to my \nprofile pic\xef\xbb\xbf'
p48
aS'No, that is sh*t COD gamers say, not gamers, there is a difference.\xef\xbb\xbf'
p49
aS'01:14 Awesome wacth\xef\xbb\xbf'
p50
aS"real gamers don't play Call of Duty.\xef\xbb\xbf"
p51
aS'0:32 nice\xef\xbb\xbf'
p52
aS'i actually do like the toilet seat cold on the morning. i hate it when its \nwarm cuz its like someone just sat on it and its all warm cuz of their \nbutt.\xef\xbb\xbf'
p53
aS'The gamer one is pretty true. I say "stupid campers" to myself all the \ntime...\xef\xbb\xbf'
p54
aS'Pewdie actually says all  those words!!\xef\xbb\xbf'
p55
aNaS'Lol you saw Andrew in the backround at 1:24?\xef\xbb\xbf'
p56
aS'what do they mean by shit says\xef\xbb\xbf'
p57
aS'I live in South Dakota!!!!\xef\xbb\xbf'
p58
aS'A banana\xef\xbb\xbf'
p59
aS'I bet he regrets the LeBron James clutch one now\xef\xbb\xbf'
p60
aS'why south dakota D:\xef\xbb\xbf'
p61
aS'that was a very low TEEHEE\xef\xbb\xbf'
p62
aS'2:42 I live there! Shout out new haven Connecticut 203!\xef\xbb\xbf'
p63
aS'Sub to me\xef\xbb\xbf'
p64
aS'Lol at the lebron james one XD\xef\xbb\xbf'
p65
aS'01:14 Awesome wacth\xef\xbb\xbf'
p66
aS"I don't like the beep beep sound. it distracted me.\xef\xbb\xbf"
p67
aS'I love how I know this guy called Luke Walton and he is so uncoordinated \nhaha\xef\xbb\xbf'
p68
aS'+sandhya venkat +Rohit Ramkumar +Karthikeyan Arumugam \nlmao!!!\nsh*t gangsters say!!!!!!\xef\xbb\xbf'
p69
aS'HEADSHOT!!!!!!!\xef\xbb\xbf'
p70
aS"I can't believe this was over two years ago.\xef\xbb\xbf"
p71
aS'Omg the gay vampire part, so funny! :P \xef\xbb\xbf'
p72
aS"The 'doink' got me.\xef\xbb\xbf"
p73
aS'Lbj?CLUTCH!\xf0\x9f\x98\x82\xf0\x9f\x98\x82\xf0\x9f\x98\x82lmfao\xef\xbb\xbf'
p74
aS'Did you film the beginning with a potato?\xef\xbb\xbf'
p75
aS'well traffic can be good if u want to miss something \xef\xbb\xbf'
p76
aS'CLUTCH haha\xef\xbb\xbf'
p77
aS"I forgot what i was going to comment. '-' Ahm, yeaaah...\xef\xbb\xbf"
p78
aS'\n\n\xef\xbb\xbf'
p79
aS"I'm from South Dakota.... ur Polly right it's boring here\xef\xbb\xbf"
p80
aS"HAHA! I just noticed that the Xbox controller Andrew is holding doesn't \nhave a battery pack XD\xef\xbb\xbf"
p81
aS'UNICORNS DO EXIST!!\xef\xbb\xbf'
p82
aS'He has never cleaned ever!LOL\xef\xbb\xbf'
p83
aS"S*it real gangsters say: were gonna clean up real good, see?\nYou'll never catch me coppas! nyah!\nshut your trap or I'll have you sleeping with the fishes, see?\nI'm afraid I'm gonna have to let you go Chuck.... the hard way. NYAH! *boom*\n\xef\xbb\xbf"
p84
aS'omg i hate it when they kidz bop everything...\xef\xbb\xbf'
p85
aS'Lmao\xef\xbb\xbf'
p86
aS"It's okay if nobody wants to come to my home state (South Dakota). It is \none of the best states for retired (old) people and it has the poor \nreservation in the US (I don't live there but I love on the Yankton Sioux \nReservation(i am native american)). Sorry for the rant. \xef\xbb\xbf"
p87
aS'The gay vampire was gold oh my god that was hilarious!!!! On Point good job \nhaha\xef\xbb\xbf'
p88
aS'Really the south dakota one come on man \xef\xbb\xbf'
p89
aS'YEAH OH MY GOD **Bass drop**\xef\xbb\xbf'
p90
aS'I cant XD  I cant XD I just cant stop laughing at the dog part XD \xef\xbb\xbf'
p91
aS'favorited it because of the lebron one\xef\xbb\xbf'
p92
aS'i lost it at that gay vampire XD\xef\xbb\xbf'
p93
aS'Can i please kidnap your dog and eat it with apple?!?!?!\xef\xbb\xbf'
p94
aS'I LUV MARLEY!!! u should make a channel for only Marley because marley is \npro, and u make him hilarious, let him star in a video and i will maybe \nsubscibre to u sorry for my spelling autocorrect did that XD if u read \nthis, i will maybe post a video!!!\xef\xbb\xbf'
p95
aS'Shit Chuck Norris say.\xef\xbb\xbf'
p96
aS'The gangster one spoke to me\xef\xbb\xbf'
p97
aS'you forgot school in where you want to go this summer\xef\xbb\xbf'
p98
aS'1:11 A banana!\xef\xbb\xbf'
p99
aS"There was a time for Asians that we used to have real role model like Bruce \nLee & now sissy Man like this talking more than a women's pie hole gets all \nthe fame because of global stupidity ratio. He is not funny & this bitch \nmakes a lot of money doing Dumb things to Dumb people. Even my comments \nmake him rich but hopefully some will see the triviality of this nonsense \ntrend...\xef\xbb\xbf"
p100
aS'I live in South Dakota :P\xef\xbb\xbf'
p101
aS'lebron james..... clutch.\xef\xbb\xbf'
p102
aS'1:19\nLulz\xef\xbb\xbf'
p103
aS"Why was the intro bad quality but the Sh*t__ Say's were really nice quality \n:D\xef\xbb\xbf"
p104
aS'"Mario Kart 8 is nowhere near as good as the original, Super Mario Kart!" \nSaid no one ever.\xef\xbb\xbf'
p105
aS'was like andrew during the shit gangster say talking about harry potter cos \ndeath eaters have snakes on their arm and he was like "idc if u\'re a \nteacher." well im just thinking\xef\xbb\xbf'
p106
aS'The first one is actually pretty accurate xDD\xef\xbb\xbf'
p107
aS'I take offense, I live one South Dakota!\xef\xbb\xbf'
p108
aS'i love cleaning. levi heichou: me too *eyes sparkle*\xef\xbb\xbf'
p109
aS'I loved the inanimate object part\xef\xbb\xbf'
p110
aS"He doesn't have a battery at the start on the XBOX Controller o_O\xef\xbb\xbf"
p111
aS"The gangster didn't say much...\xef\xbb\xbf"
p112
aS'The Luke Walton joke killed me\xef\xbb\xbf'
p113
aS"take your time crossing the street it's cool super funny cus I get it I \nwant them to move faster too #GoldenStateOfMind \xef\xbb\xbf"
p114
aS"''Hey there little coopsy woopsy cooosy woopsy......etc....'' LOL\xef\xbb\xbf"
p115
aS'tshhhh its BRIGHT!!\xef\xbb\xbf'
p116
aS'This is unrelated, but I\'m really surprised no one ever made a "Shit Walter \nWhite says" video. That would have been gold.\xef\xbb\xbf'
p117
aS'Shi*t people do instead of studying? \xef\xbb\xbf'
p118
aS'The shit no one says is "I got 100 friends on myspace!"\xef\xbb\xbf'
p119
aS'The dog part! buaahahhaha\xef\xbb\xbf'
p120
aS'iPhones are actually better than BlackBerries\xef\xbb\xbf'
p121
aS"The South Dakota thing wasn't very accurate. There are some interesting \nsights there. Mount Rushmore and the Badlands. Should've said North Dakota. \n\xef\xbb\xbf"
p122
aS'Its Bright xD\xef\xbb\xbf'
p123
aS'0:38 to 0:59 had me laughing so hard that guy is soo funny lml\xef\xbb\xbf'
p124
aS'I LIVE IN THE DMV\xef\xbb\xbf'
p125
aS'hey mom, lets go shopping because i saw these really cute crocs\n\nsaid no one\xef\xbb\xbf'
p126
aS'Haha Lebron James...clutch....said no one..ever!\xef\xbb\xbf'
p127
aS"You don't like cold toilet seats? Guess I'm alone on that...\xef\xbb\xbf"
p128
aS'Lebron James? Clutch\xef\xbb\xbf'
p129
aS'That banana dou. :)\xef\xbb\xbf'
p130
aS'You know where I want to go this summer\nWhere?\nTHE HOOD\xef\xbb\xbf'
p131
aS"Shit Sean Asian talks isn't that red jacket Anthony's jacket? \xef\xbb\xbf"
p132
aS'I just sat next to Andrew Garcia at a restaurant in San Diego \xef\xbb\xbf'
p133
aS'You know where I really want to go this summer, THE HOOD...\xef\xbb\xbf'
p134
aS'i liked the skrillex part \xef\xbb\xbf'
p135
aS"0:30 can't stop replaying!\xef\xbb\xbf"
p136
aS'"I like your crocs", said no one ever.\xef\xbb\xbf'
p137
aS'yess, pitbull i love him hes my crush\n\nsaid no one ever\xef\xbb\xbf'
p138
aS"the controller didn't even have battery's XD\xef\xbb\xbf"
p139
aS'The Wanted part lol\xef\xbb\xbf'
p140
aS'i laughed so hard omg\xef\xbb\xbf'
p141
aS"I actually want to go to the DMV this summer...I'm getting my license. \xef\xbb\xbf"
p142
aS'a banana!\xef\xbb\xbf'
p143
aS'But I do love cleaning! \xef\xbb\xbf'
p144
aS"I don't like this video anymore, one of my Little Cup Champions evolved.\xef\xbb\xbf"
p145
aS'Chronicle: ANDREW!\xef\xbb\xbf'
p146
aS'One of my friends didnt know who justin bieber was\n\xef\xbb\xbf'
p147
aS'Sh*t no one says : i love math \xef\xbb\xbf'
p148
aS'Lmfao did anyone notice the gangster was talking about Harry Potter hahaha\xef\xbb\xbf'
p149
aS'Oh, you from that gang. because **** got the snake tattoo. lol\xef\xbb\xbf'
p150
aS'How dayer u afend a preshosh unicorn shame shame\xf0\x9f\x8c\x88\xf0\x9f\x90\xb4\xef\xbb\xbf'
p151
aS'Shit Gamers Say is 100% accurate.\xef\xbb\xbf'
p152
aS'****** No Youtuber Said Ever\n-Oh boy, another dislike!\n-I really appreciate all the hate comments on my video!\n-A comment that just says "first"? Like!\n-Man, I really love that screamer link you commented!\n-A comment with a poorly-done picture of Bob? Like!\n-That was a troll! Great!\n-I really enjoy people who scroll down and read the comments before \nwatching the video and then complain about spoiler comments!\n-Oh autocorrect, you\'re always right!\xef\xbb\xbf'
p153
aS'You guys bench a lot!\xef\xbb\xbf'
p154
aS'SH*t cat say\nSh*t car say\nsh*t police say\nsh*t youtube say\ndo MORE\xef\xbb\xbf'
p155
aS'What dubstep song was that? I forgot FACK\xef\xbb\xbf'
p156
aS'That ending doe\xef\xbb\xbf'
p157
aS'0:33-0:34 Music: SKRILLEX - Scary Monsters And Nice Sprites\xef\xbb\xbf'
p158
aS'I think Jersey shore is educational . Yolo right?\xef\xbb\xbf'
p159
aS'"I can talk"\xef\xbb\xbf'
p160
aS"Shit that people say when they don't have an ending for their video XD\xef\xbb\xbf"
p161
aS'Oh my god 1:34\xef\xbb\xbf'
p162
aS'awesome just awesome and it was uploaded on my bday\xef\xbb\xbf'
p163
aS'The gay vampire one the best. xD\xef\xbb\xbf'
p164
aS'i actually do like cleaning though\xef\xbb\xbf'
p165
aS'The dog!\xef\xbb\xbf'
p166
aS'this is the first vid i saw by nigahiga\xef\xbb\xbf'
p167
aS'LMFAOOO LOL YOOO\xef\xbb\xbf'
p168
aS'Snape a good dude XD\xef\xbb\xbf'
p169
aS'0:24 i like how there are no batterys in the controller\xef\xbb\xbf'
p170
aS'The ending :p\xef\xbb\xbf'
p171
aS'Now there needs to be a video for "___ be like *_*." XD\xef\xbb\xbf'
p172
aS'I remember in fifth grade at the breakfast table Justin Bieber came up in \nconversation and my exact words honestly were "who tf is Justin Bieber?" \n(I\'m in 9th now) \xef\xbb\xbf'
p173
aS'I love blackberry and they can do better. \n\xef\xbb\xbf'
p174
aS'i love when the toilet seat is cold\xef\xbb\xbf'
p175
aS'Sh*t marley say\xef\xbb\xbf'
p176
aS"Please sub me everyone beacause then are some heavy ASS' chain (lol) videos \non making so sub\xef\xbb\xbf"
p177
aS'lol harry potter *high five* oww\xef\xbb\xbf'
p178
aS'Andrew looks like the rapper Twista\xef\xbb\xbf'
p179
aS'T pain actually can sing really good without auto tune \xef\xbb\xbf'
p180
aS'Hey you little poopsi woopsi doopsi coopsi\xef\xbb\xbf'
p181
aS'this was the first ryan higa video  I saw!!! #memories  \xef\xbb\xbf'
p182
aS'Everyone says the Lebron one man!\xef\xbb\xbf'
p183
aS'You know where I really wanna go this summer? \nThe hood xD \xef\xbb\xbf'
p184
aS"There's no battery in the remote\xef\xbb\xbf"
p185
aS'I actually like cold toilet seats bbecause they reassure me that no one has \nused it yet\xef\xbb\xbf'
p186
aS'I live in south Dakota :(\xef\xbb\xbf'
p187
aS'Haha you know where I really want Togo this summer - South Dakota \xef\xbb\xbf'
p188
aS'Hey he can talk \xef\xbb\xbf'
p189
aS"And that's when I realized, Snape a good dude! \xef\xbb\xbf"
p190
aS'The banana\xef\xbb\xbf'
p191
aS"what breed is ryan's dog?\xef\xbb\xbf"
p192
aS'dear ryan can you eat sand\xef\xbb\xbf'
p193
aS'1:20 , 1:22\xef\xbb\xbf'
p194
aS'Alot of peaople say "who\'s justin beiber"\xef\xbb\xbf'
p195
aS"I'm a gamer girl and I don't say that bull crap\xef\xbb\xbf"
p196
aS"real talk how'd you make the doorknob open on its self \xef\xbb\xbf"
p197
aS'a banana\xef\xbb\xbf'
p198
aS'The hood\xef\xbb\xbf'
p199
aS"You should've done sh*t Canadians/Americans say\n\xef\xbb\xbf"
p200
aS'a bannda\xef\xbb\xbf'
p201
aS'Dear ryan, ACKNOWLEDGE MEEEEEE! and funny video\xef\xbb\xbf'
p202
aS"Siri you're always right lol.\xef\xbb\xbf"
p203
aS'Gay vampire \xf0\x9f\x98\x82\xf0\x9f\x98\x82\xf0\x9f\x98\x82\xf0\x9f\x98\x82\xf0\x9f\x98\x82\xef\xbb\xbf'
p204
aS'1:32 I LOVE IT!! :D lol\xef\xbb\xbf'
p205
aS"playing call of duty doesn't mean you're a gamer. being a gamer is playing \nall types of games from old to new, ratings E through M, any type of genre, \nbut just because you play A game doesn't automatically make you a gamer\xef\xbb\xbf"
p206
aS'SHIT GAY VAMPIRES SAY KILLED ME!!\xef\xbb\xbf'
p207
aS'"Yes! Oh my god!" \n*Skrillex dropping the bass* \xef\xbb\xbf'
p208
aS"Wow. I've watched this video like a hundred times, yet I never actually \nnoticed the gangster is talking about Harry Potter... wow, me. Wow.\xef\xbb\xbf"
p209
aS"Oh Siri, you're always right.\n\nSaid no one ever xD\xef\xbb\xbf"
p210
aS'I dunno, just yahoo it\n\nSaid no one ever\xef\xbb\xbf'
p211
aS'Sh*t NO ONE says is the bestXD\xef\xbb\xbf'
p212
aS'+Karina H. +Nour Khachemoune\n"OMG YES TRAFFIC!!!!!!"\xef\xbb\xbf'
p213
aS'a banana!\xef\xbb\xbf'
p214
aS"I didn't even know anyone started it \xef\xbb\xbf"
p215
aS'HOLY CRAP!!! He mentioned SOUTH DAKOTA omf\xef\xbb\xbf'
p216
aS"Hey, wanna know where I'm going this summer?\n\nWhere?\n\nNorth Dakota! \xef\xbb\xbf"
p217
aS'00:55 so much censorship...\xef\xbb\xbf'
p218
aS"Ah it's bright ah\xef\xbb\xbf"
p219
aS'im a banana! xD\xef\xbb\xbf'
p220
aS'cool this was released on bday!\xef\xbb\xbf'
p221
aS'I do like a cold toilet seat..\ncx\xef\xbb\xbf'
p222
aS'1:13 xD\xef\xbb\xbf'
p223
aS'HEY! I LIVE IN SOUTH DAKOTA AND IT IS A BEAUTIFUL PLACE!\xef\xbb\xbf'
p224
aS'Lebron James..............CLUTCH \xef\xbb\xbf'
p225
aS'Gay vampire... The best\xef\xbb\xbf'
p226
aS'XD I knew the teehee part\xef\xbb\xbf'
p227
aS'people saying "clutch" is soooo gay!\xef\xbb\xbf'
p228
aS'Yes, oh my God. Drop the bass\xef\xbb\xbf'
p229
aS'You know where I want to go this summer ? Where ? The hood !\xef\xbb\xbf'
p230
aS'The dog was the best oneXD XD XD\n\xef\xbb\xbf'
p231
aS'My friend thinks I\'m a "GANGSTA"... I don\'t like it...\xef\xbb\xbf'
p232
aS'You: You know where I really want to go this summer? Other guy: Where? You: \nThe hood. XXXXXXDDDDDDDDDD\xef\xbb\xbf'
p233
aS'Lebron James, CLUTCH\xef\xbb\xbf'
p234
aS'I prefer cold toilet seats.\xef\xbb\xbf'
p235
aS'I think jk films started it\xef\xbb\xbf'
p236
aS'Stupid campers, man!\n\nYes.\n\nI just... AUGH!\n\nFucking campers.\xef\xbb\xbf'
p237
aS'1:12\xef\xbb\xbf'
p238
aS'i love cleaning hehe\xef\xbb\xbf'
p239
aS'Dear Ryan can you shuffle\xef\xbb\xbf'
p240
aS'Holy sh*t it was first of the year\xef\xbb\xbf'
p241
aS'T pain has some pipes\xef\xbb\xbf'
p242
aS'Yo Ryan! (don\'t have anything to say then that, i just thought i should \nwrite something else then "dear ryan",hehe)\xef\xbb\xbf'
p243
aS"0:33 isn't it Spectrum - Sm The Performance? :D\xef\xbb\xbf"
p244
aS'funny!\xef\xbb\xbf'
p245
aS'"You know where I wanna go to this summer. The hood." LOL I died laughing \nX.X\xef\xbb\xbf'
p246
aS'Haha the DMV one was really funny because I just had to go there to get my \npermit and it was pretty much purgatory, for which the dictionary \ndefinition is "a state of temporary suffering and misery."\xef\xbb\xbf'
p247
aS"no no no no! you shouldn't go to South Dakota in the summer...\ngo in the WINTER! :D\xef\xbb\xbf"
p248
aS"I'm probably the only person ever who likes to clean then...\xef\xbb\xbf"
p249
aS'Whenever someone mentions Non-Alcoholic beer I laugh remembering this :D\xef\xbb\xbf'
p250
aS'TeeHee\xef\xbb\xbf'
p251
aS'HP reference was already awesome but making it in the form of gangster \ntalk?  just beautiful. \xef\xbb\xbf'
p252
aS'I didn\'t understood that "Shit Big Sean sounds like he\'s saying"... Can \nsomeone explain that to me...? c:\xef\xbb\xbf'
p253
aS'Lol,"Lebron James...clutch."\xef\xbb\xbf'
p254
aS'Can people stop talking about Harry Potter. Please o_o\xef\xbb\xbf'
p255
aS'Lmao shit ppl don\'t say "lebron James - clutch"\xef\xbb\xbf'
p256
aS'0:13 to 0:33 totally summed up pewdiepie.\xef\xbb\xbf'
p257
aS'A banana :)\xef\xbb\xbf'
p258
aS'+roy adcock Can you and your internet stalker friend please shut up and \nrelocate to somewhere else? Thanks. \xc2\xb6.\xc2\xb6\xef\xbb\xbf'
p259
aS"Why'd he stop making vids? :(\xef\xbb\xbf"
p260
aS'I love the cursing in it\xef\xbb\xbf'
p261
aS'K PUSH IT ANDREW! LOL!\xef\xbb\xbf'
p262
aS'2:22 ... Regina !!\xef\xbb\xbf'
p263
aS'I went to the "hood"\xef\xbb\xbf'
p264
aS'LOL! Non alchoholic beer?... Genius...\xef\xbb\xbf'
p265
aS"I live in South Dakota :/ But ya,don't go there it sucks\xef\xbb\xbf"
p266
aS'Gay vampires!! Lol\xef\xbb\xbf'
p267
aS'the controls are broken lol\xef\xbb\xbf'
p268
aS'There is more to life than internet\n\nSaid no one.\xef\xbb\xbf'
p269
aS'Dear Ryan -Im ADHD too its hard to not be crazy\xef\xbb\xbf'
p270
aS'2:08 i can talk!\xef\xbb\xbf'
p271
aS'omg luv da dog part!! :D\xef\xbb\xbf'
p272
aS'i live in S.D. and it is bad\xef\xbb\xbf'
p273
aS'shit nigahiga says\xef\xbb\xbf'
p274
aS'Hahaha the gangsta part is very true!!! \xef\xbb\xbf'
p275
aS'trying to watch video while playing cod but this was soooooo distracting\xef\xbb\xbf'
p276
aS'Hey there dopsey woopsey hopsey wtf\xef\xbb\xbf'
p277
aS"Talkin' bout this nigga Potter n shit \xef\xbb\xbf"
p278
aS'Dear Ryan,can you shuffle\xef\xbb\xbf'
p279
aS'This has been out for almost 2 years! Wow\xef\xbb\xbf'
p280
aS'your transition song reminds me of saw\xef\xbb\xbf'
p281
aS"I've MISSED THIS VID! LOL! SH*T POOP!\xef\xbb\xbf"
p282
aS'Omg when the microwave went off in the vid my microwave went off as well\xef\xbb\xbf'
p283
aS'not sh*t but sh!t\xef\xbb\xbf'
p284
aNaS'Am I the only one that expected a giant "No One" then it says Hi.??\xef\xbb\xbf'
p285
aS'he forgot s*** i say\xef\xbb\xbf'
p286
aS'Shit it say\xef\xbb\xbf'
p287
aS'The dug makes me laf alot of time man lol my typing\xef\xbb\xbf'
p288
aS'->\xef\xbb\xbf'
p289
aS'SHIT I SAID!!!\xef\xbb\xbf'
p290
aS'1:54 Shit ozzy osbourne say !\xef\xbb\xbf'
p291
aS"I'm actually happy that unicorns aren't real. I mean it could stab me if i \ndon't its carrots, that's if i could ever capture it. \n\n\n\nJK\xef\xbb\xbf"
p292
aS'WHO THINKS RYAN HIGA IS A TERRIBLE PERSON\xef\xbb\xbf'
p293
aS'WHAT YNICORNS DONT EXIST ?\xef\xbb\xbf'
p294
aS'What does the fox say. jk\n\xef\xbb\xbf'
p295
aS"I'm a gamer and I say all of the things he said gamers said\xef\xbb\xbf"
p296
aS'Dear Ryan , Can you be a yes man for the entire day!\xef\xbb\xbf'
p297
aS'dear ryan,\n\n\n\ncan you do a video of cleaning your room.\xef\xbb\xbf'
p298
aS'I posted something on MySpace anything involving MySpace\n\n\nSh*t no one saids\xef\xbb\xbf'
p299
aS'Omg I love this lol and Andrew Garcia made it 10 times better.\xef\xbb\xbf'
p300
aS'genius! lol\xef\xbb\xbf'
p301
aS'wow\xef\xbb\xbf'
p302
aS"The dog's face XD\xef\xbb\xbf"
p303
aS'hahahahahahahah lebron\xef\xbb\xbf'
p304
aS'wat a sh*t\xef\xbb\xbf'
p305
aS'lebron james clutch LOL\xef\xbb\xbf'
p306
aS'some people actually like cleaning...\xef\xbb\xbf'
p307
aS'Lol\xef\xbb\xbf'
p308
aS'Shit dogs say: What the fu--\xef\xbb\xbf'
p309
aS"That's not true. I was born in South Dakota but moved at a very young age, \nand I would like to go back there over the summer, just when I have time. \nSo, I wanna go to South Dakota over summer.\xef\xbb\xbf"
p310
aS'do accsully drive a car?\xef\xbb\xbf'
p311
aS"\xf0\x9f\x98\x82\xf0\x9f\x98\x82\xf0\x9f\x98\x82 can't breathe\xef\xbb\xbf"
p312
aS'Dear Ryan,dear Ryan 8D\xef\xbb\xbf'
p313
aS'Dear Rayn \n\nDo a gaming video of Gta V or COD or even with pwediepie !\xef\xbb\xbf'
p314
aS'A banana!\xef\xbb\xbf'
p315
aS'0:49-0:57\xef\xbb\xbf'
p316
aS'1:42 i actually have that calendar\xef\xbb\xbf'
p317
aS'no weights on what gangsters say\xef\xbb\xbf'
p318
aS'\xe2\x98\xbb/ This is Bob. Copy and paste him\n/\xe2\x96\x8c all over YouTube\n/ \\ so he can take over YouTube\xef\xbb\xbf'
p319
aS'Lol im a gamer hehe \xef\xbb\xbf'
p320
aS'Things that ruin thanksgiving\xef\xbb\xbf'
p321
aS'you know where I really wanna go this summer ? * where?* the hood LOL that \nwas like the funniest part of the video loll\xef\xbb\xbf'
p322
aS'0:33 I was totally expecting that xD\xef\xbb\xbf'
p323
aS'omg!!! Ryan you are the BEST\xef\xbb\xbf'
p324
aS'I will say that things that no one say in this video,just to mess with \npeople\xef\xbb\xbf'
p325
aS'\xe2\x96\x91\xe2\x96\x91\xe2\x96\x91\xe2\x96\x88\xe2\x96\x88\xe2\x96\x88\xe2\x96\x88\xe2\x96\x88\xe2\x96\x88\xe2\x96\x88 ]\xe2\x96\x84\xe2\x96\x84\xe2\x96\x84\xe2\x96\x84\xe2\x96\x84\xe2\x96\x84\xe2\x96\x84\xe2\x96\x84                   Bob is building an army.\n\xe2\x96\x82\xe2\x96\x84\xe2\x96\x85\xe2\x96\x88\xe2\x96\x88\xe2\x96\x88\xe2\x96\x88\xe2\x96\x88\xe2\x96\x88\xe2\x96\x88\xe2\x96\x88\xe2\x96\x88\xe2\x96\x85\xe2\x96\x84\xe2\x96\x83\xe2\x96\x82       \xe2\x98\xbb/\xef\xb8\xbb\xe2\x95\xa6\xe2\x95\xa4\xe2\x94\x80   This tank & Bob are against Google+\nIl\xe2\x96\x88\xe2\x96\x88\xe2\x96\x88\xe2\x96\x88\xe2\x96\x88\xe2\x96\x88\xe2\x96\x88\xe2\x96\x88\xe2\x96\x88\xe2\x96\x88\xe2\x96\x88\xe2\x96\x88\xe2\x96\x88\xe2\x96\x88\xe2\x96\x88\xe2\x96\x88\xe2\x96\x88\xe2\x96\x88\xe2\x96\x88].  /\xe2\x96\x8c              Copy and Paste this all over\n  \xe2\x97\xa5\xe2\x8a\x99\xe2\x96\xb2\xe2\x8a\x99\xe2\x96\xb2\xe2\x8a\x99\xe2\x96\xb2\xe2\x8a\x99\xe2\x96\xb2\xe2\x8a\x99\xe2\x96\xb2\xe2\x8a\x99\xe2\x96\xb2\xe2\x8a\x99\xe2\x97\xa4..  / \\               YouTube if you are with us\xef\xbb\xbf'
p326
aS'\xe2\x98\xbb/ This is Bob.\n/\xe2\x96\x8c he says hi\n/ \\ Now stfu\nand stop it..Seriously\xef\xbb\xbf'
p327
aS'This\xef\xbb\xbf'
p328
aS'OMG, i am lmfao xDD\xef\xbb\xbf'
p329
aS'\xe2\x96\x91\xe2\x96\x91\xe2\x96\x91\xe2\x96\x88\xe2\x96\x88\xe2\x96\x88\xe2\x96\x88\xe2\x96\x88\xe2\x96\x88\xe2\x96\x88 ]\xe2\x96\x84\xe2\x96\x84\xe2\x96\x84\xe2\x96\x84\xe2\x96\x84\xe2\x96\x84\xe2\x96\x84\xe2\x96\x84                   Bob is building an army.\n\xe2\x96\x82\xe2\x96\x84\xe2\x96\x85\xe2\x96\x88\xe2\x96\x88\xe2\x96\x88\xe2\x96\x88\xe2\x96\x88\xe2\x96\x88\xe2\x96\x88\xe2\x96\x88\xe2\x96\x88\xe2\x96\x85\xe2\x96\x84\xe2\x96\x83\xe2\x96\x82       \xe2\x98\xbb/\xef\xb8\xbb\xe2\x95\xa6\xe2\x95\xa4\xe2\x94\x80   This tank & Bob are against Google+\nIl\xe2\x96\x88\xe2\x96\x88\xe2\x96\x88\xe2\x96\x88\xe2\x96\x88\xe2\x96\x88\xe2\x96\x88\xe2\x96\x88\xe2\x96\x88\xe2\x96\x88\xe2\x96\x88\xe2\x96\x88\xe2\x96\x88\xe2\x96\x88\xe2\x96\x88\xe2\x96\x88\xe2\x96\x88\xe2\x96\x88\xe2\x96\x88].  /\xe2\x96\x8c              Copy and Paste this all over\n  \xe2\x97\xa5\xe2\x8a\x99\xe2\x96\xb2\xe2\x8a\x99\xe2\x96\xb2\xe2\x8a\x99\xe2\x96\xb2\xe2\x8a\x99\xe2\x96\xb2\xe2\x8a\x99\xe2\x96\xb2\xe2\x8a\x99\xe2\x96\xb2\xe2\x8a\x99\xe2\x97\xa4..  / \\               YouTube if you are with us\xef\xbb\xbf'
p330
aS'for sh*t no one says you forgot "do you want my left over bacon?" :)\xef\xbb\xbf'
p331
aS'"The Hood" But you can speak like the gangstas, so you can survive.\xef\xbb\xbf'
p332
aS'Andrew Garcia!!\xef\xbb\xbf'
p333
aS'was the entire shit gangsters say about Snape...?\xef\xbb\xbf'
p334
aS'WAY TO MUCH CURSING\xef\xbb\xbf'
p335
aS'Sh*t Siri says\xef\xbb\xbf'
p336
aNaS'sh*t sh*t say SO TRUE xD\xef\xbb\xbf'
p337
aS'Sh*t gangsters say: .........Proffesor Snape..... Snake Tattoo (Dark \nMark).......\xef\xbb\xbf'
p338
aS'Please stop with the bob shit. It\'s not like google is gonna say, "oh shit! \nThey have stick figures! This is to serious call the fucking president!"\nIf you really wanna change things, there is a petition somewhere. Look it \nup yourself.\xef\xbb\xbf'
p339
aS'Sh*t ___ Say\n\nYEAH, OH, MY GOD! *Skrillex music plays*\n\n~Sapphire\xef\xbb\xbf'
p340
aS':3\xef\xbb\xbf'
p341
aS'Gamers do say that\xef\xbb\xbf'
p342
aS'one of the funniest video on internet\xef\xbb\xbf'
p343
aS'Mom bring me a hot pocket \n~ the gamer side of Ryan higa \n\xef\xbb\xbf'
p344
aNaS'all basketball fans watch the end of the video\xef\xbb\xbf'
p345
aS'love seeing this. i remember when it was uploaded... lol u gotta watch\xef\xbb\xbf'
p346
aNaS'Lol\xef\xbb\xbf'
p347
aS'AHHHHH! THE SUNLIGHT\xef\xbb\xbf'
p348
aS'Lol\xef\xbb\xbf'
p349
aS'x)\xef\xbb\xbf'
p350
aS'Ha ah ha\n\xef\xbb\xbf'
p351
aS'Check out this video on YouTube:\xef\xbb\xbf'
p352
aS'This has some Shrillex in it!\xef\xbb\xbf'
p353
aS'Sh*t ___ Say\xef\xbb\xbf'
p354
aS'Lololololololol:D\xef\xbb\xbf'
p355
aS'\xe2\x95\x90\xe2\x95\x90\xe2\x95\x90\xe2\x95\x90\xe2\x95\x90\xe2\x95\x90\xe2\x88\xa9\xe2\x95\x90\xe2\x95\x90\xe2\x95\x90\xe2\x95\x90\xe2\x95\x90 \n\xe2\x95\xad\xe2\x95\xac\xe2\x95\xae     \xe2\x97\xa2\n\xe2\x96\x81\xe2\x95\xad\xe2\x96\x85\xe2\x96\x86\xe2\x96\x87\xe2\x96\xa1\xe2\x96\xa1\xe2\x96\x88\xe2\x96\x87\xe2\x96\x86\xe2\x96\x85\xe2\x96\x84\xe2\x96\x83\xe2\x96\x82\xe2\x96\x81(\xe2\x95\xb3)\xe2\x96\x88\xe2\x95\xae Air support is here,Bob.\n\xe2\x95\xb0\xe2\x95\x90=___\xe2\x96\x83__\xe2\x96\x81\xe2\x96\x81\xe2\x96\x81\xe2\x96\x81\xe2\x96\x81\xe2\x88\xa0\xe2\x96\x94\xe2\x96\x94\xe2\x96\x94 \n\xe2\x95\x99O \xe2\x95\x99O\xef\xbb\xbf'
p356
aS'Skrillex scary monsters and nice sprites 0:33'
p357
aS'I walk into my cat an trip over my dog, kiss a princess and turn into a \nfrog. LOL'
p358
aS'Kids bop...GUINUS!'
p359
aS'Haha best part "lebron James clutch" haha'
p360
aS'Hahaha this is hilarious!!'
p361
aS'Only true gangsters can pull off a moose shirt'
p362
aS'did any one else notice the guy with glasses sounds like the tubby guy from \nsuperbad'
p363
aS'TEEHEE'
p364
aS'2:43 LIES'
p365
aS'A banania XD'
p366
aS'Have you heard T-Pane sing. HE CAN SING. LOOK HIM UP.'
p367
aS'Ryan: I Walk Into My Cat Trip And Over My Dog Kiss A Princess And Turn Into \nA Frog Me:LOLOLOLOLOLOLOLLROFLROFLLOLOLOL'
p368
aS'I forgot about this video but when I saw shit gay vampires say I spit soda \nat my computer! '
p369
aS'Ik it would end wit tehe'
p370
aS'Sh*t NO ONE says n.n'
p371
aS"So you're telling me. Unicorns. Aren't? Real??"
p372
aS'I never now that you van play sbox with out battery !!!!!!'
p373
aS'Best part: i walk into my cat trip over my dog kiss a princess turn into a \nfrog xD'
p374
aS'MAPOTI.'
p375
aS"You didn't answer my question"
p376
aS'check out my channel'
p377
aS'Do not did evil auto correct'
p378
aS'His PEN15'
p379
aS'that lebron james one is false now'
p380
aS"Wait... Unicorns don't exist?"
p381
aS'Lebron James... Clutch. Ahhaha that was the best one!!'
p382
aS'wow.. there is even gay vampire.. ahaha..'
p383
aS'YES OH MY GOOOD!!!!! "bass drop"'
p384
aS'1:15 Hey there, little poopsie woopsie toopsie woopsie doopsie coopsie \nboopsie woopsie! WTF? My mom does that with babies she sees when we go \nshopping. MAPIRL (most annoying people in real life).'
p385
aS'Its funny'
p386
aS'Lmao the ending!'
p387
aS'2:16!!!!! lol!! look it up!! :|'
p388
aS'1:12 True'
p389
aS'hah its bright'
p390
aS'Even gangsters love hogwarts '
p391
aS'Ytf'
p392
aS"... the gamer one's true no matter what game you're playing..."
p393
aS'hey there little doopsie woopsie doopsie loopie goopsie! wut the fuck?'
p394
aS'My sister says that she loves cleaning'
p395
aS'I was just about to type exactly the same comment XD'
p396
aS'mw2 bo1 b3'
p397
aS'you know where i wanna go this summer? the hood *serious face* LOL xD'
p398
aS'1:32 sh*t gay vampires say "aah its bright, tss." i totally lost it right \nthere and then. i was laughing so hard...i\'m not against gays BTW.'
p399
aS'1:32 looooooool.'
p400
aS'Shit gay vampires say xDDD'
p401
aS'T-Pain does sound pretty good without auto tune'
p402
aS'Beeeep* and thats when i realized snape was a good guy protecting harry \npotter lolol all that cussing xD lolol'
p403
aS'blackberrysCAN do more then i phones'
p404
aS'Shit people never say, Lebrun James clutch. My favorite one haha'
p405
aS'Lebron james ? Clutch.'
p406
aS'im from the DMV...'
p407
aS'The sunlight! HAH!!!'
p408
aS'Well people say that sarcasm duu'
p409
aS"Actually, I find these 'Shit ___ Say' videos entertaining..."
p410
aS'Im about to die shit marathon'
p411
aS'Who has a flat tire? *raises hand*'
p412
aS"John Green is totally glad unicorns don't exist."
p413
aS'Tomany cas words?,fuuuuuuuuuuuuuuuuuuuuuuuuuuuuuuuuuuuuuuuuny'
p414
aS"Check out my new video/channel.. please.. i'm trying hard to get noticed :/ \n<3 "
p415
aS'Bots.'
p416
aS'Ryan, try to make more videos everyday because everyone will react to your \nchannel, people could even subscribe, love you Ryan!'
p417
aS'Dont you cut me o..'
p418
aS'Bots.'
p419
aS'LOL 1:31 !'
p420
aS'1:19 LOLOL '
p421
aS'nice '
p422
aS"The sunlight! It's bright..."
p423
aS'I once had a unicorn. I had so much fun with it until I had to put it down, \nbecause my mom said that I had to stop playing with my toys. I really miss \nmy little unicorn. #hasbrosfolyfe'
p424
aS'why do people like the online scam posts? and yes Jersey Shore is \neducational!'
p425
aS'that going to be a lot of money for the swear gar '
p426
aS'I love traffic.. I get to listen to more music on my phone'
p427
aS'a banana'
p428
aS'"I think jersey shore is educational" hahaha no.'
p429
aS'U know when they say " I love cleaning " on sh*t no one says well my \nfriends actually says that'
p430
aS'hey there little cutsie wutsie poopsie toopsie wutsie tutsie. dog: what the \nfuck'
p431
aS'1:31 lamfao ! '
p432
aS'For a second, I thought you were talking about the D.C Maryland Virginia \n(DMV) area. Teehee'
p433
aS'1:14'
p434
aS'I once had a banana. I ended up in the ER for 3 min. I left my coat there. \nI hate bananas. '
p435
aS'I had to clean and when I did I said I love cleaning like in this video and \nI got grounded'
p436
aS'Did nobody get the Skrilllex reference?'
p437
aS'I live in South Dakota!'
p438
aS'who are you talking to...'
p439
aS'1:30 best part lolXD'
p440
aS'Ryan kiss a princess and turn into a frog'
p441
aS"Can't stop laughing"
p442
aS'But unicorns are real!'
p443
aS'WHY ARE YOU HATING ON SOUTH DAKOTA? I still like this channel BUT WHY? '
p444
aS'Oh seri your always right'
p445
aS'nonono she talked about this video in another video with ryan '
p446
aS'We want more, Dude vs. Wild '
p447
aS'I have an idea "Sh*t Apple fanboys say". I own a mac, and you do not want \nto see what the apple forums says..'
p448
aS'shit dogs say lol '
p449
aS'The hood lmao'
p450
aS'This one is my favorite.'
p451
aS'TEEHEE!!! :D'
p452
aS'I just fell on the ground dying when started skrillex in the game part.'
p453
aS'TEEHEE'
p454
aS"What's that red leather jacket/hoodie he has called and where can I buy it? \nPlease reply anyone"
p455
aS'Yeah omg!!Bwooww'
p456
aS'That dog part was soo funny. I bet dogs actually think that when owners cal'
p457
aS'dear RAYAN i loved the rap parts on your video so pl get your friend the \none on this video to do other stuff with you hi so hilarious specially as a \nbackground XD'
p458
aS'But I like cleaning'
p459
aS"lol the dog '' wtf''"
p460
aS"There's a south Dakota?!!!! Lol"
p461
aS' sh#t i say '
p462
aS'clutch!'
p463
aS'Could not stop laughing during shit gangsters say'
p464
aS'wow really... -_- i hope there are some smart people in this world.'
p465
aS'Lol I love the$#*+ no one says'
p466
aS':))))))))'
p467
aS'"Yes!Traffic!"Lol Lol!'
p468
aS'This is old what people say now is "N*ggas be like" "B*tches be like" '
p469
aS"Hahahahha ..... Dubai is a city the UAE is the United Arab Emarits and I'm \nfrom Abu Dhabi - Al Ain "
p470
aS'Knew it at the end lol'
p471
aS'Well, lebron not clutch? Recently he has been clutch'
p472
aS'HOGWARTS FOR LIFE!'
p473
aS"Sweet! I've just received my free Riot Points! >> FreeRiotPoints.me << "
p474
aS'0:32 song watch?v=QOAoYKkMWbI'
p475
aS'Vampires lolololololololololol'
p476
aS'LeBron is clutch now'
p477
aS'i can understand why he dosent want to go to south Dakota i live here'
p478
aS"in 0:17 the remote doesn't have batteries :D"
p479
aS"like if you think ryan's best videos were when they had ryan,andrew,chester \nand dominic"
p480
aS'Dog: What the f*ck... laughed harder than i should have...'
p481
aS"Dam it Ryan!!!!why won't you reply back!!"
p482
aS'The "Sh*t dogs say" was/is the funniest part ! XD !!!'
p483
aS"i think higa's favorite food is a hot pocket or something....lol "
p484
aS'Seems interesting, but .I did -45 lbs in two months.Go to \nhawght.so\\#9qi2z6u '
p485
aS'Shit gamer say is me'
p486
aS'hi boopsie poopsie'
p487
aS'The censoring is what makes the part funny, dumbass.'
p488
aS'The "shit gamers say" is so true for me except when something bad happens I \nyell louder'
p489
aS'Lmfao. Got me at " Who know who\'s clutch. ? LeBron James." HAHAHAHAHA. Good \none guys. !'
p490
aS'The gamer one is my brother, totally!'
p491
aS'Sh*t Sh*t Say: Looking at front of bathroom with door closed *Ploop* \n........"Freeeeedooooommmm"'
p492
aS"I watch this after Ryan's censorship vid and piss myself laughing at the \ngangster bit ;)"
p493
aS'you sucks. '
p494
aS'nice camra'
p495
aS'and fat '
p496
aS'lmao @ I think jersey shores educational '
p497
aS'I live in UAE too!'
p498
aS'in my first comment i mentioned smosh reference '
p499
aS'I went to South Dakota this summer and it was actually a lot of fun!'
p500
aS'Does someone have a flat tire? LOL'
p501
aS'Gay vampire I love u'
p502
aS'lebron won a championship yesterday'
p503
aS'Forgot "Fagot" too. Hear it all the time.'
p504
aS'My mom actually says I love cleaning.....'
p505
aS'OMG! I got the one direction movie commercial for this video...i hate myself'
p506
aS'this wasnt made yesterday it was made when he was the frozen one'
p507
aS'you gotta love this video xxx'
p508
aS'LOL marley'
p509
aS"3,856 people don't think Jersey Shore is educational."
p510
aS'Wat up with camera'
p511
aS"This was posted on my bday!!!!'"
p512
aS"i'm a banana"
p513
aS'I walk into my cat tripped over my dog kissed a princess turned into a frog \nlol my favorite part'
p514
aS'TEEHEE'
p515
aS'The fat guise kintroler had no badger ryes'
p516
aS'You know where I really want to go this summer?'
p517
aS'Hey my little poopsie woopsie doopsie....ect. What dah fuck?'
p518
aS'1:38 is soo funny'
p519
aS'WTF'
p520
aS'love you ryan ! :3'
p521
aS'You know where I really wanna go? The hood! Lmfao #dead'
p522
aS'Anyone noticed the gamer is not even using batteries?'
p523
aS'Ryan i have a question.... what are you??? i know your asian but are you \njapanese,chinese,or korean or another asian culture WHAT ARE YOU'
p524
aS'Lebron James ....clutch haha'
p525
aS'I just died laughing at the Gay Vampire part XD'
p526
aS'hahaah "ok baby..see you tonight"....."who is that"?...."its my mom" !! \nhahahaah LOL'
p527
aS'Love the LeBron joke'
p528
aS'shit shit say : *blop* hahahha XD'
p529
aS'shit gay vampires say " -gasp- its bright -rawr-'
p530
aS'Guys! Please soport my vid! " inmortal" hop you Guys like it god bless'
p531
aS'its a smosh reference.................... '
p532
aS'Hhhhhhhh the gay vampire'
p533
aS'...I just went to South Dakota...'
p534
aS'So wait...they buy likes? They spend MONEY just to give people viruses? \nExcuse me while I reflect on how much I care about Humanity now...'
p535
aS'oh they are just some gaming channels. '
p536
aS'Lebron James? Clutch lol yeah right'
p537
aS'2:36 I actually do want to go to South Dakota. And I get to go there \ntomorrow:)'
p538
aS'1:20 WTF?'
p539
aS'Wtf was that'
p540
aS'WOWOWOWOWO LOLOLOLOL 1:29'
p541
aS'The look on dogs face said it all .....'
p542
aS'XD the dog'
p543
aS'Lol I used to live in South Dakota so glad I moved though it was boring as \nfuck xD'
p544
aS'You just said it bro lol'
p545
aS'Over 300+ dislike wow'
p546
aS'The x-box remote has no batteries! '
p547
aS'lebron james clutch lol'
p548
aS'#best day'
p549
aS'b~~~~~~~~~~~~~~~~~~~~~~~~~~~~~~~~~~~~~~~~~'
p550
aS'hhahahahahah the DMV!'
p551
aS'...so you call me retarded and justified it by saying i had a nerd \ndefinition? Yeeaaa. We aren\'t fighting...we are just "debating" a slight \ndisagreement between each other.'
p552
aS"Coming from someone who lives in south dakota, trust me, you don't want to \ncome here unless you like rocks. Because that's all we have to offer."
p553
aS'Marley what the f'
p554
aS'TEEHEE'
p555
aS'On gamers he forgot LAG!!!!!!'
p556
aS'a banana.. i lost it'
p557
aS'lol what he said about South Dakota was true..'
p558
aS'Fuckin awsome'
p559
aS'Ocd people say they love cleaning.'
p560
aS'Dont u cut me of-----'
p561
aS'Sh*t no one says...(sarcasm).'
p562
aS'it saddens me that they only played the skrillex some once'
p563
aS'Is he shitting? With his pants ON?!? '
p564
aS'"What the fu..." xD '
p565
aS'I Have that headset'
p566
aS'Oh , its bright , arg XD'
p567
aS'I just loved the gay vampire part. Hahaha'
p568
aS"Dude, Gavin free said the 'I can talk' when it was the dog"
p569
aS'Wait a second... Thats not a vampire... Thats me...'
p570
aS'traffic is awesome when your going to school on the bus'
p571
aS'Where is the donut?'
p572
aS'(poop sounds)'
p573
aS'im a Banana :)'
p574
aS'Doik!'
p575
aS'dear ryan - can you be moslem '
p576
aS'____ \xef\xbd\xa1\xe2\x97\x95\xe2\x80\xbf\xe2\x80\xbf\xe2\x97\x95\xef\xbd\xa1'
p577
aS'you know where is really want to go this summer... the DMV'
p578
aS'shit dogs say had me dieing xD'
p579
aS'Lol'
p580
aS'I laughed sooo hard at the banana.... My humor is so simple'
p581
aS'Lebron James, clutch is true'
p582
aS'"You know where I really wanna go this summer?" "Where?" "The hood." HAHA I \nwas dying :)'
p583
aS'Lebron james clutch xD'
p584
aS"WHO'S JUSTIN BIEBER? OMG THATS THE BEST"
p585
aS'Dear ryan,can u drive a manual car?'
p586
aS'BEEP BEEP BEEEEP BEEEEEPBEEEPBEEEEEEEEEEPBEEEEEEEEEEEEEEEEEEEEEEEEEEEEEEP'
p587
aS'The gay vampire pahahaha'
p588
aS'a banna'
p589
aS'Ryu Vault ........REALLY'
p590
aS'Just fucking say penis what are you 5 years old?'
p591
aS"Hah it's bright. Rrr..."
p592
aS'It was funny when it says gay vampire say'
p593
aS'hey I actually like waiting for the bus'
p594
aS'Lol gay vampires say!'
p595
aS'lol when he was singing and his friend was dancing in the background hahaha'
p596
aS'non alcoholic beer GENIUS '
p597
aS'"That\'s when I realized: Snape a good dude. He was lokkin after Harry \nPotter the whole time." "That\'s whats up, Hogwarts for life!"'
p598
aS'WTH SOUTH DAKOTAS THE BEST'
p599
aS'Lmao'
p600
aS"3,839 people don't think Jersey Shore is educational....."
p601
aS'fuck'
p602
aS'ahhh its bright , made my day hahaha '
p603
aS'My dad says he loves traffic :S'
p604
aS'2:43 the sound off all south decodians unsubbing'
p605
aS'Some people actually do say "I love cleaning" '
p606
aS'Oh and what nobody says haha'
p607
aS'\xef\xbd\xa1\xe2\x97\x95\xe2\x80\xbf\xe2\x80\xbf\xe2\x97\x95\xef\xbd\xa1'
p608
aS'Kids bop lol'
p609
aS'i hate when im trying to c what they r talking about and i have to keep \nclicking show comment'
p610
aS'i know huh'
p611
aS'oH I CAN TALK omg'
p612
aS"Unicorns aren't real? ;~;"
p613
aS'died laughing at the "shit dogs say" part.'
p614
aS"Oh siri you're always right. No! You can't be right you can only be CORRECT!"
p615
aS'Lebron was pretty clutch yesterday.'
p616
aS'When I was little I was afraid of unicorns'
p617
aS'Lebron james, clutch'
p618
aS'What the fu--'
p619
aS'Shit game documentor says.'
p620
aS'"bakit bakit bakit" hahaha'
p621
aS'Sh*t dog say LOL'
p622
aS'wow you must be slightly retarded.'
p623
aS'How the hell did this get 75 likes?'
p624
aS'*plook*'
p625
aS'Ya kno what ABSOLUTELY NOBODY IN THE MOTHERLOVIN WORLD says? "I LOVE \nBarney!"'
p626
aS'You look like Taecyeon from 2pm!'
p627
aS'why? '
p628
aS'I tried it!!! it came with a paper iPad!!! i ate it'
p629
aS'This is stupid'
p630
aS"sh*t NO ONE says: (mom) Hey son, you don't have to take your jacket with if \nyou go out."
p631
aS'0:15 Shit CoD player say'
p632
aS'I do love glee!'
p633
aS"You know who's better than Kobe Bryant, Luke Walton :-) :-)"
p634
aS'At 2:37 i was like, wooow, not cool'
p635
aS'Why does this come up when I type \xef\xbd\xa1\xe2\x97\x95\xe2\x80\xbf\xe2\x80\xbf\xe2\x97\x95\xef\xbd\xa1?'
p636
aS'(For sh*t no one says) Me: You know where I want to go? Detroit.'
p637
aS'I am no one.'
p638
aS'DUU AAPP!! Lmao'
p639
aS'the dmv one is sooo true -_-'
p640
aS'"it\'s bright" mini claw* omg rofl'
p641
aS'he said "i really wanna go this summer"'
p642
aS'Shit gangstas say...Nigga!'
p643
aS'Hashtag South Dakota Lyfe'
p644
aS'you have from bad grammar'
p645
aS'You know where I wanna go this summer? South Dakota. I loved that part!!'
p646
aS'Swog'
p647
aS'The dog one xD'
p648
aS'Thanks a lot...'
p649
aS'Cant tell if for serious....Or being a troll... Skrillex - Scary Monsters \nand Nice Sprites '
p650
aS'Yes! Oh My god! *skrillex* XD'
p651
aS"I'm from south dakota!!!!!!!!!!!!!!!!!!!!!!!"
p652
aS'lol 1:14'
p653
aS"The Sh*t Gangsters say is legit--and I mean ALL OF IT is legit...INCLUDING \nthe Harry Potter part. We get these gangsters dressed up in their obvious \nattire coming to the Harry Potter showings jumping in their falling pants! \nThey've got mad respect for that movie series. I swear I saw one of them \ntear up when Snape died! I SWEAR IT!"
p654
aS'1:23 IIIIIIII... walkintomycatandtripovermydog Kiss a princess and turn \ninto a frog Hmm... need to be a hashtag. #iwalkintomycatandtripovermydog'
p655
aS'Jersey shore educational made my day'
p656
aS'LOOL'
p657
aS"lol there wasn't any batteries in the controller 0:16-0:17"
p658
aS'the other guy reminds me of josh from drake and josh'
p659
aS'Love the Lebron James one because its true!!'
p660
aS'The Batterys are out(on sh*t gamers say)'
p661
aS'Hahahaha dogs and gay vampires'
p662
aS'People who say shit that noone says are the most positive of people.'
p663
aS'i love sh*t inanimate objects say'
p664
aS"I love your channel I can't stop laughing "
p665
aS'"HE WAS LOOKIN OUT FOR HARRY POTTER THE WHOLE TIME!"'
p666
aS'the xbox has no batters'
p667
aS'Do you even lift?'
p668
aS'Animals- Wtf?!'
p669
aS'____ \xef\xbd\xa1\xe2\x97\x95\xe2\x80\xbf\xe2\x80\xbf\xe2\x97\x95\xef\xbd\xa1'
p670
aS'Sh*t ponies say'
p671
aS'Shit Ryan Higa says...TEEHEE'
p672
aS'oh i can talk LOL '
p673
aS'Do you know what a joke is? Here let me inform you Joke- A thing that \nsomeone says to cause amusement or laughter, esp. a story with a funny \npunchline. Yea, I googled that shit.'
p674
aS'The gangster one ! cx'
p675
aS'how do you get likes???'
p676
aS'Dear ryan, i have a dachshund. Do u even care? XD'
p677
aS'Lebron James Clutch xD.....'
p678
aS"Well then you're nobody."
p679
aS'Hahahahahahahahahaha'
p680
aS'Shit big sean says: I walk into my cat trip over my dog kiss a princess \nturn into a frog lol rollin'
p681
aS'harry potter fuck yeAH'
p682
aS'A banana'
p683
aS'UNICORNS DO EXSIST LOL'
p684
aS'Does Andrew say any at the end of his videos?'
p685
aS'1:31 I peed my pants X,D'
p686
aS"1:33 OMGggggggggg!!!!!! Hhhhhhhhhhhhhhhhhhhhhhhhhhhhhhhhhhhhhhhhhhh X'''D"
p687
aS'/watch?v=9iBkwJUKyOI'
p688
aS'Uh'
p689
aS'andrew ur cool'
p690
aS'Hey littlendopsy woopsy coopsie woospie dog:what the fu LOL'
p691
aS'1:13 ho my fucking god hahahahahaha'
p692
aS'Lol,starting from 1:39.'
p693
aS'lol 0:51'
p694
aS'"I walk into my cat and trip over my dog, kiss a princess turn into a frog" \nctfuu!!!'
p695
aS'the gangster one looool!!!'
p696
aS'Said no one ever'
p697
aS'Hey LeBron is clutch!'
p698
aS'Butthurt detected vvv'
p699
aS'Thumbs up if you tried to find his address on Google Maps '
p700
aS'i got some of my own, Sh*t NO ONE says: Nicki Minaj is so real, not fake, \nSh*t NO ONE says: i love homework, Sh*t NO ONE says: Justin beiber is \nawesome, Sh*t i say: Sh*zz'
p701
aS'for shit gamers say, u forgot LAGGGGGGG'
p702
aS'A banana!'
p703
aS'Paused the vid at 2:30...well then.'
p704
aS'Dear ryan can you photobomb'
p705
aS'Hold on lemme check Google Maps.'
p706
aS'THE HOOD XD'
p707
aS'a banana haha '
p708
aS'This all started because somebody say something to a spammer.'
p709
aS'Lol'
p710
aS'you where I wanna go this summer? the hood'
p711
aS'the gay vampire >>>>>>>>>>>>>>>>>>>>>>>>'
p712
aS'Its bright!! akhhh! lmao'
p713
aS'Sh*t underscores say.'
p714
aS'I think Jersey shores educational'
p715
aS'the dog one was the funnies one xD'
p716
aS"it's funny because I'm actually going on a roadtrip to South Dakota this \nsummer... awk"
p717
aS'Hi everyone'
p718
aS'Sh************************t'
p719
aS'lebron james clutch... :/'
p720
aS'lol. loved if! team Griffindor!!!'
p721
aS"You were completely right about gamers. I'd have voice turned on and al I \nwould hear is exactly what you said."
p722
aS'last saturday spent 4 hours in the DMV best 4 hours of my life!!!'
p723
aS'2:26 thats not even funny .3.'
p724
aS'if your interested there is actually a book called shit my dad says'
p725
aS'2:14 in North America, probably.'
p726
aS'XD so much censorship in the gangster one'
p727
aS'1:45-2:50 DYING'
p728
aS"i actually love cleaning, I'll admit its pretty fun when youre doing it \nwith music."
p729
aS'TEEHEE!'
p730
aS'"Hey I could talk" said the dog'
p731
aS'Andrew! :D'
p732
aS"@rsutera usually it's hot and humid in the summer then wet in spring and \nfall... And it usually snows by Thanksgiving... And stops snowing in \nApril... So you came at the right time!"
p733
aS'Kids bob... Genius.'
p734
aS'i live from South Dakota not cool '
p735
aS'Check out North Korea. They have a unicorn lair there'
p736
aS'Lebron James. Clutch. '
p737
aS'sh*t moms say '
p738
aS'Haha snape a good dude'
p739
aS'true it does'
p740
aS'1:32 i laughed so hard'
p741
aS'i was smiling and then he said "I\'m so glad unicorns don\'t exist" right \nthen my jaw just dropped and I\'m like "oh hell no"'
p742
aS'i live in south dakota :D'
p743
aS'do you wanna know where I wanna go to for the summer? Rehab. Lololol'
p744
aS'I love how he mentioned the sopa law.'
p745
aS'Reply People! This Is The BEST. COMMENT. ADVENTURE. EVER. Reply!'
p746
aS'Thats what she said'
p747
aS'lmao oh the intensity when he says "the hood"'
p748
aS'27 holy shit '
p749
aS'Lol'
p750
aS'He Is A Bever......... That Sings'
p751
aS'the dog one made me rofl'
p752
aS'I friggin loved the gay vampire'
p753
aS'tpain actually sounds good without autotune'
p754
aS'lost it at shit dogs say'
p755
aS'A banana :D'
p756
aS'Did anyone notice that the "gangster" was wearing a moose sweater? Lol'
p757
aS'but my full adress 119 North Sloan Avenue, Compton, California, United \nStated of America, North America, Northwest reigon.'
p758
aS'u even lift bro'
p759
aS'man u just made every nigga in Compton do a facepalm....ima just go ahead \nand say that this dumbass does not represent us.... '
p760
aS"Girls also play MC i'm not one but i know some that do."
p761
aS'Same 3?'
p762
aS'"I Hate Mondays," Duh'
p763
aS'no problem honey'
p764
aS'Compton, CA 90221'
p765
aS'And You Sir, Just Commited A Crime On The Internent. '
p766
aS'It Is In The U.S :p'
p767
aS'I spent like 5 minutes but it was worth it'
p768
aS'Hey I can talk'
p769
aS"Aww, this is like the third video I've seen today that ripped on South \nDakota. I should move."
p770
aS'but if he really thinks hes that bad he should come to my house and fight \nme.'
p771
aS'Come to the dmv please!! (DC, MD, VA) not motor vehicle thing'
p772
aS'125, sure...'
p773
aS'oh thanks :) Bop****'
p774
aS'I know this is a year late, but wut?'
p775
aS'Dear ryan Make a sh*t nigahiga says'
p776
aS'at 1:41 he has his pance on '
p777
aS'Nothing says gangsta more than Bear moose and an eagle on your shirt '
p778
aS'Andrews controller has no batteries.'
p779
aS'where did you guy live?'
p780
aS'T-Pain actually sounds great w/o autotune'
p781
aS"Because he's another easily offended person."
p782
aS'Boring. :3'
p783
aS'Luke Walton> Kobe Bryant'
p784
aS'Censor that you ******* *******'
p785
aS'(Sh*t gay vampire say ) *Replay**Laugh**Replay*Laugh**Replay* '
p786
aS'Lol xD Thats All I Could Say >:3'
p787
aS'TEHEEE'
p788
aS'Sh*t sh*t say: (long pause) *drop in toilet* XD'
p789
aS'sh*t no one says: Miley Cyrus can twerk'
p790
aS'I like traffic...'
p791
aS'boopsy woopsy coopsy '
p792
aS'Beers that are not alcoholic.. Lmaooo'
p793
aS'OH MY GOD yes Traffic!!!!!'
p794
aS'woo another red light, LOVE it'
p795
aS'Lml, I told my 6 year old cousin LeBron was clutch(joking) & he started \nbusting up laughin'
p796
aS'whos justtin bieberr'
p797
aS'I feel bad for you, man.'
p798
aS'no it didnt it gave me life!, i hate people like you who just comments that \nto get popular'
p799
aS'way to not give city or zip code very brave man! and wait you mean to tell \nme California is in the U.S.? mind=blown'
p800
aS'What Big Sean song does he reference in this?'
p801
aS'1:19'
p802
aS"asshole... I'm from South Dakota"
p803
aS'This video wa'
p804
aS'BROMANCE'
p805
aS'hahahaha 1:31'
p806
aS'Boring video..... :( dissapointed'
p807
aS'true i just noticed it'
p808
aS'"Sh*t gay vampires say: A it\'s bright" XD'
p809
aS'1:54 did you just call Ozzy Osbourne no one? Well played Ryan, well played.'
p810
aS'homosexuals are GAY.'
p811
aS'At 1:40 why does he still have his pants on?'
p812
aS'This video was not the best from Ryan '
p813
aS'@supa monsta what the fuck kinda insult is that?! that was rude as fuck. \nand gay means two things. jesus christ.'
p814
aS'you watched the video too?!?!?!'
p815
aS'like ur pictures'
p816
aS"it's bright hahh =))"
p817
aS'MAPOTI'
p818
aS'there are no baterries in the controller he is useing in the first clip'
p819
aS'Timothy delegetto*'
p820
aS'same 4'
p821
aS"ahahaha!!! jayson dwayer's comments are all disliked!! XD"
p822
aS'1:15 funny as hell'
p823
aS'lebron james...clutch!!!!! lmfao'
p824
aS"dude, you didn't spell virus right "
p825
aS"Does anyone notice that the controller on sh*t gamers say didn't have a \nbattery in it"
p826
aS'LOL the dude look like zeke from infamous'
p827
aS'Sh** censores say: *BLEEP* *BLEEP* *BLEEP* *BLEEP* *BLEEEEEP!!!*'
p828
aS'7 times for me and it should be 6 times for you to be exact. and, ur welcome'
p829
aS'lol shit gamers say, true tho'
p830
aS'The dog: what the fuck lol'
p831
aS'Hey there poopsy woopsie coopsy doopsie noopsy poopsie Dog: whaat da fuck?!'
p832
aS'1:21 Da fuck is he doing in the background lol'
p833
aS'The hood lol'
p834
aS'lol '
p835
aS'A banana! ^-^'
p836
aS'these are the parts I like I like the one with the regular that and the gay \nvampire?'
p837
aS'MAKE PART 2!'
p838
aS'shit no-one says, OH YES ITS MONDAY'
p839
aS'but i cant believe you guys actually think imma fight someone. its just \nsomething we say just to say it.'
p840
aS'2:24 lol'
p841
aS'Andrew was cracking me up xD'
p842
aS'If u dont know who is justin bieber u r a frog in a well if u dont know wat \nthat means u r a son of bitch and if u still dont know wat that means u r \nstupid'
p843
aS"Look I'm part of a gang and I have to put hashtags on everything \n##########hello###### you're retarded"
p844
aS"who's Justin bieber? lmao"
p845
aS'The gay vampire had me weak lol'
p846
aS'Theres no battery pack on the xbox controller lol'
p847
aS'Just kidding bro'
p848
aS'I realized how people who say shit that nobody says are the most optimistic \npeople ever.'
p849
aS'Nope, still pretty relevant. LeChoke'
p850
aS'Oh my god... YEAH OH MY GOD *Drop the bass* WUUUUUUBWUBWUBWUBWUB'
p851
aS'OMG MAN YOUR COMMENTS ARE SO FUNY XDXDXDXDDXDXDXDXD LIKED SUBSCRIBED GOTTA \nTWITTER AND SHARE ON FACEBOOK LOLLOLOLOLOLOLOLOLOLOLOLOL \nXDXDXDXDXDXDXDXDXDXD'
p852
aS'Kids bop, GENIUS LOLLLLLLL'
p853
aS"Ok I absolutely love Andrew he's halarious."
p854
aS'Hahaha. The last one is irrelevant today.'
p855
aS'awesome'
p856
aS'Your filthy avatar gave me a rectal prolapse.'
p857
aS'you poop always do you'
p858
aS'Just.... no.'
p859
aS'Best Harry potter summary ever'
p860
aS'do ryan like justin bieber '
p861
aS'TEHEE! my fav part...xD'
p862
aS'Lebron James? Clutch. LOL'
p863
aS"I don't think even spell check can fix that."
p864
aS'Agreed ;)'
p865
aS'Lmfao when I realized he was talking about Harry potter. Had to pause it \nthen proceed to laugh my ass off'
p866
aS'9 in the morning is NOT early. Get out of bed you lazy bum.'
p867
aS'Oh my gosh the gay vampire lmao'
p868
aS'Love the gay vampire'
p869
aS'Dear Ryan, can you be meme?'
p870
aS'Yeah, not even people from South Dakota (a.k.a. Me) want to be here in the \nsummer.'
p871
aS"LOL the dog ''WTF'' and then hes all I can talk"
p872
aS"That I'm a banana should've been done by Onision *Banana power high five*"
p873
aS'no no no just no'
p874
aS'About gamers you forgot -Fucking cheater -I fucked your mom -Fuck that game'
p875
aS'"You know where I really don\'t wanna go this summer? South Dakota." Fine, I \nnever wanted to go to Hawaii either!'
p876
aS'Dad: WHT r u watching? Me: Niga higa'
p877
aS'1:31 Klick it . Now.'
p878
aS'the xbox controller does not have a back '
p879
aS"Gott' em"
p880
aS'bs'
p881
aS'1:54 ozzy osbourne said it xD'
p882
aS'Dear Ryan, can you introduce us to your filming crew?'
p883
aS"2:35 Hey, fuck you Ryan. Well, it's true, I hate living here. :("
p884
aS'0:31 the cup girl is asian too :D xD'
p885
aS'Dear nigahiga can u make another parody'
p886
aS"LOL I'm A Gamer And I Say All Those Things!! Except The Hotpockets... Coz I \nLive In Australia... :3"
p887
aS'This HAS to be one of my favorite youtube vids. '
p888
aS'I love traffic <3.................NOT'
p889
aS'No unicorns :( lol #lessthanthree'
p890
aS'Andrew is so damn funny'
p891
aS'TEEHEE'
p892
aS'Lebron James... Clutch hahaha omg I was on the ground'
p893
aS'lebron is clutch'
p894
aS"he didn't have batteries in the controler "
p895
aS'I know, but assholes like him deserve reprimand. '
p896
aS'damn my cousin sounds like that'
p897
aS"I'm white, so I'm actually the best whipped cream."
p898
aS'He was giving his opinion while dissing someone who was trying to advertize \ntheir website on youtube. 2 for 1!'
p899
aS'i cant even lie'
p900
aS"*cough*he'satroll*cough*"
p901
aS'Shit Nigas Say'
p902
aS'Sh*t Gamers say is what I hear my brother yelling... All the time... "OH MY \nGOOOOOOOD* And now/...'
p903
aS'I live in South Dakota and I agree with you...'
p904
aS'im pretty sure thats actually stereotype'
p905
aS'I thought gay vampires would say, "oh sunlight, I sparkle!" '
p906
aS'Yeah.'
p907
aS'is this gagman style son '
p908
aS'A baniana'
p909
aS'GOD RYAN AND YOUR FRIEND IS HILARIOUS my fav bit was shit gay vampires say \nit was hilarious'
p910
aS'Click Show the comment for a pointless stupid Comment Adventure'
p911
aS"LMAO Hey. South Dakota's not that bad. I swear."
p912
aS'i truly do not understand the point of arguing over the internet and \ntelling someone to fight you. you, sir, are probably 2000 miles away from \nJason Carbon and would not be able to fight him anyhow. what sense is there \nin telling someone who you dont know to fight you. for all you know he \ncould be crazy and stalk and find you and end up killing you slowly. you \njust never know man. (btw, jason carbon, im not calling you crazy. i was \njust giving an example you know?). so its better to not bother. '
p913
aS"My favorite part: Sh*t big sean sounds like he's saying"
p914
aS'huh?'
p915
aS"Well, you represent it well. Fuckin' bitches!"
p916
aS'Cleaning mom'
p917
aS'lol i guess all gamers play cod.'
p918
aS'LOL you know whos better than kobe bryant? luke walton .. almost crapped my \npants for that '
p919
aS"Spoiler to the movie? Um...that's a quote from the video..."
p920
aS'I love you the person who poster paus at 0:44'
p921
aS'U gay'
p922
aS'no in minecraft there is 10 lifes :P'
p923
aS'lebroons gotten better with his clutch performance'
p924
aS'Ah crap!'
p925
aS'it is kinda funny ro hear the guy say " I love when the toilet seat is cold \nin the morning"'
p926
aS'That guy with glasses on shit gamer says hadent batteries in the controller'
p927
aS'Dear Ryan-Can u make another video on how to be a gangster?'
p928
aS'i knew he would put scary monsters and nice sprites because he said YES OH \nMY GOD'
p929
aS'yea but he has the charger from the charge and play kit so you dont need a \nbattery when you have that cable connected i have done it my self and the \ncontroller came on when i didnt put my battery in'
p930
aS'you have the same printer as me!'
p931
aS"Every time I watch this I laugh at the South Dakota part! I'm from South \nDakota and I don't even want to be here! You get tired of corn, buffalo, \ncorn, beans, corn, and more corn!"
p932
aS'Gay Vampire.. xD'
p933
aS'Not that funny....'
p934
aS"1:15 to 1:21 can't stop laughing"
p935
aS'"That\'s when I realized Snape a good dude." "That\'s whazzup, Hogwarts for \nlife!"'
p936
aS"Ok well I havent' watched Smosh in like a year I'm not some 9 year old \nfanboy anymore that has to comment references on random videos"
p937
aS'I died when he made the shit sound'
p938
aS"My laptop froze at 1:21 & i can't stop laughing at the dog xD"
p939
aS'LMAO XD'
p940
aS"Lol LeBron James clutch haha he's getting there"
p941
aS'THERE WAS SKRILLEX FTW'
p942
aS'Awkward moment when you notice he is wearing the same Alaska shirt as \nyou... '
p943
aS'Don\'t even bother awnsering to that noob "Jayson Dwyer". Haters gona hate...'
p944
aS"Don't discriminate gamers, buddy. :P"
p945
aS'I love how arrogant people are purely immoral, and are loners! Like you!'
p946
aS'First of all Luke Walton is the worst basketball player ever so Kobe is \nbetter. Kobe is the one who is clutch'
p947
aS'what about...Shit goku say?? respond back.'
p948
aS"@1:16 dog killed me lol :') "
p949
aS'YOU MAD BRO HU HUUU!! YOU MAD BRO YOLO!!! YOU BAD BRO YOU MAD BRO YOLO'
p950
aS'oh man the gay vampire HAHAHAHAHA!!!! '
p951
aS'1:20 best part'
p952
aS',.!@#$%^&*()_-+=/><\';":\\|]}[{\xc5\x92\xe2\x80\x9e\xc2\xb4\xe2\x80\xb0\xcb\x87\xc3\x81\xc2\xa8\xcb\x86\xc3\x98\xe2\x88\x8f\xc3\x85\xc3\x8d\xc3\x8e\xc3\x8f\xcb\x9d\xc3\x93\xc3\x94\xef\xa3\xbf\xc3\x92\xc2\xb8\xcb\x9b\xc3\x87\xe2\x97\x8a\xc4\xb1\xcb\x9c\xc3\x82\xc3\x9a\xc3\x86\xe2\x80\x9d\xe2\x80\x99\xc2\xbf\xcb\x98\xc2\xaf`~`\xe2\x81\x84\xe2\x82\xac\xe2\x80\xb9\xe2\x80\xba\xef\xac\x81\xef\xac\x82\xe2\x80\xa1\xc2\xb0\xc2\xb7\xe2\x80\x9a\xe2\x80\x94\xc2\xb1'
p953
aS"UNICORNS AREN'"
p954
aS'This video is worth 9001 subscribes'
p955
aS'"Dat\'s when I realized. Snape\'s a good dude! He was lookin\' out for Harry \nPotter the whole time!"'
p956
aS'Gay Vampire is the BEST!!!'
p957
aS'The gay vampire one is priceless!'
p958
aS'ur late as fuck too naruto.'
p959
aS'sarcasm much'
p960
aS"Jason carbon...why would you say something like that?? you don't tell \nanyone to die. I wonder what your karma will be...??"
p961
aS'SAID NO ONE EVER! 1:46 and onwards lol'
p962
aS'SCARY MONTERS AND NICE SPRITES YES!'
p963
aS'Jealous?'
p964
aS'hahaha when there is the part about shit gamers say you can see that there \nare no batterys in the controller'
p965
aS'NAh just your daily bitcoin miner trojan passing by :P'
p966
aS'I feel like a gangster now. :D 0:35'
p967
aS'ha i love how jitts try to stick together when they have no other friends. '
p968
aS'LOOOOOOOL'
p969
aS'True that, assholes like him need to learn how to shut their mouths. '
p970
aS'YOUR PINK ^-^'
p971
aS'With fries on the side?'
p972
aS'Omg glee is awesome'
p973
aS'a buneana'
p974
aS'SKRILLEX'
p975
aS"Listen, you can't say people have no life because of what they like. That's \nlike saying you are uneducated for your race."
p976
aS'What the ****'
p977
aS'A banana. :D'
p978
aS'Whats your favorite video game ? '
p979
aS'But at 2:48 I like to do that'
p980
aS'LMADERP'
p981
aS'cluth'
p982
aS'Lebrons clutch now, but awesome video!'
p983
aS'Sh*t Youtube comments say:'
p984
aS"I put it into google maps. It's actually in compton. I'm not sure why, but \nI started cracking up."
p985
aS'"Lebron James... clutch" A little too outdated.'
p986
aS'Sh*t I say and i said now xD Good one bro'
p987
aS'We do have unicorns, They are just fat and we call them rhinos '
p988
aS"*awesome gay gasp* It'zz braight...Hhhhahhh. *retracts hand like an awesome \ngay* >w>"
p989
aS"I've had another video opened in a new tab for 2 hours but i can't watch it \nbecause iu'm stuck re-watching ryan's videos."
p990
aS'But it\'s connected to a "Play & Charge" cable...'
p991
aS'2:04 whenever im late but when im on time no red lights -_-'
p992
aS'LeBron James, clutch'
p993
aS'My father actually said: "Who\'s Justin Bieber?" lol!'
p994
aS' love dis'
p995
aS'*Gasp* Its bright, ah ..'
p996
aS'Gay vampire=dead!'
p997
aS'dear ryan- can you do a prank on YTF?'
p998
aS'We have the same printer'
p999
aS"I will say all of these cause I have nothing to do and it's my birthday"
p1000
aS'I live in South Dakota! So pick another state!'
p1001
aS'I acutely love cleaning. Love it. Not a joke.'
p1002
aS'I teehee was coming when it said the last s*hit say'
p1003
aS'Shit dogs say was so freaking funny'
p1004
aS'mami heat is awsome'
p1005
aS'Lebron James: Clutch! I CANT FEEL MY SIDES!!!'
p1006
aS"2:14 What..? Unicorns don't exist??? :'("
p1007
aS'This actually sounds like my friend when she plays MW3'
p1008
aS'hes got plug and play '
p1009
aS'More like "____ be like" '
p1010
aS'trendsonyoutube.wordpress com/ go here to see the newest and the funniest \nvideos on youtube'
p1011
aS"Ahhh... It's bright.... Heeee"
p1012
aS'are you retarded?'
p1013
aS'If you can tell dumb ass it has a connector cable, thus not needing \nbatteries dip shit...'
p1014
aS'The dog was like wtf'
p1015
aS'A minecrafter??? '
p1016
aS"Just stop it dude, don't start. "
p1017
aS'*blop**blop**blop**blop**blop**blop**blop**blop**blop**blop**blop**blop**blop**blop**blop**blop**blop**blop**blop**blop**blop**blop**blop**blop**blop**blop**blop**blop**blop**blop**blop**blop**blop**blop**blop**blop**blop**blop**blop**blop**blop**blop**blop**blop**blop**blop**blop**blop**blop**blop**blop**blop**blop**blop**blop**blop**blop**blop**blop**blop**blop**blop**blop**blop**blop**blop**blop**blop* \nxD'
p1018
aS'Nah but real talk I take Luke Walton over anybody'
p1019
aS'"Shit Gay Vampires Say" Probably one of the funniest parts in this video, \nmade me laugh my ass off :D'
p1020
aS'actually, i do like cleaning.. every once in a while. :P'
p1021
aS"Um '{'&13"
p1022
aS'pause at 0:44 '
p1023
aS'Hey there little Poopsie Woopsie Cupsie Woopsie Doopsie Coopsie Boobsie \nWoopsie?'
p1024
aS'Wow! .I did -40 lbs last 2 month.Visit hawght.so\\#9L9GwFT 8RCENVd5bl0Rm00oX '
p1025
aS'Really? I wonder what they taste like...'
p1026
aS'Yhat dogs name was marley hes on you tube'
p1027
aS'Lmfao the gay vampire'
p1028
aS'Ha'
p1029
aS'Sh*t people say when they dont have a ending to there video. TEEHEE'
p1030
aS'/watch?v=9aomEmN71vA watch this -_______-'
p1031
aS'Dear hot ass Ryan watch shit asian parents say'
p1032
aS"1:30 it's brite lol "
p1033
aS'for sh*t gammes say I know two he forgot "HARD SCOPER!!!" and "laaaaaag"'
p1034
aS'Wow, no one cares. '
p1035
aS'this is amazing! \xe2\x97\x95\xe2\x80\xbf\xe2\x97\x95'
p1036
aS"not to get mad about this but twilight movies and books ARE awesome. not to \nbe rude but i'm just saying my opinion. "
p1037
aS'Lol the dog one made me laugh so hard'
p1038
aS'this is so funny'
p1039
aS"2:31 ' Siri your always right!!!'"
p1040
aS'do you really wanna kno where i want to go to? where the hood LMAO'
p1041
aS'he really easily being sicked by current trends stuff~ haha :D'
p1042
aS'you spelt virus wrong'
p1043
aS'GAY VAMPIRE!!!!OMG'
p1044
aS"yes but its plugged in you don't need batteries for it -.-"
p1045
aS'Hey, r u using iMovie?'
p1046
aS'does the free virus comes with it too?'
p1047
aS"doesn't matter see the cord that's the charger no battery needed :)"
p1048
aS'yeah but its plugged in...'
p1049
aS'lmao objects say'
p1050
aS'1:30 LOL 4real'
p1051
aS'look at andrews face at 0:43! HILARIOUS '
p1052
aS'a banana xD '
p1053
aS'Was it really nessacary to put gay vampires? Everyone knows all vampires \nare already gay'
p1054
aS"'Sh*t gay vampires say!!!' Laughed so hard ;D"
p1055
aS'Nice crocs'
p1056
aS'HAHA! @ 00:50 no weight on the bench nor curl bar...'
p1057
aS'This video was genius'
p1058
aS'the best thing was "what gay vampires say " :P hahahaha i cracked'
p1059
aS'Who is better than Kobe Bryant? Luke Walton AHAHAHAH I laugh!'
p1060
aS'DOIN NIGAHIGA MARATHON AND IM LOVIN IT'
p1061
aS'i am from south dakota D:'
p1062
aS'I love glee!! Lol'
p1063
aS'you have skrillex awsome'
p1064
aS'I love Glee. lol'
p1065
aS'Lol big Sean'
p1066
aS'How did this become a top comment??? Who liked this?'
p1067
aS'Lol 1:32'
p1068
aS'why wudd i be mad. i yes i know you only live once. ur late as fuck too.'
p1069
aS'i notesed when u did s*** no wone says u said it'
p1070
aS'spam automatically gets fake likes once the comment is posted'
p1071
aS"There's no batteries in the controller hahahahahah"
p1072
aS'The number of views are more then his subscribers. Things need to be \nexplained.WHY IS THIS?!'
p1073
aS'THE SUNLIGHT GHAAH!!!'
p1074
aS'The hood'
p1075
aS'Shit Gangsters Say... Who knew he was talking about Snape?'
p1076
aS'Definitely one of my favorite youtube videos!!!'
p1077
aS'too far with the unicorns'
p1078
aS"I actually like the toilet seat cold in the morning. Just sayin'."
p1079
aS'Siri ur always rite...jersey shore is educational OK inno these r jokes but \nits evn hard 2 hear these things evn thou u kno its a joke'
p1080
aS'Lol I used to live in we and yes no one should go there'
p1081
aS'malta A.K.A no alcoholic beer is the shit look bad ass but drive home '
p1082
aS'Lmao'
p1083
aS'Amma Banaynah!'
p1084
aS'2:21 is one of my big pet peeves '
p1085
aS'19 my friend (counting yours)'
p1086
aS'U should make a vid with Timothy delegado'
p1087
aS'But Lebron is clutch wtf bro'
p1088
aS"Andrew is so funny! I wouldn't be able to record any of these scenes with \nhim because I would be laughing so hard all the time XD"
p1089
aS'i wanna go to the hood too '
p1090
aS'what if you say eeheet'
p1091
aS'2:05 bet that was not planned at all :D'
p1092
aS'I LOVE CLEANING!'
p1093
aS'I say half the shit no one says including Twilight movies were way better \nthan the books and yes, traffic!'
p1094
aS'YES! OH MY GAWD! Beeuhhh... weeEEP'
p1095
aS'woops i mean big sean'
p1096
aS'sh*t teehee says Teehee Teehee Teeeeeeeeeeeeeeeeeehee'
p1097
aS'im actually a scary monster poppin this sprite in frilly pants'
p1098
aS'lol the ludacris one! '
p1099
aS'I love going to school and do homework'
p1100
aS"My Dad DOES say 'I really want to go to South Dakota'. :/ oops!"
p1101
aS'Bananas are animate...'
p1102
aS'The big sean one tho lol'
p1103
aS"I'm from the UAE ,and i love your videos Ryan ! "
p1104
aS'bb>>>iPhone'
p1105
aS'0:50 I thought my fire alarm went off. lol'
p1106
aS'Did anyome notice that the controller did not have the batteries'
p1107
aS'OMG that gay vampire was so funny XD'
p1108
aS"What's in (or not) in South Dakota??? O.o (sry, I'm not American) "
p1109
aS"Hey!!! I DO love cleaning!! And I AM a somebody!! Well at last, that's what \nmy reflection in the mirror tells me..."
p1110
aS'It should of been lebron James clutch at the fourth quarter'
p1111
aS'i like the gay vampire'
p1112
aS"Lebron is not a Clutch, so that is why it's at Shit no one says."
p1113
aS'Gay vampire hahahaha'
p1114
aS'Srillex scary monsters 0:34'
p1115
aS'f*** u i live in SD. that was really offensive!'
p1116
aS'heeeeyyyyyyyy im from south dakota'
p1117
aS'I LUV THE GAY VAMPIRE!!!!!! '
p1118
aS"Gay vampireXD Oooh it's bright hee."
p1119
aS'1:22 XD'
p1120
aS"I'm from Jordan! Which city in the UAE? Dubai?"
p1121
aS"I didn't know gangsters wear sweat-shirts with moose on them... XD"
p1122
aS"You guys in Vegas? It looks like the guy's infront of the 215 freeway where \nFry's Electronics and Town Square is. OoOoO"
p1123
aS"most don't though...it's compulsive, most of the time they have no control \nover it.... trust me, it's awfu. "
p1124
aS'Best part at 1:15'
p1125
aS"DON'T YOU CUT ME OFF"
p1126
aS'a banana lol'
p1127
aS'Sh*t no one says? More like Sh*t sarcastic people say '
p1128
aS'I lost it at sh*t sh*t says XDD'
p1129
aS"Why don't you just shut up?"
p1130
aS'dear ryan, can you get drunk?'
p1131
aS'lololol at 1:17'
p1132
aS'ryan!!!!!!! make more new videos!!!!!!!!!! '
p1133
aS'skrillex'
p1134
aS'My dad reckons Siri is always right. :P'
p1135
aS'What gangstars say: teeeeeeeeeeeeeeeee'
p1136
aS'true true i cant disagree.'
p1137
aS'Haha, everbody loves unicorns. They fart rainbow skittles.'
p1138
aS'When he said the Hood his voice was so deep Lmao'
p1139
aS'LOL the gay vampire thing made me laugh so hard.'
p1140
aS'A banana!'
p1141
aS'2:31 what bill?'
p1142
aS"Actually i love traffic when I'm riding the bus to school."
p1143
aS'"OhmyGod, ohmyGod, ohmyGod. Ohhh my God.... Yeah! OH my God!" *Dubstep* Lol \nRyan :D'
p1144
aS'0:33 Maxstep??'
p1145
aS"sh*t nobody says: youtube comments are so kind when i grow up i wanna be a \nhomeless person I'm on myspace"
p1146
aS"A Baniana x) ahaha........ 1:10 (lov'it) "
p1147
aS'i said teehee before the last one '
p1148
aS'LOL. THE GAY VAMPIRE!:,D'
p1149
aS'South dakotas the best! Found like $50 in raw gold. Cant complain.'
p1150
aS'scary monsters and nice sprites- skrillex '
p1151
aS"In the beginning the Xbox controller doesn't even have a battery pack \nplugged in"
p1152
aS'BRILLIANT!!!'
p1153
aS'Snape was a good dude'
p1154
aS"shit gay vampires say: *gasp* it's bright ah.. LOL lost myself"
p1155
aS'Shit gay vampire says'
p1156
aS'this video should be titled: sh*t nigahiga says about sh*t ______ say'
p1157
aS'hahahaha, I love the Lebron one. shit cracked me up'
p1158
aS'I lost it at gay vampire.... Omg'
p1159
aS'banana :P '
p1160
aS'gay vampires and the banana xD'
p1161
aS'that doo! annoyed me so much'
p1162
aS'the dog is like wat the FU#K'
p1163
aS'I vacation in South Dakota every summer. Lol'
p1164
aS'Genius'
p1165
aS'Replay replay replay'
p1166
aS'\xef\xbd\xa1\xe2\x97\x95\xe2\x80\xbf\xe2\x80\xbf\xe2\x97\x95\xef\xbd\xa1'
p1167
aS'LOLOLOL! 2:39 ! im still dieing! !!!! XD ! ur the best ryan!'
p1168
aS'Im a banana!'
p1169
aS'Could someone explain the Lebron one to me? I wanna laugh too =('
p1170
aS"The last one TEEHEE x'D "
p1171
aS"I'm from south dakota (/.\\)"
p1172
aS"John green says he's happy unicorns dont exist :)"
p1173
aS'Lebron james.....clutch hahaha'
p1174
aS'I actually do wanna go to the hood'
p1175
aS'Lol the dog OMFG!!'
p1176
aS'Kidz-bob GENIUS'
p1177
aS'beep beep beep beep beep beep beep beep beep beep someone has the \niNavigater.'
p1178
aS"Lag is a big I did agree with you circuitboardgamer I won't lie I say it \ntoo but not as long as others"
p1179
aS'Hi Smosh. c:'
p1180
aS'Its funny because you tried and failed.'
p1181
aS'CX HOGWARTS FOR LIFE! <3'
p1182
aS'Non-alcoholic beer? Genius. Especially for underage dwarves. Being \ncompletely serious.'
p1183
aS'And in Jackson GA, too.'
p1184
aS'Scary Monsters and Nice Sprites at 0:30 XD.'
p1185
aS"It's funny because the last Twilight movie actually WAS better than the \nbook."
p1186
aS'I loved the gay vampire one!'
p1187
aS'LOL that dog...'
p1188
aS'"I LOVE CLEANING...!"'
p1189
aS'and lebron is clutch'
p1190
aS"Hahahaha x'D"
p1191
aS'lol you caught "Love" but you missed that you said tragic instead of \ntraffic? xD'
p1192
aS'LOL XD'
p1193
aS'higaaaaaaa hooo'
p1194
aS'oi I can talk 0_0'
p1195
aS'Am I in the hospital'
p1196
aS'I say I love cleaning :['
p1197
aS'the sunlight hhaa! '
p1198
aS'1:23 watch the dude in the back'
p1199
aS'oh my god!bum bum bum'
p1200
aS'1:22 my morning in a nutshell'
p1201
aS'Love*'
p1202
aS"You know where I want to go this summer? South Dakota. Lmfao being me in SD \nI'm like TRUE SHIT"
p1203
aS'3782 people use blackberries.'
p1204
aS"I couldn't breathe because it was so funny xD"
p1205
aS'dear ryan can you be harry potter?'
p1206
aS'lol I actually live tragic it gives you more time to listen to music in the \ncar >:3'
p1207
aS'Andrew garcias <3'
p1208
aS'I walk into my cat and trip over my dog, kiss a princess and turn into a \nfrog'
p1209
aS'lol luke walton is better than kobe bryant'
p1210
aS"OMG THAT'S THE BEST PART!"
p1211
aS'hey ya little poopsie woopsie coopsie woopsie doopsie woopsie boopsie \ncoopsie.......... WTF'
p1212
aS"I'm a banana lol"
p1213
aS'"I love cleaning!" that\'s so funny!!!!! '
p1214
aS'Soo much censorship during the gangsters'
p1215
aS'\xef\xbd\xa1\xe2\x97\x95\xe2\x80\xbf\xe2\x80\xbf\xe2\x97\x95\xef\xbd\xa1'
p1216
aS"Who's Justin Bieber hahahahaha that's hilarious"
p1217
aS'Siri is never right'
p1218
aS'whats that song at 0:32? '
p1219
aS'LeBron James clutch'
p1220
aS'The dog one was funny as heck!'
p1221
aS'I love the dog. Person: hiya whoopsie, boopsie, coopsie, boobsie, doobsie, \ncoopsie, boopsie, coopsie. Dog: What The Fuck?'
p1222
aS'Marley, "WTF"'
p1223
aS'1:30 BEST PART OF THE VIDEO'
p1224
aS'Pause at 1:33'
p1225
aS'Not even gona bother lol'
p1226
aS"It's trying to communicate guys."
p1227
aS'Sad moment when you line in South Dakota :('
p1228
aS'But not in North America'
p1229
aS'oh flat tire :D lol'
p1230
aS'That is actually how I clean.'
p1231
aS'Marley, watch ur language!'
p1232
aS"I hate these comments, and nigahiga posts regular weekly content which are \nall nice but I wish this standard. I know it's hard work, and he has a \nlife, but these videos are the most original and funniest"
p1233
aS'ooooh that was good bro.'
p1234
aS'My mom actually says she loves cleaning... TEEHEE!'
p1235
aS'the gay vampire was funny. :P'
p1236
aS'Lol'
p1237
aS'Gay vamourw lol'
p1238
aS'at Sh*t Gangsters Say, all i could hear was *beep*'
p1239
aS'Kids Bop? Genius!'
p1240
aS'Dear Ryan, eat poo. its gud 4 u'
p1241
aS'my dog cussed at me before cause i said hewwo mouses wouses padoses \nmapoopsie'
p1242
aS'The gay vampire was hiliarious!'
p1243
aS'I ran into chester see and andrew garcia at a cafe today they are so \nnice!!!!!!!!!!!!!!!! so now im going back to watch all their videos c: '
p1244
aS'SHIT SHIT SAYS!!!'
p1245
aS'\xe2\x98\xba '
p1246
aS'that is possible because of the wire that is connected to it'
p1247
aS'BEEEEEEEEEEEEEEEEEEEeeeeeeeeeeeeeeeeee'
p1248
aS'0:16 there is no battery pack in the controller but the wire is on ;p lol'
p1249
aS'\xe2\x98\xba\xe2\x98\xba '
p1250
aS"DAT'S when i realized!..snape a good dude! XD"
p1251
aS"I'm a bananna!"
p1252
aS'Lol! Hes lookn at a calender wen hes on the toilet'
p1253
aS'i love the gay vampire part... '
p1254
aS'Ryan is annoying and not funny...said no one EVER!'
p1255
aS' dear ryan, you should make a video about growing up in the hood '
p1256
aS'1:00-1:07 Hogwarts for life!'
p1257
aS"I'm from South Dakotab ;("
p1258
aS'You should first consider going to school.'
p1259
aS'shit shit says!'
p1260
aS'"That\'s when i realized... Snape were good too!"'
p1261
aS'i like the gsmgster one'
p1262
aS"Sh** gangsters say ... Ba ha ha ha ha can't stop laughing"
p1263
aS'coopsie c:'
p1264
aS'clementine did you survive the zombie apocalypse '
p1265
aS'Thats soke funny shit with the dog and banana'
p1266
aS'lebron James clutch'
p1267
aS"LOL Luke Walton! Before when I used to play NBA 2k10 with my brother, he'd \ndo anything to get him off the lakers! He even released him to the free \nagency! LOL He hates him!"
p1268
aS'"You know where I want to go this summer? The DMV" hahaha I died laughing.'
p1269
aS'1:07 to 1:21 all u need to see'
p1270
aS"1:32 it's bright! "
p1271
aS'lol gay vampire'
p1272
aS'Is that Andrew Garcia'
p1273
aS'wow i just realized i say everything on the sh*t gamers say section'
p1274
aS'dont you mean spread that "sh*t" that was the whole point of the video'
p1275
aS'aghahghh'
p1276
aS'Dear Ryan: Have you tasted the rainbow?'
p1277
aS'"wtf~" '
p1278
aS'gtfo'
p1279
aS"Who's Justin Bieber?"
p1280
aS"That's when I realized... snape was a gay dude.He was trying to rape Harry \nPotter the whole time."
p1281
aS"Why are you here shouldn't you be training for the Grand magic games? go on \nshoooo!!11"
p1282
aS'Lebron James...? Clutch. Lmao...!'
p1283
aS'1:32 hahahahahaha'
p1284
aS"Shit No One Says : Who's Justin Bieber hahaha"
p1285
aS'I do the omg omg omgggggg'
p1286
aS'yolo swag XD'
p1287
aS'LMAO!!!!'
p1288
aS'lol to funny'
p1289
aS'I went to South Dakota once for the summer...... XD'
p1290
aS'I love staying up all night when i have school the next day!'
p1291
aS'lol '
p1292
aS'see the person behind Ryan (Idk the name of him) !'
p1293
aS'Sh*t dogs say:'
p1294
aS'I loved the vampire bit! haha hilarious oh my gad'
p1295
aS'1:14 HAHAHAH'
p1296
aS"Shit no one says: No I don't want to go on Facebook, I prefer Myspace"
p1297
aS'lol '
p1298
aS"Sorry, I'm a Potterhead and love the Harry Potter reference!"
p1299
aS'Guy: Hey there little poopsi woopsi koopsi doopsi woopsi Dog: WHAT THE \nFU... O_o. LMAO'
p1300
aS'Lol, "Siri you\'re always right" :)'
p1301
aS'why the hell are gangstas posed as ppl benching weights, staying fit?? aint \nthey supposed to be out to no good somewhere else!'
p1302
aS"Sh*t gangsters say was SO true!!! I couldn't stop laughing!!!!!!!"
p1303
aS'The hood \xc2\xba-\xc2\xba'
p1304
aS'Why do u cuz so much'
p1305
aS'That dog every time...'
p1306
aS'not an alcaholick beer? genious XD XD LOL '
p1307
aS'Shit Gamers say ~ Fucking Lag ! -.-ttt'
p1308
aS'Mapoti'
p1309
aS'How about a whole video where u talk like a Canadian'
p1310
aS'sh*t no one says: Omg i hate nigahiga! '
p1311
aS'1:31'
p1312
aS'"shit shit say" I LAUGHED SO HARD AT THE SOUND DAGNAMMIT'
p1313
aS'Who is Justin Bieber?'
p1314
aS"It's very nice to meet you no one."
p1315
aS"Omg it's Mike Chang!"
p1316
aS'You know what I did, I walked. '
p1317
aS'Laughed so hard at 01:31 :D'
p1318
aS'Watching the Gangster one,was like watching Muary!'
p1319
aS'"stuff Big Sean sounds like he saying" I died watching it'
p1320
aS'0:47'
p1321
aS'Lebron James clutch I almost cried I was litteraly ROFL'
p1322
aS"I'm a banana!"
p1323
aS'1:15 best part DOG: WTF?????? '
p1324
aS'A person who tried to turn "apples" into a top comment!? What about... \nAPPLES x2!! O:'
p1325
aS'its bright ahh'
p1326
aS'Ive heard a dog talk'
p1327
aS'A bananaa'
p1328
aS'When the moment i heard marley say "da fuck" i laughed my ass off!!!!!!'
p1329
aS'Please die, and take "your late" bullshit with you. '
p1330
aS'they workout with jeans o.O '
p1331
aS'the kobe one is the best'
p1332
aS'Hey if you love cleaning will you come to my house and help thanks!!!'
p1333
aS'That my brother the gamer i need to kick him out of my house'
p1334
aS'shane dawson did the exakt same thing '
p1335
aS"0:38 i didn't know they were talking about harry potter until now aha"
p1336
aS'Marley "I can talk" lol '
p1337
aS'HAHA lebron james clutch!'
p1338
aS'crap crap crap crap WHY IS THERE NO SOUND?!'
p1339
aS'Scary monsters and Nice sprites. Nice.'
p1340
aS'Andrew is hilarious'
p1341
aS'your videos are awesome! super funny i laugh everytime'
p1342
aS"I had to pause it when he said and then I realized Snape was looking out \nfor harry the whole time. Hogwarts that's what's up lol"
p1343
aS"Andrew in the background while Ryan's imitating big Sean. Loooolll"
p1344
aS'Sooo true, no one ever says LeBron is clutch (: '
p1345
aS'Dear Ryan, also can u make a tutorial about how to do the waltz?'
p1346
aS'0:50 l0000l'
p1347
aS"I live in South Dakota..... :'("
p1348
aS'Do another one of these'
p1349
aS'i like the part when the dog was like what the f**k'
p1350
aS'sh*t gansters say was funny as BEEP Why did i get cut off i said heck'
p1351
aS'Lol shit big Sean sounds like he is saying'
p1352
aS'I lost it at the dog'
p1353
aS'shit MAPOTI say.'
p1354
aS'This is Brilliant I tell you!! BRILLLLLANT!!!!!!! tee-hee ^_^'
p1355
aS'sh*t dogs say '
p1356
aS"It's bright. Ha ha"
p1357
aS'sh*t sh*t say !'
p1358
aS'Mk mujik oouuuiilp P'
p1359
aS'The last one sounded more sarcastic than it meant to say...'
p1360
aS'I agree with 2:26. Kidz Bop is anything BUT genious'
p1361
aS'I honestly love cold toilet seats.'
p1362
aS'Im a BANANA'
p1363
aS"Lol South Dakota huhhhh.... That's where I live AWKWARD"
p1364
aS'Lol 1:32'
p1365
aS'oh no i say teehee everywhere i dont have a good ending why world why Dx Dx'
p1366
aS'at one point while watching this vid....i culdnt breathe XD'
p1367
aS'XDLOLOLOLOL'
p1368
aS'TEEHEE'
p1369
aS'When you live in South Dakota...'
p1370
aS'2:46 WHO?'
p1371
aS'bad'
p1372
aS'Poopsie-whoopsie-tootsie-rips,cjris'
p1373
aS'Is that Andrew Garcia ?'
p1374
aS'A banana:D'
p1375
aS'Sh*t gay vampires say, "My name is Edward Cullen."'
p1376
aS'0:52 XD'
p1377
aS'I belive that thats what some girls do, makes stupid nick names'
p1378
aS'Shut up Julian karam'
p1379
aS'Thats when I realized...Snape was a good dude. He was looking out for Harry \nPotter the whole time. Hahaha xD'
p1380
aS"Love it! Ryan's voice at 1:58 is soo hot! <3 he is so cute!!!"
p1381
aS'u sir made me poop'
p1382
aS'Cold toilet seat is better than a warm one.'
p1383
aS'I think Jersey Shore is educational.... o.0'
p1384
aS"Unicorns don't exist .... Wahhhhhh my whole life is a life !!!!"
p1385
aS'loved it until they dissed lebron -.-'
p1386
aS"its been a long time since Andrew's been in your videos! "
p1387
aS"*gasp* it's..bright.."
p1388
aS'1:20 was the best part hahaha'
p1389
aS'Guess who has a flat tire :)'
p1390
aS'I think jersey shore is educational lol'
p1391
aS'Shit you sucks shut the fuck up'
p1392
aS'the gay vampire hahaha'
p1393
aS'im eating a hot pocket right now :D lol'
p1394
aS'i actually love traffic'
p1395
aS'HOGWARTS FOR LIFE!'
p1396
aS"you're not funny."
p1397
aS'and thats when i realized SNAPES A GOOD DUDE he was watching out for harry \npotter the entire time HOGWARTS FOR LIFE'
p1398
aS"lol when you did shit games say my bro does all the same things and he's \nthe biggest gamer lol"
p1399
aS'do you even lift bro lmfa'
p1400
aS"this video cam out a year ago... and i'm just now realizing that the \ngangsters were talking about harry potter"
p1401
aS'SKRILLEX!!!!!!!!!!'
p1402
aS'Dude: Hey there woopsy doopy toopsy roopsy Dog: What the F***? BEST PART'
p1403
aS'sh*t gay vampires say was hilarious'
p1404
aS'you really want to know where i wanna go this summer where da hood lol'
p1405
aS'"You know where i really wanna go this summer....where..The Hood" LMFAO I \ndied'
p1406
aS'Smosh!'
p1407
aS"I live in South Dakota....it's not that bad really XD"
p1408
aS'LOL 2:50 '
p1409
aS'I used to like traffic in the morning when I was on my way to school.. c:'
p1410
aS'lebron james... clutch'
p1411
aS'omg i cried laughing!!!! hahahahaha this is goin in my favs'
p1412
aS'is Andrew bi-sexual?'
p1413
aS'Omg I love traffic lol'
p1414
aS'1:32 ..that caught me off guard XD'
p1415
aS'hahaha I just love this so much hahah '
p1416
aS"that's when i realized snape a good dude he was looking out for harry \npotter da whole time! "
p1417
aS'Shit double underscore say'
p1418
aS"I guess I'm No One, because I actually do want to go to South Dakota this \nsummer. xP"
p1419
aS'1:20 thats so true'
p1420
aS"That moment when I laugh at Ryan's South Dakota joke and then I realize.... \nI live in South Dakota."
p1421
aS'ya but i aint no rat or nothin so i wont snitch on his ass'
p1422
aS'"That\'s when I realized, Snape a good dude, he was looking out fo Harry \nPotter the whole time!" "That\'s whassup man!" *high five*'
p1423
aS'"You know who\'s better than Kobe Bryant? Luke Walton" LOL'
p1424
aS'The whole time during the gangster part they were talking about Harry \npotter :D'
p1425
aS'I replayed the gay vampire 5 times lolz'
p1426
aS'lol 1:20 '
p1427
aS'shit no one says "Whose Justin Bieber?" Bitch please ...Ozzy Osbourne '
p1428
aS'I liked the gay vampire'
p1429
aS'A bannanna Lol'
p1430
aS"Lebron James 'clutch' lool"
p1431
aS'how about a hot toilet seat so your ASS would end up like fried chicken '
p1432
aS'Sh*t gay vampire says trolololololol'
p1433
aS'For the gamers one you forgot hitmarker'
p1434
aS'its funny how in the gamers part their controllers have no batteries xD'
p1435
aS'I love the due step part xD I love tht song.'
p1436
aS'The hood.'
p1437
aS'this my fav niga higa vid'
p1438
aS'I actually do say blackberries do waay more than iphones'
p1439
aS'fuck off '
p1440
aS'1:15 hahahaha what da.. '
p1441
aS'Pls do more videos like *nice guys*!!! :) '
p1442
aS'Gay vampire!!! :DD ahahahaha'
p1443
aS'1:23 what is the guy doing in the back? LOL!'
p1444
aS'Gay vampire killed me'
p1445
aS'"its bright haa" lmfao dead'
p1446
aS'A banana. ^-^'
p1447
aS'im a banana '
p1448
aS'Lebron James? *serious stare* CLUTCH. brb dying. XD'
p1449
aS'0:33 whats that song?'
p1450
aS'lol shit '
p1451
aS'Lebron James....Clutch'
p1452
aS'/watch?v=r0hfg1htnM4 Proof that someone actually said that which you said \nno one ever says ever never ever never... wiiioioiooo...'
p1453
aS'i actually like traffic'
p1454
aS'Skrillex lol'
p1455
aS'the gamer is very true'
p1456
aS"I'm with you o.o"
p1457
aS'BACK OUT BACK OUT... BACK IN BACK IN! '
p1458
aS'the shit gamers say bit is true'
p1459
aS'1:20 HAAAA!!! LOLOLOLOLOLOLOLOLOLOLOL NIGA DAZ FUNNEH..... o.e'
p1460
aS"*gasp* It's bright..."
p1461
aS'A BANANA!! lol'
p1462
aS'they are plugged in.'
p1463
aS'k babe ill see u later...who is that?.....my mom lol'
p1464
aS'1:30 That sounds about right xD'
p1465
aS'I am a cheese '
p1466
aS'South Dakota might just prove you wrong. '
p1467
aS'I go to South Dakota every summer...ouch.'
p1468
aS'i think jersey shore is edecational lol'
p1469
aS'I ALMOST DIED AT SHIT SHIT SAYS OMFG'
p1470
aS'Sunlight!! GAAAHH!!!! :D'
p1471
aS"I'm a banana!!"
p1472
aS'1:32 lol'
p1473
aS'MAPOTI!'
p1474
aS'YOU SAID "YOU ARE GLAD THAT UNICORNS DONT EXIST!" I AM ASHAMED!!! >:O'
p1475
aS'Oh I can talk! '
p1476
aS'No batteries in remote 0:17 lol'
p1477
aS'lls luke walton'
p1478
aS'LOL That was SO funny!'
p1479
aS"I'm so glad unicorns don't exist!"
p1480
aS'omg omg omg omg omg omg "i walk into my cat and trip over my dog kiss a \nprincess turn into a frog" i love it i love it i love it i love it i love \nit and i luv u ur fucking funny man!'
p1481
aS'That Fat Guy is Cute'
p1482
aS'Lebron James is Clutch'
p1483
aS"If you call passing to Allen/Battier or even Udonis Haslem clutch, then \nyeah, he's clutch, But please Kobe Bean Bryant is the epitome of clutch."
p1484
aS"You must hail satan, and hate 'MURICA."
p1485
aS'OH MY GOD WHAT ARE THE ODDS WE JUST WATCHED THE SAME VIDEO'
p1486
aS'Am I the only one that noticed that the gamers controller had no batteries?'
p1487
aS'U no wats cool? We have the same name but ur a boy'
p1488
aS'A BANANA...LOL '
p1489
aS'Hahahahahaha shit gay vampire says'
p1490
aS'0:54 R.I,P headphone users'
p1491
aS'I AM HAPPY THAT UNICORNS DONT EXIST i hate horses and i dont like shark \nshit so unicorns are the hell for me \xc3\x96.\xc3\x96'
p1492
aS'Sh*t NO ONE Says "Who\'s Justin Bieber?" ha so true <3'
p1493
aS'HARRY POTTER REFERENCE IN THERE OMGOMG OMG OMG OMGOMG'
p1494
aS'1:30 i just about died'
p1495
aS"YOU'RE DEAD TO ME o\xe2\x96\xb2o"
p1496
aS'this was good intill he dised lebron :('
p1497
aS'shit every one say teheeeeeeee'
p1498
aS'so u want ur ass to get cold? .-.'
p1499
aS'fuck you insulting blackberry '
p1500
aS'Press 5 have fun:D'
p1501
aS'TEEEEEEEEHEEEEEEEE! '
p1502
aS"Some people actually say: Who's justin beiber Blackberries are better "
p1503
aS'Sh*t Big Sean Sounds Like He\'s Saying- \'I walk into my cat and trip over my \ndog Kiss a princess, turn into a frog" :D'
p1504
aS'Oh my god YES traffic!!!'
p1505
aS'Thats a great gangsta moose sweater '
p1506
aS'Okay Ryan, that Skrillex bit got me. XD'
p1507
aS'LeBron James... clutch! Oh god, love that one.'
p1508
aS'They Gay Vampire!!!! Hilarious!!! '
p1509
aS'My juice spilled cuz I focused to much on the vid.But I DONT CARE AHAHAHAH \nlol'
p1510
aS'-_-'
p1511
aS"hahhaa the part with the dog... I'm like that with my cats xD"
p1512
aS"Yeah cause passing to Allen, Battier, or Haslem is what wins games. No it \nisn't! LeBron wins nearly every game for the Heat! MVP, NBA champion, \nfinals MVP, and Olympic Gold Medalist just to recap last season. This \nseason? You can chalk those first three up already."
p1513
aS'well....do you always like a warm toilet seat for example on a public \ntoilet ..? yause i think warm toilet seats in public toilet are really \nsuspecious xD'
p1514
aS'Cute dog!! ^^'
p1515
aS'Lollolololollollololololololololololololoo'
p1516
aS'Laughed my ass off at gay vampire scene lol'
p1517
aS"I don't know which channel is funnier, smosh or nigahiga?"
p1518
aS'turn on captions, and enjoy'
p1519
aS'When this video first came out, wasn\'t there an "emo vampire" scene?'
p1520
aS'LOL that shit sound xD'
p1521
aS'1:14 i lol so hard '
p1522
aS'skrillex '
p1523
aS'*a banana* xDDD'
p1524
aS'thumbs up if u noticed that there was no back to the controller'
p1525
aS'who the fucks justin beaver- a quote from ossey osborne'
p1526
aS'Bcx'
p1527
aS'Best video from u'
p1528
aS'i laughed at "im a banana"'
p1529
aS'RANDOM SKRILLEX'
p1530
aS'lol '
p1531
aS'like this comment if you have ever done that to a dog '
p1532
aS'love this video...my fav of urs ryan'
p1533
aS'The gay vampire!!! Gold!!'
p1534
aS'Woah its been a year since he posted this .-.'
p1535
aS'Is it just me or is there something new in this video'
p1536
aS'My car over heats so I do say i love red lights. They give me the cool down \ntime I need when I shut off my car Tee Hee.'
p1537
aS'1:19 :DDD'
p1538
aS'XD "This Motherfucker was like fuck you".'
p1539
aS'1:30 thehhhe'
p1540
aS'the funniest part wss big sean and the ywo vampires'
p1541
aS'1:19 DAFUQ LOL'
p1542
aS'Dude yu should make a vid of Shit what teachers say :P'
p1543
aS'that dog bit fucked me'
p1544
aS'dont take the words of'
p1545
aS'2:28 I TOTALLY AGREE!! XD'
p1546
aS'0:38-1.09 OH MY "beeeeeeeeeeeeeeeeeeeeep"! '
p1547
aS'I almost when crazy when he said Lebron James clutch'
p1548
aS"am i the only one who absolutely lost it when marley was like 'what the \nfuuu' ? "
p1549
aS'i fucking lost when he said "im a banana"'
p1550
aS'Congrats, you know a song!!'
p1551
aS"I'm a niana"
p1552
aS'@Kaisa Blaad o'
p1553
aS'Hey Little poopsy, whoopsy, toopsy, whoopsy, doopsy, coopsy, boopsy, \nwhoopsy!'
p1554
aS'The gamers made my palm'
p1555
aS'Its Bright.. Ahh... LMAO'
p1556
aS'i think jersey shores educational. I almost died'
p1557
aS'the best one was the sh*t one'
p1558
aS'omg the gay vampire...Bahaha'
p1559
aS'Lebron James clutch is funny'
p1560
aS'I love cleaning because I have OCD. So... :/'
p1561
aS'and before that it was about hogwarts professers and death eaters "Oh you \nfrom that gang. I dont care you have a snake tatoo!" '
p1562
aS'Marley: i can talk.'
p1563
aS'My little poopsy woopsy doopsey What the fuuu Hahaha'
p1564
aS'Sh#t sh#t says: doip'
p1565
aS"It isn't even summer yet and it is really hot ...IN SOUTH DAKOTA! It was 90 \ndegrees"
p1566
aS'"OMG yes I LOVE traffic" I said that on the bus going to school... a lot. \nLOL '
p1567
aS'Haha I LOVE the gay vampire! "Oh its bright hiss." *says in gay voice*'
p1568
aS'*sniff* i live in south dakota'
p1569
aS'love the faces of that guy!!! the guy form: TAMMM TAMMM TAMMM'
p1570
aS"Haha when it says shit people say when they don't have an ending for a \nvideo I said teehee at the same time as the video"
p1571
aS'Snape was a good dude'
p1572
aS'hey I live in the DMV and I just want to say...your completely right'
p1573
aS'beep beep beep beep beep'
p1574
aS"All those words u=you said for S*it gamer's say i always say on Call Of \nDuty."
p1575
aS'"The sssunlight, *Hiss*" "*gasp* Sunlight. *hiss*" -Trauma Tize'
p1576
aS'Hahahahahaha! Lmao hilarious'
p1577
aS"#ThatExplainsWhyYou'reSoShallow Go fuck yourself, and have fun with those \ndeath mails. "
p1578
aS'i almost died of laughter at the big sean thing '
p1579
aS'Actually... A decent number of "Sh*t No one says", I\'ve actually heard \npeople say... :/'
p1580
aS'no weights'
p1581
aS'why u gotta be so rude bitch! '
p1582
aS'Are you... are you retarded? Why the hell do you think it was plugged in \ndumbass.'
p1583
aS'MAPOTI'
p1584
aS'1:11 xD'
p1585
aS'Lmbo @ the Big Sean part!'
p1586
aS'Am I the only one who has never heard of a shit ___ say?'
p1587
aS'The hood'
p1588
aS'andrew is funny as a diva'
p1589
aS'TEE A HEE'
p1590
aS'there were no weights on the benchpress haha'
p1591
aS'2:49 funniest thing ever'
p1592
aS'LeBron James clutch !!'
p1593
aS'Only the last one was funny'
p1594
aS'1:31. Oh my god, that was just GREAT. xD'
p1595
aS'Hahaha'
p1596
aS'best ending evar'
p1597
aS"Made laugh so hard that I couldn't breathe for a minute. "
p1598
aS'Big Sean lmao'
p1599
aS'Lmfao'
p1600
aS'haha 1:43 xDD'
p1601
aS' Skrillex Reference at 0:32 xD'
p1602
aS'As a gamer, I liked the gamer part.'
p1603
aS'1:12 acually'
p1604
aS'Little poopsie coopsie woopsie doopsie poopsie...'
p1605
aS'LOL 1:42 ROFL'
p1606
aS'lol sht gay vampiers say xd best'
p1607
aS'gay vampire is the best'
p1608
aS'gay vampire lol omg im daed'
p1609
aS'I LOVE CLEANING!!!! Lol'
p1610
aS'MAPOTI SAYING MAPOTI.'
p1611
aS'Hogwarts for life <3'
p1612
aS'1:14 lmao'
p1613
aS'do you know what i actullay like to clean'
p1614
aS'Lebron James Clutch!!! hahaha'
p1615
aS'"The sunlight!" That sounds familiar.'
p1616
aS"lol in the gamer part, the batteries weren't even in 0:23"
p1617
aS"Who's the MAPOTI now? "
p1618
aS"1:24 ANTHONY PADILLA'S JACKET!"
p1619
aS'LeBron James. Clutch lol'
p1620
aS'Hi'
p1621
aS'0:51 when the party starts'
p1622
aS'Oops I ment what the fu-?'
p1623
aS'He should have said, " You wanna know who is better than Kobe Bryant? Brian \nScalabrini.'
p1624
aS'Sh*t gamers say, I hear those sentence every freaking day! My little \nbrother has a PS3 and he is addicted to Call of Duty. "Oh my god, you \nfucking camper!" -_-"'
p1625
aS"Well apparently I'm not the only one who didn't see it considering how many \nnegative votes you got....and you're joke sucked ass anyways."
p1626
aS'same here'
p1627
aS'@MrsKatrina1983 i live here....... stay were you are its sucks so bad in SD'
p1628
aS'hahahah clutch '
p1629
aS'*gasp* a banana !'
p1630
aS'LOL LUKE WALTON'
p1631
aS'The gay vampire... DEAD loooooooooool'
p1632
aS'hahaha "The Hood" (:'
p1633
aS'hey you little woopsy doopsy boopsy koopsy wootsy '
p1634
aS'1:23 CHECK OUT THE RIGHT SIDE OF THE SCREEN'
p1635
aS'Mom! Bring me a Hotpocket!'
p1636
aS'h*t ___ Say'
p1637
aS"Sh't nigahiga says: teehee"
p1638
aS"don't use suicide grip :( "
p1639
aS'1:32 =))))'
p1640
aS"0:26 THAT'S WHAT SHE SAID!!!!!"
p1641
aS'I actually like cold toilet seat, feels cleaner.'
p1642
aS'I want to go to the dmv this summer so I can get my license.... '
p1643
aS'Biatches say what'
p1644
aS'cutie :)'
p1645
aS'he just disrespected the king D: '
p1646
aS'The gay vampire was the best!!! :D'
p1647
aS"I don't care if your a teacher your still going to get it \nmother******....... My favorite part"
p1648
aS'LOL LEBRON JAMES "CLUTCH"'
p1649
aS'Qooqwhip touch mutch information'
p1650
aS'Hcnfffkhffgjjfsagdjgfshftthjbsgjffggdffgaycchdsfag'
p1651
aS'the gay vampire :)'
p1652
aS'Gay vampire laughed out louding'
p1653
aS'0:51 0:59 0_0 WTF?????????????'
p1654
aS'My mom actually had us go to south dakota for a vacation. I maintain that \nthere are no people in that stat. A lot of really cool nature, but no \npeople. '
p1655
aS'You are apart of the Mapoti.'
p1656
aS'"it\'s bright! haaa..." I died.'
p1657
aS"LMFAOO.x'D!"
p1658
aS'Lol Marley:Oh hey, I can talk!'
p1659
aS'Dear Ryan, Be awsome'
p1660
aS'Lebron James... clutch! "i never breathed threw my noise so hard"'
p1661
aS'The hood tho!? Lmfao'
p1662
aS'Check out my channel everyone'
p1663
aS'anyone notice he didnt actually have a battery in his controller '
p1664
aS'Skrillex'
p1665
aS"you make 'dear ryan-videos' yet ?"
p1666
aS'the gay vampire.. Xd'
p1667
aS'i am her daughter'
p1668
aS'Can u show us how u excersuze'
p1669
aS'Lol the gangster'
p1670
aS"It has the Xbox plug. I would know. Doesn't need batteries"
p1671
aS'Wow i just figured out that the gangster was talking about Harry Potter! :D '
p1672
aS'Lol the last one'
p1673
aS'Can you go without blinking while doing an episode about dumb cats!'
p1674
aS'sh*t that top comenters say '
p1675
aS"That's a lot of beeps"
p1676
aS'Skrillex'
p1677
aS'Sh*t Ryan says; TEEHEE! :,)'
p1678
aS'Ha I like the gamer dubstep part. I listen to dubstep when playing video \ngames, it makes it tons better '
p1679
aS'so true'
p1680
aS'no 0:32. spectrum right? the song?'
p1681
aS'lol man this dude is CLASSIC. funny ass video lol'
p1682
aS'I laughed so hard on the dog XD'
p1683
aS'HAHAHA CLUTCH.'
p1684
aS'DOINK!'
p1685
aS"I don't think they're real people, whoever's controlling the virus is \nposting these comments. Just ignore them."
p1686
aS'The last 1. xD'
p1687
aS'WHAT THE FUCK IS WITH THESE COMMERCIAL COMMENTS? THEY ARE ALMOST \nEVERYWHERE! DO ONE CARES FOR YOUR OFFERS!'
p1688
aS'Lol! Shout out to the DMV!'
p1689
aS'1:31 =))))))))))) XDD'
p1690
aS'HOGWARTS for life, Owww'
p1691
aS'Oh god I laughed so hard haha '
p1692
aS"I laughed so hard at 1:12 and 1:20, I'M A BANANA! WHAT THE **** And When \nhe's like, Hey you little boopsy woopsy coopsy boopsy woopsy coopsy. XD"
p1693
aS'Lol!:) love your videos'
p1694
aS"hahahaha watch 1:14 you'll laugh so hard!!"
p1695
aS'sh*t gay say'
p1696
aS'I thought it was tommys theme'
p1697
aS"anyone else searched for '' ____ \xef\xbd\xa1\xe2\x97\x95\xe2\x80\xbf\xe2\x80\xbf\xe2\x97\x95\xef\xbd\xa1 '' and this came up?"
p1698
aS"...I'm a banana... I laughed SO HARD at that."
p1699
aS'o my god yes trefig hahahaha ryan higa you so funny '
p1700
aS'Skrillex - Scary monsters and nice sprites'
p1701
aS'I LOVED THE OH MY GOSH MOMENT'
p1702
aS'This was great'
p1703
aS'0:26 No battery pack for the controller?'
p1704
aS"WAH. I live in South Dakota, it's not that awful here!"
p1705
aS'Its plugged in.'
p1706
aS'I do love construction in the morning ! :D'
p1707
aS'that gay vampire! lol'
p1708
aS"Plus. people who get cut off say, MOTHER ****ER CUT ME OFF ONE MORE TIME \nI'LL GET OUT OF THIS CAR AND **** YOUR *** UP! *****!"
p1709
aS'omg i do that thing where i say "here you little boopsie doopsie goopsie \nfloopsie" :) lol '
p1710
aS'I have the same iPhone case a Ryan fuck yeah'
p1711
aS'Whats wrong with South Dakota? I wanna go there!'
p1712
aS'Hahaha vampire part'
p1713
aS"That's why I made a whole bunch more :)"
p1714
aS"My friend said who's Justin beiber? So my friends and I were like wait \nwhat????"
p1715
aS'he doesn`t have bateries lol'
p1716
aS"I like traffic when I don't wanna go somewhere......."
p1717
aS'Gangsta got a moose on his shirt'
p1718
aS'The music at 0:32 sounds so freaking familiar but I forgot where it came \nfrom >.< Does someone know?'
p1719
aS"Stop with this stupid MAPOTI thing because Ryan said it. If there were no \nannoying people on the internet, there wouldn't be an internet, am I right?"
p1720
aS'Lol he said so many curse words'
p1721
aS'Da hood'
p1722
aS'Hahaha "LeBron James... Clutch"'
p1723
aS'1:20 made me piss myself'
p1724
aS"Watch out man! He's gonna send his 'kr3w' on you!!!!"
p1725
aS"LOL 'a banana'"
p1726
aS"@Bakuj01 I'm from South Dakota too... even I don't want to stay here lol"
p1727
aS'Shit no one says hahahahahhaha lol'
p1728
aS'Did anyone else notice at 1:41 the guy was reading a calendar?'
p1729
aS"It's plugged in. It doesn't need one. "
p1730
aS'@Believeinlove4 *blank face* Still more emotion than kristen stewart.'
p1731
aS'what the hell?'
p1732
aS'__________ _________________'
p1733
aS'I made a video like this, check it out on my channel :)'
p1734
aS'AINT NOBODY GOT TIME FO THAT!!!! '
p1735
aS'I practically quote every line in this vid even gangster :O'
p1736
aS'lol I died laughing when he said "the hood."'
p1737
aS'Its bright ah *bites finger*'
p1738
aS':Justin Bieber is a musical genius'
p1739
aS'he did....'
p1740
aS"Did he just insult LBJ !!!! SH*T Lebron's fan say: Talk to the ring \nbabyyyyyyyyyyyy "
p1741
aS'sh*t no one says: I broke my nokia!'
p1742
aS'Jersey shore is so educational'
p1743
aS'Check out my sh*t nobody says video :)'
p1744
aS'XD'
p1745
aS'this guy in my school says he likes sweeping'
p1746
aS'does that mean... nobody wants to go to south dakota????'
p1747
aS"yeah, because it's lighter and more comfortable :)"
p1748
aS"this is getting old don't you think?"
p1749
aS'"Yeah! Oh my God!" *Dubstep* XD'
p1750
aS'No batterie packs'
p1751
aS'LMFAO THE GAY VAMPIRE THO'
p1752
aS'im a banana lol '
p1753
aS'LOL Andrew Garcia is hillarious!! XD'
p1754
aS'There is no battery pack'
p1755
aS'Sh*t'
p1756
aS'Lebron James...Clutch LOL!'
p1757
aS'Why are you offended? '
p1758
aS'cool free anthrax!'
p1759
aS'"Don\'t you cut me o-" *music* '
p1760
aS'Too many *peep*'
p1761
aS'Sh*t no one says: "Hey I like your Crocs!"'
p1762
aS'Dear Ryan: Battle Smosh'
p1763
aS"HOW CAN YOU BE HAPPY UNICORNS DON'T EXSIST???"
p1764
aS'I think jersey shore is educational Lol'
p1765
aS'Skrillex 0:33 :D'
p1766
aS'Ok. '
p1767
aS'LOL. Just relised this video was made on my bday last year..'
p1768
aS'Luke walton so true'
p1769
aS'0:32 skrillex scary monsters and nice sprites'
p1770
aS'is it awkward if you do like the toilet cold in the morning ? '
p1771
aS'Good job, you just broke one of the first laws kids learn on the Internet. \nHow dumb can you get?'
p1772
aS"0:24 and 0:26 is so true when you playing black ops 2 , and they be \ncamping, and when they kill you when they're on your team -_-"
p1773
aS'Lmfao. "Poopsie woopsie doopsie oopsie"...."what the fuck"'
p1774
aS'1:44'
p1775
aS"Sh*t gamers say... It's true"
p1776
aS'Love the NO ONE says >:3 dyin ;3'
p1777
aS'hey, u little woopsy toopsy doopsy, cupsy woopsy doopsy. dog: what the fuck \nLOL'
p1778
aS'Yah'
p1779
aS'Shit shit says "pling" hahaha'
p1780
aS'he did :D'
p1781
aS"As a South Dakotan, all I can say is.... I don't blame you."
p1782
aS"Ah Ryan you've created another great video yet again. Sweet :)"
p1783
aS'Mexican guy with glasses, (sorry, dont rememeber his name right now, dont \nhate me). Sounds like he has a stuffy nose, its so f*cking adorable. :3'
p1784
aS'Haha shit gay vampires say !!'
p1785
aS'Shit gangsters say had me crying laughing XD'
p1786
aS"I'm so happy unicorns don't exist!"
p1787
aS'When he said Yeah oh my god I thought about Skrillex'
p1788
aS'LOL this is my favorite video right now'
p1789
aS'OMG SOO FUNNY!!! i want to show the whole workd.. O wait..u did that \nalready..'
p1790
aS'Lol '
p1791
aS'tee hee'
p1792
aS'Dear Ryan, what is the Harlem shake???'
p1793
aS'1:20 '
p1794
aS'why are in ur PJs'
p1795
aS'YEAH OH MY GOD! *Skrillex Plays*'
p1796
aS'doesnt even have a back piece '
p1797
aS'what the fu-'
p1798
aS'omg wasnt expecting that @ 1:31-1:32 too funny and watched it two more times'
p1799
aS"1:30 that's Edward from twilight"
p1800
aS'and so he did.'
p1801
aS'Sh*t NO ONE says had me on the floor about to diee...'
p1802
aS'@TheFrysh *insert unnecessary boner joke*'
p1803
aS'Sh*t I say.'
p1804
aS'Lol Lebron James...clutch'
p1805
aS'You shouldve put in sh*t NO ONE says: Kristen Stewart is a good actress'
p1806
aS'Kidz Bop: Amazing.'
p1807
aS'NO ONE IS BETTER THAT KOBE BRYANT BITCH. SORRY ANGERMANAGMENT L.A.L. MOFO \nlmfAO'
p1808
aS'@TheFrysh'
p1809
aS'ILOVE THIS ONE because when they do the gangsters its so funny or when the \ndog goes wtf or the gay vampire I LOVE THIS VIEDO basically '
p1810
aS"That other guy's controller doesn't have a battery pack on thar xbox \ncontrolled."
p1811
aS"Didn't you notice that Andrew had no batteries in his joystick? :D"
p1812
aS'Question? Sorry for asking but is Andrew a homosexual ? Cause he always \nplays a homosexual person?'
p1813
aS'When I realized the gangsters were talking abt Harry potter'
p1814
aS'They buy likes... so it seems more realistic'
p1815
aS"I'm a banana lol"
p1816
aS'Funny how my dad said he wanted to go to South Dakota'
p1817
aS'Lebron James....Clutch hahah'
p1818
aS'1:32 lol soooo much !!!!! Hahahaha'
p1819
aS'I noticed the batteries were not in the controllers..'
p1820
aS'WtF '
p1821
aS'Ryan looks evil at 2:20'
p1822
aS'Shit says Ryan higa TEEHEE'
p1823
aS'How did you do that?'
p1824
aS'Andrews controller has no batteries'
p1825
aS'Playing without batteries'
p1826
aS'laughed my ass off at 0:33'
p1827
aS'Only one lamp in the whole vid....'
p1828
aS'HOGWARTS FOR LIFE!'
p1829
aS'Omg the shit shit say hahahah'
p1830
aS"Andrew garcias 'shit gangsters say' was HILARIOUS!"
p1831
aS'Shit elmo says. Oh that tickles'
p1832
aS'Yunno where I really wanna go this summer? The hood'
p1833
aS"It's bright... Hhh!"
p1834
aS'Love the gay vampire :D'
p1835
aS'Watched it like 10 times'
p1836
aS'MARLEY: DUFUQ!!!!!!'
p1837
aS'WHHOO HAS A FLAT TIIRRREEE *raises hand*'
p1838
aS"OMG!!! IM FROM SOUTH DAKOTA!! and it's true...no body likes it here.. :("
p1839
aS'Kids bop? Genius!'
p1840
aS'Yep XD'
p1841
aS'the harlem shake'
p1842
aS'then how do u no his name hehe '
p1843
aS'the fact that he used a Skrillex song in this video just makes me love him \neven more'
p1844
aS'LOL 1:20-1:28 xDD'
p1845
aS'Lebron james... CLUTCH. AHAHAHA brb dying'
p1846
aS'a banana'
p1847
aS'Cool'
p1848
aS'This is such a funny video xD I especially like the gay vampire and gangsta \n1 xD'
p1849
aS'Thx! Now i know how gay he is :D'
p1850
aS'I live in South Dakota'
p1851
aS'Thats when I realized.. Snape was good too! he was looking out for Harry \nPotter the whole time! ... '
p1852
aS'haha kids bop dosnt rock'
p1853
aS'benching the bar, intense haha'
p1854
aS'Skrillex approves of figurative12 year olds... It is proven'
p1855
aS"That's whats up, HOGWARTS 4LIFE!"
p1856
aS'Because in the video he said "Who\'s Justin Bieber?"'
p1857
aS"oh sh*t that's what she said"
p1858
aS'thats not what gamers say thats what douchebags says this is what gamers \nsay: "No mom one second i gotta save the kingdom of hyrule!"'
p1859
aS'1:19'
p1860
aS'well justin beiber is a gay homo'
p1861
aS'1:12'
p1862
aS'Every fucking video MGM!!!! FUUUUUCK YOOOOOOU!'
p1863
aS'its bright *gay scratch activate*'
p1864
aS'i mean 2:22'
p1865
aS'i have the EXACT same printer!'
p1866
aS'\xc5\xa0kr\xc3\xae\xc5\x82\xc5\x82\xc4\x99x'
p1867
aS'But... I like South Dakota...'
p1868
aS'sh*t gamers say: Can you hear me? I laughed so hard, it is so true!'
p1869
aS"hi my little poopsywoospydoopsycoopsyloopsy........I'm weak!"
p1870
aS'0 Dislikes!! '
p1871
aS'Sh*t comments say.'
p1872
aS'Why the fuck are you SO AWESOME? '
p1873
aS'No. Never do that again.'
p1874
aS'idk a Justin Beiber .. but i know a Justin Bieber! :) '
p1875
aS'0:00-0:34 i learned from living with a gamer, they actually say those \nthings '
p1876
aS'I thought the gay vampire would say "I love u bella". True story.'
p1877
aS'omg this was uploaded on my birthday last year omg <3'
p1878
aS'dog: oh I can talk!'
p1879
aS'Youtube should have a double subscribe!! seriously this guy is a genious'
p1880
aS'Lebron is clutch! I just said it. So go trip over a ladybug! Son of a ditch'
p1881
aS'Okay I love gays. ._. I really do.'
p1882
aS'I have a decent enough 5.1 surround sound with a nice-ish sound card. The \naudio is just sub par.'
p1883
aS'0:24 they barly had a battery in there controllers'
p1884
aS'Iol the dog one)hey you little....'
p1885
aS'0:49 must be some heavy weights..'
p1886
aS"And now, a summary of Sh*t Airsofters Say: Call your hits! F*ckin' jam! Can \nI borrow your speedloader? What's the FPS on your gun? Dude, I TOLD you to \ncall your f*ckin' hits!"
p1887
aS'Shit shit says, *bloop*'
p1888
aS'Actually Twilight Movies ARE way better than the books. The torture lasts \njust 2 h ^_^'
p1889
aS'i died when i at gangster part when he said " thats when i figured out \nsnape was watcing out for harry potter the hole time"'
p1890
aS'shit no one says was the best ha:D'
p1891
aS"I think that's still my favorite Higa video... "
p1892
aS'Hey there poopsee woops see koopsee Doopsee Koopsee! :) Dog: o_o.......What \ndah fu'
p1893
aS'0:24 - 0:26 thats what she said...'
p1894
aS"I'm a gamer and I un subbed because that's an asshole move"
p1895
aS"No seriously, who the hell is Justin Beiber? I've only heard of a Rustin \nHeiber"
p1896
aS'HOGWARTS FOR LIFE'
p1897
aS'Im sorry but . . . I cant believe i do but i like cleaning.... i am who i \nam and who i am likes cleaning. idk why'
p1898
aS'lebron james is a clutch player'
p1899
aS'something no one ses, justin beiber finally hit puberty.. lol'
p1900
aS'a banana! lmao'
p1901
aS'lol I find it so embarrassing wen my mom texts me more than my mates do lol \nxxx'
p1902
aS'So is he actually gay'
p1903
aS'banana, hey im yellow!'
p1904
aS'inanimate objects XD inanimate objects... they are always surrounding you \nO.O'
p1905
aS'what gang has snake tatoos? death eaters?'
p1906
aS'A banana'
p1907
aS'i love the dog "hey you litle coopsy woopsy doopsy boopsy coopsy boopsy \ndoopsy"'
p1908
aS'2:40 was offensive.... I live there XD'
p1909
aS'AND THATS WHEN I REALIZED snape a good dude. he was looking after harry \npotter the whole time THATS WHATS UP HOGWARTS FOR LIFE.'
p1910
aS'Lol the dog one'
p1911
aS'Dear Ryan, Can you play Minecraft?'
p1912
aS'You should have added this to your Sh*t NO ONE says: Oh yeah, just let me \ncheck my Myspace'
p1913
aS'Im mean genius. My bad'
p1914
aS'Lolz'
p1915
aS':52 hahahah'
p1916
aS'You know where I really want to go this summer The hood So fucking funny'
p1917
aS'Shits gay vampires says *its bright shh* \nHAHAHAAHAHAHAHAHAHAHAHAHAHAHAHAHAHAHAHAHAHAHAHAAHAHAHAHAHAHAHAHAHAHA'
p1918
aS'"Babe, I love talking to you on the phone for hours... ESPECIALLY when \nthere\'s silent pauses." *cringe*'
p1919
aS'just did.'
p1920
aS'Gamers also say "LAAAAAAGGGGGGGGGG!"'
p1921
aS"2:35 !'m from South Dakota! btw it's not that boring, try North Dakota."
p1922
aS"Lolol Gay Vapire Genius<3 i died hahaaah :'D"
p1923
aS'Guess where i wanna go this summer "Where?" South Dakota. Guess where i \nwanna go this sumemer? "Where?" The DMV. Guess where i wanna go this summer \n"Where?" The hood -_-'
p1924
aS'1:57 "OMG yes traffic"'
p1925
aS'"Whos Justin Bieber?" Ahaha'
p1926
aS"I'm from South Dakota and we have pretty good summers in my opinion. You \nshould come visit! :D"
p1927
aS'I actually like construction in the morning but if it was like right next \nto me house I hate it'
p1928
aS'"it\'s bright" grrr'
p1929
aS'lol i said WTF before the dog at 1:17 lol'
p1930
aS'Dear ryan, Can you survive the hunger games?'
p1931
aS'Lol 0:24 the battery pack is missing xD'
p1932
aS'oops sorry thougt you were a girl. just sayin'
p1933
aS'im a banana'
p1934
aS'* *s says LoLz u know where i really wanna go this summer? Where? serious \nface / gansta face n voice on: Da hoods'
p1935
aS'she is by best frend '
p1936
aS'dear ryan, please use a noise cancellation mic...'
p1937
aS'"who\'s Justin bieber?"'
p1938
aS'Lol sir'
p1939
aS'I would wish I might be like "Who is Justin Bieber?" so I can never know.'
p1940
aS'and anthony'
p1941
aS'I made my own version of this video!'
p1942
aS'@lionsoda : ytf means "yesterday - today - forever", which stands for the \nGroup of youtubers (nigahiga, Chester See etc.)'
p1943
aS'Love it when Marley says what the f... :)'
p1944
aS"2:47 SO DO I!! (when i'm not forced to do it)"
p1945
aS'I thought when it said shit gamers say I thought it said shit cameras say \nlol'
p1946
aS'I am going to the dmv thats in the hood at south dakota this summer. thank \nyou ryan! '
p1947
aS'Shit no one said!!!!'
p1948
aS'omg ian'
p1949
aS'"you know where i really want to go this summer?" where? "the hood" lol :\'D '
p1950
aS'The gay vampire'
p1951
aS'funny everytime..'
p1952
aS'Yes. Harry Potter fans ARE gangsters'
p1953
aS'\xcf\x9f\xc6\x98\xc6\xa6\xc6\x96\xd7\x9f\xd7\x9f\xce\xa3\xe2\x9c\x98 reference'
p1954
aS'lol'
p1955
aS"I love your videos with Andrew in them. He's so funny. :)"
p1956
aS'doubt it'
p1957
aS'OMG'
p1958
aS'LOLOLOLOLOL Harrypotter refrences'
p1959
aS'@Panda Power he just posted a vid like that your his star'
p1960
aS'18 times'
p1961
aS'Sh*t that Fujoshi say...'
p1962
aS'I died at 1:15'
p1963
aS'Haha lebron clutch. Like that will ever happen'
p1964
aS"Lmao!!!! I'm weak! Sh*t gay vampires say and Sh*t Sh*t say!!!"
p1965
aS'Hey, campers ARE annoying'
p1966
aS'Dear ryan , can u read minds'
p1967
aS'I like how the gamers dont have batteries in their controllers'
p1968
aS'I think Jersey Shore is educational'
p1969
aS'Gay vampires LOL I repeated it more than 12 times!!'
p1970
asS'time'
p1971
ctime
struct_time
p1972
((I2012
I1
I21
I23
I58
I29
I5
I21
I-1
t(dtRp1973
sS'id'
p1974
VXZTWOnnZKZ4
p1975
s.